
a.out:     file format elf32-littleriscv


Disassembly of section .text.init:

00000000 <_RELAX_END_>:
	...

00000080 <_start>:
  80:	0340006f          	jal	zero,b4 <reset_vector>

00000084 <trap_vector>:
  84:	00000f17          	auipc	t5,0x0
  88:	f7cf0f13          	addi	t5,t5,-132 # 0 <_RELAX_END_>
  8c:	000f0363          	beq	t5,zero,92 <trap_vector+0xe>
  90:	8f02                	c.jr	t5
  92:	34202f73          	csrrs	t5,mcause,zero
  96:	000f5363          	bge	t5,zero,9c <handle_exception>
  9a:	a009                	c.j	9c <handle_exception>

0000009c <handle_exception>:
  9c:	5391e193          	ori	gp,gp,1337

000000a0 <fail_handler>:
  a0:	0ff0000f          	fence	iorw,iorw
  a4:	e00802b7          	lui	t0,0xe0080
  a8:	01234337          	lui	t1,0x1234
  ac:	56930313          	addi	t1,t1,1385 # 1234569 <begin_signature+0x1233569>
  b0:	0062a023          	sw	t1,0(t0) # e0080000 <__start_addr+0x6007fff0>

000000b4 <reset_vector>:
  b4:	f1402573          	csrrs	a0,mhartid,zero
  b8:	00051063          	bne	a0,zero,b8 <reset_vector+0x4>
  bc:	00000297          	auipc	t0,0x0
  c0:	01028293          	addi	t0,t0,16 # cc <reset_vector+0x18>
  c4:	30529073          	csrrw	zero,mtvec,t0
  c8:	18005073          	csrrwi	zero,satp,0
  cc:	00000297          	auipc	t0,0x0
  d0:	02028293          	addi	t0,t0,32 # ec <reset_vector+0x38>
  d4:	30529073          	csrrw	zero,mtvec,t0
  d8:	800002b7          	lui	t0,0x80000
  dc:	fff28293          	addi	t0,t0,-1 # 7fffffff <__start_addr+0xffffffef>
  e0:	3b029073          	csrrw	zero,pmpaddr0,t0
  e4:	01f00293          	addi	t0,zero,31
  e8:	3a029073          	csrrw	zero,pmpcfg0,t0
  ec:	00000297          	auipc	t0,0x0
  f0:	01828293          	addi	t0,t0,24 # 104 <reset_vector+0x50>
  f4:	30529073          	csrrw	zero,mtvec,t0
  f8:	30205073          	csrrwi	zero,medeleg,0
  fc:	30305073          	csrrwi	zero,mideleg,0
 100:	30405073          	csrrwi	zero,mie,0
 104:	4181                	c.li	gp,0
 106:	00000297          	auipc	t0,0x0
 10a:	f7e28293          	addi	t0,t0,-130 # 84 <trap_vector>
 10e:	30529073          	csrrw	zero,mtvec,t0
 112:	30102573          	csrrs	a0,misa,zero
 116:	00055c63          	bge	a0,zero,12e <reset_vector+0x7a>
 11a:	0ff0000f          	fence	iorw,iorw
 11e:	e00802b7          	lui	t0,0xe0080
 122:	01234337          	lui	t1,0x1234
 126:	56830313          	addi	t1,t1,1384 # 1234568 <begin_signature+0x1233568>
 12a:	0062a023          	sw	t1,0(t0) # e0080000 <__start_addr+0x6007fff0>
 12e:	00000297          	auipc	t0,0x0
 132:	ed228293          	addi	t0,t0,-302 # 0 <_RELAX_END_>
 136:	00028e63          	beq	t0,zero,152 <reset_vector+0x9e>
 13a:	10529073          	csrrw	zero,stvec,t0
 13e:	0000b2b7          	lui	t0,0xb
 142:	10928293          	addi	t0,t0,265 # b109 <begin_signature+0xa109>
 146:	30229073          	csrrw	zero,medeleg,t0
 14a:	30202373          	csrrs	t1,medeleg,zero
 14e:	f46297e3          	bne	t0,t1,9c <handle_exception>
 152:	30005073          	csrrwi	zero,mstatus,0
 156:	557d                	c.li	a0,-1
 158:	3b051073          	csrrw	zero,pmpaddr0,a0
 15c:	3a0fd073          	csrrwi	zero,pmpcfg0,31
 160:	00000297          	auipc	t0,0x0
 164:	01428293          	addi	t0,t0,20 # 174 <test_2>
 168:	34129073          	csrrw	zero,mepc,t0
 16c:	f1402573          	csrrs	a0,mhartid,zero
 170:	30200073          	mret

00000174 <test_2>:
 174:	4085                	c.li	ra,1
 176:	4101                	c.li	sp,0
 178:	00209733          	sll	a4,ra,sp
 17c:	4e85                	c.li	t4,1
 17e:	4189                	c.li	gp,2
 180:	3fd71d63          	bne	a4,t4,57a <fail>

00000184 <test_3>:
 184:	4085                	c.li	ra,1
 186:	4105                	c.li	sp,1
 188:	00209733          	sll	a4,ra,sp
 18c:	4e89                	c.li	t4,2
 18e:	418d                	c.li	gp,3
 190:	3fd71563          	bne	a4,t4,57a <fail>

00000194 <test_4>:
 194:	4085                	c.li	ra,1
 196:	411d                	c.li	sp,7
 198:	00209733          	sll	a4,ra,sp
 19c:	08000e93          	addi	t4,zero,128
 1a0:	4191                	c.li	gp,4
 1a2:	3dd71c63          	bne	a4,t4,57a <fail>

000001a6 <test_5>:
 1a6:	4085                	c.li	ra,1
 1a8:	4139                	c.li	sp,14
 1aa:	00209733          	sll	a4,ra,sp
 1ae:	6e91                	c.lui	t4,0x4
 1b0:	4195                	c.li	gp,5
 1b2:	3dd71463          	bne	a4,t4,57a <fail>

000001b6 <test_6>:
 1b6:	4085                	c.li	ra,1
 1b8:	417d                	c.li	sp,31
 1ba:	00209733          	sll	a4,ra,sp
 1be:	80000eb7          	lui	t4,0x80000
 1c2:	4199                	c.li	gp,6
 1c4:	3bd71b63          	bne	a4,t4,57a <fail>

000001c8 <test_7>:
 1c8:	fff00093          	addi	ra,zero,-1
 1cc:	4101                	c.li	sp,0
 1ce:	00209733          	sll	a4,ra,sp
 1d2:	fff00e93          	addi	t4,zero,-1
 1d6:	419d                	c.li	gp,7
 1d8:	3bd71163          	bne	a4,t4,57a <fail>

000001dc <test_8>:
 1dc:	fff00093          	addi	ra,zero,-1
 1e0:	4105                	c.li	sp,1
 1e2:	00209733          	sll	a4,ra,sp
 1e6:	ffe00e93          	addi	t4,zero,-2
 1ea:	41a1                	c.li	gp,8
 1ec:	39d71763          	bne	a4,t4,57a <fail>

000001f0 <test_9>:
 1f0:	fff00093          	addi	ra,zero,-1
 1f4:	411d                	c.li	sp,7
 1f6:	00209733          	sll	a4,ra,sp
 1fa:	f8000e93          	addi	t4,zero,-128
 1fe:	41a5                	c.li	gp,9
 200:	37d71d63          	bne	a4,t4,57a <fail>

00000204 <test_10>:
 204:	fff00093          	addi	ra,zero,-1
 208:	4139                	c.li	sp,14
 20a:	00209733          	sll	a4,ra,sp
 20e:	ffffceb7          	lui	t4,0xffffc
 212:	41a9                	c.li	gp,10
 214:	37d71363          	bne	a4,t4,57a <fail>

00000218 <test_11>:
 218:	fff00093          	addi	ra,zero,-1
 21c:	417d                	c.li	sp,31
 21e:	00209733          	sll	a4,ra,sp
 222:	80000eb7          	lui	t4,0x80000
 226:	41ad                	c.li	gp,11
 228:	35d71963          	bne	a4,t4,57a <fail>

0000022c <test_12>:
 22c:	212120b7          	lui	ra,0x21212
 230:	12108093          	addi	ra,ra,289 # 21212121 <begin_signature+0x21211121>
 234:	4101                	c.li	sp,0
 236:	00209733          	sll	a4,ra,sp
 23a:	21212eb7          	lui	t4,0x21212
 23e:	121e8e93          	addi	t4,t4,289 # 21212121 <begin_signature+0x21211121>
 242:	41b1                	c.li	gp,12
 244:	33d71b63          	bne	a4,t4,57a <fail>

00000248 <test_13>:
 248:	212120b7          	lui	ra,0x21212
 24c:	12108093          	addi	ra,ra,289 # 21212121 <begin_signature+0x21211121>
 250:	4105                	c.li	sp,1
 252:	00209733          	sll	a4,ra,sp
 256:	42424eb7          	lui	t4,0x42424
 25a:	242e8e93          	addi	t4,t4,578 # 42424242 <begin_signature+0x42423242>
 25e:	41b5                	c.li	gp,13
 260:	31d71d63          	bne	a4,t4,57a <fail>

00000264 <test_14>:
 264:	212120b7          	lui	ra,0x21212
 268:	12108093          	addi	ra,ra,289 # 21212121 <begin_signature+0x21211121>
 26c:	411d                	c.li	sp,7
 26e:	00209733          	sll	a4,ra,sp
 272:	90909eb7          	lui	t4,0x90909
 276:	080e8e93          	addi	t4,t4,128 # 90909080 <__start_addr+0x10909070>
 27a:	41b9                	c.li	gp,14
 27c:	2fd71f63          	bne	a4,t4,57a <fail>

00000280 <test_15>:
 280:	212120b7          	lui	ra,0x21212
 284:	12108093          	addi	ra,ra,289 # 21212121 <begin_signature+0x21211121>
 288:	4139                	c.li	sp,14
 28a:	00209733          	sll	a4,ra,sp
 28e:	48484eb7          	lui	t4,0x48484
 292:	41bd                	c.li	gp,15
 294:	2fd71363          	bne	a4,t4,57a <fail>

00000298 <test_16>:
 298:	212120b7          	lui	ra,0x21212
 29c:	12108093          	addi	ra,ra,289 # 21212121 <begin_signature+0x21211121>
 2a0:	417d                	c.li	sp,31
 2a2:	00209733          	sll	a4,ra,sp
 2a6:	80000eb7          	lui	t4,0x80000
 2aa:	41c1                	c.li	gp,16
 2ac:	2dd71763          	bne	a4,t4,57a <fail>

000002b0 <test_17>:
 2b0:	212120b7          	lui	ra,0x21212
 2b4:	12108093          	addi	ra,ra,289 # 21212121 <begin_signature+0x21211121>
 2b8:	fc000113          	addi	sp,zero,-64
 2bc:	00209733          	sll	a4,ra,sp
 2c0:	21212eb7          	lui	t4,0x21212
 2c4:	121e8e93          	addi	t4,t4,289 # 21212121 <begin_signature+0x21211121>
 2c8:	41c5                	c.li	gp,17
 2ca:	2bd71863          	bne	a4,t4,57a <fail>

000002ce <test_18>:
 2ce:	212120b7          	lui	ra,0x21212
 2d2:	12108093          	addi	ra,ra,289 # 21212121 <begin_signature+0x21211121>
 2d6:	fc100113          	addi	sp,zero,-63
 2da:	00209733          	sll	a4,ra,sp
 2de:	42424eb7          	lui	t4,0x42424
 2e2:	242e8e93          	addi	t4,t4,578 # 42424242 <begin_signature+0x42423242>
 2e6:	41c9                	c.li	gp,18
 2e8:	29d71963          	bne	a4,t4,57a <fail>

000002ec <test_19>:
 2ec:	212120b7          	lui	ra,0x21212
 2f0:	12108093          	addi	ra,ra,289 # 21212121 <begin_signature+0x21211121>
 2f4:	fc700113          	addi	sp,zero,-57
 2f8:	00209733          	sll	a4,ra,sp
 2fc:	90909eb7          	lui	t4,0x90909
 300:	080e8e93          	addi	t4,t4,128 # 90909080 <__start_addr+0x10909070>
 304:	41cd                	c.li	gp,19
 306:	27d71a63          	bne	a4,t4,57a <fail>

0000030a <test_20>:
 30a:	212120b7          	lui	ra,0x21212
 30e:	12108093          	addi	ra,ra,289 # 21212121 <begin_signature+0x21211121>
 312:	fce00113          	addi	sp,zero,-50
 316:	00209733          	sll	a4,ra,sp
 31a:	48484eb7          	lui	t4,0x48484
 31e:	41d1                	c.li	gp,20
 320:	25d71d63          	bne	a4,t4,57a <fail>

00000324 <test_22>:
 324:	4085                	c.li	ra,1
 326:	411d                	c.li	sp,7
 328:	002090b3          	sll	ra,ra,sp
 32c:	08000e93          	addi	t4,zero,128
 330:	41d9                	c.li	gp,22
 332:	25d09463          	bne	ra,t4,57a <fail>

00000336 <test_23>:
 336:	4085                	c.li	ra,1
 338:	4139                	c.li	sp,14
 33a:	00209133          	sll	sp,ra,sp
 33e:	6e91                	c.lui	t4,0x4
 340:	41dd                	c.li	gp,23
 342:	23d11c63          	bne	sp,t4,57a <fail>

00000346 <test_24>:
 346:	408d                	c.li	ra,3
 348:	001090b3          	sll	ra,ra,ra
 34c:	4ee1                	c.li	t4,24
 34e:	41e1                	c.li	gp,24
 350:	23d09563          	bne	ra,t4,57a <fail>

00000354 <test_25>:
 354:	4201                	c.li	tp,0
 356:	4085                	c.li	ra,1
 358:	411d                	c.li	sp,7
 35a:	00209733          	sll	a4,ra,sp
 35e:	833a                	c.mv	t1,a4
 360:	0205                	c.addi	tp,1
 362:	4289                	c.li	t0,2
 364:	fe5219e3          	bne	tp,t0,356 <test_25+0x2>
 368:	08000e93          	addi	t4,zero,128
 36c:	41e5                	c.li	gp,25
 36e:	21d31663          	bne	t1,t4,57a <fail>

00000372 <test_26>:
 372:	4201                	c.li	tp,0
 374:	4085                	c.li	ra,1
 376:	4139                	c.li	sp,14
 378:	00209733          	sll	a4,ra,sp
 37c:	0001                	c.addi	zero,0
 37e:	833a                	c.mv	t1,a4
 380:	0205                	c.addi	tp,1
 382:	4289                	c.li	t0,2
 384:	fe5218e3          	bne	tp,t0,374 <test_26+0x2>
 388:	6e91                	c.lui	t4,0x4
 38a:	41e9                	c.li	gp,26
 38c:	1fd31763          	bne	t1,t4,57a <fail>

00000390 <test_27>:
 390:	4201                	c.li	tp,0
 392:	4085                	c.li	ra,1
 394:	417d                	c.li	sp,31
 396:	00209733          	sll	a4,ra,sp
 39a:	0001                	c.addi	zero,0
 39c:	0001                	c.addi	zero,0
 39e:	833a                	c.mv	t1,a4
 3a0:	0205                	c.addi	tp,1
 3a2:	4289                	c.li	t0,2
 3a4:	fe5217e3          	bne	tp,t0,392 <test_27+0x2>
 3a8:	80000eb7          	lui	t4,0x80000
 3ac:	41ed                	c.li	gp,27
 3ae:	1dd31663          	bne	t1,t4,57a <fail>

000003b2 <test_28>:
 3b2:	4201                	c.li	tp,0
 3b4:	4085                	c.li	ra,1
 3b6:	411d                	c.li	sp,7
 3b8:	00209733          	sll	a4,ra,sp
 3bc:	0205                	c.addi	tp,1
 3be:	4289                	c.li	t0,2
 3c0:	fe521ae3          	bne	tp,t0,3b4 <test_28+0x2>
 3c4:	08000e93          	addi	t4,zero,128
 3c8:	41f1                	c.li	gp,28
 3ca:	1bd71863          	bne	a4,t4,57a <fail>

000003ce <test_29>:
 3ce:	4201                	c.li	tp,0
 3d0:	4085                	c.li	ra,1
 3d2:	4139                	c.li	sp,14
 3d4:	0001                	c.addi	zero,0
 3d6:	00209733          	sll	a4,ra,sp
 3da:	0205                	c.addi	tp,1
 3dc:	4289                	c.li	t0,2
 3de:	fe5219e3          	bne	tp,t0,3d0 <test_29+0x2>
 3e2:	6e91                	c.lui	t4,0x4
 3e4:	41f5                	c.li	gp,29
 3e6:	19d71a63          	bne	a4,t4,57a <fail>

000003ea <test_30>:
 3ea:	4201                	c.li	tp,0
 3ec:	4085                	c.li	ra,1
 3ee:	417d                	c.li	sp,31
 3f0:	0001                	c.addi	zero,0
 3f2:	0001                	c.addi	zero,0
 3f4:	00209733          	sll	a4,ra,sp
 3f8:	0205                	c.addi	tp,1
 3fa:	4289                	c.li	t0,2
 3fc:	fe5218e3          	bne	tp,t0,3ec <test_30+0x2>
 400:	80000eb7          	lui	t4,0x80000
 404:	41f9                	c.li	gp,30
 406:	17d71a63          	bne	a4,t4,57a <fail>

0000040a <test_31>:
 40a:	4201                	c.li	tp,0
 40c:	4085                	c.li	ra,1
 40e:	0001                	c.addi	zero,0
 410:	411d                	c.li	sp,7
 412:	00209733          	sll	a4,ra,sp
 416:	0205                	c.addi	tp,1
 418:	4289                	c.li	t0,2
 41a:	fe5219e3          	bne	tp,t0,40c <test_31+0x2>
 41e:	08000e93          	addi	t4,zero,128
 422:	41fd                	c.li	gp,31
 424:	15d71b63          	bne	a4,t4,57a <fail>

00000428 <test_32>:
 428:	4201                	c.li	tp,0
 42a:	4085                	c.li	ra,1
 42c:	0001                	c.addi	zero,0
 42e:	4139                	c.li	sp,14
 430:	0001                	c.addi	zero,0
 432:	00209733          	sll	a4,ra,sp
 436:	0205                	c.addi	tp,1
 438:	4289                	c.li	t0,2
 43a:	fe5218e3          	bne	tp,t0,42a <test_32+0x2>
 43e:	6e91                	c.lui	t4,0x4
 440:	02000193          	addi	gp,zero,32
 444:	13d71b63          	bne	a4,t4,57a <fail>

00000448 <test_33>:
 448:	4201                	c.li	tp,0
 44a:	4085                	c.li	ra,1
 44c:	0001                	c.addi	zero,0
 44e:	0001                	c.addi	zero,0
 450:	417d                	c.li	sp,31
 452:	00209733          	sll	a4,ra,sp
 456:	0205                	c.addi	tp,1
 458:	4289                	c.li	t0,2
 45a:	fe5218e3          	bne	tp,t0,44a <test_33+0x2>
 45e:	80000eb7          	lui	t4,0x80000
 462:	02100193          	addi	gp,zero,33
 466:	11d71a63          	bne	a4,t4,57a <fail>

0000046a <test_34>:
 46a:	4201                	c.li	tp,0
 46c:	411d                	c.li	sp,7
 46e:	4085                	c.li	ra,1
 470:	00209733          	sll	a4,ra,sp
 474:	0205                	c.addi	tp,1
 476:	4289                	c.li	t0,2
 478:	fe521ae3          	bne	tp,t0,46c <test_34+0x2>
 47c:	08000e93          	addi	t4,zero,128
 480:	02200193          	addi	gp,zero,34
 484:	0fd71b63          	bne	a4,t4,57a <fail>

00000488 <test_35>:
 488:	4201                	c.li	tp,0
 48a:	4139                	c.li	sp,14
 48c:	4085                	c.li	ra,1
 48e:	0001                	c.addi	zero,0
 490:	00209733          	sll	a4,ra,sp
 494:	0205                	c.addi	tp,1
 496:	4289                	c.li	t0,2
 498:	fe5219e3          	bne	tp,t0,48a <test_35+0x2>
 49c:	6e91                	c.lui	t4,0x4
 49e:	02300193          	addi	gp,zero,35
 4a2:	0dd71c63          	bne	a4,t4,57a <fail>

000004a6 <test_36>:
 4a6:	4201                	c.li	tp,0
 4a8:	417d                	c.li	sp,31
 4aa:	4085                	c.li	ra,1
 4ac:	0001                	c.addi	zero,0
 4ae:	0001                	c.addi	zero,0
 4b0:	00209733          	sll	a4,ra,sp
 4b4:	0205                	c.addi	tp,1
 4b6:	4289                	c.li	t0,2
 4b8:	fe5218e3          	bne	tp,t0,4a8 <test_36+0x2>
 4bc:	80000eb7          	lui	t4,0x80000
 4c0:	02400193          	addi	gp,zero,36
 4c4:	0bd71b63          	bne	a4,t4,57a <fail>

000004c8 <test_37>:
 4c8:	4201                	c.li	tp,0
 4ca:	411d                	c.li	sp,7
 4cc:	0001                	c.addi	zero,0
 4ce:	4085                	c.li	ra,1
 4d0:	00209733          	sll	a4,ra,sp
 4d4:	0205                	c.addi	tp,1
 4d6:	4289                	c.li	t0,2
 4d8:	fe5219e3          	bne	tp,t0,4ca <test_37+0x2>
 4dc:	08000e93          	addi	t4,zero,128
 4e0:	02500193          	addi	gp,zero,37
 4e4:	09d71b63          	bne	a4,t4,57a <fail>

000004e8 <test_38>:
 4e8:	4201                	c.li	tp,0
 4ea:	4139                	c.li	sp,14
 4ec:	0001                	c.addi	zero,0
 4ee:	4085                	c.li	ra,1
 4f0:	0001                	c.addi	zero,0
 4f2:	00209733          	sll	a4,ra,sp
 4f6:	0205                	c.addi	tp,1
 4f8:	4289                	c.li	t0,2
 4fa:	fe5218e3          	bne	tp,t0,4ea <test_38+0x2>
 4fe:	6e91                	c.lui	t4,0x4
 500:	02600193          	addi	gp,zero,38
 504:	07d71b63          	bne	a4,t4,57a <fail>

00000508 <test_39>:
 508:	4201                	c.li	tp,0
 50a:	417d                	c.li	sp,31
 50c:	0001                	c.addi	zero,0
 50e:	0001                	c.addi	zero,0
 510:	4085                	c.li	ra,1
 512:	00209733          	sll	a4,ra,sp
 516:	0205                	c.addi	tp,1
 518:	4289                	c.li	t0,2
 51a:	fe5218e3          	bne	tp,t0,50a <test_39+0x2>
 51e:	80000eb7          	lui	t4,0x80000
 522:	02700193          	addi	gp,zero,39
 526:	05d71a63          	bne	a4,t4,57a <fail>

0000052a <test_40>:
 52a:	40bd                	c.li	ra,15
 52c:	00101133          	sll	sp,zero,ra
 530:	4e81                	c.li	t4,0
 532:	02800193          	addi	gp,zero,40
 536:	05d11263          	bne	sp,t4,57a <fail>

0000053a <test_41>:
 53a:	02000093          	addi	ra,zero,32
 53e:	00009133          	sll	sp,ra,zero
 542:	02000e93          	addi	t4,zero,32
 546:	02900193          	addi	gp,zero,41
 54a:	03d11863          	bne	sp,t4,57a <fail>

0000054e <test_42>:
 54e:	000010b3          	sll	ra,zero,zero
 552:	4e81                	c.li	t4,0
 554:	02a00193          	addi	gp,zero,42
 558:	03d09163          	bne	ra,t4,57a <fail>

0000055c <test_43>:
 55c:	40000093          	addi	ra,zero,1024
 560:	00001137          	lui	sp,0x1
 564:	80010113          	addi	sp,sp,-2048 # 800 <_end+0x240>
 568:	00209033          	sll	zero,ra,sp
 56c:	4e81                	c.li	t4,0
 56e:	02b00193          	addi	gp,zero,43
 572:	01d01463          	bne	zero,t4,57a <fail>
 576:	00301c63          	bne	zero,gp,58e <pass>

0000057a <fail>:
 57a:	0ff0000f          	fence	iorw,iorw
 57e:	e00802b7          	lui	t0,0xe0080
 582:	01234337          	lui	t1,0x1234
 586:	56930313          	addi	t1,t1,1385 # 1234569 <begin_signature+0x1233569>
 58a:	0062a023          	sw	t1,0(t0) # e0080000 <__start_addr+0x6007fff0>

0000058e <pass>:
 58e:	0ff0000f          	fence	iorw,iorw
 592:	e00802b7          	lui	t0,0xe0080
 596:	01234337          	lui	t1,0x1234
 59a:	56830313          	addi	t1,t1,1384 # 1234568 <begin_signature+0x1233568>
 59e:	0062a023          	sw	t1,0(t0) # e0080000 <__start_addr+0x6007fff0>
 5a2:	0000                	c.unimp
 5a4:	00000013          	addi	zero,zero,0
 5a8:	00000013          	addi	zero,zero,0
 5ac:	00000013          	addi	zero,zero,0
 5b0:	00000013          	addi	zero,zero,0
 5b4:	00000013          	addi	zero,zero,0
 5b8:	00000013          	addi	zero,zero,0
 5bc:	00000013          	addi	zero,zero,0

Contents of section .loader:
 80000000 97020000 83a20201 82920000 00000000  ................
 80000010 80000000 00000000                    ........        
