
a.out:     file format elf32-littleriscv


Disassembly of section .text.init:

00000000 <_RELAX_END_>:
	...

00000080 <_start>:
  80:	0340006f          	jal	zero,b4 <reset_vector>

00000084 <trap_vector>:
  84:	00000f17          	auipc	t5,0x0
  88:	f7cf0f13          	addi	t5,t5,-132 # 0 <_RELAX_END_>
  8c:	000f0363          	beq	t5,zero,92 <trap_vector+0xe>
  90:	8f02                	c.jr	t5
  92:	34202f73          	csrrs	t5,mcause,zero
  96:	000f5363          	bge	t5,zero,9c <handle_exception>
  9a:	a009                	c.j	9c <handle_exception>

0000009c <handle_exception>:
  9c:	5391e193          	ori	gp,gp,1337

000000a0 <fail_handler>:
  a0:	0ff0000f          	fence	iorw,iorw
  a4:	e00802b7          	lui	t0,0xe0080
  a8:	01234337          	lui	t1,0x1234
  ac:	56930313          	addi	t1,t1,1385 # 1234569 <begin_signature+0x1233569>
  b0:	0062a023          	sw	t1,0(t0) # e0080000 <__start_addr+0x6007fff0>

000000b4 <reset_vector>:
  b4:	f1402573          	csrrs	a0,mhartid,zero
  b8:	00051063          	bne	a0,zero,b8 <reset_vector+0x4>
  bc:	00000297          	auipc	t0,0x0
  c0:	01028293          	addi	t0,t0,16 # cc <reset_vector+0x18>
  c4:	30529073          	csrrw	zero,mtvec,t0
  c8:	18005073          	csrrwi	zero,satp,0
  cc:	00000297          	auipc	t0,0x0
  d0:	02028293          	addi	t0,t0,32 # ec <reset_vector+0x38>
  d4:	30529073          	csrrw	zero,mtvec,t0
  d8:	800002b7          	lui	t0,0x80000
  dc:	fff28293          	addi	t0,t0,-1 # 7fffffff <__start_addr+0xffffffef>
  e0:	3b029073          	csrrw	zero,pmpaddr0,t0
  e4:	01f00293          	addi	t0,zero,31
  e8:	3a029073          	csrrw	zero,pmpcfg0,t0
  ec:	00000297          	auipc	t0,0x0
  f0:	01828293          	addi	t0,t0,24 # 104 <reset_vector+0x50>
  f4:	30529073          	csrrw	zero,mtvec,t0
  f8:	30205073          	csrrwi	zero,medeleg,0
  fc:	30305073          	csrrwi	zero,mideleg,0
 100:	30405073          	csrrwi	zero,mie,0
 104:	4181                	c.li	gp,0
 106:	00000297          	auipc	t0,0x0
 10a:	f7e28293          	addi	t0,t0,-130 # 84 <trap_vector>
 10e:	30529073          	csrrw	zero,mtvec,t0
 112:	30102573          	csrrs	a0,misa,zero
 116:	00055c63          	bge	a0,zero,12e <reset_vector+0x7a>
 11a:	0ff0000f          	fence	iorw,iorw
 11e:	e00802b7          	lui	t0,0xe0080
 122:	01234337          	lui	t1,0x1234
 126:	56830313          	addi	t1,t1,1384 # 1234568 <begin_signature+0x1233568>
 12a:	0062a023          	sw	t1,0(t0) # e0080000 <__start_addr+0x6007fff0>
 12e:	00000297          	auipc	t0,0x0
 132:	ed228293          	addi	t0,t0,-302 # 0 <_RELAX_END_>
 136:	00028e63          	beq	t0,zero,152 <reset_vector+0x9e>
 13a:	10529073          	csrrw	zero,stvec,t0
 13e:	0000b2b7          	lui	t0,0xb
 142:	10928293          	addi	t0,t0,265 # b109 <begin_signature+0xa109>
 146:	30229073          	csrrw	zero,medeleg,t0
 14a:	30202373          	csrrs	t1,medeleg,zero
 14e:	f46297e3          	bne	t0,t1,9c <handle_exception>
 152:	30005073          	csrrwi	zero,mstatus,0
 156:	557d                	c.li	a0,-1
 158:	3b051073          	csrrw	zero,pmpaddr0,a0
 15c:	3a0fd073          	csrrwi	zero,pmpcfg0,31
 160:	00000297          	auipc	t0,0x0
 164:	01428293          	addi	t0,t0,20 # 174 <test_2>
 168:	34129073          	csrrw	zero,mepc,t0
 16c:	f1402573          	csrrs	a0,mhartid,zero
 170:	30200073          	mret

00000174 <test_2>:
 174:	000000b7          	lui	ra,0x0
 178:	4e81                	c.li	t4,0
 17a:	4189                	c.li	gp,2
 17c:	05d09463          	bne	ra,t4,1c4 <fail>

00000180 <test_3>:
 180:	70fd                	c.lui	ra,0xfffff
 182:	4010d093          	srai	ra,ra,0x1
 186:	80000e93          	addi	t4,zero,-2048
 18a:	418d                	c.li	gp,3
 18c:	03d09c63          	bne	ra,t4,1c4 <fail>

00000190 <test_4>:
 190:	7ffff0b7          	lui	ra,0x7ffff
 194:	4140d093          	srai	ra,ra,0x14
 198:	7ff00e93          	addi	t4,zero,2047
 19c:	4191                	c.li	gp,4
 19e:	03d09363          	bne	ra,t4,1c4 <fail>

000001a2 <test_5>:
 1a2:	800000b7          	lui	ra,0x80000
 1a6:	4140d093          	srai	ra,ra,0x14
 1aa:	80000e93          	addi	t4,zero,-2048
 1ae:	4195                	c.li	gp,5
 1b0:	01d09a63          	bne	ra,t4,1c4 <fail>

000001b4 <test_6>:
 1b4:	80000037          	lui	zero,0x80000
 1b8:	4e81                	c.li	t4,0
 1ba:	4199                	c.li	gp,6
 1bc:	01d01463          	bne	zero,t4,1c4 <fail>
 1c0:	00301c63          	bne	zero,gp,1d8 <pass>

000001c4 <fail>:
 1c4:	0ff0000f          	fence	iorw,iorw
 1c8:	e00802b7          	lui	t0,0xe0080
 1cc:	01234337          	lui	t1,0x1234
 1d0:	56930313          	addi	t1,t1,1385 # 1234569 <begin_signature+0x1233569>
 1d4:	0062a023          	sw	t1,0(t0) # e0080000 <__start_addr+0x6007fff0>

000001d8 <pass>:
 1d8:	0ff0000f          	fence	iorw,iorw
 1dc:	e00802b7          	lui	t0,0xe0080
 1e0:	01234337          	lui	t1,0x1234
 1e4:	56830313          	addi	t1,t1,1384 # 1234568 <begin_signature+0x1233568>
 1e8:	0062a023          	sw	t1,0(t0) # e0080000 <__start_addr+0x6007fff0>
 1ec:	0000                	c.unimp
 1ee:	0001                	c.addi	zero,0
 1f0:	00000013          	addi	zero,zero,0
 1f4:	00000013          	addi	zero,zero,0
 1f8:	00000013          	addi	zero,zero,0
 1fc:	00000013          	addi	zero,zero,0

Contents of section .loader:
 80000000 97020000 83a20201 82920000 00000000  ................
 80000010 80000000 00000000                    ........        
