
a.out:     file format elf32-littleriscv


Disassembly of section .text.init:

00000000 <_RELAX_END_>:
	...

00000080 <_start>:
  80:	0340006f          	jal	zero,b4 <reset_vector>

00000084 <trap_vector>:
  84:	00000f17          	auipc	t5,0x0
  88:	224f0f13          	addi	t5,t5,548 # 2a8 <mtvec_handler>
  8c:	000f0363          	beq	t5,zero,92 <trap_vector+0xe>
  90:	8f02                	c.jr	t5
  92:	34202f73          	csrrs	t5,mcause,zero
  96:	000f5363          	bge	t5,zero,9c <handle_exception>
  9a:	a009                	c.j	9c <handle_exception>

0000009c <handle_exception>:
  9c:	5391e193          	ori	gp,gp,1337

000000a0 <fail_handler>:
  a0:	0ff0000f          	fence	iorw,iorw
  a4:	e00802b7          	lui	t0,0xe0080
  a8:	01234337          	lui	t1,0x1234
  ac:	56930313          	addi	t1,t1,1385 # 1234569 <begin_signature+0x1233569>
  b0:	0062a023          	sw	t1,0(t0) # e0080000 <__start_addr+0x6007fff0>

000000b4 <reset_vector>:
  b4:	f1402573          	csrrs	a0,mhartid,zero
  b8:	00051063          	bne	a0,zero,b8 <reset_vector+0x4>
  bc:	00000297          	auipc	t0,0x0
  c0:	01028293          	addi	t0,t0,16 # cc <reset_vector+0x18>
  c4:	30529073          	csrrw	zero,mtvec,t0
  c8:	18005073          	csrrwi	zero,satp,0
  cc:	00000297          	auipc	t0,0x0
  d0:	02028293          	addi	t0,t0,32 # ec <reset_vector+0x38>
  d4:	30529073          	csrrw	zero,mtvec,t0
  d8:	800002b7          	lui	t0,0x80000
  dc:	fff28293          	addi	t0,t0,-1 # 7fffffff <__start_addr+0xffffffef>
  e0:	3b029073          	csrrw	zero,pmpaddr0,t0
  e4:	01f00293          	addi	t0,zero,31
  e8:	3a029073          	csrrw	zero,pmpcfg0,t0
  ec:	00000297          	auipc	t0,0x0
  f0:	01828293          	addi	t0,t0,24 # 104 <reset_vector+0x50>
  f4:	30529073          	csrrw	zero,mtvec,t0
  f8:	30205073          	csrrwi	zero,medeleg,0
  fc:	30305073          	csrrwi	zero,mideleg,0
 100:	30405073          	csrrwi	zero,mie,0
 104:	4181                	c.li	gp,0
 106:	00000297          	auipc	t0,0x0
 10a:	f7e28293          	addi	t0,t0,-130 # 84 <trap_vector>
 10e:	30529073          	csrrw	zero,mtvec,t0
 112:	30102573          	csrrs	a0,misa,zero
 116:	00055c63          	bge	a0,zero,12e <reset_vector+0x7a>
 11a:	0ff0000f          	fence	iorw,iorw
 11e:	e00802b7          	lui	t0,0xe0080
 122:	01234337          	lui	t1,0x1234
 126:	56830313          	addi	t1,t1,1384 # 1234568 <begin_signature+0x1233568>
 12a:	0062a023          	sw	t1,0(t0) # e0080000 <__start_addr+0x6007fff0>
 12e:	00000297          	auipc	t0,0x0
 132:	ed228293          	addi	t0,t0,-302 # 0 <_RELAX_END_>
 136:	00028e63          	beq	t0,zero,152 <reset_vector+0x9e>
 13a:	10529073          	csrrw	zero,stvec,t0
 13e:	0000b2b7          	lui	t0,0xb
 142:	10928293          	addi	t0,t0,265 # b109 <begin_signature+0xa109>
 146:	30229073          	csrrw	zero,medeleg,t0
 14a:	30202373          	csrrs	t1,medeleg,zero
 14e:	f46297e3          	bne	t0,t1,9c <handle_exception>
 152:	30005073          	csrrwi	zero,mstatus,0
 156:	00002537          	lui	a0,0x2
 15a:	80050513          	addi	a0,a0,-2048 # 1800 <begin_signature+0x800>
 15e:	30052073          	csrrs	zero,mstatus,a0
 162:	557d                	c.li	a0,-1
 164:	3b051073          	csrrw	zero,pmpaddr0,a0
 168:	3a0fd073          	csrrwi	zero,pmpcfg0,31
 16c:	00000297          	auipc	t0,0x0
 170:	01428293          	addi	t0,t0,20 # 180 <reset_vector+0xcc>
 174:	34129073          	csrrw	zero,mepc,t0
 178:	f1402573          	csrrs	a0,mhartid,zero
 17c:	30200073          	mret
 180:	00200193          	addi	gp,zero,2
 184:	00000313          	addi	t1,zero,0
 188:	00000297          	auipc	t0,0x0
 18c:	00c28293          	addi	t0,t0,12 # 194 <reset_vector+0xe0>
 190:	00228367          	jalr	t1,2(t0)
 194:	a011                	c.j	198 <reset_vector+0xe4>
 196:	a019                	c.j	19c <reset_vector+0xe8>
 198:	0e80006f          	jal	zero,280 <fail>
 19c:	00300193          	addi	gp,zero,3
 1a0:	00000297          	auipc	t0,0x0
 1a4:	00c28293          	addi	t0,t0,12 # 1ac <reset_vector+0xf8>
 1a8:	00128367          	jalr	t1,1(t0)
 1ac:	0080006f          	jal	zero,1b4 <reset_vector+0x100>
 1b0:	0d00006f          	jal	zero,280 <fail>
 1b4:	00400193          	addi	gp,zero,4
 1b8:	00000313          	addi	t1,zero,0
 1bc:	00000297          	auipc	t0,0x0
 1c0:	00c28293          	addi	t0,t0,12 # 1c8 <reset_vector+0x114>
 1c4:	00328367          	jalr	t1,3(t0)
 1c8:	a011                	c.j	1cc <reset_vector+0x118>
 1ca:	a019                	c.j	1d0 <reset_vector+0x11c>
 1cc:	0b40006f          	jal	zero,280 <fail>
 1d0:	00500193          	addi	gp,zero,5
 1d4:	00000313          	addi	t1,zero,0
 1d8:	00000297          	auipc	t0,0x0
 1dc:	00c28293          	addi	t0,t0,12 # 1e4 <reset_vector+0x130>
 1e0:	0060036f          	jal	t1,1e6 <reset_vector+0x132>
 1e4:	a011                	c.j	1e8 <reset_vector+0x134>
 1e6:	a019                	c.j	1ec <reset_vector+0x138>
 1e8:	0980006f          	jal	zero,280 <fail>
 1ec:	00600193          	addi	gp,zero,6
 1f0:	00000313          	addi	t1,zero,0
 1f4:	00000297          	auipc	t0,0x0
 1f8:	00c28293          	addi	t0,t0,12 # 200 <reset_vector+0x14c>
 1fc:	00000363          	beq	zero,zero,202 <reset_vector+0x14e>
 200:	a011                	c.j	204 <reset_vector+0x150>
 202:	a019                	c.j	208 <reset_vector+0x154>
 204:	07c0006f          	jal	zero,280 <fail>
 208:	00700193          	addi	gp,zero,7
 20c:	00001563          	bne	zero,zero,216 <reset_vector+0x162>
 210:	00c0006f          	jal	zero,21c <reset_vector+0x168>
 214:	a009                	c.j	216 <reset_vector+0x162>
 216:	a009                	c.j	218 <reset_vector+0x164>
 218:	0680006f          	jal	zero,280 <fail>
 21c:	00800193          	addi	gp,zero,8
 220:	301023f3          	csrrs	t2,misa,zero
 224:	0043f393          	andi	t2,t2,4
 228:	04038863          	beq	t2,zero,278 <reset_vector+0x1c4>
 22c:	0001                	c.addi	zero,0
 22e:	30127073          	csrrci	zero,misa,4
 232:	0001                	c.addi	zero,0
 234:	301023f3          	csrrs	t2,misa,zero
 238:	0043f393          	andi	t2,t2,4
 23c:	04038263          	beq	t2,zero,280 <fail>
 240:	00000297          	auipc	t0,0x0
 244:	03428293          	addi	t0,t0,52 # 274 <reset_vector+0x1c0>
 248:	ffe28293          	addi	t0,t0,-2
 24c:	34129073          	csrrw	zero,mepc,t0
 250:	30127073          	csrrci	zero,misa,4
 254:	301023f3          	csrrs	t2,misa,zero
 258:	0043f393          	andi	t2,t2,4
 25c:	00039e63          	bne	t2,zero,278 <reset_vector+0x1c4>
 260:	000023b7          	lui	t2,0x2
 264:	80038393          	addi	t2,t2,-2048 # 1800 <begin_signature+0x800>
 268:	3003a073          	csrrs	zero,mstatus,t2
 26c:	30200073          	mret
 270:	00000263          	beq	zero,zero,274 <reset_vector+0x1c0>
 274:	30126073          	csrrsi	zero,misa,4
 278:	01c0006f          	jal	zero,294 <pass>
 27c:	00301c63          	bne	zero,gp,294 <pass>

00000280 <fail>:
 280:	0ff0000f          	fence	iorw,iorw
 284:	e00802b7          	lui	t0,0xe0080
 288:	01234337          	lui	t1,0x1234
 28c:	56930313          	addi	t1,t1,1385 # 1234569 <begin_signature+0x1233569>
 290:	0062a023          	sw	t1,0(t0) # e0080000 <__start_addr+0x6007fff0>

00000294 <pass>:
 294:	0ff0000f          	fence	iorw,iorw
 298:	e00802b7          	lui	t0,0xe0080
 29c:	01234337          	lui	t1,0x1234
 2a0:	56830313          	addi	t1,t1,1384 # 1234568 <begin_signature+0x1233568>
 2a4:	0062a023          	sw	t1,0(t0) # e0080000 <__start_addr+0x6007fff0>

000002a8 <mtvec_handler>:
 2a8:	00200513          	addi	a0,zero,2
 2ac:	02a18063          	beq	gp,a0,2cc <mtvec_handler+0x24>
 2b0:	00400513          	addi	a0,zero,4
 2b4:	00a18c63          	beq	gp,a0,2cc <mtvec_handler+0x24>
 2b8:	00500513          	addi	a0,zero,5
 2bc:	00a18863          	beq	gp,a0,2cc <mtvec_handler+0x24>
 2c0:	00600513          	addi	a0,zero,6
 2c4:	00a18463          	beq	gp,a0,2cc <mtvec_handler+0x24>
 2c8:	fb9ff06f          	jal	zero,280 <fail>
 2cc:	fa031ae3          	bne	t1,zero,280 <fail>
 2d0:	00000593          	addi	a1,zero,0
 2d4:	34202573          	csrrs	a0,mcause,zero
 2d8:	fab514e3          	bne	a0,a1,280 <fail>
 2dc:	341025f3          	csrrs	a1,mepc,zero
 2e0:	00458593          	addi	a1,a1,4
 2e4:	f8b29ee3          	bne	t0,a1,280 <fail>
 2e8:	34302573          	csrrs	a0,mtval,zero
 2ec:	00050663          	beq	a0,zero,2f8 <mtvec_handler+0x50>
 2f0:	ffe50513          	addi	a0,a0,-2
 2f4:	f85516e3          	bne	a0,t0,280 <fail>
 2f8:	00c58593          	addi	a1,a1,12
 2fc:	34159073          	csrrw	zero,mepc,a1
 300:	30200073          	mret
 304:	c0001073          	unimp
 308:	00000013          	addi	zero,zero,0
 30c:	00000013          	addi	zero,zero,0
 310:	00000013          	addi	zero,zero,0
 314:	00000013          	addi	zero,zero,0
 318:	00000013          	addi	zero,zero,0
 31c:	00000013          	addi	zero,zero,0
 320:	00000013          	addi	zero,zero,0
 324:	00000013          	addi	zero,zero,0
 328:	00000013          	addi	zero,zero,0
 32c:	00000013          	addi	zero,zero,0

Contents of section .loader:
 80000000 97020000 83a20201 82920000 00000000  ................
 80000010 80000000 00000000                    ........        
