
a.out:     file format elf32-littleriscv


Disassembly of section .text.init:

00000000 <_RELAX_END_>:
	...

00000080 <_start>:
  80:	0340006f          	jal	zero,b4 <reset_vector>

00000084 <trap_vector>:
  84:	00000f17          	auipc	t5,0x0
  88:	f7cf0f13          	addi	t5,t5,-132 # 0 <_RELAX_END_>
  8c:	000f0363          	beq	t5,zero,92 <trap_vector+0xe>
  90:	8f02                	c.jr	t5
  92:	34202f73          	csrrs	t5,mcause,zero
  96:	000f5363          	bge	t5,zero,9c <handle_exception>
  9a:	a009                	c.j	9c <handle_exception>

0000009c <handle_exception>:
  9c:	5391e193          	ori	gp,gp,1337

000000a0 <fail_handler>:
  a0:	0ff0000f          	fence	iorw,iorw
  a4:	e00802b7          	lui	t0,0xe0080
  a8:	01234337          	lui	t1,0x1234
  ac:	56930313          	addi	t1,t1,1385 # 1234569 <begin_signature+0x1233569>
  b0:	0062a023          	sw	t1,0(t0) # e0080000 <__start_addr+0x6007fff0>

000000b4 <reset_vector>:
  b4:	f1402573          	csrrs	a0,mhartid,zero
  b8:	00051063          	bne	a0,zero,b8 <reset_vector+0x4>
  bc:	00000297          	auipc	t0,0x0
  c0:	01028293          	addi	t0,t0,16 # cc <reset_vector+0x18>
  c4:	30529073          	csrrw	zero,mtvec,t0
  c8:	18005073          	csrrwi	zero,satp,0
  cc:	00000297          	auipc	t0,0x0
  d0:	02028293          	addi	t0,t0,32 # ec <reset_vector+0x38>
  d4:	30529073          	csrrw	zero,mtvec,t0
  d8:	800002b7          	lui	t0,0x80000
  dc:	fff28293          	addi	t0,t0,-1 # 7fffffff <__start_addr+0xffffffef>
  e0:	3b029073          	csrrw	zero,pmpaddr0,t0
  e4:	01f00293          	addi	t0,zero,31
  e8:	3a029073          	csrrw	zero,pmpcfg0,t0
  ec:	00000297          	auipc	t0,0x0
  f0:	01828293          	addi	t0,t0,24 # 104 <reset_vector+0x50>
  f4:	30529073          	csrrw	zero,mtvec,t0
  f8:	30205073          	csrrwi	zero,medeleg,0
  fc:	30305073          	csrrwi	zero,mideleg,0
 100:	30405073          	csrrwi	zero,mie,0
 104:	4181                	c.li	gp,0
 106:	00000297          	auipc	t0,0x0
 10a:	f7e28293          	addi	t0,t0,-130 # 84 <trap_vector>
 10e:	30529073          	csrrw	zero,mtvec,t0
 112:	30102573          	csrrs	a0,misa,zero
 116:	00055c63          	bge	a0,zero,12e <reset_vector+0x7a>
 11a:	0ff0000f          	fence	iorw,iorw
 11e:	e00802b7          	lui	t0,0xe0080
 122:	01234337          	lui	t1,0x1234
 126:	56830313          	addi	t1,t1,1384 # 1234568 <begin_signature+0x1233568>
 12a:	0062a023          	sw	t1,0(t0) # e0080000 <__start_addr+0x6007fff0>
 12e:	00000297          	auipc	t0,0x0
 132:	ed228293          	addi	t0,t0,-302 # 0 <_RELAX_END_>
 136:	00028e63          	beq	t0,zero,152 <reset_vector+0x9e>
 13a:	10529073          	csrrw	zero,stvec,t0
 13e:	0000b2b7          	lui	t0,0xb
 142:	10928293          	addi	t0,t0,265 # b109 <begin_signature+0xa109>
 146:	30229073          	csrrw	zero,medeleg,t0
 14a:	30202373          	csrrs	t1,medeleg,zero
 14e:	f46297e3          	bne	t0,t1,9c <handle_exception>
 152:	30005073          	csrrwi	zero,mstatus,0
 156:	557d                	c.li	a0,-1
 158:	3b051073          	csrrw	zero,pmpaddr0,a0
 15c:	3a0fd073          	csrrwi	zero,pmpcfg0,31
 160:	00000297          	auipc	t0,0x0
 164:	01428293          	addi	t0,t0,20 # 174 <test_2>
 168:	34129073          	csrrw	zero,mepc,t0
 16c:	f1402573          	csrrs	a0,mhartid,zero
 170:	30200073          	mret

00000174 <test_2>:
 174:	4081                	c.li	ra,0
 176:	8706                	c.mv	a4,ra
 178:	4e81                	c.li	t4,0
 17a:	4189                	c.li	gp,2
 17c:	1fd71063          	bne	a4,t4,35c <fail>

00000180 <test_3>:
 180:	4085                	c.li	ra,1
 182:	00108713          	addi	a4,ra,1
 186:	4e89                	c.li	t4,2
 188:	418d                	c.li	gp,3
 18a:	1dd71963          	bne	a4,t4,35c <fail>

0000018e <test_4>:
 18e:	408d                	c.li	ra,3
 190:	00708713          	addi	a4,ra,7
 194:	4ea9                	c.li	t4,10
 196:	4191                	c.li	gp,4
 198:	1dd71263          	bne	a4,t4,35c <fail>

0000019c <test_5>:
 19c:	4081                	c.li	ra,0
 19e:	80008713          	addi	a4,ra,-2048
 1a2:	80000e93          	addi	t4,zero,-2048
 1a6:	4195                	c.li	gp,5
 1a8:	1bd71a63          	bne	a4,t4,35c <fail>

000001ac <test_6>:
 1ac:	800000b7          	lui	ra,0x80000
 1b0:	8706                	c.mv	a4,ra
 1b2:	80000eb7          	lui	t4,0x80000
 1b6:	4199                	c.li	gp,6
 1b8:	1bd71263          	bne	a4,t4,35c <fail>

000001bc <test_7>:
 1bc:	800000b7          	lui	ra,0x80000
 1c0:	80008713          	addi	a4,ra,-2048 # 7ffff800 <__start_addr+0xfffff7f0>
 1c4:	80000eb7          	lui	t4,0x80000
 1c8:	800e8e93          	addi	t4,t4,-2048 # 7ffff800 <__start_addr+0xfffff7f0>
 1cc:	419d                	c.li	gp,7
 1ce:	19d71763          	bne	a4,t4,35c <fail>

000001d2 <test_8>:
 1d2:	4081                	c.li	ra,0
 1d4:	7ff08713          	addi	a4,ra,2047
 1d8:	7ff00e93          	addi	t4,zero,2047
 1dc:	41a1                	c.li	gp,8
 1de:	17d71f63          	bne	a4,t4,35c <fail>

000001e2 <test_9>:
 1e2:	800000b7          	lui	ra,0x80000
 1e6:	fff08093          	addi	ra,ra,-1 # 7fffffff <__start_addr+0xffffffef>
 1ea:	8706                	c.mv	a4,ra
 1ec:	80000eb7          	lui	t4,0x80000
 1f0:	fffe8e93          	addi	t4,t4,-1 # 7fffffff <__start_addr+0xffffffef>
 1f4:	41a5                	c.li	gp,9
 1f6:	17d71363          	bne	a4,t4,35c <fail>

000001fa <test_10>:
 1fa:	800000b7          	lui	ra,0x80000
 1fe:	fff08093          	addi	ra,ra,-1 # 7fffffff <__start_addr+0xffffffef>
 202:	7ff08713          	addi	a4,ra,2047
 206:	80000eb7          	lui	t4,0x80000
 20a:	7fee8e93          	addi	t4,t4,2046 # 800007fe <__start_addr+0x7ee>
 20e:	41a9                	c.li	gp,10
 210:	15d71663          	bne	a4,t4,35c <fail>

00000214 <test_11>:
 214:	800000b7          	lui	ra,0x80000
 218:	7ff08713          	addi	a4,ra,2047 # 800007ff <__start_addr+0x7ef>
 21c:	80000eb7          	lui	t4,0x80000
 220:	7ffe8e93          	addi	t4,t4,2047 # 800007ff <__start_addr+0x7ef>
 224:	41ad                	c.li	gp,11
 226:	13d71b63          	bne	a4,t4,35c <fail>

0000022a <test_12>:
 22a:	800000b7          	lui	ra,0x80000
 22e:	fff08093          	addi	ra,ra,-1 # 7fffffff <__start_addr+0xffffffef>
 232:	80008713          	addi	a4,ra,-2048
 236:	7ffffeb7          	lui	t4,0x7ffff
 23a:	7ffe8e93          	addi	t4,t4,2047 # 7ffff7ff <begin_signature+0x7fffe7ff>
 23e:	41b1                	c.li	gp,12
 240:	11d71e63          	bne	a4,t4,35c <fail>

00000244 <test_13>:
 244:	4081                	c.li	ra,0
 246:	fff08713          	addi	a4,ra,-1
 24a:	fff00e93          	addi	t4,zero,-1
 24e:	41b5                	c.li	gp,13
 250:	11d71663          	bne	a4,t4,35c <fail>

00000254 <test_14>:
 254:	fff00093          	addi	ra,zero,-1
 258:	00108713          	addi	a4,ra,1
 25c:	4e81                	c.li	t4,0
 25e:	41b9                	c.li	gp,14
 260:	0fd71e63          	bne	a4,t4,35c <fail>

00000264 <test_15>:
 264:	fff00093          	addi	ra,zero,-1
 268:	fff08713          	addi	a4,ra,-1
 26c:	ffe00e93          	addi	t4,zero,-2
 270:	41bd                	c.li	gp,15
 272:	0fd71563          	bne	a4,t4,35c <fail>

00000276 <test_16>:
 276:	800000b7          	lui	ra,0x80000
 27a:	fff08093          	addi	ra,ra,-1 # 7fffffff <__start_addr+0xffffffef>
 27e:	00108713          	addi	a4,ra,1
 282:	80000eb7          	lui	t4,0x80000
 286:	41c1                	c.li	gp,16
 288:	0dd71a63          	bne	a4,t4,35c <fail>

0000028c <test_17>:
 28c:	40b5                	c.li	ra,13
 28e:	00ad                	c.addi	ra,11
 290:	4ee1                	c.li	t4,24
 292:	41c5                	c.li	gp,17
 294:	0dd09463          	bne	ra,t4,35c <fail>

00000298 <test_18>:
 298:	4201                	c.li	tp,0
 29a:	40b5                	c.li	ra,13
 29c:	00b08713          	addi	a4,ra,11
 2a0:	833a                	c.mv	t1,a4
 2a2:	0205                	c.addi	tp,1
 2a4:	4289                	c.li	t0,2
 2a6:	fe521ae3          	bne	tp,t0,29a <test_18+0x2>
 2aa:	4ee1                	c.li	t4,24
 2ac:	41c9                	c.li	gp,18
 2ae:	0bd31763          	bne	t1,t4,35c <fail>

000002b2 <test_19>:
 2b2:	4201                	c.li	tp,0
 2b4:	40b5                	c.li	ra,13
 2b6:	00a08713          	addi	a4,ra,10
 2ba:	0001                	c.addi	zero,0
 2bc:	833a                	c.mv	t1,a4
 2be:	0205                	c.addi	tp,1
 2c0:	4289                	c.li	t0,2
 2c2:	fe5219e3          	bne	tp,t0,2b4 <test_19+0x2>
 2c6:	4edd                	c.li	t4,23
 2c8:	41cd                	c.li	gp,19
 2ca:	09d31963          	bne	t1,t4,35c <fail>

000002ce <test_20>:
 2ce:	4201                	c.li	tp,0
 2d0:	40b5                	c.li	ra,13
 2d2:	00908713          	addi	a4,ra,9
 2d6:	0001                	c.addi	zero,0
 2d8:	0001                	c.addi	zero,0
 2da:	833a                	c.mv	t1,a4
 2dc:	0205                	c.addi	tp,1
 2de:	4289                	c.li	t0,2
 2e0:	fe5218e3          	bne	tp,t0,2d0 <test_20+0x2>
 2e4:	4ed9                	c.li	t4,22
 2e6:	41d1                	c.li	gp,20
 2e8:	07d31a63          	bne	t1,t4,35c <fail>

000002ec <test_21>:
 2ec:	4201                	c.li	tp,0
 2ee:	40b5                	c.li	ra,13
 2f0:	00b08713          	addi	a4,ra,11
 2f4:	0205                	c.addi	tp,1
 2f6:	4289                	c.li	t0,2
 2f8:	fe521be3          	bne	tp,t0,2ee <test_21+0x2>
 2fc:	4ee1                	c.li	t4,24
 2fe:	41d5                	c.li	gp,21
 300:	05d71e63          	bne	a4,t4,35c <fail>

00000304 <test_22>:
 304:	4201                	c.li	tp,0
 306:	40b5                	c.li	ra,13
 308:	0001                	c.addi	zero,0
 30a:	00a08713          	addi	a4,ra,10
 30e:	0205                	c.addi	tp,1
 310:	4289                	c.li	t0,2
 312:	fe521ae3          	bne	tp,t0,306 <test_22+0x2>
 316:	4edd                	c.li	t4,23
 318:	41d9                	c.li	gp,22
 31a:	05d71163          	bne	a4,t4,35c <fail>

0000031e <test_23>:
 31e:	4201                	c.li	tp,0
 320:	40b5                	c.li	ra,13
 322:	0001                	c.addi	zero,0
 324:	0001                	c.addi	zero,0
 326:	00908713          	addi	a4,ra,9
 32a:	0205                	c.addi	tp,1
 32c:	4289                	c.li	t0,2
 32e:	fe5219e3          	bne	tp,t0,320 <test_23+0x2>
 332:	4ed9                	c.li	t4,22
 334:	41dd                	c.li	gp,23
 336:	03d71363          	bne	a4,t4,35c <fail>

0000033a <test_24>:
 33a:	02000093          	addi	ra,zero,32
 33e:	02000e93          	addi	t4,zero,32
 342:	41e1                	c.li	gp,24
 344:	01d09c63          	bne	ra,t4,35c <fail>

00000348 <test_25>:
 348:	02100093          	addi	ra,zero,33
 34c:	03208013          	addi	zero,ra,50
 350:	4e81                	c.li	t4,0
 352:	41e5                	c.li	gp,25
 354:	01d01463          	bne	zero,t4,35c <fail>
 358:	00301c63          	bne	zero,gp,370 <pass>

0000035c <fail>:
 35c:	0ff0000f          	fence	iorw,iorw
 360:	e00802b7          	lui	t0,0xe0080
 364:	01234337          	lui	t1,0x1234
 368:	56930313          	addi	t1,t1,1385 # 1234569 <begin_signature+0x1233569>
 36c:	0062a023          	sw	t1,0(t0) # e0080000 <__start_addr+0x6007fff0>

00000370 <pass>:
 370:	0ff0000f          	fence	iorw,iorw
 374:	e00802b7          	lui	t0,0xe0080
 378:	01234337          	lui	t1,0x1234
 37c:	56830313          	addi	t1,t1,1384 # 1234568 <begin_signature+0x1233568>
 380:	0062a023          	sw	t1,0(t0) # e0080000 <__start_addr+0x6007fff0>
 384:	0000                	c.unimp
 386:	0001                	c.addi	zero,0
 388:	00000013          	addi	zero,zero,0
 38c:	00000013          	addi	zero,zero,0
 390:	00000013          	addi	zero,zero,0
 394:	00000013          	addi	zero,zero,0
 398:	00000013          	addi	zero,zero,0
 39c:	00000013          	addi	zero,zero,0
 3a0:	00000013          	addi	zero,zero,0
 3a4:	00000013          	addi	zero,zero,0
 3a8:	00000013          	addi	zero,zero,0
 3ac:	00000013          	addi	zero,zero,0
 3b0:	00000013          	addi	zero,zero,0
 3b4:	00000013          	addi	zero,zero,0
 3b8:	00000013          	addi	zero,zero,0
 3bc:	00000013          	addi	zero,zero,0

Contents of section .loader:
 80000000 97020000 83a20201 82920000 00000000  ................
 80000010 80000000 00000000                    ........        
