
dhry.exe:     file format elf32-littleriscv


Disassembly of section .init:

00000000 <_RELAX_END_>:
   0:	1000                	c.addi4spn	s0,sp,32
   2:	0000                	c.unimp
   4:	10f8                	c.addi4spn	a4,sp,108
   6:	0000                	c.unimp
   8:	10f8                	c.addi4spn	a4,sp,108
   a:	0000                	c.unimp
   c:	10f8                	c.addi4spn	a4,sp,108
   e:	0000                	c.unimp
  10:	10f8                	c.addi4spn	a4,sp,108
  12:	0000                	c.unimp
  14:	10f8                	c.addi4spn	a4,sp,108
  16:	0000                	c.unimp
  18:	10f8                	c.addi4spn	a4,sp,108
  1a:	0000                	c.unimp
  1c:	10f8                	c.addi4spn	a4,sp,108
  1e:	0000                	c.unimp
  20:	10f8                	c.addi4spn	a4,sp,108
  22:	0000                	c.unimp
  24:	10f8                	c.addi4spn	a4,sp,108
  26:	0000                	c.unimp
  28:	10f8                	c.addi4spn	a4,sp,108
  2a:	0000                	c.unimp
  2c:	10f8                	c.addi4spn	a4,sp,108
  2e:	0000                	c.unimp
  30:	10f8                	c.addi4spn	a4,sp,108
  32:	0000                	c.unimp
  34:	10f8                	c.addi4spn	a4,sp,108
  36:	0000                	c.unimp
  38:	10f8                	c.addi4spn	a4,sp,108
  3a:	0000                	c.unimp
  3c:	10f8                	c.addi4spn	a4,sp,108
  3e:	0000                	c.unimp
  40:	10f8                	c.addi4spn	a4,sp,108
  42:	0000                	c.unimp
  44:	10f8                	c.addi4spn	a4,sp,108
  46:	0000                	c.unimp
  48:	10f8                	c.addi4spn	a4,sp,108
  4a:	0000                	c.unimp
  4c:	10f8                	c.addi4spn	a4,sp,108
  4e:	0000                	c.unimp
  50:	10f8                	c.addi4spn	a4,sp,108
  52:	0000                	c.unimp
  54:	10f8                	c.addi4spn	a4,sp,108
  56:	0000                	c.unimp
  58:	10f8                	c.addi4spn	a4,sp,108
  5a:	0000                	c.unimp
  5c:	10f8                	c.addi4spn	a4,sp,108
  5e:	0000                	c.unimp
  60:	10f8                	c.addi4spn	a4,sp,108
  62:	0000                	c.unimp
  64:	10f8                	c.addi4spn	a4,sp,108
  66:	0000                	c.unimp
  68:	10f8                	c.addi4spn	a4,sp,108
  6a:	0000                	c.unimp
  6c:	10f8                	c.addi4spn	a4,sp,108
  6e:	0000                	c.unimp
  70:	10f8                	c.addi4spn	a4,sp,108
  72:	0000                	c.unimp
  74:	10f8                	c.addi4spn	a4,sp,108
  76:	0000                	c.unimp
  78:	10f8                	c.addi4spn	a4,sp,108
  7a:	0000                	c.unimp
  7c:	10f8                	c.addi4spn	a4,sp,108
	...

00000080 <_start>:
  80:	a009                	c.j	82 <_reset_handler>

00000082 <_reset_handler>:
  82:	342022f3          	csrrs	t0,mcause,zero
  86:	00028463          	beq	t0,zero,8e <_reset_handler+0xc>
  8a:	06a0106f          	jal	zero,10f4 <nmi_handler>
  8e:	4081                	c.li	ra,0
  90:	4101                	c.li	sp,0
  92:	4181                	c.li	gp,0
  94:	4201                	c.li	tp,0
  96:	4281                	c.li	t0,0
  98:	4301                	c.li	t1,0
  9a:	4381                	c.li	t2,0
  9c:	4401                	c.li	s0,0
  9e:	4481                	c.li	s1,0
  a0:	4501                	c.li	a0,0
  a2:	4581                	c.li	a1,0
  a4:	4601                	c.li	a2,0
  a6:	4681                	c.li	a3,0
  a8:	4701                	c.li	a4,0
  aa:	4781                	c.li	a5,0
  ac:	4801                	c.li	a6,0
  ae:	4881                	c.li	a7,0
  b0:	4901                	c.li	s2,0
  b2:	4981                	c.li	s3,0
  b4:	4a01                	c.li	s4,0
  b6:	4a81                	c.li	s5,0
  b8:	4b01                	c.li	s6,0
  ba:	4b81                	c.li	s7,0
  bc:	4c01                	c.li	s8,0
  be:	4c81                	c.li	s9,0
  c0:	4d01                	c.li	s10,0
  c2:	4d81                	c.li	s11,0
  c4:	4e01                	c.li	t3,0
  c6:	4e81                	c.li	t4,0
  c8:	4f01                	c.li	t5,0
  ca:	4f81                	c.li	t6,0
  cc:	301027f3          	csrrs	a5,misa,zero
  d0:	8395                	c.srli	a5,0x5
  d2:	8b85                	c.andi	a5,1
  d4:	c7c1                	c.beqz	a5,15c <_reset_handler+0xda>
  d6:	6709                	c.lui	a4,0x2
  d8:	30072073          	csrrs	zero,mstatus,a4
  dc:	f0000053          	fmv.w.x	ft0,zero
  e0:	f00000d3          	fmv.w.x	ft1,zero
  e4:	f0000153          	fmv.w.x	ft2,zero
  e8:	f00001d3          	fmv.w.x	ft3,zero
  ec:	f0000253          	fmv.w.x	ft4,zero
  f0:	f00002d3          	fmv.w.x	ft5,zero
  f4:	f0000353          	fmv.w.x	ft6,zero
  f8:	f00003d3          	fmv.w.x	ft7,zero
  fc:	f0000453          	fmv.w.x	fs0,zero
 100:	f00004d3          	fmv.w.x	fs1,zero
 104:	f0000553          	fmv.w.x	fa0,zero
 108:	f00005d3          	fmv.w.x	fa1,zero
 10c:	f0000653          	fmv.w.x	fa2,zero
 110:	f00006d3          	fmv.w.x	fa3,zero
 114:	f0000753          	fmv.w.x	fa4,zero
 118:	f00007d3          	fmv.w.x	fa5,zero
 11c:	f0000853          	fmv.w.x	fa6,zero
 120:	f00008d3          	fmv.w.x	fa7,zero
 124:	f0000953          	fmv.w.x	fs2,zero
 128:	f00009d3          	fmv.w.x	fs3,zero
 12c:	f0000a53          	fmv.w.x	fs4,zero
 130:	f0000ad3          	fmv.w.x	fs5,zero
 134:	f0000b53          	fmv.w.x	fs6,zero
 138:	f0000bd3          	fmv.w.x	fs7,zero
 13c:	f0000c53          	fmv.w.x	fs8,zero
 140:	f0000cd3          	fmv.w.x	fs9,zero
 144:	f0000d53          	fmv.w.x	fs10,zero
 148:	f0000dd3          	fmv.w.x	fs11,zero
 14c:	f0000e53          	fmv.w.x	ft8,zero
 150:	f0000ed3          	fmv.w.x	ft9,zero
 154:	f0000f53          	fmv.w.x	ft10,zero
 158:	f0000fd3          	fmv.w.x	ft11,zero
 15c:	301027f3          	csrrs	a5,misa,zero
 160:	83d5                	c.srli	a5,0x15
 162:	8b85                	c.andi	a5,1
 164:	cbd9                	c.beqz	a5,1fa <_reset_handler+0x178>
 166:	300027f3          	csrrs	a5,mstatus,zero
 16a:	20000713          	addi	a4,zero,512
 16e:	30072073          	csrrs	zero,mstatus,a4
 172:	01007757          	vsetvli	a4,zero,e32,m1,tu,mu,d1
 176:	5e003057          	vmv.v.i	v0,0
 17a:	5e0030d7          	vmv.v.i	v1,0
 17e:	5e003157          	vmv.v.i	v2,0
 182:	5e0031d7          	vmv.v.i	v3,0
 186:	5e003257          	vmv.v.i	v4,0
 18a:	5e0032d7          	vmv.v.i	v5,0
 18e:	5e003357          	vmv.v.i	v6,0
 192:	5e0033d7          	vmv.v.i	v7,0
 196:	5e003457          	vmv.v.i	v8,0
 19a:	5e0034d7          	vmv.v.i	v9,0
 19e:	5e003557          	vmv.v.i	v10,0
 1a2:	5e0035d7          	vmv.v.i	v11,0
 1a6:	5e003657          	vmv.v.i	v12,0
 1aa:	5e0036d7          	vmv.v.i	v13,0
 1ae:	5e003757          	vmv.v.i	v14,0
 1b2:	5e0037d7          	vmv.v.i	v15,0
 1b6:	5e003857          	vmv.v.i	v16,0
 1ba:	5e0038d7          	vmv.v.i	v17,0
 1be:	5e003957          	vmv.v.i	v18,0
 1c2:	5e0039d7          	vmv.v.i	v19,0
 1c6:	5e003a57          	vmv.v.i	v20,0
 1ca:	5e003ad7          	vmv.v.i	v21,0
 1ce:	5e003b57          	vmv.v.i	v22,0
 1d2:	5e003bd7          	vmv.v.i	v23,0
 1d6:	5e003c57          	vmv.v.i	v24,0
 1da:	5e003cd7          	vmv.v.i	v25,0
 1de:	5e003d57          	vmv.v.i	v26,0
 1e2:	5e003dd7          	vmv.v.i	v27,0
 1e6:	5e003e57          	vmv.v.i	v28,0
 1ea:	5e003ed7          	vmv.v.i	v29,0
 1ee:	5e003f57          	vmv.v.i	v30,0
 1f2:	5e003fd7          	vmv.v.i	v31,0
 1f6:	30079073          	csrrw	zero,mstatus,a5
 1fa:	00000197          	auipc	gp,0x0
 1fe:	1461a183          	lw	gp,326(gp) # 340 <__global_pointer_addr>
 202:	00000297          	auipc	t0,0x0
 206:	1462a283          	lw	t0,326(t0) # 348 <_stack_addr>
 20a:	f1402373          	csrrs	t1,mhartid,zero
 20e:	63a1                	c.lui	t2,0x8
 210:	00030563          	beq	t1,zero,21a <_reset_handler+0x198>
 214:	929e                	c.add	t0,t2
 216:	137d                	c.addi	t1,-1
 218:	bfe5                	c.j	210 <_reset_handler+0x18e>
 21a:	8116                	c.mv	sp,t0
 21c:	fc202373          	csrrs	t1,mmsc_cfg,zero
 220:	01b35313          	srli	t1,t1,0x1b
 224:	00137313          	andi	t1,t1,1
 228:	00030f63          	beq	t1,zero,246 <_reset_handler+0x1c4>
 22c:	00002297          	auipc	t0,0x2
 230:	dd428293          	addi	t0,t0,-556 # 2000 <_trap_entry_vclic>
 234:	30729073          	csrrw	zero,mtvt,t0
 238:	00001297          	auipc	t0,0x1
 23c:	dc828293          	addi	t0,t0,-568 # 1000 <m_trap_entry>
 240:	0032e293          	ori	t0,t0,3
 244:	a885                	c.j	2b4 <_mtvec_set>
 246:	00001297          	auipc	t0,0x1
 24a:	e3a28293          	addi	t0,t0,-454 # 1080 <s_trap_entry>
 24e:	30102373          	csrrs	t1,misa,zero
 252:	01235313          	srli	t1,t1,0x12
 256:	00137313          	andi	t1,t1,1
 25a:	02030763          	beq	t1,zero,288 <_init_mtvec>
 25e:	30302373          	csrrs	t1,mideleg,zero
 262:	20000393          	addi	t2,zero,512
 266:	00736333          	or	t1,t1,t2
 26a:	30331073          	csrrw	zero,mideleg,t1
 26e:	7d002373          	csrrs	t1,mmisc_ctl,zero
 272:	ffd37313          	andi	t1,t1,-3
 276:	7d031073          	csrrw	zero,mmisc_ctl,t1
 27a:	10529073          	csrrw	zero,stvec,t0
 27e:	00001297          	auipc	t0,0x1
 282:	d8228293          	addi	t0,t0,-638 # 1000 <m_trap_entry>
 286:	a03d                	c.j	2b4 <_mtvec_set>

00000288 <_init_mtvec>:
 288:	00001297          	auipc	t0,0x1
 28c:	d7828293          	addi	t0,t0,-648 # 1000 <m_trap_entry>
 290:	fc202373          	csrrs	t1,mmsc_cfg,zero
 294:	00c35313          	srli	t1,t1,0xc
 298:	00137313          	andi	t1,t1,1
 29c:	00030c63          	beq	t1,zero,2b4 <_mtvec_set>
 2a0:	7d002373          	csrrs	t1,mmisc_ctl,zero
 2a4:	00236313          	ori	t1,t1,2
 2a8:	7d031073          	csrrw	zero,mmisc_ctl,t1
 2ac:	00000297          	auipc	t0,0x0
 2b0:	d5428293          	addi	t0,t0,-684 # 0 <_RELAX_END_>

000002b4 <_mtvec_set>:
 2b4:	30529073          	csrrw	zero,mtvec,t0
 2b8:	42bd                	c.li	t0,15
 2ba:	3a029073          	csrrw	zero,pmpcfg0,t0
 2be:	52fd                	c.li	t0,-1
 2c0:	3b029073          	csrrw	zero,pmpaddr0,t0
 2c4:	375020ef          	jal	ra,2e38 <__platform_init>
 2c8:	00004517          	auipc	a0,0x4
 2cc:	d3850513          	addi	a0,a0,-712 # 4000 <__data_lmastart>
 2d0:	00000597          	auipc	a1,0x0
 2d4:	0805a583          	lw	a1,128(a1) # 350 <__data_start_addr>
 2d8:	00000617          	auipc	a2,0x0
 2dc:	08062603          	lw	a2,128(a2) # 358 <_edata_addr>
 2e0:	00b50c63          	beq	a0,a1,2f8 <_mtvec_set+0x44>
 2e4:	00c5fa63          	bgeu	a1,a2,2f8 <_mtvec_set+0x44>
 2e8:	00052283          	lw	t0,0(a0)
 2ec:	0055a023          	sw	t0,0(a1)
 2f0:	0511                	c.addi	a0,4
 2f2:	0591                	c.addi	a1,4
 2f4:	fec5eae3          	bltu	a1,a2,2e8 <_mtvec_set+0x34>
 2f8:	00000517          	auipc	a0,0x0
 2fc:	06052503          	lw	a0,96(a0) # 358 <_edata_addr>
 300:	00000597          	auipc	a1,0x0
 304:	0605a583          	lw	a1,96(a1) # 360 <_end_addr>
 308:	00b57763          	bgeu	a0,a1,316 <_mtvec_set+0x62>
 30c:	00052023          	sw	zero,0(a0)
 310:	0511                	c.addi	a0,4
 312:	feb56de3          	bltu	a0,a1,30c <_mtvec_set+0x58>
 316:	00000517          	auipc	a0,0x0
 31a:	05252503          	lw	a0,82(a0) # 368 <__sharedata_start_addr>
 31e:	00000597          	auipc	a1,0x0
 322:	0525a583          	lw	a1,82(a1) # 370 <__sharedata_end_addr>
 326:	00b57763          	bgeu	a0,a1,334 <_mtvec_set+0x80>
 32a:	00052023          	sw	zero,0(a0)
 32e:	0511                	c.addi	a0,4
 330:	feb56de3          	bltu	a0,a1,32a <_mtvec_set+0x76>
 334:	3e1020ef          	jal	ra,2f14 <reset_handler>
 338:	a001                	c.j	338 <_mtvec_set+0x84>
 33a:	8082                	c.jr	ra
 33c:	00000013          	addi	zero,zero,0

00000340 <__global_pointer_addr>:
 340:	1c00                	c.addi4spn	s0,sp,560
 342:	0020                	c.addi4spn	s0,sp,8
 344:	0000                	c.unimp
	...

00000348 <_stack_addr>:
 348:	0000                	c.unimp
 34a:	0028                	c.addi4spn	a0,sp,8
 34c:	0000                	c.unimp
	...

00000350 <__data_start_addr>:
 350:	0800                	c.addi4spn	s0,sp,16
 352:	0020                	c.addi4spn	s0,sp,8
 354:	0000                	c.unimp
	...

00000358 <_edata_addr>:
 358:	1400                	c.addi4spn	s0,sp,544
 35a:	0020                	c.addi4spn	s0,sp,8
 35c:	0000                	c.unimp
	...

00000360 <_end_addr>:
 360:	3c00                	c.fld	fs0,56(s0)
 362:	0020                	c.addi4spn	s0,sp,8
 364:	0000                	c.unimp
	...

00000368 <__sharedata_start_addr>:
 368:	0000                	c.unimp
 36a:	0030                	c.addi4spn	a2,sp,8
 36c:	0000                	c.unimp
	...

00000370 <__sharedata_end_addr>:
 370:	0000                	c.unimp
 372:	0030                	c.addi4spn	a2,sp,8
 374:	0000                	c.unimp
 376:	0000                	c.unimp
 378:	0001                	c.addi	zero,0
 37a:	00000013          	addi	zero,zero,0

Disassembly of section .text:

00001000 <m_trap_entry>:
    1000:	7119                	c.addi16sp	sp,-128
    1002:	c006                	c.swsp	ra,0(sp)
    1004:	c212                	c.swsp	tp,4(sp)
    1006:	c416                	c.swsp	t0,8(sp)
    1008:	c61a                	c.swsp	t1,12(sp)
    100a:	c81e                	c.swsp	t2,16(sp)
    100c:	ca2a                	c.swsp	a0,20(sp)
    100e:	cc2e                	c.swsp	a1,24(sp)
    1010:	ce32                	c.swsp	a2,28(sp)
    1012:	d036                	c.swsp	a3,32(sp)
    1014:	d23a                	c.swsp	a4,36(sp)
    1016:	d43e                	c.swsp	a5,40(sp)
    1018:	d642                	c.swsp	a6,44(sp)
    101a:	d846                	c.swsp	a7,48(sp)
    101c:	da72                	c.swsp	t3,52(sp)
    101e:	dc76                	c.swsp	t4,56(sp)
    1020:	de7a                	c.swsp	t5,60(sp)
    1022:	c0fe                	c.swsp	t6,64(sp)
    1024:	341022f3          	csrrs	t0,mepc,zero
    1028:	30002373          	csrrs	t1,mstatus,zero
    102c:	7c4023f3          	csrrs	t2,mxstatus,zero
    1030:	c296                	c.swsp	t0,68(sp)
    1032:	c49a                	c.swsp	t1,72(sp)
    1034:	c69e                	c.swsp	t2,76(sp)
    1036:	34202573          	csrrs	a0,mcause,zero
    103a:	858a                	c.mv	a1,sp
    103c:	69b010ef          	jal	ra,2ed6 <trap_handler>
    1040:	300477f3          	csrrci	a5,mstatus,8
    1044:	4296                	c.lwsp	t0,68(sp)
    1046:	4326                	c.lwsp	t1,72(sp)
    1048:	43b6                	c.lwsp	t2,76(sp)
    104a:	34129073          	csrrw	zero,mepc,t0
    104e:	30031073          	csrrw	zero,mstatus,t1
    1052:	7c439073          	csrrw	zero,mxstatus,t2
    1056:	4082                	c.lwsp	ra,0(sp)
    1058:	4212                	c.lwsp	tp,4(sp)
    105a:	42a2                	c.lwsp	t0,8(sp)
    105c:	4332                	c.lwsp	t1,12(sp)
    105e:	43c2                	c.lwsp	t2,16(sp)
    1060:	4552                	c.lwsp	a0,20(sp)
    1062:	45e2                	c.lwsp	a1,24(sp)
    1064:	4672                	c.lwsp	a2,28(sp)
    1066:	5682                	c.lwsp	a3,32(sp)
    1068:	5712                	c.lwsp	a4,36(sp)
    106a:	57a2                	c.lwsp	a5,40(sp)
    106c:	5832                	c.lwsp	a6,44(sp)
    106e:	58c2                	c.lwsp	a7,48(sp)
    1070:	5e52                	c.lwsp	t3,52(sp)
    1072:	5ee2                	c.lwsp	t4,56(sp)
    1074:	5f72                	c.lwsp	t5,60(sp)
    1076:	4f86                	c.lwsp	t6,64(sp)
    1078:	08010113          	addi	sp,sp,128
    107c:	30200073          	mret

00001080 <s_trap_entry>:
    1080:	7119                	c.addi16sp	sp,-128
    1082:	c006                	c.swsp	ra,0(sp)
    1084:	c212                	c.swsp	tp,4(sp)
    1086:	c416                	c.swsp	t0,8(sp)
    1088:	c61a                	c.swsp	t1,12(sp)
    108a:	c81e                	c.swsp	t2,16(sp)
    108c:	ca2a                	c.swsp	a0,20(sp)
    108e:	cc2e                	c.swsp	a1,24(sp)
    1090:	ce32                	c.swsp	a2,28(sp)
    1092:	d036                	c.swsp	a3,32(sp)
    1094:	d23a                	c.swsp	a4,36(sp)
    1096:	d43e                	c.swsp	a5,40(sp)
    1098:	d642                	c.swsp	a6,44(sp)
    109a:	d846                	c.swsp	a7,48(sp)
    109c:	da72                	c.swsp	t3,52(sp)
    109e:	dc76                	c.swsp	t4,56(sp)
    10a0:	de7a                	c.swsp	t5,60(sp)
    10a2:	c0fe                	c.swsp	t6,64(sp)
    10a4:	141022f3          	csrrs	t0,sepc,zero
    10a8:	10002373          	csrrs	t1,sstatus,zero
    10ac:	c296                	c.swsp	t0,68(sp)
    10ae:	c49a                	c.swsp	t1,72(sp)
    10b0:	14202573          	csrrs	a0,scause,zero
    10b4:	858a                	c.mv	a1,sp
    10b6:	621010ef          	jal	ra,2ed6 <trap_handler>
    10ba:	100177f3          	csrrci	a5,sstatus,2
    10be:	4296                	c.lwsp	t0,68(sp)
    10c0:	4326                	c.lwsp	t1,72(sp)
    10c2:	14129073          	csrrw	zero,sepc,t0
    10c6:	10031073          	csrrw	zero,sstatus,t1
    10ca:	4082                	c.lwsp	ra,0(sp)
    10cc:	4212                	c.lwsp	tp,4(sp)
    10ce:	42a2                	c.lwsp	t0,8(sp)
    10d0:	4332                	c.lwsp	t1,12(sp)
    10d2:	43c2                	c.lwsp	t2,16(sp)
    10d4:	4552                	c.lwsp	a0,20(sp)
    10d6:	45e2                	c.lwsp	a1,24(sp)
    10d8:	4672                	c.lwsp	a2,28(sp)
    10da:	5682                	c.lwsp	a3,32(sp)
    10dc:	5712                	c.lwsp	a4,36(sp)
    10de:	57a2                	c.lwsp	a5,40(sp)
    10e0:	5832                	c.lwsp	a6,44(sp)
    10e2:	58c2                	c.lwsp	a7,48(sp)
    10e4:	5e52                	c.lwsp	t3,52(sp)
    10e6:	5ee2                	c.lwsp	t4,56(sp)
    10e8:	5f72                	c.lwsp	t5,60(sp)
    10ea:	4f86                	c.lwsp	t6,64(sp)
    10ec:	6109                	c.addi16sp	sp,128
    10ee:	10200073          	sret
    10f2:	a001                	c.j	10f2 <s_trap_entry+0x72>

000010f4 <nmi_handler>:
    10f4:	a001                	c.j	10f4 <nmi_handler>

000010f6 <machine_ei_handler>:
    10f6:	a001                	c.j	10f6 <machine_ei_handler>

000010f8 <_EI_10_HANDLER_WRAPPER>:
    10f8:	7119                	c.addi16sp	sp,-128
    10fa:	c006                	c.swsp	ra,0(sp)
    10fc:	c212                	c.swsp	tp,4(sp)
    10fe:	c416                	c.swsp	t0,8(sp)
    1100:	c61a                	c.swsp	t1,12(sp)
    1102:	c81e                	c.swsp	t2,16(sp)
    1104:	ca2a                	c.swsp	a0,20(sp)
    1106:	cc2e                	c.swsp	a1,24(sp)
    1108:	ce32                	c.swsp	a2,28(sp)
    110a:	d036                	c.swsp	a3,32(sp)
    110c:	d23a                	c.swsp	a4,36(sp)
    110e:	d43e                	c.swsp	a5,40(sp)
    1110:	d642                	c.swsp	a6,44(sp)
    1112:	d846                	c.swsp	a7,48(sp)
    1114:	da72                	c.swsp	t3,52(sp)
    1116:	dc76                	c.swsp	t4,56(sp)
    1118:	de7a                	c.swsp	t5,60(sp)
    111a:	c0fe                	c.swsp	t6,64(sp)
    111c:	341022f3          	csrrs	t0,mepc,zero
    1120:	30002373          	csrrs	t1,mstatus,zero
    1124:	7c4023f3          	csrrs	t2,mxstatus,zero
    1128:	c296                	c.swsp	t0,68(sp)
    112a:	c49a                	c.swsp	t1,72(sp)
    112c:	c69e                	c.swsp	t2,76(sp)
    112e:	34202573          	csrrs	a0,mcause,zero
    1132:	305025f3          	csrrs	a1,mtvec,zero
    1136:	898d                	c.andi	a1,3
    1138:	c581                	c.beqz	a1,1140 <_EI_10_HANDLER_WRAPPER+0x48>
    113a:	3ff57513          	andi	a0,a0,1023
    113e:	1539                	c.addi	a0,-18
    1140:	3f5d                	c.jal	10f6 <machine_ei_handler>
    1142:	300477f3          	csrrci	a5,mstatus,8
    1146:	4296                	c.lwsp	t0,68(sp)
    1148:	4326                	c.lwsp	t1,72(sp)
    114a:	43b6                	c.lwsp	t2,76(sp)
    114c:	34129073          	csrrw	zero,mepc,t0
    1150:	30031073          	csrrw	zero,mstatus,t1
    1154:	7c439073          	csrrw	zero,mxstatus,t2
    1158:	4082                	c.lwsp	ra,0(sp)
    115a:	4212                	c.lwsp	tp,4(sp)
    115c:	42a2                	c.lwsp	t0,8(sp)
    115e:	4332                	c.lwsp	t1,12(sp)
    1160:	43c2                	c.lwsp	t2,16(sp)
    1162:	4552                	c.lwsp	a0,20(sp)
    1164:	45e2                	c.lwsp	a1,24(sp)
    1166:	4672                	c.lwsp	a2,28(sp)
    1168:	5682                	c.lwsp	a3,32(sp)
    116a:	5712                	c.lwsp	a4,36(sp)
    116c:	57a2                	c.lwsp	a5,40(sp)
    116e:	5832                	c.lwsp	a6,44(sp)
    1170:	58c2                	c.lwsp	a7,48(sp)
    1172:	5e52                	c.lwsp	t3,52(sp)
    1174:	5ee2                	c.lwsp	t4,56(sp)
    1176:	5f72                	c.lwsp	t5,60(sp)
    1178:	4f86                	c.lwsp	t6,64(sp)
    117a:	6109                	c.addi16sp	sp,128
    117c:	30200073          	mret
    1180:	00000013          	addi	zero,zero,0
    1184:	00000013          	addi	zero,zero,0
    1188:	00000013          	addi	zero,zero,0
    118c:	00000013          	addi	zero,zero,0
    1190:	00000013          	addi	zero,zero,0
    1194:	00000013          	addi	zero,zero,0
    1198:	00000013          	addi	zero,zero,0
    119c:	00000013          	addi	zero,zero,0
    11a0:	00000013          	addi	zero,zero,0
    11a4:	00000013          	addi	zero,zero,0
    11a8:	00000013          	addi	zero,zero,0
    11ac:	00000013          	addi	zero,zero,0
    11b0:	00000013          	addi	zero,zero,0
    11b4:	00000013          	addi	zero,zero,0
    11b8:	00000013          	addi	zero,zero,0
    11bc:	00000013          	addi	zero,zero,0
    11c0:	00000013          	addi	zero,zero,0
    11c4:	00000013          	addi	zero,zero,0
    11c8:	00000013          	addi	zero,zero,0
    11cc:	00000013          	addi	zero,zero,0
    11d0:	00000013          	addi	zero,zero,0
    11d4:	00000013          	addi	zero,zero,0
    11d8:	00000013          	addi	zero,zero,0
    11dc:	00000013          	addi	zero,zero,0
    11e0:	00000013          	addi	zero,zero,0
    11e4:	00000013          	addi	zero,zero,0
    11e8:	00000013          	addi	zero,zero,0
    11ec:	00000013          	addi	zero,zero,0
    11f0:	00000013          	addi	zero,zero,0
    11f4:	00000013          	addi	zero,zero,0
    11f8:	00000013          	addi	zero,zero,0
    11fc:	00000013          	addi	zero,zero,0
    1200:	00000013          	addi	zero,zero,0
    1204:	00000013          	addi	zero,zero,0
    1208:	00000013          	addi	zero,zero,0
    120c:	00000013          	addi	zero,zero,0
    1210:	00000013          	addi	zero,zero,0
    1214:	00000013          	addi	zero,zero,0
    1218:	00000013          	addi	zero,zero,0
    121c:	00000013          	addi	zero,zero,0
    1220:	00000013          	addi	zero,zero,0
    1224:	00000013          	addi	zero,zero,0
    1228:	00000013          	addi	zero,zero,0
    122c:	00000013          	addi	zero,zero,0
    1230:	00000013          	addi	zero,zero,0
    1234:	00000013          	addi	zero,zero,0
    1238:	00000013          	addi	zero,zero,0
    123c:	00000013          	addi	zero,zero,0
    1240:	00000013          	addi	zero,zero,0
    1244:	00000013          	addi	zero,zero,0
    1248:	00000013          	addi	zero,zero,0
    124c:	00000013          	addi	zero,zero,0
    1250:	00000013          	addi	zero,zero,0
    1254:	00000013          	addi	zero,zero,0
    1258:	00000013          	addi	zero,zero,0
    125c:	00000013          	addi	zero,zero,0
    1260:	00000013          	addi	zero,zero,0
    1264:	00000013          	addi	zero,zero,0
    1268:	00000013          	addi	zero,zero,0
    126c:	00000013          	addi	zero,zero,0
    1270:	00000013          	addi	zero,zero,0
    1274:	00000013          	addi	zero,zero,0
    1278:	00000013          	addi	zero,zero,0
    127c:	00000013          	addi	zero,zero,0
    1280:	00000013          	addi	zero,zero,0
    1284:	00000013          	addi	zero,zero,0
    1288:	00000013          	addi	zero,zero,0
    128c:	00000013          	addi	zero,zero,0
    1290:	00000013          	addi	zero,zero,0
    1294:	00000013          	addi	zero,zero,0
    1298:	00000013          	addi	zero,zero,0
    129c:	00000013          	addi	zero,zero,0
    12a0:	00000013          	addi	zero,zero,0
    12a4:	00000013          	addi	zero,zero,0
    12a8:	00000013          	addi	zero,zero,0
    12ac:	00000013          	addi	zero,zero,0
    12b0:	00000013          	addi	zero,zero,0
    12b4:	00000013          	addi	zero,zero,0
    12b8:	00000013          	addi	zero,zero,0
    12bc:	00000013          	addi	zero,zero,0
    12c0:	00000013          	addi	zero,zero,0
    12c4:	00000013          	addi	zero,zero,0
    12c8:	00000013          	addi	zero,zero,0
    12cc:	00000013          	addi	zero,zero,0
    12d0:	00000013          	addi	zero,zero,0
    12d4:	00000013          	addi	zero,zero,0
    12d8:	00000013          	addi	zero,zero,0
    12dc:	00000013          	addi	zero,zero,0
    12e0:	00000013          	addi	zero,zero,0
    12e4:	00000013          	addi	zero,zero,0
    12e8:	00000013          	addi	zero,zero,0
    12ec:	00000013          	addi	zero,zero,0
    12f0:	00000013          	addi	zero,zero,0
    12f4:	00000013          	addi	zero,zero,0
    12f8:	00000013          	addi	zero,zero,0
    12fc:	00000013          	addi	zero,zero,0
    1300:	00000013          	addi	zero,zero,0
    1304:	00000013          	addi	zero,zero,0
    1308:	00000013          	addi	zero,zero,0
    130c:	00000013          	addi	zero,zero,0
    1310:	00000013          	addi	zero,zero,0
    1314:	00000013          	addi	zero,zero,0
    1318:	00000013          	addi	zero,zero,0
    131c:	00000013          	addi	zero,zero,0
    1320:	00000013          	addi	zero,zero,0
    1324:	00000013          	addi	zero,zero,0
    1328:	00000013          	addi	zero,zero,0
    132c:	00000013          	addi	zero,zero,0
    1330:	00000013          	addi	zero,zero,0
    1334:	00000013          	addi	zero,zero,0
    1338:	00000013          	addi	zero,zero,0
    133c:	00000013          	addi	zero,zero,0
    1340:	00000013          	addi	zero,zero,0
    1344:	00000013          	addi	zero,zero,0
    1348:	00000013          	addi	zero,zero,0
    134c:	00000013          	addi	zero,zero,0
    1350:	00000013          	addi	zero,zero,0
    1354:	00000013          	addi	zero,zero,0
    1358:	00000013          	addi	zero,zero,0
    135c:	00000013          	addi	zero,zero,0
    1360:	00000013          	addi	zero,zero,0
    1364:	00000013          	addi	zero,zero,0
    1368:	00000013          	addi	zero,zero,0
    136c:	00000013          	addi	zero,zero,0
    1370:	00000013          	addi	zero,zero,0
    1374:	00000013          	addi	zero,zero,0
    1378:	00000013          	addi	zero,zero,0
    137c:	00000013          	addi	zero,zero,0
    1380:	00000013          	addi	zero,zero,0
    1384:	00000013          	addi	zero,zero,0
    1388:	00000013          	addi	zero,zero,0
    138c:	00000013          	addi	zero,zero,0
    1390:	00000013          	addi	zero,zero,0
    1394:	00000013          	addi	zero,zero,0
    1398:	00000013          	addi	zero,zero,0
    139c:	00000013          	addi	zero,zero,0
    13a0:	00000013          	addi	zero,zero,0
    13a4:	00000013          	addi	zero,zero,0
    13a8:	00000013          	addi	zero,zero,0
    13ac:	00000013          	addi	zero,zero,0
    13b0:	00000013          	addi	zero,zero,0
    13b4:	00000013          	addi	zero,zero,0
    13b8:	00000013          	addi	zero,zero,0
    13bc:	00000013          	addi	zero,zero,0
    13c0:	00000013          	addi	zero,zero,0
    13c4:	00000013          	addi	zero,zero,0
    13c8:	00000013          	addi	zero,zero,0
    13cc:	00000013          	addi	zero,zero,0
    13d0:	00000013          	addi	zero,zero,0
    13d4:	00000013          	addi	zero,zero,0
    13d8:	00000013          	addi	zero,zero,0
    13dc:	00000013          	addi	zero,zero,0
    13e0:	00000013          	addi	zero,zero,0
    13e4:	00000013          	addi	zero,zero,0
    13e8:	00000013          	addi	zero,zero,0
    13ec:	00000013          	addi	zero,zero,0
    13f0:	00000013          	addi	zero,zero,0
    13f4:	00000013          	addi	zero,zero,0
    13f8:	00000013          	addi	zero,zero,0
    13fc:	00000013          	addi	zero,zero,0
    1400:	00000013          	addi	zero,zero,0
    1404:	00000013          	addi	zero,zero,0
    1408:	00000013          	addi	zero,zero,0
    140c:	00000013          	addi	zero,zero,0
    1410:	00000013          	addi	zero,zero,0
    1414:	00000013          	addi	zero,zero,0
    1418:	00000013          	addi	zero,zero,0
    141c:	00000013          	addi	zero,zero,0
    1420:	00000013          	addi	zero,zero,0
    1424:	00000013          	addi	zero,zero,0
    1428:	00000013          	addi	zero,zero,0
    142c:	00000013          	addi	zero,zero,0
    1430:	00000013          	addi	zero,zero,0
    1434:	00000013          	addi	zero,zero,0
    1438:	00000013          	addi	zero,zero,0
    143c:	00000013          	addi	zero,zero,0
    1440:	00000013          	addi	zero,zero,0
    1444:	00000013          	addi	zero,zero,0
    1448:	00000013          	addi	zero,zero,0
    144c:	00000013          	addi	zero,zero,0
    1450:	00000013          	addi	zero,zero,0
    1454:	00000013          	addi	zero,zero,0
    1458:	00000013          	addi	zero,zero,0
    145c:	00000013          	addi	zero,zero,0
    1460:	00000013          	addi	zero,zero,0
    1464:	00000013          	addi	zero,zero,0
    1468:	00000013          	addi	zero,zero,0
    146c:	00000013          	addi	zero,zero,0
    1470:	00000013          	addi	zero,zero,0
    1474:	00000013          	addi	zero,zero,0
    1478:	00000013          	addi	zero,zero,0
    147c:	00000013          	addi	zero,zero,0
    1480:	00000013          	addi	zero,zero,0
    1484:	00000013          	addi	zero,zero,0
    1488:	00000013          	addi	zero,zero,0
    148c:	00000013          	addi	zero,zero,0
    1490:	00000013          	addi	zero,zero,0
    1494:	00000013          	addi	zero,zero,0
    1498:	00000013          	addi	zero,zero,0
    149c:	00000013          	addi	zero,zero,0
    14a0:	00000013          	addi	zero,zero,0
    14a4:	00000013          	addi	zero,zero,0
    14a8:	00000013          	addi	zero,zero,0
    14ac:	00000013          	addi	zero,zero,0
    14b0:	00000013          	addi	zero,zero,0
    14b4:	00000013          	addi	zero,zero,0
    14b8:	00000013          	addi	zero,zero,0
    14bc:	00000013          	addi	zero,zero,0
    14c0:	00000013          	addi	zero,zero,0
    14c4:	00000013          	addi	zero,zero,0
    14c8:	00000013          	addi	zero,zero,0
    14cc:	00000013          	addi	zero,zero,0
    14d0:	00000013          	addi	zero,zero,0
    14d4:	00000013          	addi	zero,zero,0
    14d8:	00000013          	addi	zero,zero,0
    14dc:	00000013          	addi	zero,zero,0
    14e0:	00000013          	addi	zero,zero,0
    14e4:	00000013          	addi	zero,zero,0
    14e8:	00000013          	addi	zero,zero,0
    14ec:	00000013          	addi	zero,zero,0
    14f0:	00000013          	addi	zero,zero,0
    14f4:	00000013          	addi	zero,zero,0
    14f8:	00000013          	addi	zero,zero,0
    14fc:	00000013          	addi	zero,zero,0
    1500:	00000013          	addi	zero,zero,0
    1504:	00000013          	addi	zero,zero,0
    1508:	00000013          	addi	zero,zero,0
    150c:	00000013          	addi	zero,zero,0
    1510:	00000013          	addi	zero,zero,0
    1514:	00000013          	addi	zero,zero,0
    1518:	00000013          	addi	zero,zero,0
    151c:	00000013          	addi	zero,zero,0
    1520:	00000013          	addi	zero,zero,0
    1524:	00000013          	addi	zero,zero,0
    1528:	00000013          	addi	zero,zero,0
    152c:	00000013          	addi	zero,zero,0
    1530:	00000013          	addi	zero,zero,0
    1534:	00000013          	addi	zero,zero,0
    1538:	00000013          	addi	zero,zero,0
    153c:	00000013          	addi	zero,zero,0
    1540:	00000013          	addi	zero,zero,0
    1544:	00000013          	addi	zero,zero,0
    1548:	00000013          	addi	zero,zero,0
    154c:	00000013          	addi	zero,zero,0
    1550:	00000013          	addi	zero,zero,0
    1554:	00000013          	addi	zero,zero,0
    1558:	00000013          	addi	zero,zero,0
    155c:	00000013          	addi	zero,zero,0
    1560:	00000013          	addi	zero,zero,0
    1564:	00000013          	addi	zero,zero,0
    1568:	00000013          	addi	zero,zero,0
    156c:	00000013          	addi	zero,zero,0
    1570:	00000013          	addi	zero,zero,0
    1574:	00000013          	addi	zero,zero,0
    1578:	00000013          	addi	zero,zero,0
    157c:	00000013          	addi	zero,zero,0
    1580:	00000013          	addi	zero,zero,0
    1584:	00000013          	addi	zero,zero,0
    1588:	00000013          	addi	zero,zero,0
    158c:	00000013          	addi	zero,zero,0
    1590:	00000013          	addi	zero,zero,0
    1594:	00000013          	addi	zero,zero,0
    1598:	00000013          	addi	zero,zero,0
    159c:	00000013          	addi	zero,zero,0
    15a0:	00000013          	addi	zero,zero,0
    15a4:	00000013          	addi	zero,zero,0
    15a8:	00000013          	addi	zero,zero,0
    15ac:	00000013          	addi	zero,zero,0
    15b0:	00000013          	addi	zero,zero,0
    15b4:	00000013          	addi	zero,zero,0
    15b8:	00000013          	addi	zero,zero,0
    15bc:	00000013          	addi	zero,zero,0
    15c0:	00000013          	addi	zero,zero,0
    15c4:	00000013          	addi	zero,zero,0
    15c8:	00000013          	addi	zero,zero,0
    15cc:	00000013          	addi	zero,zero,0
    15d0:	00000013          	addi	zero,zero,0
    15d4:	00000013          	addi	zero,zero,0
    15d8:	00000013          	addi	zero,zero,0
    15dc:	00000013          	addi	zero,zero,0
    15e0:	00000013          	addi	zero,zero,0
    15e4:	00000013          	addi	zero,zero,0
    15e8:	00000013          	addi	zero,zero,0
    15ec:	00000013          	addi	zero,zero,0
    15f0:	00000013          	addi	zero,zero,0
    15f4:	00000013          	addi	zero,zero,0
    15f8:	00000013          	addi	zero,zero,0
    15fc:	00000013          	addi	zero,zero,0
    1600:	00000013          	addi	zero,zero,0
    1604:	00000013          	addi	zero,zero,0
    1608:	00000013          	addi	zero,zero,0
    160c:	00000013          	addi	zero,zero,0
    1610:	00000013          	addi	zero,zero,0
    1614:	00000013          	addi	zero,zero,0
    1618:	00000013          	addi	zero,zero,0
    161c:	00000013          	addi	zero,zero,0
    1620:	00000013          	addi	zero,zero,0
    1624:	00000013          	addi	zero,zero,0
    1628:	00000013          	addi	zero,zero,0
    162c:	00000013          	addi	zero,zero,0
    1630:	00000013          	addi	zero,zero,0
    1634:	00000013          	addi	zero,zero,0
    1638:	00000013          	addi	zero,zero,0
    163c:	00000013          	addi	zero,zero,0
    1640:	00000013          	addi	zero,zero,0
    1644:	00000013          	addi	zero,zero,0
    1648:	00000013          	addi	zero,zero,0
    164c:	00000013          	addi	zero,zero,0
    1650:	00000013          	addi	zero,zero,0
    1654:	00000013          	addi	zero,zero,0
    1658:	00000013          	addi	zero,zero,0
    165c:	00000013          	addi	zero,zero,0
    1660:	00000013          	addi	zero,zero,0
    1664:	00000013          	addi	zero,zero,0
    1668:	00000013          	addi	zero,zero,0
    166c:	00000013          	addi	zero,zero,0
    1670:	00000013          	addi	zero,zero,0
    1674:	00000013          	addi	zero,zero,0
    1678:	00000013          	addi	zero,zero,0
    167c:	00000013          	addi	zero,zero,0
    1680:	00000013          	addi	zero,zero,0
    1684:	00000013          	addi	zero,zero,0
    1688:	00000013          	addi	zero,zero,0
    168c:	00000013          	addi	zero,zero,0
    1690:	00000013          	addi	zero,zero,0
    1694:	00000013          	addi	zero,zero,0
    1698:	00000013          	addi	zero,zero,0
    169c:	00000013          	addi	zero,zero,0
    16a0:	00000013          	addi	zero,zero,0
    16a4:	00000013          	addi	zero,zero,0
    16a8:	00000013          	addi	zero,zero,0
    16ac:	00000013          	addi	zero,zero,0
    16b0:	00000013          	addi	zero,zero,0
    16b4:	00000013          	addi	zero,zero,0
    16b8:	00000013          	addi	zero,zero,0
    16bc:	00000013          	addi	zero,zero,0
    16c0:	00000013          	addi	zero,zero,0
    16c4:	00000013          	addi	zero,zero,0
    16c8:	00000013          	addi	zero,zero,0
    16cc:	00000013          	addi	zero,zero,0
    16d0:	00000013          	addi	zero,zero,0
    16d4:	00000013          	addi	zero,zero,0
    16d8:	00000013          	addi	zero,zero,0
    16dc:	00000013          	addi	zero,zero,0
    16e0:	00000013          	addi	zero,zero,0
    16e4:	00000013          	addi	zero,zero,0
    16e8:	00000013          	addi	zero,zero,0
    16ec:	00000013          	addi	zero,zero,0
    16f0:	00000013          	addi	zero,zero,0
    16f4:	00000013          	addi	zero,zero,0
    16f8:	00000013          	addi	zero,zero,0
    16fc:	00000013          	addi	zero,zero,0
    1700:	00000013          	addi	zero,zero,0
    1704:	00000013          	addi	zero,zero,0
    1708:	00000013          	addi	zero,zero,0
    170c:	00000013          	addi	zero,zero,0
    1710:	00000013          	addi	zero,zero,0
    1714:	00000013          	addi	zero,zero,0
    1718:	00000013          	addi	zero,zero,0
    171c:	00000013          	addi	zero,zero,0
    1720:	00000013          	addi	zero,zero,0
    1724:	00000013          	addi	zero,zero,0
    1728:	00000013          	addi	zero,zero,0
    172c:	00000013          	addi	zero,zero,0
    1730:	00000013          	addi	zero,zero,0
    1734:	00000013          	addi	zero,zero,0
    1738:	00000013          	addi	zero,zero,0
    173c:	00000013          	addi	zero,zero,0
    1740:	00000013          	addi	zero,zero,0
    1744:	00000013          	addi	zero,zero,0
    1748:	00000013          	addi	zero,zero,0
    174c:	00000013          	addi	zero,zero,0
    1750:	00000013          	addi	zero,zero,0
    1754:	00000013          	addi	zero,zero,0
    1758:	00000013          	addi	zero,zero,0
    175c:	00000013          	addi	zero,zero,0
    1760:	00000013          	addi	zero,zero,0
    1764:	00000013          	addi	zero,zero,0
    1768:	00000013          	addi	zero,zero,0
    176c:	00000013          	addi	zero,zero,0
    1770:	00000013          	addi	zero,zero,0
    1774:	00000013          	addi	zero,zero,0
    1778:	00000013          	addi	zero,zero,0
    177c:	00000013          	addi	zero,zero,0
    1780:	00000013          	addi	zero,zero,0
    1784:	00000013          	addi	zero,zero,0
    1788:	00000013          	addi	zero,zero,0
    178c:	00000013          	addi	zero,zero,0
    1790:	00000013          	addi	zero,zero,0
    1794:	00000013          	addi	zero,zero,0
    1798:	00000013          	addi	zero,zero,0
    179c:	00000013          	addi	zero,zero,0
    17a0:	00000013          	addi	zero,zero,0
    17a4:	00000013          	addi	zero,zero,0
    17a8:	00000013          	addi	zero,zero,0
    17ac:	00000013          	addi	zero,zero,0
    17b0:	00000013          	addi	zero,zero,0
    17b4:	00000013          	addi	zero,zero,0
    17b8:	00000013          	addi	zero,zero,0
    17bc:	00000013          	addi	zero,zero,0
    17c0:	00000013          	addi	zero,zero,0
    17c4:	00000013          	addi	zero,zero,0
    17c8:	00000013          	addi	zero,zero,0
    17cc:	00000013          	addi	zero,zero,0
    17d0:	00000013          	addi	zero,zero,0
    17d4:	00000013          	addi	zero,zero,0
    17d8:	00000013          	addi	zero,zero,0
    17dc:	00000013          	addi	zero,zero,0
    17e0:	00000013          	addi	zero,zero,0
    17e4:	00000013          	addi	zero,zero,0
    17e8:	00000013          	addi	zero,zero,0
    17ec:	00000013          	addi	zero,zero,0
    17f0:	00000013          	addi	zero,zero,0
    17f4:	00000013          	addi	zero,zero,0
    17f8:	00000013          	addi	zero,zero,0
    17fc:	00000013          	addi	zero,zero,0
    1800:	00000013          	addi	zero,zero,0
    1804:	00000013          	addi	zero,zero,0
    1808:	00000013          	addi	zero,zero,0
    180c:	00000013          	addi	zero,zero,0
    1810:	00000013          	addi	zero,zero,0
    1814:	00000013          	addi	zero,zero,0
    1818:	00000013          	addi	zero,zero,0
    181c:	00000013          	addi	zero,zero,0
    1820:	00000013          	addi	zero,zero,0
    1824:	00000013          	addi	zero,zero,0
    1828:	00000013          	addi	zero,zero,0
    182c:	00000013          	addi	zero,zero,0
    1830:	00000013          	addi	zero,zero,0
    1834:	00000013          	addi	zero,zero,0
    1838:	00000013          	addi	zero,zero,0
    183c:	00000013          	addi	zero,zero,0
    1840:	00000013          	addi	zero,zero,0
    1844:	00000013          	addi	zero,zero,0
    1848:	00000013          	addi	zero,zero,0
    184c:	00000013          	addi	zero,zero,0
    1850:	00000013          	addi	zero,zero,0
    1854:	00000013          	addi	zero,zero,0
    1858:	00000013          	addi	zero,zero,0
    185c:	00000013          	addi	zero,zero,0
    1860:	00000013          	addi	zero,zero,0
    1864:	00000013          	addi	zero,zero,0
    1868:	00000013          	addi	zero,zero,0
    186c:	00000013          	addi	zero,zero,0
    1870:	00000013          	addi	zero,zero,0
    1874:	00000013          	addi	zero,zero,0
    1878:	00000013          	addi	zero,zero,0
    187c:	00000013          	addi	zero,zero,0
    1880:	00000013          	addi	zero,zero,0
    1884:	00000013          	addi	zero,zero,0
    1888:	00000013          	addi	zero,zero,0
    188c:	00000013          	addi	zero,zero,0
    1890:	00000013          	addi	zero,zero,0
    1894:	00000013          	addi	zero,zero,0
    1898:	00000013          	addi	zero,zero,0
    189c:	00000013          	addi	zero,zero,0
    18a0:	00000013          	addi	zero,zero,0
    18a4:	00000013          	addi	zero,zero,0
    18a8:	00000013          	addi	zero,zero,0
    18ac:	00000013          	addi	zero,zero,0
    18b0:	00000013          	addi	zero,zero,0
    18b4:	00000013          	addi	zero,zero,0
    18b8:	00000013          	addi	zero,zero,0
    18bc:	00000013          	addi	zero,zero,0
    18c0:	00000013          	addi	zero,zero,0
    18c4:	00000013          	addi	zero,zero,0
    18c8:	00000013          	addi	zero,zero,0
    18cc:	00000013          	addi	zero,zero,0
    18d0:	00000013          	addi	zero,zero,0
    18d4:	00000013          	addi	zero,zero,0
    18d8:	00000013          	addi	zero,zero,0
    18dc:	00000013          	addi	zero,zero,0
    18e0:	00000013          	addi	zero,zero,0
    18e4:	00000013          	addi	zero,zero,0
    18e8:	00000013          	addi	zero,zero,0
    18ec:	00000013          	addi	zero,zero,0
    18f0:	00000013          	addi	zero,zero,0
    18f4:	00000013          	addi	zero,zero,0
    18f8:	00000013          	addi	zero,zero,0
    18fc:	00000013          	addi	zero,zero,0
    1900:	00000013          	addi	zero,zero,0
    1904:	00000013          	addi	zero,zero,0
    1908:	00000013          	addi	zero,zero,0
    190c:	00000013          	addi	zero,zero,0
    1910:	00000013          	addi	zero,zero,0
    1914:	00000013          	addi	zero,zero,0
    1918:	00000013          	addi	zero,zero,0
    191c:	00000013          	addi	zero,zero,0
    1920:	00000013          	addi	zero,zero,0
    1924:	00000013          	addi	zero,zero,0
    1928:	00000013          	addi	zero,zero,0
    192c:	00000013          	addi	zero,zero,0
    1930:	00000013          	addi	zero,zero,0
    1934:	00000013          	addi	zero,zero,0
    1938:	00000013          	addi	zero,zero,0
    193c:	00000013          	addi	zero,zero,0
    1940:	00000013          	addi	zero,zero,0
    1944:	00000013          	addi	zero,zero,0
    1948:	00000013          	addi	zero,zero,0
    194c:	00000013          	addi	zero,zero,0
    1950:	00000013          	addi	zero,zero,0
    1954:	00000013          	addi	zero,zero,0
    1958:	00000013          	addi	zero,zero,0
    195c:	00000013          	addi	zero,zero,0
    1960:	00000013          	addi	zero,zero,0
    1964:	00000013          	addi	zero,zero,0
    1968:	00000013          	addi	zero,zero,0
    196c:	00000013          	addi	zero,zero,0
    1970:	00000013          	addi	zero,zero,0
    1974:	00000013          	addi	zero,zero,0
    1978:	00000013          	addi	zero,zero,0
    197c:	00000013          	addi	zero,zero,0
    1980:	00000013          	addi	zero,zero,0
    1984:	00000013          	addi	zero,zero,0
    1988:	00000013          	addi	zero,zero,0
    198c:	00000013          	addi	zero,zero,0
    1990:	00000013          	addi	zero,zero,0
    1994:	00000013          	addi	zero,zero,0
    1998:	00000013          	addi	zero,zero,0
    199c:	00000013          	addi	zero,zero,0
    19a0:	00000013          	addi	zero,zero,0
    19a4:	00000013          	addi	zero,zero,0
    19a8:	00000013          	addi	zero,zero,0
    19ac:	00000013          	addi	zero,zero,0
    19b0:	00000013          	addi	zero,zero,0
    19b4:	00000013          	addi	zero,zero,0
    19b8:	00000013          	addi	zero,zero,0
    19bc:	00000013          	addi	zero,zero,0
    19c0:	00000013          	addi	zero,zero,0
    19c4:	00000013          	addi	zero,zero,0
    19c8:	00000013          	addi	zero,zero,0
    19cc:	00000013          	addi	zero,zero,0
    19d0:	00000013          	addi	zero,zero,0
    19d4:	00000013          	addi	zero,zero,0
    19d8:	00000013          	addi	zero,zero,0
    19dc:	00000013          	addi	zero,zero,0
    19e0:	00000013          	addi	zero,zero,0
    19e4:	00000013          	addi	zero,zero,0
    19e8:	00000013          	addi	zero,zero,0
    19ec:	00000013          	addi	zero,zero,0
    19f0:	00000013          	addi	zero,zero,0
    19f4:	00000013          	addi	zero,zero,0
    19f8:	00000013          	addi	zero,zero,0
    19fc:	00000013          	addi	zero,zero,0
    1a00:	00000013          	addi	zero,zero,0
    1a04:	00000013          	addi	zero,zero,0
    1a08:	00000013          	addi	zero,zero,0
    1a0c:	00000013          	addi	zero,zero,0
    1a10:	00000013          	addi	zero,zero,0
    1a14:	00000013          	addi	zero,zero,0
    1a18:	00000013          	addi	zero,zero,0
    1a1c:	00000013          	addi	zero,zero,0
    1a20:	00000013          	addi	zero,zero,0
    1a24:	00000013          	addi	zero,zero,0
    1a28:	00000013          	addi	zero,zero,0
    1a2c:	00000013          	addi	zero,zero,0
    1a30:	00000013          	addi	zero,zero,0
    1a34:	00000013          	addi	zero,zero,0
    1a38:	00000013          	addi	zero,zero,0
    1a3c:	00000013          	addi	zero,zero,0
    1a40:	00000013          	addi	zero,zero,0
    1a44:	00000013          	addi	zero,zero,0
    1a48:	00000013          	addi	zero,zero,0
    1a4c:	00000013          	addi	zero,zero,0
    1a50:	00000013          	addi	zero,zero,0
    1a54:	00000013          	addi	zero,zero,0
    1a58:	00000013          	addi	zero,zero,0
    1a5c:	00000013          	addi	zero,zero,0
    1a60:	00000013          	addi	zero,zero,0
    1a64:	00000013          	addi	zero,zero,0
    1a68:	00000013          	addi	zero,zero,0
    1a6c:	00000013          	addi	zero,zero,0
    1a70:	00000013          	addi	zero,zero,0
    1a74:	00000013          	addi	zero,zero,0
    1a78:	00000013          	addi	zero,zero,0
    1a7c:	00000013          	addi	zero,zero,0
    1a80:	00000013          	addi	zero,zero,0
    1a84:	00000013          	addi	zero,zero,0
    1a88:	00000013          	addi	zero,zero,0
    1a8c:	00000013          	addi	zero,zero,0
    1a90:	00000013          	addi	zero,zero,0
    1a94:	00000013          	addi	zero,zero,0
    1a98:	00000013          	addi	zero,zero,0
    1a9c:	00000013          	addi	zero,zero,0
    1aa0:	00000013          	addi	zero,zero,0
    1aa4:	00000013          	addi	zero,zero,0
    1aa8:	00000013          	addi	zero,zero,0
    1aac:	00000013          	addi	zero,zero,0
    1ab0:	00000013          	addi	zero,zero,0
    1ab4:	00000013          	addi	zero,zero,0
    1ab8:	00000013          	addi	zero,zero,0
    1abc:	00000013          	addi	zero,zero,0
    1ac0:	00000013          	addi	zero,zero,0
    1ac4:	00000013          	addi	zero,zero,0
    1ac8:	00000013          	addi	zero,zero,0
    1acc:	00000013          	addi	zero,zero,0
    1ad0:	00000013          	addi	zero,zero,0
    1ad4:	00000013          	addi	zero,zero,0
    1ad8:	00000013          	addi	zero,zero,0
    1adc:	00000013          	addi	zero,zero,0
    1ae0:	00000013          	addi	zero,zero,0
    1ae4:	00000013          	addi	zero,zero,0
    1ae8:	00000013          	addi	zero,zero,0
    1aec:	00000013          	addi	zero,zero,0
    1af0:	00000013          	addi	zero,zero,0
    1af4:	00000013          	addi	zero,zero,0
    1af8:	00000013          	addi	zero,zero,0
    1afc:	00000013          	addi	zero,zero,0
    1b00:	00000013          	addi	zero,zero,0
    1b04:	00000013          	addi	zero,zero,0
    1b08:	00000013          	addi	zero,zero,0
    1b0c:	00000013          	addi	zero,zero,0
    1b10:	00000013          	addi	zero,zero,0
    1b14:	00000013          	addi	zero,zero,0
    1b18:	00000013          	addi	zero,zero,0
    1b1c:	00000013          	addi	zero,zero,0
    1b20:	00000013          	addi	zero,zero,0
    1b24:	00000013          	addi	zero,zero,0
    1b28:	00000013          	addi	zero,zero,0
    1b2c:	00000013          	addi	zero,zero,0
    1b30:	00000013          	addi	zero,zero,0
    1b34:	00000013          	addi	zero,zero,0
    1b38:	00000013          	addi	zero,zero,0
    1b3c:	00000013          	addi	zero,zero,0
    1b40:	00000013          	addi	zero,zero,0
    1b44:	00000013          	addi	zero,zero,0
    1b48:	00000013          	addi	zero,zero,0
    1b4c:	00000013          	addi	zero,zero,0
    1b50:	00000013          	addi	zero,zero,0
    1b54:	00000013          	addi	zero,zero,0
    1b58:	00000013          	addi	zero,zero,0
    1b5c:	00000013          	addi	zero,zero,0
    1b60:	00000013          	addi	zero,zero,0
    1b64:	00000013          	addi	zero,zero,0
    1b68:	00000013          	addi	zero,zero,0
    1b6c:	00000013          	addi	zero,zero,0
    1b70:	00000013          	addi	zero,zero,0
    1b74:	00000013          	addi	zero,zero,0
    1b78:	00000013          	addi	zero,zero,0
    1b7c:	00000013          	addi	zero,zero,0
    1b80:	00000013          	addi	zero,zero,0
    1b84:	00000013          	addi	zero,zero,0
    1b88:	00000013          	addi	zero,zero,0
    1b8c:	00000013          	addi	zero,zero,0
    1b90:	00000013          	addi	zero,zero,0
    1b94:	00000013          	addi	zero,zero,0
    1b98:	00000013          	addi	zero,zero,0
    1b9c:	00000013          	addi	zero,zero,0
    1ba0:	00000013          	addi	zero,zero,0
    1ba4:	00000013          	addi	zero,zero,0
    1ba8:	00000013          	addi	zero,zero,0
    1bac:	00000013          	addi	zero,zero,0
    1bb0:	00000013          	addi	zero,zero,0
    1bb4:	00000013          	addi	zero,zero,0
    1bb8:	00000013          	addi	zero,zero,0
    1bbc:	00000013          	addi	zero,zero,0
    1bc0:	00000013          	addi	zero,zero,0
    1bc4:	00000013          	addi	zero,zero,0
    1bc8:	00000013          	addi	zero,zero,0
    1bcc:	00000013          	addi	zero,zero,0
    1bd0:	00000013          	addi	zero,zero,0
    1bd4:	00000013          	addi	zero,zero,0
    1bd8:	00000013          	addi	zero,zero,0
    1bdc:	00000013          	addi	zero,zero,0
    1be0:	00000013          	addi	zero,zero,0
    1be4:	00000013          	addi	zero,zero,0
    1be8:	00000013          	addi	zero,zero,0
    1bec:	00000013          	addi	zero,zero,0
    1bf0:	00000013          	addi	zero,zero,0
    1bf4:	00000013          	addi	zero,zero,0
    1bf8:	00000013          	addi	zero,zero,0
    1bfc:	00000013          	addi	zero,zero,0
    1c00:	00000013          	addi	zero,zero,0
    1c04:	00000013          	addi	zero,zero,0
    1c08:	00000013          	addi	zero,zero,0
    1c0c:	00000013          	addi	zero,zero,0
    1c10:	00000013          	addi	zero,zero,0
    1c14:	00000013          	addi	zero,zero,0
    1c18:	00000013          	addi	zero,zero,0
    1c1c:	00000013          	addi	zero,zero,0
    1c20:	00000013          	addi	zero,zero,0
    1c24:	00000013          	addi	zero,zero,0
    1c28:	00000013          	addi	zero,zero,0
    1c2c:	00000013          	addi	zero,zero,0
    1c30:	00000013          	addi	zero,zero,0
    1c34:	00000013          	addi	zero,zero,0
    1c38:	00000013          	addi	zero,zero,0
    1c3c:	00000013          	addi	zero,zero,0
    1c40:	00000013          	addi	zero,zero,0
    1c44:	00000013          	addi	zero,zero,0
    1c48:	00000013          	addi	zero,zero,0
    1c4c:	00000013          	addi	zero,zero,0
    1c50:	00000013          	addi	zero,zero,0
    1c54:	00000013          	addi	zero,zero,0
    1c58:	00000013          	addi	zero,zero,0
    1c5c:	00000013          	addi	zero,zero,0
    1c60:	00000013          	addi	zero,zero,0
    1c64:	00000013          	addi	zero,zero,0
    1c68:	00000013          	addi	zero,zero,0
    1c6c:	00000013          	addi	zero,zero,0
    1c70:	00000013          	addi	zero,zero,0
    1c74:	00000013          	addi	zero,zero,0
    1c78:	00000013          	addi	zero,zero,0
    1c7c:	00000013          	addi	zero,zero,0
    1c80:	00000013          	addi	zero,zero,0
    1c84:	00000013          	addi	zero,zero,0
    1c88:	00000013          	addi	zero,zero,0
    1c8c:	00000013          	addi	zero,zero,0
    1c90:	00000013          	addi	zero,zero,0
    1c94:	00000013          	addi	zero,zero,0
    1c98:	00000013          	addi	zero,zero,0
    1c9c:	00000013          	addi	zero,zero,0
    1ca0:	00000013          	addi	zero,zero,0
    1ca4:	00000013          	addi	zero,zero,0
    1ca8:	00000013          	addi	zero,zero,0
    1cac:	00000013          	addi	zero,zero,0
    1cb0:	00000013          	addi	zero,zero,0
    1cb4:	00000013          	addi	zero,zero,0
    1cb8:	00000013          	addi	zero,zero,0
    1cbc:	00000013          	addi	zero,zero,0
    1cc0:	00000013          	addi	zero,zero,0
    1cc4:	00000013          	addi	zero,zero,0
    1cc8:	00000013          	addi	zero,zero,0
    1ccc:	00000013          	addi	zero,zero,0
    1cd0:	00000013          	addi	zero,zero,0
    1cd4:	00000013          	addi	zero,zero,0
    1cd8:	00000013          	addi	zero,zero,0
    1cdc:	00000013          	addi	zero,zero,0
    1ce0:	00000013          	addi	zero,zero,0
    1ce4:	00000013          	addi	zero,zero,0
    1ce8:	00000013          	addi	zero,zero,0
    1cec:	00000013          	addi	zero,zero,0
    1cf0:	00000013          	addi	zero,zero,0
    1cf4:	00000013          	addi	zero,zero,0
    1cf8:	00000013          	addi	zero,zero,0
    1cfc:	00000013          	addi	zero,zero,0
    1d00:	00000013          	addi	zero,zero,0
    1d04:	00000013          	addi	zero,zero,0
    1d08:	00000013          	addi	zero,zero,0
    1d0c:	00000013          	addi	zero,zero,0
    1d10:	00000013          	addi	zero,zero,0
    1d14:	00000013          	addi	zero,zero,0
    1d18:	00000013          	addi	zero,zero,0
    1d1c:	00000013          	addi	zero,zero,0
    1d20:	00000013          	addi	zero,zero,0
    1d24:	00000013          	addi	zero,zero,0
    1d28:	00000013          	addi	zero,zero,0
    1d2c:	00000013          	addi	zero,zero,0
    1d30:	00000013          	addi	zero,zero,0
    1d34:	00000013          	addi	zero,zero,0
    1d38:	00000013          	addi	zero,zero,0
    1d3c:	00000013          	addi	zero,zero,0
    1d40:	00000013          	addi	zero,zero,0
    1d44:	00000013          	addi	zero,zero,0
    1d48:	00000013          	addi	zero,zero,0
    1d4c:	00000013          	addi	zero,zero,0
    1d50:	00000013          	addi	zero,zero,0
    1d54:	00000013          	addi	zero,zero,0
    1d58:	00000013          	addi	zero,zero,0
    1d5c:	00000013          	addi	zero,zero,0
    1d60:	00000013          	addi	zero,zero,0
    1d64:	00000013          	addi	zero,zero,0
    1d68:	00000013          	addi	zero,zero,0
    1d6c:	00000013          	addi	zero,zero,0
    1d70:	00000013          	addi	zero,zero,0
    1d74:	00000013          	addi	zero,zero,0
    1d78:	00000013          	addi	zero,zero,0
    1d7c:	00000013          	addi	zero,zero,0
    1d80:	00000013          	addi	zero,zero,0
    1d84:	00000013          	addi	zero,zero,0
    1d88:	00000013          	addi	zero,zero,0
    1d8c:	00000013          	addi	zero,zero,0
    1d90:	00000013          	addi	zero,zero,0
    1d94:	00000013          	addi	zero,zero,0
    1d98:	00000013          	addi	zero,zero,0
    1d9c:	00000013          	addi	zero,zero,0
    1da0:	00000013          	addi	zero,zero,0
    1da4:	00000013          	addi	zero,zero,0
    1da8:	00000013          	addi	zero,zero,0
    1dac:	00000013          	addi	zero,zero,0
    1db0:	00000013          	addi	zero,zero,0
    1db4:	00000013          	addi	zero,zero,0
    1db8:	00000013          	addi	zero,zero,0
    1dbc:	00000013          	addi	zero,zero,0
    1dc0:	00000013          	addi	zero,zero,0
    1dc4:	00000013          	addi	zero,zero,0
    1dc8:	00000013          	addi	zero,zero,0
    1dcc:	00000013          	addi	zero,zero,0
    1dd0:	00000013          	addi	zero,zero,0
    1dd4:	00000013          	addi	zero,zero,0
    1dd8:	00000013          	addi	zero,zero,0
    1ddc:	00000013          	addi	zero,zero,0
    1de0:	00000013          	addi	zero,zero,0
    1de4:	00000013          	addi	zero,zero,0
    1de8:	00000013          	addi	zero,zero,0
    1dec:	00000013          	addi	zero,zero,0
    1df0:	00000013          	addi	zero,zero,0
    1df4:	00000013          	addi	zero,zero,0
    1df8:	00000013          	addi	zero,zero,0
    1dfc:	00000013          	addi	zero,zero,0
    1e00:	00000013          	addi	zero,zero,0
    1e04:	00000013          	addi	zero,zero,0
    1e08:	00000013          	addi	zero,zero,0
    1e0c:	00000013          	addi	zero,zero,0
    1e10:	00000013          	addi	zero,zero,0
    1e14:	00000013          	addi	zero,zero,0
    1e18:	00000013          	addi	zero,zero,0
    1e1c:	00000013          	addi	zero,zero,0
    1e20:	00000013          	addi	zero,zero,0
    1e24:	00000013          	addi	zero,zero,0
    1e28:	00000013          	addi	zero,zero,0
    1e2c:	00000013          	addi	zero,zero,0
    1e30:	00000013          	addi	zero,zero,0
    1e34:	00000013          	addi	zero,zero,0
    1e38:	00000013          	addi	zero,zero,0
    1e3c:	00000013          	addi	zero,zero,0
    1e40:	00000013          	addi	zero,zero,0
    1e44:	00000013          	addi	zero,zero,0
    1e48:	00000013          	addi	zero,zero,0
    1e4c:	00000013          	addi	zero,zero,0
    1e50:	00000013          	addi	zero,zero,0
    1e54:	00000013          	addi	zero,zero,0
    1e58:	00000013          	addi	zero,zero,0
    1e5c:	00000013          	addi	zero,zero,0
    1e60:	00000013          	addi	zero,zero,0
    1e64:	00000013          	addi	zero,zero,0
    1e68:	00000013          	addi	zero,zero,0
    1e6c:	00000013          	addi	zero,zero,0
    1e70:	00000013          	addi	zero,zero,0
    1e74:	00000013          	addi	zero,zero,0
    1e78:	00000013          	addi	zero,zero,0
    1e7c:	00000013          	addi	zero,zero,0
    1e80:	00000013          	addi	zero,zero,0
    1e84:	00000013          	addi	zero,zero,0
    1e88:	00000013          	addi	zero,zero,0
    1e8c:	00000013          	addi	zero,zero,0
    1e90:	00000013          	addi	zero,zero,0
    1e94:	00000013          	addi	zero,zero,0
    1e98:	00000013          	addi	zero,zero,0
    1e9c:	00000013          	addi	zero,zero,0
    1ea0:	00000013          	addi	zero,zero,0
    1ea4:	00000013          	addi	zero,zero,0
    1ea8:	00000013          	addi	zero,zero,0
    1eac:	00000013          	addi	zero,zero,0
    1eb0:	00000013          	addi	zero,zero,0
    1eb4:	00000013          	addi	zero,zero,0
    1eb8:	00000013          	addi	zero,zero,0
    1ebc:	00000013          	addi	zero,zero,0
    1ec0:	00000013          	addi	zero,zero,0
    1ec4:	00000013          	addi	zero,zero,0
    1ec8:	00000013          	addi	zero,zero,0
    1ecc:	00000013          	addi	zero,zero,0
    1ed0:	00000013          	addi	zero,zero,0
    1ed4:	00000013          	addi	zero,zero,0
    1ed8:	00000013          	addi	zero,zero,0
    1edc:	00000013          	addi	zero,zero,0
    1ee0:	00000013          	addi	zero,zero,0
    1ee4:	00000013          	addi	zero,zero,0
    1ee8:	00000013          	addi	zero,zero,0
    1eec:	00000013          	addi	zero,zero,0
    1ef0:	00000013          	addi	zero,zero,0
    1ef4:	00000013          	addi	zero,zero,0
    1ef8:	00000013          	addi	zero,zero,0
    1efc:	00000013          	addi	zero,zero,0
    1f00:	00000013          	addi	zero,zero,0
    1f04:	00000013          	addi	zero,zero,0
    1f08:	00000013          	addi	zero,zero,0
    1f0c:	00000013          	addi	zero,zero,0
    1f10:	00000013          	addi	zero,zero,0
    1f14:	00000013          	addi	zero,zero,0
    1f18:	00000013          	addi	zero,zero,0
    1f1c:	00000013          	addi	zero,zero,0
    1f20:	00000013          	addi	zero,zero,0
    1f24:	00000013          	addi	zero,zero,0
    1f28:	00000013          	addi	zero,zero,0
    1f2c:	00000013          	addi	zero,zero,0
    1f30:	00000013          	addi	zero,zero,0
    1f34:	00000013          	addi	zero,zero,0
    1f38:	00000013          	addi	zero,zero,0
    1f3c:	00000013          	addi	zero,zero,0
    1f40:	00000013          	addi	zero,zero,0
    1f44:	00000013          	addi	zero,zero,0
    1f48:	00000013          	addi	zero,zero,0
    1f4c:	00000013          	addi	zero,zero,0
    1f50:	00000013          	addi	zero,zero,0
    1f54:	00000013          	addi	zero,zero,0
    1f58:	00000013          	addi	zero,zero,0
    1f5c:	00000013          	addi	zero,zero,0
    1f60:	00000013          	addi	zero,zero,0
    1f64:	00000013          	addi	zero,zero,0
    1f68:	00000013          	addi	zero,zero,0
    1f6c:	00000013          	addi	zero,zero,0
    1f70:	00000013          	addi	zero,zero,0
    1f74:	00000013          	addi	zero,zero,0
    1f78:	00000013          	addi	zero,zero,0
    1f7c:	00000013          	addi	zero,zero,0
    1f80:	00000013          	addi	zero,zero,0
    1f84:	00000013          	addi	zero,zero,0
    1f88:	00000013          	addi	zero,zero,0
    1f8c:	00000013          	addi	zero,zero,0
    1f90:	00000013          	addi	zero,zero,0
    1f94:	00000013          	addi	zero,zero,0
    1f98:	00000013          	addi	zero,zero,0
    1f9c:	00000013          	addi	zero,zero,0
    1fa0:	00000013          	addi	zero,zero,0
    1fa4:	00000013          	addi	zero,zero,0
    1fa8:	00000013          	addi	zero,zero,0
    1fac:	00000013          	addi	zero,zero,0
    1fb0:	00000013          	addi	zero,zero,0
    1fb4:	00000013          	addi	zero,zero,0
    1fb8:	00000013          	addi	zero,zero,0
    1fbc:	00000013          	addi	zero,zero,0
    1fc0:	00000013          	addi	zero,zero,0
    1fc4:	00000013          	addi	zero,zero,0
    1fc8:	00000013          	addi	zero,zero,0
    1fcc:	00000013          	addi	zero,zero,0
    1fd0:	00000013          	addi	zero,zero,0
    1fd4:	00000013          	addi	zero,zero,0
    1fd8:	00000013          	addi	zero,zero,0
    1fdc:	00000013          	addi	zero,zero,0
    1fe0:	00000013          	addi	zero,zero,0
    1fe4:	00000013          	addi	zero,zero,0
    1fe8:	00000013          	addi	zero,zero,0
    1fec:	00000013          	addi	zero,zero,0
    1ff0:	00000013          	addi	zero,zero,0
    1ff4:	00000013          	addi	zero,zero,0
    1ff8:	00000013          	addi	zero,zero,0
    1ffc:	00000013          	addi	zero,zero,0

00002000 <_trap_entry_vclic>:
    2000:	1000                	c.addi4spn	s0,sp,32
    2002:	0000                	c.unimp
    2004:	1000                	c.addi4spn	s0,sp,32
    2006:	0000                	c.unimp
    2008:	1000                	c.addi4spn	s0,sp,32
    200a:	0000                	c.unimp
    200c:	1000                	c.addi4spn	s0,sp,32
    200e:	0000                	c.unimp
    2010:	1000                	c.addi4spn	s0,sp,32
    2012:	0000                	c.unimp
    2014:	1000                	c.addi4spn	s0,sp,32
    2016:	0000                	c.unimp
    2018:	1000                	c.addi4spn	s0,sp,32
    201a:	0000                	c.unimp
    201c:	1000                	c.addi4spn	s0,sp,32
    201e:	0000                	c.unimp
    2020:	1000                	c.addi4spn	s0,sp,32
    2022:	0000                	c.unimp
    2024:	1000                	c.addi4spn	s0,sp,32
    2026:	0000                	c.unimp
    2028:	1000                	c.addi4spn	s0,sp,32
    202a:	0000                	c.unimp
    202c:	1000                	c.addi4spn	s0,sp,32
    202e:	0000                	c.unimp
    2030:	1000                	c.addi4spn	s0,sp,32
    2032:	0000                	c.unimp
    2034:	1000                	c.addi4spn	s0,sp,32
    2036:	0000                	c.unimp
    2038:	1000                	c.addi4spn	s0,sp,32
    203a:	0000                	c.unimp
    203c:	1000                	c.addi4spn	s0,sp,32
    203e:	0000                	c.unimp
    2040:	1000                	c.addi4spn	s0,sp,32
    2042:	0000                	c.unimp
    2044:	1000                	c.addi4spn	s0,sp,32
    2046:	0000                	c.unimp
    2048:	1000                	c.addi4spn	s0,sp,32
    204a:	0000                	c.unimp
    204c:	10f8                	c.addi4spn	a4,sp,108
    204e:	0000                	c.unimp
    2050:	10f8                	c.addi4spn	a4,sp,108
    2052:	0000                	c.unimp
    2054:	10f8                	c.addi4spn	a4,sp,108
    2056:	0000                	c.unimp
    2058:	10f8                	c.addi4spn	a4,sp,108
    205a:	0000                	c.unimp
    205c:	10f8                	c.addi4spn	a4,sp,108
    205e:	0000                	c.unimp
    2060:	10f8                	c.addi4spn	a4,sp,108
    2062:	0000                	c.unimp
    2064:	10f8                	c.addi4spn	a4,sp,108
    2066:	0000                	c.unimp
    2068:	10f8                	c.addi4spn	a4,sp,108
    206a:	0000                	c.unimp
    206c:	10f8                	c.addi4spn	a4,sp,108
    206e:	0000                	c.unimp
    2070:	10f8                	c.addi4spn	a4,sp,108
    2072:	0000                	c.unimp
    2074:	10f8                	c.addi4spn	a4,sp,108
    2076:	0000                	c.unimp
    2078:	10f8                	c.addi4spn	a4,sp,108
    207a:	0000                	c.unimp
    207c:	10f8                	c.addi4spn	a4,sp,108
    207e:	0000                	c.unimp
    2080:	10f8                	c.addi4spn	a4,sp,108
    2082:	0000                	c.unimp
    2084:	10f8                	c.addi4spn	a4,sp,108
    2086:	0000                	c.unimp
    2088:	10f8                	c.addi4spn	a4,sp,108
    208a:	0000                	c.unimp
    208c:	10f8                	c.addi4spn	a4,sp,108
    208e:	0000                	c.unimp
    2090:	10f8                	c.addi4spn	a4,sp,108
    2092:	0000                	c.unimp
    2094:	10f8                	c.addi4spn	a4,sp,108
    2096:	0000                	c.unimp
    2098:	10f8                	c.addi4spn	a4,sp,108
    209a:	0000                	c.unimp
    209c:	10f8                	c.addi4spn	a4,sp,108
    209e:	0000                	c.unimp
    20a0:	10f8                	c.addi4spn	a4,sp,108
    20a2:	0000                	c.unimp
    20a4:	10f8                	c.addi4spn	a4,sp,108
    20a6:	0000                	c.unimp
    20a8:	10f8                	c.addi4spn	a4,sp,108
    20aa:	0000                	c.unimp
    20ac:	10f8                	c.addi4spn	a4,sp,108
    20ae:	0000                	c.unimp
    20b0:	10f8                	c.addi4spn	a4,sp,108
    20b2:	0000                	c.unimp
    20b4:	10f8                	c.addi4spn	a4,sp,108
    20b6:	0000                	c.unimp
    20b8:	10f8                	c.addi4spn	a4,sp,108
    20ba:	0000                	c.unimp
    20bc:	10f8                	c.addi4spn	a4,sp,108
    20be:	0000                	c.unimp
    20c0:	10f8                	c.addi4spn	a4,sp,108
    20c2:	0000                	c.unimp
    20c4:	10f8                	c.addi4spn	a4,sp,108
    20c6:	0000                	c.unimp
    20c8:	0001                	c.addi	zero,0
    20ca:	00000013          	addi	zero,zero,0
    20ce:	00000013          	addi	zero,zero,0
    20d2:	00000013          	addi	zero,zero,0
    20d6:	00000013          	addi	zero,zero,0
    20da:	00000013          	addi	zero,zero,0
    20de:	00000013          	addi	zero,zero,0
    20e2:	00000013          	addi	zero,zero,0
    20e6:	00000013          	addi	zero,zero,0
    20ea:	00000013          	addi	zero,zero,0
    20ee:	00000013          	addi	zero,zero,0
    20f2:	00000013          	addi	zero,zero,0
    20f6:	00000013          	addi	zero,zero,0
    20fa:	00000013          	addi	zero,zero,0
    20fe:	00000013          	addi	zero,zero,0
    2102:	00000013          	addi	zero,zero,0
    2106:	00000013          	addi	zero,zero,0
    210a:	00000013          	addi	zero,zero,0
    210e:	00000013          	addi	zero,zero,0
    2112:	00000013          	addi	zero,zero,0
    2116:	00000013          	addi	zero,zero,0
    211a:	00000013          	addi	zero,zero,0
    211e:	00000013          	addi	zero,zero,0
    2122:	00000013          	addi	zero,zero,0
    2126:	00000013          	addi	zero,zero,0
    212a:	00000013          	addi	zero,zero,0
    212e:	00000013          	addi	zero,zero,0
    2132:	00000013          	addi	zero,zero,0
    2136:	00000013          	addi	zero,zero,0
    213a:	00000013          	addi	zero,zero,0
    213e:	00000013          	addi	zero,zero,0
    2142:	00000013          	addi	zero,zero,0
    2146:	00000013          	addi	zero,zero,0
    214a:	00000013          	addi	zero,zero,0
    214e:	00000013          	addi	zero,zero,0
    2152:	00000013          	addi	zero,zero,0
    2156:	00000013          	addi	zero,zero,0
    215a:	00000013          	addi	zero,zero,0
    215e:	00000013          	addi	zero,zero,0
    2162:	00000013          	addi	zero,zero,0
    2166:	00000013          	addi	zero,zero,0
    216a:	00000013          	addi	zero,zero,0
    216e:	00000013          	addi	zero,zero,0
    2172:	00000013          	addi	zero,zero,0
    2176:	00000013          	addi	zero,zero,0
    217a:	00000013          	addi	zero,zero,0
    217e:	00000013          	addi	zero,zero,0
    2182:	00000013          	addi	zero,zero,0
    2186:	00000013          	addi	zero,zero,0
    218a:	00000013          	addi	zero,zero,0
    218e:	00000013          	addi	zero,zero,0
    2192:	00000013          	addi	zero,zero,0
    2196:	00000013          	addi	zero,zero,0
    219a:	00000013          	addi	zero,zero,0
    219e:	00000013          	addi	zero,zero,0
    21a2:	00000013          	addi	zero,zero,0
    21a6:	00000013          	addi	zero,zero,0
    21aa:	00000013          	addi	zero,zero,0
    21ae:	00000013          	addi	zero,zero,0
    21b2:	00000013          	addi	zero,zero,0
    21b6:	00000013          	addi	zero,zero,0
    21ba:	00000013          	addi	zero,zero,0
    21be:	00000013          	addi	zero,zero,0
    21c2:	00000013          	addi	zero,zero,0
    21c6:	00000013          	addi	zero,zero,0
    21ca:	00000013          	addi	zero,zero,0
    21ce:	00000013          	addi	zero,zero,0
    21d2:	00000013          	addi	zero,zero,0
    21d6:	00000013          	addi	zero,zero,0
    21da:	00000013          	addi	zero,zero,0
    21de:	00000013          	addi	zero,zero,0
    21e2:	00000013          	addi	zero,zero,0
    21e6:	00000013          	addi	zero,zero,0
    21ea:	00000013          	addi	zero,zero,0
    21ee:	00000013          	addi	zero,zero,0
    21f2:	00000013          	addi	zero,zero,0
    21f6:	00000013          	addi	zero,zero,0
    21fa:	00000013          	addi	zero,zero,0
    21fe:	00000013          	addi	zero,zero,0
    2202:	00000013          	addi	zero,zero,0
    2206:	00000013          	addi	zero,zero,0
    220a:	00000013          	addi	zero,zero,0
    220e:	00000013          	addi	zero,zero,0
    2212:	00000013          	addi	zero,zero,0
    2216:	00000013          	addi	zero,zero,0
    221a:	00000013          	addi	zero,zero,0
    221e:	00000013          	addi	zero,zero,0
    2222:	00000013          	addi	zero,zero,0
    2226:	00000013          	addi	zero,zero,0
    222a:	00000013          	addi	zero,zero,0
    222e:	00000013          	addi	zero,zero,0
    2232:	00000013          	addi	zero,zero,0
    2236:	00000013          	addi	zero,zero,0
    223a:	00000013          	addi	zero,zero,0
    223e:	00000013          	addi	zero,zero,0
    2242:	00000013          	addi	zero,zero,0
    2246:	00000013          	addi	zero,zero,0
    224a:	00000013          	addi	zero,zero,0
    224e:	00000013          	addi	zero,zero,0
    2252:	00000013          	addi	zero,zero,0
    2256:	00000013          	addi	zero,zero,0
    225a:	00000013          	addi	zero,zero,0
    225e:	00000013          	addi	zero,zero,0
    2262:	00000013          	addi	zero,zero,0
    2266:	00000013          	addi	zero,zero,0
    226a:	00000013          	addi	zero,zero,0
    226e:	00000013          	addi	zero,zero,0
    2272:	00000013          	addi	zero,zero,0
    2276:	00000013          	addi	zero,zero,0
    227a:	00000013          	addi	zero,zero,0
    227e:	00000013          	addi	zero,zero,0
    2282:	00000013          	addi	zero,zero,0
    2286:	00000013          	addi	zero,zero,0
    228a:	00000013          	addi	zero,zero,0
    228e:	00000013          	addi	zero,zero,0
    2292:	00000013          	addi	zero,zero,0
    2296:	00000013          	addi	zero,zero,0
    229a:	00000013          	addi	zero,zero,0
    229e:	00000013          	addi	zero,zero,0
    22a2:	00000013          	addi	zero,zero,0
    22a6:	00000013          	addi	zero,zero,0
    22aa:	00000013          	addi	zero,zero,0
    22ae:	00000013          	addi	zero,zero,0
    22b2:	00000013          	addi	zero,zero,0
    22b6:	00000013          	addi	zero,zero,0
    22ba:	00000013          	addi	zero,zero,0
    22be:	00000013          	addi	zero,zero,0
    22c2:	00000013          	addi	zero,zero,0
    22c6:	00000013          	addi	zero,zero,0
    22ca:	00000013          	addi	zero,zero,0
    22ce:	00000013          	addi	zero,zero,0
    22d2:	00000013          	addi	zero,zero,0
    22d6:	00000013          	addi	zero,zero,0
    22da:	00000013          	addi	zero,zero,0
    22de:	00000013          	addi	zero,zero,0
    22e2:	00000013          	addi	zero,zero,0
    22e6:	00000013          	addi	zero,zero,0
    22ea:	00000013          	addi	zero,zero,0
    22ee:	00000013          	addi	zero,zero,0
    22f2:	00000013          	addi	zero,zero,0
    22f6:	00000013          	addi	zero,zero,0
    22fa:	00000013          	addi	zero,zero,0
    22fe:	00000013          	addi	zero,zero,0
    2302:	00000013          	addi	zero,zero,0
    2306:	00000013          	addi	zero,zero,0
    230a:	00000013          	addi	zero,zero,0
    230e:	00000013          	addi	zero,zero,0
    2312:	00000013          	addi	zero,zero,0
    2316:	00000013          	addi	zero,zero,0
    231a:	00000013          	addi	zero,zero,0
    231e:	00000013          	addi	zero,zero,0
    2322:	00000013          	addi	zero,zero,0
    2326:	00000013          	addi	zero,zero,0
    232a:	00000013          	addi	zero,zero,0
    232e:	00000013          	addi	zero,zero,0
    2332:	00000013          	addi	zero,zero,0
    2336:	00000013          	addi	zero,zero,0
    233a:	00000013          	addi	zero,zero,0
    233e:	00000013          	addi	zero,zero,0
    2342:	00000013          	addi	zero,zero,0
    2346:	00000013          	addi	zero,zero,0
    234a:	00000013          	addi	zero,zero,0
    234e:	00000013          	addi	zero,zero,0
    2352:	00000013          	addi	zero,zero,0
    2356:	00000013          	addi	zero,zero,0
    235a:	00000013          	addi	zero,zero,0
    235e:	00000013          	addi	zero,zero,0
    2362:	00000013          	addi	zero,zero,0
    2366:	00000013          	addi	zero,zero,0
    236a:	00000013          	addi	zero,zero,0
    236e:	00000013          	addi	zero,zero,0
    2372:	00000013          	addi	zero,zero,0
    2376:	00000013          	addi	zero,zero,0
    237a:	00000013          	addi	zero,zero,0
    237e:	00000013          	addi	zero,zero,0
    2382:	00000013          	addi	zero,zero,0
    2386:	00000013          	addi	zero,zero,0
    238a:	00000013          	addi	zero,zero,0
    238e:	00000013          	addi	zero,zero,0
    2392:	00000013          	addi	zero,zero,0
    2396:	00000013          	addi	zero,zero,0
    239a:	00000013          	addi	zero,zero,0
    239e:	00000013          	addi	zero,zero,0
    23a2:	00000013          	addi	zero,zero,0
    23a6:	00000013          	addi	zero,zero,0
    23aa:	00000013          	addi	zero,zero,0
    23ae:	00000013          	addi	zero,zero,0
    23b2:	00000013          	addi	zero,zero,0
    23b6:	00000013          	addi	zero,zero,0
    23ba:	00000013          	addi	zero,zero,0
    23be:	00000013          	addi	zero,zero,0
    23c2:	00000013          	addi	zero,zero,0
    23c6:	00000013          	addi	zero,zero,0
    23ca:	00000013          	addi	zero,zero,0
    23ce:	00000013          	addi	zero,zero,0
    23d2:	00000013          	addi	zero,zero,0
    23d6:	00000013          	addi	zero,zero,0
    23da:	00000013          	addi	zero,zero,0
    23de:	00000013          	addi	zero,zero,0
    23e2:	00000013          	addi	zero,zero,0
    23e6:	00000013          	addi	zero,zero,0
    23ea:	00000013          	addi	zero,zero,0
    23ee:	00000013          	addi	zero,zero,0
    23f2:	00000013          	addi	zero,zero,0
    23f6:	00000013          	addi	zero,zero,0
    23fa:	00000013          	addi	zero,zero,0
    23fe:	00000013          	addi	zero,zero,0
    2402:	00000013          	addi	zero,zero,0
    2406:	00000013          	addi	zero,zero,0
    240a:	00000013          	addi	zero,zero,0
    240e:	00000013          	addi	zero,zero,0
    2412:	00000013          	addi	zero,zero,0
    2416:	00000013          	addi	zero,zero,0
    241a:	00000013          	addi	zero,zero,0
    241e:	00000013          	addi	zero,zero,0
    2422:	00000013          	addi	zero,zero,0
    2426:	00000013          	addi	zero,zero,0
    242a:	00000013          	addi	zero,zero,0
    242e:	00000013          	addi	zero,zero,0
    2432:	00000013          	addi	zero,zero,0
    2436:	00000013          	addi	zero,zero,0
    243a:	00000013          	addi	zero,zero,0
    243e:	00000013          	addi	zero,zero,0
    2442:	00000013          	addi	zero,zero,0
    2446:	00000013          	addi	zero,zero,0
    244a:	00000013          	addi	zero,zero,0
    244e:	00000013          	addi	zero,zero,0
    2452:	00000013          	addi	zero,zero,0
    2456:	00000013          	addi	zero,zero,0
    245a:	00000013          	addi	zero,zero,0
    245e:	00000013          	addi	zero,zero,0
    2462:	00000013          	addi	zero,zero,0
    2466:	00000013          	addi	zero,zero,0
    246a:	00000013          	addi	zero,zero,0
    246e:	00000013          	addi	zero,zero,0
    2472:	00000013          	addi	zero,zero,0
    2476:	00000013          	addi	zero,zero,0
    247a:	00000013          	addi	zero,zero,0
    247e:	00000013          	addi	zero,zero,0
    2482:	00000013          	addi	zero,zero,0
    2486:	00000013          	addi	zero,zero,0
    248a:	00000013          	addi	zero,zero,0
    248e:	00000013          	addi	zero,zero,0
    2492:	00000013          	addi	zero,zero,0
    2496:	00000013          	addi	zero,zero,0
    249a:	00000013          	addi	zero,zero,0
    249e:	00000013          	addi	zero,zero,0
    24a2:	00000013          	addi	zero,zero,0
    24a6:	00000013          	addi	zero,zero,0
    24aa:	00000013          	addi	zero,zero,0
    24ae:	00000013          	addi	zero,zero,0
    24b2:	00000013          	addi	zero,zero,0
    24b6:	00000013          	addi	zero,zero,0
    24ba:	00000013          	addi	zero,zero,0
    24be:	00000013          	addi	zero,zero,0
    24c2:	00000013          	addi	zero,zero,0
    24c6:	00000013          	addi	zero,zero,0
    24ca:	00000013          	addi	zero,zero,0
    24ce:	00000013          	addi	zero,zero,0
    24d2:	00000013          	addi	zero,zero,0
    24d6:	00000013          	addi	zero,zero,0
    24da:	00000013          	addi	zero,zero,0
    24de:	00000013          	addi	zero,zero,0
    24e2:	00000013          	addi	zero,zero,0
    24e6:	00000013          	addi	zero,zero,0
    24ea:	00000013          	addi	zero,zero,0
    24ee:	00000013          	addi	zero,zero,0
    24f2:	00000013          	addi	zero,zero,0
    24f6:	00000013          	addi	zero,zero,0
    24fa:	00000013          	addi	zero,zero,0
    24fe:	00000013          	addi	zero,zero,0
    2502:	00000013          	addi	zero,zero,0
    2506:	00000013          	addi	zero,zero,0
    250a:	00000013          	addi	zero,zero,0
    250e:	00000013          	addi	zero,zero,0
    2512:	00000013          	addi	zero,zero,0
    2516:	00000013          	addi	zero,zero,0
    251a:	00000013          	addi	zero,zero,0
    251e:	00000013          	addi	zero,zero,0
    2522:	00000013          	addi	zero,zero,0
    2526:	00000013          	addi	zero,zero,0
    252a:	00000013          	addi	zero,zero,0
    252e:	00000013          	addi	zero,zero,0
    2532:	00000013          	addi	zero,zero,0
    2536:	00000013          	addi	zero,zero,0
    253a:	00000013          	addi	zero,zero,0
    253e:	00000013          	addi	zero,zero,0
    2542:	00000013          	addi	zero,zero,0
    2546:	00000013          	addi	zero,zero,0
    254a:	00000013          	addi	zero,zero,0
    254e:	00000013          	addi	zero,zero,0
    2552:	00000013          	addi	zero,zero,0
    2556:	00000013          	addi	zero,zero,0
    255a:	00000013          	addi	zero,zero,0
    255e:	00000013          	addi	zero,zero,0
    2562:	00000013          	addi	zero,zero,0
    2566:	00000013          	addi	zero,zero,0
    256a:	00000013          	addi	zero,zero,0
    256e:	00000013          	addi	zero,zero,0
    2572:	00000013          	addi	zero,zero,0
    2576:	00000013          	addi	zero,zero,0
    257a:	00000013          	addi	zero,zero,0
    257e:	00000013          	addi	zero,zero,0
    2582:	00000013          	addi	zero,zero,0
    2586:	00000013          	addi	zero,zero,0
    258a:	00000013          	addi	zero,zero,0
    258e:	00000013          	addi	zero,zero,0
    2592:	00000013          	addi	zero,zero,0
    2596:	00000013          	addi	zero,zero,0
    259a:	00000013          	addi	zero,zero,0
    259e:	00000013          	addi	zero,zero,0
    25a2:	00000013          	addi	zero,zero,0
    25a6:	00000013          	addi	zero,zero,0
    25aa:	00000013          	addi	zero,zero,0
    25ae:	00000013          	addi	zero,zero,0
    25b2:	00000013          	addi	zero,zero,0
    25b6:	00000013          	addi	zero,zero,0
    25ba:	00000013          	addi	zero,zero,0
    25be:	00000013          	addi	zero,zero,0
    25c2:	00000013          	addi	zero,zero,0
    25c6:	00000013          	addi	zero,zero,0
    25ca:	00000013          	addi	zero,zero,0
    25ce:	00000013          	addi	zero,zero,0
    25d2:	00000013          	addi	zero,zero,0
    25d6:	00000013          	addi	zero,zero,0
    25da:	00000013          	addi	zero,zero,0
    25de:	00000013          	addi	zero,zero,0
    25e2:	00000013          	addi	zero,zero,0
    25e6:	00000013          	addi	zero,zero,0
    25ea:	00000013          	addi	zero,zero,0
    25ee:	00000013          	addi	zero,zero,0
    25f2:	00000013          	addi	zero,zero,0
    25f6:	00000013          	addi	zero,zero,0
    25fa:	00000013          	addi	zero,zero,0
    25fe:	00000013          	addi	zero,zero,0
    2602:	00000013          	addi	zero,zero,0
    2606:	00000013          	addi	zero,zero,0
    260a:	00000013          	addi	zero,zero,0
    260e:	00000013          	addi	zero,zero,0
    2612:	00000013          	addi	zero,zero,0
    2616:	00000013          	addi	zero,zero,0
    261a:	00000013          	addi	zero,zero,0
    261e:	00000013          	addi	zero,zero,0
    2622:	00000013          	addi	zero,zero,0
    2626:	00000013          	addi	zero,zero,0
    262a:	00000013          	addi	zero,zero,0
    262e:	00000013          	addi	zero,zero,0
    2632:	00000013          	addi	zero,zero,0
    2636:	00000013          	addi	zero,zero,0
    263a:	00000013          	addi	zero,zero,0
    263e:	00000013          	addi	zero,zero,0
    2642:	00000013          	addi	zero,zero,0
    2646:	00000013          	addi	zero,zero,0
    264a:	00000013          	addi	zero,zero,0
    264e:	00000013          	addi	zero,zero,0
    2652:	00000013          	addi	zero,zero,0
    2656:	00000013          	addi	zero,zero,0
    265a:	00000013          	addi	zero,zero,0
    265e:	00000013          	addi	zero,zero,0
    2662:	00000013          	addi	zero,zero,0
    2666:	00000013          	addi	zero,zero,0
    266a:	00000013          	addi	zero,zero,0
    266e:	00000013          	addi	zero,zero,0
    2672:	00000013          	addi	zero,zero,0
    2676:	00000013          	addi	zero,zero,0
    267a:	00000013          	addi	zero,zero,0
    267e:	00000013          	addi	zero,zero,0
    2682:	00000013          	addi	zero,zero,0
    2686:	00000013          	addi	zero,zero,0
    268a:	00000013          	addi	zero,zero,0
    268e:	00000013          	addi	zero,zero,0
    2692:	00000013          	addi	zero,zero,0
    2696:	00000013          	addi	zero,zero,0
    269a:	00000013          	addi	zero,zero,0
    269e:	00000013          	addi	zero,zero,0
    26a2:	00000013          	addi	zero,zero,0
    26a6:	00000013          	addi	zero,zero,0
    26aa:	00000013          	addi	zero,zero,0
    26ae:	00000013          	addi	zero,zero,0
    26b2:	00000013          	addi	zero,zero,0
    26b6:	00000013          	addi	zero,zero,0
    26ba:	00000013          	addi	zero,zero,0
    26be:	00000013          	addi	zero,zero,0
    26c2:	00000013          	addi	zero,zero,0
    26c6:	00000013          	addi	zero,zero,0
    26ca:	00000013          	addi	zero,zero,0
    26ce:	00000013          	addi	zero,zero,0
    26d2:	00000013          	addi	zero,zero,0
    26d6:	00000013          	addi	zero,zero,0
    26da:	00000013          	addi	zero,zero,0
    26de:	00000013          	addi	zero,zero,0
    26e2:	00000013          	addi	zero,zero,0
    26e6:	00000013          	addi	zero,zero,0
    26ea:	00000013          	addi	zero,zero,0
    26ee:	00000013          	addi	zero,zero,0
    26f2:	00000013          	addi	zero,zero,0
    26f6:	00000013          	addi	zero,zero,0
    26fa:	00000013          	addi	zero,zero,0
    26fe:	00000013          	addi	zero,zero,0
    2702:	00000013          	addi	zero,zero,0
    2706:	00000013          	addi	zero,zero,0
    270a:	00000013          	addi	zero,zero,0
    270e:	00000013          	addi	zero,zero,0
    2712:	00000013          	addi	zero,zero,0
    2716:	00000013          	addi	zero,zero,0
    271a:	00000013          	addi	zero,zero,0
    271e:	00000013          	addi	zero,zero,0
    2722:	00000013          	addi	zero,zero,0
    2726:	00000013          	addi	zero,zero,0
    272a:	00000013          	addi	zero,zero,0
    272e:	00000013          	addi	zero,zero,0
    2732:	00000013          	addi	zero,zero,0
    2736:	00000013          	addi	zero,zero,0
    273a:	00000013          	addi	zero,zero,0
    273e:	00000013          	addi	zero,zero,0
    2742:	00000013          	addi	zero,zero,0
    2746:	00000013          	addi	zero,zero,0
    274a:	00000013          	addi	zero,zero,0
    274e:	00000013          	addi	zero,zero,0
    2752:	00000013          	addi	zero,zero,0
    2756:	00000013          	addi	zero,zero,0
    275a:	00000013          	addi	zero,zero,0
    275e:	00000013          	addi	zero,zero,0
    2762:	00000013          	addi	zero,zero,0
    2766:	00000013          	addi	zero,zero,0
    276a:	00000013          	addi	zero,zero,0
    276e:	00000013          	addi	zero,zero,0
    2772:	00000013          	addi	zero,zero,0
    2776:	00000013          	addi	zero,zero,0
    277a:	00000013          	addi	zero,zero,0
    277e:	00000013          	addi	zero,zero,0
    2782:	00000013          	addi	zero,zero,0
    2786:	00000013          	addi	zero,zero,0
    278a:	00000013          	addi	zero,zero,0
    278e:	00000013          	addi	zero,zero,0
    2792:	00000013          	addi	zero,zero,0
    2796:	00000013          	addi	zero,zero,0
    279a:	00000013          	addi	zero,zero,0
    279e:	00000013          	addi	zero,zero,0
    27a2:	00000013          	addi	zero,zero,0
    27a6:	00000013          	addi	zero,zero,0
    27aa:	00000013          	addi	zero,zero,0
    27ae:	00000013          	addi	zero,zero,0
    27b2:	00000013          	addi	zero,zero,0
    27b6:	00000013          	addi	zero,zero,0
    27ba:	00000013          	addi	zero,zero,0
    27be:	00000013          	addi	zero,zero,0
    27c2:	00000013          	addi	zero,zero,0
    27c6:	00000013          	addi	zero,zero,0
    27ca:	00000013          	addi	zero,zero,0
    27ce:	00000013          	addi	zero,zero,0
    27d2:	00000013          	addi	zero,zero,0
    27d6:	00000013          	addi	zero,zero,0
    27da:	00000013          	addi	zero,zero,0
    27de:	00000013          	addi	zero,zero,0
    27e2:	00000013          	addi	zero,zero,0
    27e6:	00000013          	addi	zero,zero,0
    27ea:	00000013          	addi	zero,zero,0
    27ee:	00000013          	addi	zero,zero,0
    27f2:	00000013          	addi	zero,zero,0
    27f6:	00000013          	addi	zero,zero,0
    27fa:	00000013          	addi	zero,zero,0
    27fe:	00000013          	addi	zero,zero,0
    2802:	00000013          	addi	zero,zero,0
    2806:	00000013          	addi	zero,zero,0
    280a:	00000013          	addi	zero,zero,0
    280e:	00000013          	addi	zero,zero,0
    2812:	00000013          	addi	zero,zero,0
    2816:	00000013          	addi	zero,zero,0
    281a:	00000013          	addi	zero,zero,0
    281e:	00000013          	addi	zero,zero,0
    2822:	00000013          	addi	zero,zero,0
    2826:	00000013          	addi	zero,zero,0
    282a:	00000013          	addi	zero,zero,0
    282e:	00000013          	addi	zero,zero,0
    2832:	00000013          	addi	zero,zero,0
    2836:	00000013          	addi	zero,zero,0
    283a:	00000013          	addi	zero,zero,0
    283e:	00000013          	addi	zero,zero,0
    2842:	00000013          	addi	zero,zero,0
    2846:	00000013          	addi	zero,zero,0
    284a:	00000013          	addi	zero,zero,0
    284e:	00000013          	addi	zero,zero,0
    2852:	00000013          	addi	zero,zero,0
    2856:	00000013          	addi	zero,zero,0
    285a:	00000013          	addi	zero,zero,0
    285e:	00000013          	addi	zero,zero,0
    2862:	00000013          	addi	zero,zero,0
    2866:	00000013          	addi	zero,zero,0
    286a:	00000013          	addi	zero,zero,0
    286e:	00000013          	addi	zero,zero,0
    2872:	00000013          	addi	zero,zero,0
    2876:	00000013          	addi	zero,zero,0
    287a:	00000013          	addi	zero,zero,0
    287e:	00000013          	addi	zero,zero,0
    2882:	00000013          	addi	zero,zero,0
    2886:	00000013          	addi	zero,zero,0
    288a:	00000013          	addi	zero,zero,0
    288e:	00000013          	addi	zero,zero,0
    2892:	00000013          	addi	zero,zero,0
    2896:	00000013          	addi	zero,zero,0
    289a:	00000013          	addi	zero,zero,0
    289e:	00000013          	addi	zero,zero,0
    28a2:	00000013          	addi	zero,zero,0
    28a6:	00000013          	addi	zero,zero,0
    28aa:	00000013          	addi	zero,zero,0
    28ae:	00000013          	addi	zero,zero,0
    28b2:	00000013          	addi	zero,zero,0
    28b6:	00000013          	addi	zero,zero,0
    28ba:	00000013          	addi	zero,zero,0
    28be:	00000013          	addi	zero,zero,0
    28c2:	00000013          	addi	zero,zero,0
    28c6:	00000013          	addi	zero,zero,0
    28ca:	00000013          	addi	zero,zero,0
    28ce:	00000013          	addi	zero,zero,0
    28d2:	00000013          	addi	zero,zero,0
    28d6:	00000013          	addi	zero,zero,0
    28da:	00000013          	addi	zero,zero,0
    28de:	00000013          	addi	zero,zero,0
    28e2:	00000013          	addi	zero,zero,0
    28e6:	00000013          	addi	zero,zero,0
    28ea:	00000013          	addi	zero,zero,0
    28ee:	00000013          	addi	zero,zero,0
    28f2:	00000013          	addi	zero,zero,0
    28f6:	00000013          	addi	zero,zero,0
    28fa:	00000013          	addi	zero,zero,0
    28fe:	00000013          	addi	zero,zero,0
    2902:	00000013          	addi	zero,zero,0
    2906:	00000013          	addi	zero,zero,0
    290a:	00000013          	addi	zero,zero,0
    290e:	00000013          	addi	zero,zero,0
    2912:	00000013          	addi	zero,zero,0
    2916:	00000013          	addi	zero,zero,0
    291a:	00000013          	addi	zero,zero,0
    291e:	00000013          	addi	zero,zero,0
    2922:	00000013          	addi	zero,zero,0
    2926:	00000013          	addi	zero,zero,0
    292a:	00000013          	addi	zero,zero,0
    292e:	00000013          	addi	zero,zero,0
    2932:	00000013          	addi	zero,zero,0
    2936:	00000013          	addi	zero,zero,0
    293a:	00000013          	addi	zero,zero,0
    293e:	00000013          	addi	zero,zero,0
    2942:	00000013          	addi	zero,zero,0
    2946:	00000013          	addi	zero,zero,0
    294a:	00000013          	addi	zero,zero,0
    294e:	00000013          	addi	zero,zero,0
    2952:	00000013          	addi	zero,zero,0
    2956:	00000013          	addi	zero,zero,0
    295a:	00000013          	addi	zero,zero,0
    295e:	00000013          	addi	zero,zero,0
    2962:	00000013          	addi	zero,zero,0
    2966:	00000013          	addi	zero,zero,0
    296a:	00000013          	addi	zero,zero,0
    296e:	00000013          	addi	zero,zero,0
    2972:	00000013          	addi	zero,zero,0
    2976:	00000013          	addi	zero,zero,0
    297a:	00000013          	addi	zero,zero,0
    297e:	00000013          	addi	zero,zero,0
    2982:	00000013          	addi	zero,zero,0
    2986:	00000013          	addi	zero,zero,0
    298a:	00000013          	addi	zero,zero,0
    298e:	00000013          	addi	zero,zero,0
    2992:	00000013          	addi	zero,zero,0
    2996:	00000013          	addi	zero,zero,0
    299a:	00000013          	addi	zero,zero,0
    299e:	00000013          	addi	zero,zero,0
    29a2:	00000013          	addi	zero,zero,0
    29a6:	00000013          	addi	zero,zero,0
    29aa:	00000013          	addi	zero,zero,0
    29ae:	00000013          	addi	zero,zero,0
    29b2:	00000013          	addi	zero,zero,0
    29b6:	00000013          	addi	zero,zero,0
    29ba:	00000013          	addi	zero,zero,0
    29be:	00000013          	addi	zero,zero,0
    29c2:	00000013          	addi	zero,zero,0
    29c6:	00000013          	addi	zero,zero,0
    29ca:	00000013          	addi	zero,zero,0
    29ce:	00000013          	addi	zero,zero,0
    29d2:	00000013          	addi	zero,zero,0
    29d6:	00000013          	addi	zero,zero,0
    29da:	00000013          	addi	zero,zero,0
    29de:	00000013          	addi	zero,zero,0
    29e2:	00000013          	addi	zero,zero,0
    29e6:	00000013          	addi	zero,zero,0
    29ea:	00000013          	addi	zero,zero,0
    29ee:	00000013          	addi	zero,zero,0
    29f2:	00000013          	addi	zero,zero,0
    29f6:	00000013          	addi	zero,zero,0
    29fa:	00000013          	addi	zero,zero,0
    29fe:	00000013          	addi	zero,zero,0
    2a02:	00000013          	addi	zero,zero,0
    2a06:	00000013          	addi	zero,zero,0
    2a0a:	00000013          	addi	zero,zero,0
    2a0e:	00000013          	addi	zero,zero,0
    2a12:	00000013          	addi	zero,zero,0
    2a16:	00000013          	addi	zero,zero,0
    2a1a:	00000013          	addi	zero,zero,0
    2a1e:	00000013          	addi	zero,zero,0
    2a22:	00000013          	addi	zero,zero,0
    2a26:	00000013          	addi	zero,zero,0
    2a2a:	00000013          	addi	zero,zero,0
    2a2e:	00000013          	addi	zero,zero,0
    2a32:	00000013          	addi	zero,zero,0
    2a36:	00000013          	addi	zero,zero,0
    2a3a:	00000013          	addi	zero,zero,0
    2a3e:	00000013          	addi	zero,zero,0
    2a42:	00000013          	addi	zero,zero,0
    2a46:	00000013          	addi	zero,zero,0
    2a4a:	00000013          	addi	zero,zero,0
    2a4e:	00000013          	addi	zero,zero,0
    2a52:	00000013          	addi	zero,zero,0
    2a56:	00000013          	addi	zero,zero,0
    2a5a:	00000013          	addi	zero,zero,0
    2a5e:	00000013          	addi	zero,zero,0
    2a62:	00000013          	addi	zero,zero,0
    2a66:	00000013          	addi	zero,zero,0
    2a6a:	00000013          	addi	zero,zero,0
    2a6e:	00000013          	addi	zero,zero,0
    2a72:	00000013          	addi	zero,zero,0
    2a76:	00000013          	addi	zero,zero,0
    2a7a:	00000013          	addi	zero,zero,0
    2a7e:	00000013          	addi	zero,zero,0
    2a82:	00000013          	addi	zero,zero,0
    2a86:	00000013          	addi	zero,zero,0
    2a8a:	00000013          	addi	zero,zero,0
    2a8e:	00000013          	addi	zero,zero,0
    2a92:	00000013          	addi	zero,zero,0
    2a96:	00000013          	addi	zero,zero,0
    2a9a:	00000013          	addi	zero,zero,0
    2a9e:	00000013          	addi	zero,zero,0
    2aa2:	00000013          	addi	zero,zero,0
    2aa6:	00000013          	addi	zero,zero,0
    2aaa:	00000013          	addi	zero,zero,0
    2aae:	00000013          	addi	zero,zero,0
    2ab2:	00000013          	addi	zero,zero,0
    2ab6:	00000013          	addi	zero,zero,0
    2aba:	00000013          	addi	zero,zero,0
    2abe:	00000013          	addi	zero,zero,0
    2ac2:	00000013          	addi	zero,zero,0
    2ac6:	00000013          	addi	zero,zero,0
    2aca:	00000013          	addi	zero,zero,0
    2ace:	00000013          	addi	zero,zero,0
    2ad2:	00000013          	addi	zero,zero,0
    2ad6:	00000013          	addi	zero,zero,0
    2ada:	00000013          	addi	zero,zero,0
    2ade:	00000013          	addi	zero,zero,0
    2ae2:	00000013          	addi	zero,zero,0
    2ae6:	00000013          	addi	zero,zero,0
    2aea:	00000013          	addi	zero,zero,0
    2aee:	00000013          	addi	zero,zero,0
    2af2:	00000013          	addi	zero,zero,0
    2af6:	00000013          	addi	zero,zero,0
    2afa:	00000013          	addi	zero,zero,0
    2afe:	00000013          	addi	zero,zero,0
    2b02:	00000013          	addi	zero,zero,0
    2b06:	00000013          	addi	zero,zero,0
    2b0a:	00000013          	addi	zero,zero,0
    2b0e:	00000013          	addi	zero,zero,0
    2b12:	00000013          	addi	zero,zero,0
    2b16:	00000013          	addi	zero,zero,0
    2b1a:	00000013          	addi	zero,zero,0
    2b1e:	00000013          	addi	zero,zero,0
    2b22:	00000013          	addi	zero,zero,0
    2b26:	00000013          	addi	zero,zero,0
    2b2a:	00000013          	addi	zero,zero,0
    2b2e:	00000013          	addi	zero,zero,0
    2b32:	00000013          	addi	zero,zero,0
    2b36:	00000013          	addi	zero,zero,0
    2b3a:	00000013          	addi	zero,zero,0
    2b3e:	00000013          	addi	zero,zero,0
    2b42:	00000013          	addi	zero,zero,0
    2b46:	00000013          	addi	zero,zero,0
    2b4a:	00000013          	addi	zero,zero,0
    2b4e:	00000013          	addi	zero,zero,0
    2b52:	00000013          	addi	zero,zero,0
    2b56:	00000013          	addi	zero,zero,0
    2b5a:	00000013          	addi	zero,zero,0
    2b5e:	00000013          	addi	zero,zero,0
    2b62:	00000013          	addi	zero,zero,0
    2b66:	00000013          	addi	zero,zero,0
    2b6a:	00000013          	addi	zero,zero,0
    2b6e:	00000013          	addi	zero,zero,0
    2b72:	00000013          	addi	zero,zero,0
    2b76:	00000013          	addi	zero,zero,0
    2b7a:	00000013          	addi	zero,zero,0
    2b7e:	00000013          	addi	zero,zero,0
    2b82:	00000013          	addi	zero,zero,0
    2b86:	00000013          	addi	zero,zero,0
    2b8a:	00000013          	addi	zero,zero,0
    2b8e:	00000013          	addi	zero,zero,0
    2b92:	00000013          	addi	zero,zero,0
    2b96:	00000013          	addi	zero,zero,0
    2b9a:	00000013          	addi	zero,zero,0
    2b9e:	00000013          	addi	zero,zero,0
    2ba2:	00000013          	addi	zero,zero,0
    2ba6:	00000013          	addi	zero,zero,0
    2baa:	00000013          	addi	zero,zero,0
    2bae:	00000013          	addi	zero,zero,0
    2bb2:	00000013          	addi	zero,zero,0
    2bb6:	00000013          	addi	zero,zero,0
    2bba:	00000013          	addi	zero,zero,0
    2bbe:	00000013          	addi	zero,zero,0
    2bc2:	00000013          	addi	zero,zero,0
    2bc6:	00000013          	addi	zero,zero,0
    2bca:	00000013          	addi	zero,zero,0
    2bce:	00000013          	addi	zero,zero,0
    2bd2:	00000013          	addi	zero,zero,0
    2bd6:	00000013          	addi	zero,zero,0
    2bda:	00000013          	addi	zero,zero,0
    2bde:	00000013          	addi	zero,zero,0
    2be2:	00000013          	addi	zero,zero,0
    2be6:	00000013          	addi	zero,zero,0
    2bea:	00000013          	addi	zero,zero,0
    2bee:	00000013          	addi	zero,zero,0
    2bf2:	00000013          	addi	zero,zero,0
    2bf6:	00000013          	addi	zero,zero,0
    2bfa:	00000013          	addi	zero,zero,0
    2bfe:	00000013          	addi	zero,zero,0
    2c02:	00000013          	addi	zero,zero,0
    2c06:	00000013          	addi	zero,zero,0
    2c0a:	00000013          	addi	zero,zero,0
    2c0e:	00000013          	addi	zero,zero,0
    2c12:	00000013          	addi	zero,zero,0
    2c16:	00000013          	addi	zero,zero,0
    2c1a:	00000013          	addi	zero,zero,0
    2c1e:	00000013          	addi	zero,zero,0
    2c22:	00000013          	addi	zero,zero,0
    2c26:	00000013          	addi	zero,zero,0
    2c2a:	00000013          	addi	zero,zero,0
    2c2e:	00000013          	addi	zero,zero,0
    2c32:	00000013          	addi	zero,zero,0
    2c36:	00000013          	addi	zero,zero,0
    2c3a:	00000013          	addi	zero,zero,0
    2c3e:	00000013          	addi	zero,zero,0
    2c42:	00000013          	addi	zero,zero,0
    2c46:	00000013          	addi	zero,zero,0
    2c4a:	00000013          	addi	zero,zero,0
    2c4e:	00000013          	addi	zero,zero,0
    2c52:	00000013          	addi	zero,zero,0
    2c56:	00000013          	addi	zero,zero,0
    2c5a:	00000013          	addi	zero,zero,0
    2c5e:	00000013          	addi	zero,zero,0
    2c62:	00000013          	addi	zero,zero,0
    2c66:	00000013          	addi	zero,zero,0
    2c6a:	00000013          	addi	zero,zero,0
    2c6e:	00000013          	addi	zero,zero,0
    2c72:	00000013          	addi	zero,zero,0
    2c76:	00000013          	addi	zero,zero,0
    2c7a:	00000013          	addi	zero,zero,0
    2c7e:	00000013          	addi	zero,zero,0
    2c82:	00000013          	addi	zero,zero,0
    2c86:	00000013          	addi	zero,zero,0
    2c8a:	00000013          	addi	zero,zero,0
    2c8e:	00000013          	addi	zero,zero,0
    2c92:	00000013          	addi	zero,zero,0
    2c96:	00000013          	addi	zero,zero,0
    2c9a:	00000013          	addi	zero,zero,0
    2c9e:	00000013          	addi	zero,zero,0
    2ca2:	00000013          	addi	zero,zero,0
    2ca6:	00000013          	addi	zero,zero,0
    2caa:	00000013          	addi	zero,zero,0
    2cae:	00000013          	addi	zero,zero,0
    2cb2:	00000013          	addi	zero,zero,0
    2cb6:	00000013          	addi	zero,zero,0
    2cba:	00000013          	addi	zero,zero,0
    2cbe:	00000013          	addi	zero,zero,0
    2cc2:	00000013          	addi	zero,zero,0
    2cc6:	00000013          	addi	zero,zero,0
    2cca:	00000013          	addi	zero,zero,0
    2cce:	00000013          	addi	zero,zero,0
    2cd2:	00000013          	addi	zero,zero,0
    2cd6:	00000013          	addi	zero,zero,0
    2cda:	00000013          	addi	zero,zero,0
    2cde:	00000013          	addi	zero,zero,0
    2ce2:	00000013          	addi	zero,zero,0
    2ce6:	00000013          	addi	zero,zero,0
    2cea:	00000013          	addi	zero,zero,0
    2cee:	00000013          	addi	zero,zero,0
    2cf2:	00000013          	addi	zero,zero,0
    2cf6:	00000013          	addi	zero,zero,0
    2cfa:	00000013          	addi	zero,zero,0
    2cfe:	00000013          	addi	zero,zero,0
    2d02:	00000013          	addi	zero,zero,0
    2d06:	00000013          	addi	zero,zero,0
    2d0a:	00000013          	addi	zero,zero,0
    2d0e:	00000013          	addi	zero,zero,0
    2d12:	00000013          	addi	zero,zero,0
    2d16:	00000013          	addi	zero,zero,0
    2d1a:	00000013          	addi	zero,zero,0
    2d1e:	00000013          	addi	zero,zero,0
    2d22:	00000013          	addi	zero,zero,0
    2d26:	00000013          	addi	zero,zero,0
    2d2a:	00000013          	addi	zero,zero,0
    2d2e:	00000013          	addi	zero,zero,0
    2d32:	00000013          	addi	zero,zero,0
    2d36:	00000013          	addi	zero,zero,0
    2d3a:	00000013          	addi	zero,zero,0
    2d3e:	00000013          	addi	zero,zero,0
    2d42:	00000013          	addi	zero,zero,0
    2d46:	00000013          	addi	zero,zero,0
    2d4a:	00000013          	addi	zero,zero,0
    2d4e:	00000013          	addi	zero,zero,0
    2d52:	00000013          	addi	zero,zero,0
    2d56:	00000013          	addi	zero,zero,0
    2d5a:	00000013          	addi	zero,zero,0
    2d5e:	00000013          	addi	zero,zero,0
    2d62:	00000013          	addi	zero,zero,0
    2d66:	00000013          	addi	zero,zero,0
    2d6a:	00000013          	addi	zero,zero,0
    2d6e:	00000013          	addi	zero,zero,0
    2d72:	00000013          	addi	zero,zero,0
    2d76:	00000013          	addi	zero,zero,0
    2d7a:	00000013          	addi	zero,zero,0
    2d7e:	00000013          	addi	zero,zero,0
    2d82:	00000013          	addi	zero,zero,0
    2d86:	00000013          	addi	zero,zero,0
    2d8a:	00000013          	addi	zero,zero,0
    2d8e:	00000013          	addi	zero,zero,0
    2d92:	00000013          	addi	zero,zero,0
    2d96:	00000013          	addi	zero,zero,0
    2d9a:	00000013          	addi	zero,zero,0
    2d9e:	00000013          	addi	zero,zero,0
    2da2:	00000013          	addi	zero,zero,0
    2da6:	00000013          	addi	zero,zero,0
    2daa:	00000013          	addi	zero,zero,0
    2dae:	00000013          	addi	zero,zero,0
    2db2:	00000013          	addi	zero,zero,0
    2db6:	00000013          	addi	zero,zero,0
    2dba:	00000013          	addi	zero,zero,0
    2dbe:	00000013          	addi	zero,zero,0
    2dc2:	00000013          	addi	zero,zero,0
    2dc6:	00000013          	addi	zero,zero,0
    2dca:	00000013          	addi	zero,zero,0
    2dce:	00000013          	addi	zero,zero,0
    2dd2:	00000013          	addi	zero,zero,0
    2dd6:	00000013          	addi	zero,zero,0
    2dda:	00000013          	addi	zero,zero,0
    2dde:	00000013          	addi	zero,zero,0
    2de2:	00000013          	addi	zero,zero,0
    2de6:	00000013          	addi	zero,zero,0
    2dea:	00000013          	addi	zero,zero,0
    2dee:	00000013          	addi	zero,zero,0
    2df2:	00000013          	addi	zero,zero,0
    2df6:	00000013          	addi	zero,zero,0
    2dfa:	00000013          	addi	zero,zero,0
    2dfe:	00000013          	addi	zero,zero,0
    2e02:	00000013          	addi	zero,zero,0
    2e06:	00000013          	addi	zero,zero,0
    2e0a:	00000013          	addi	zero,zero,0
    2e0e:	00000013          	addi	zero,zero,0
    2e12:	00000013          	addi	zero,zero,0
    2e16:	00000013          	addi	zero,zero,0
    2e1a:	00000013          	addi	zero,zero,0
    2e1e:	00000013          	addi	zero,zero,0
    2e22:	00000013          	addi	zero,zero,0
    2e26:	00000013          	addi	zero,zero,0
    2e2a:	00000013          	addi	zero,zero,0
    2e2e:	00000013          	addi	zero,zero,0
    2e32:	00000013          	addi	zero,zero,0
	...

00002e38 <__platform_init>:
    2e38:	f14022f3          	csrrs	t0,mhartid,zero
    2e3c:	00028c63          	beq	t0,zero,2e54 <ilm_check>
    2e40:	e00802b7          	lui	t0,0xe0080
    2e44:	01234337          	lui	t1,0x1234
    2e48:	56830313          	addi	t1,t1,1384 # 1234568 <VPE_PASS>
    2e4c:	0062a023          	sw	t1,0(t0) # e0080000 <__start_addr+0x6007fff0>
    2e50:	10500073          	wfi

00002e54 <ilm_check>:
    2e54:	fc0022f3          	csrrs	t0,micm_cfg,zero
    2e58:	00f2d293          	srli	t0,t0,0xf
    2e5c:	03f2f293          	andi	t0,t0,63
    2e60:	00028463          	beq	t0,zero,2e68 <dlm_check>

00002e64 <ilm_tunon>:
    2e64:	7c00e073          	csrrsi	zero,milmb,1

00002e68 <dlm_check>:
    2e68:	fc1022f3          	csrrs	t0,mdcm_cfg,zero
    2e6c:	00f2d293          	srli	t0,t0,0xf
    2e70:	03f2f293          	andi	t0,t0,63
    2e74:	00028463          	beq	t0,zero,2e7c <init_rodata>

00002e78 <dlm_tunon>:
    2e78:	7c10e073          	csrrsi	zero,mdlmb,1

00002e7c <init_rodata>:
    2e7c:	c00d928b          	addigp	t0,-7168 # 200000 <__DATA_BASE>
    2e80:	00001317          	auipc	t1,0x1
    2e84:	90830313          	addi	t1,t1,-1784 # 3788 <rodata_lma>
    2e88:	9e1d950b          	addigp	a0,-5664 # 2005e0 <rodata_end>
    2e8c:	00032403          	lw	s0,0(t1)
    2e90:	0082a023          	sw	s0,0(t0)
    2e94:	0311                	c.addi	t1,4
    2e96:	0291                	c.addi	t0,4
    2e98:	fea2cae3          	blt	t0,a0,2e8c <init_rodata+0x10>

00002e9c <ic_check>:
    2e9c:	fc0022f3          	csrrs	t0,micm_cfg,zero
    2ea0:	0062d293          	srli	t0,t0,0x6
    2ea4:	0072f293          	andi	t0,t0,7
    2ea8:	00028863          	beq	t0,zero,2eb8 <dc_check>

00002eac <ic_turnon>:
    2eac:	7ca022f3          	csrrs	t0,mcache_ctl,zero
    2eb0:	0012e293          	ori	t0,t0,1
    2eb4:	7ca29073          	csrrw	zero,mcache_ctl,t0

00002eb8 <dc_check>:
    2eb8:	fc1022f3          	csrrs	t0,mdcm_cfg,zero
    2ebc:	0062d293          	srli	t0,t0,0x6
    2ec0:	0072f293          	andi	t0,t0,7
    2ec4:	00028863          	beq	t0,zero,2ed4 <end_of_cacheset>

00002ec8 <dc_turnon>:
    2ec8:	7ca022f3          	csrrs	t0,mcache_ctl,zero
    2ecc:	0022e293          	ori	t0,t0,2
    2ed0:	7ca29073          	csrrw	zero,mcache_ctl,t0

00002ed4 <end_of_cacheset>:
    2ed4:	8082                	c.jr	ra

00002ed6 <trap_handler>:
    2ed6:	e00802b7          	lui	t0,0xe0080
    2eda:	01234337          	lui	t1,0x1234
    2ede:	56930313          	addi	t1,t1,1385 # 1234569 <VPE_FAIL>
    2ee2:	0062a023          	sw	t1,0(t0) # e0080000 <__start_addr+0x6007fff0>
    2ee6:	a001                	c.j	2ee6 <trap_handler+0x10>

00002ee8 <printf>:
    2ee8:	00008067          	jalr	zero,0(ra)

00002eec <iprintf>:
    2eec:	00008067          	jalr	zero,0(ra)

00002ef0 <puts>:
    2ef0:	00008067          	jalr	zero,0(ra)

00002ef4 <putchar>:
    2ef4:	00008067          	jalr	zero,0(ra)

00002ef8 <scanf>:
    2ef8:	06400513          	addi	a0,zero,100
    2efc:	c188                	c.sw	a0,0(a1)
    2efe:	8082                	c.jr	ra

00002f00 <time>:
    2f00:	00008067          	jalr	zero,0(ra)

00002f04 <malloc>:
    2f04:	c01d958b          	addigp	a1,-5120 # 200800 <__data_start>
    2f08:	4188                	c.lw	a0,0(a1)
    2f0a:	10050613          	addi	a2,a0,256
    2f0e:	c190                	c.sw	a2,0(a1)
    2f10:	00008067          	jalr	zero,0(ra)

00002f14 <reset_handler>:
    2f14:	801f950b          	addigp	a0,-2048 # 201400 <__bss_start>
    2f18:	812a                	c.mv	sp,a0
    2f1a:	28a000ef          	jal	ra,31a4 <main>
    2f1e:	e00802b7          	lui	t0,0xe0080
    2f22:	01234337          	lui	t1,0x1234
    2f26:	56830313          	addi	t1,t1,1384 # 1234568 <VPE_PASS>
    2f2a:	0062a023          	sw	t1,0(t0) # e0080000 <__start_addr+0x6007fff0>
    2f2e:	a001                	c.j	2f2e <reset_handler+0x1a>

00002f30 <Func_1>:
    2f30:	87aa                	c.mv	a5,a0
    2f32:	00b50563          	beq	a0,a1,2f3c <Func_1+0xc>
    2f36:	4501                	c.li	a0,0
    2f38:	00008067          	jalr	zero,0(ra)
    2f3c:	4505                	c.li	a0,1
    2f3e:	80ffb48b          	sbgp	a5,-2040 # 201408 <Ch_1_Glob>
    2f42:	8082                	c.jr	ra

00002f44 <Func_3>:
    2f44:	1579                	c.addi	a0,-2
    2f46:	00153513          	sltiu	a0,a0,1
    2f4a:	8082                	c.jr	ra

00002f4c <Func_1.constprop.0>:
    2f4c:	87aa                	c.mv	a5,a0
    2f4e:	4035555b          	beqc	a0,67,2f58 <Func_1.constprop.0+0xc>
    2f52:	4501                	c.li	a0,0
    2f54:	00008067          	jalr	zero,0(ra)
    2f58:	4505                	c.li	a0,1
    2f5a:	80ffb48b          	sbgp	a5,-2040 # 201408 <Ch_1_Glob>
    2f5e:	8082                	c.jr	ra

00002f60 <Func_3.constprop.0>:
    2f60:	4501                	c.li	a0,0
    2f62:	8082                	c.jr	ra

00002f64 <Proc_7.constprop.0.isra.0>:
    2f64:	479d                	c.li	a5,7
    2f66:	c11c                	c.sw	a5,0(a0)
    2f68:	00008067          	jalr	zero,0(ra)

00002f6c <Proc_6.constprop.0.isra.0>:
    2f6c:	00052023          	sw	zero,0(a0)
    2f70:	00008067          	jalr	zero,0(ra)

00002f74 <Proc_8.constprop.0.isra.0>:
    2f74:	8f1f978b          	addigp	a5,-1808 # 2014f0 <Arr_2_Glob>
    2f78:	65c7a683          	lw	a3,1628(a5)
    2f7c:	829f970b          	addigp	a4,-2008 # 201428 <Arr_1_Glob>
    2f80:	45a1                	c.li	a1,8
    2f82:	00168613          	addi	a2,a3,1
    2f86:	6685                	c.lui	a3,0x1
    2f88:	96be                	c.add	a3,a5
    2f8a:	d308                	c.sw	a0,32(a4)
    2f8c:	d348                	c.sw	a0,36(a4)
    2f8e:	08b72c23          	sw	a1,152(a4) # 2098 <_trap_entry_vclic+0x98>
    2f92:	66b7a023          	sw	a1,1632(a5)
    2f96:	4715                	c.li	a4,5
    2f98:	66b7a223          	sw	a1,1636(a5)
    2f9c:	64c7ae23          	sw	a2,1628(a5)
    2fa0:	60a6a023          	sw	a0,1536(a3) # 1600 <_EI_10_HANDLER_WRAPPER+0x508>
    2fa4:	80efcbab          	swgp	a4,-2028 # 201414 <Int_Glob>
    2fa8:	00008067          	jalr	zero,0(ra)

00002fac <Proc_6.isra.0>:
    2fac:	1141                	c.addi	sp,-16
    2fae:	c422                	c.swsp	s0,8(sp)
    2fb0:	c226                	c.swsp	s1,4(sp)
    2fb2:	842a                	c.mv	s0,a0
    2fb4:	84ae                	c.mv	s1,a1
    2fb6:	c606                	c.swsp	ra,12(sp)
    2fb8:	f8dff0ef          	jal	ra,2f44 <Func_3>
    2fbc:	00040793          	addi	a5,s0,0
    2fc0:	e111                	c.bnez	a0,2fc4 <Proc_6.isra.0+0x18>
    2fc2:	478d                	c.li	a5,3
    2fc4:	c09c                	c.sw	a5,0(s1)
    2fc6:	4789                	c.li	a5,2
    2fc8:	02245c5b          	beqc	s0,2,3000 <Proc_6.isra.0+0x54>
    2fcc:	0287e263          	bltu	a5,s0,2ff0 <Proc_6.isra.0+0x44>
    2fd0:	00040863          	beq	s0,zero,2fe0 <Proc_6.isra.0+0x34>
    2fd4:	817fa72b          	lwgp	a4,-2028 # 201414 <Int_Glob>
    2fd8:	06400793          	addi	a5,zero,100
    2fdc:	02e7da63          	bge	a5,a4,3010 <Proc_6.isra.0+0x64>
    2fe0:	0004a023          	sw	zero,0(s1)
    2fe4:	40b2                	c.lwsp	ra,12(sp)
    2fe6:	4422                	c.lwsp	s0,8(sp)
    2fe8:	4492                	c.lwsp	s1,4(sp)
    2fea:	0141                	c.addi	sp,16
    2fec:	00008067          	jalr	zero,0(ra)
    2ff0:	be446a5b          	bnec	s0,4,2fe4 <Proc_6.isra.0+0x38>
    2ff4:	40b2                	c.lwsp	ra,12(sp)
    2ff6:	4422                	c.lwsp	s0,8(sp)
    2ff8:	c09c                	c.sw	a5,0(s1)
    2ffa:	4492                	c.lwsp	s1,4(sp)
    2ffc:	0141                	c.addi	sp,16
    2ffe:	8082                	c.jr	ra
    3000:	40b2                	c.lwsp	ra,12(sp)
    3002:	4422                	c.lwsp	s0,8(sp)
    3004:	4785                	c.li	a5,1
    3006:	c09c                	c.sw	a5,0(s1)
    3008:	4492                	c.lwsp	s1,4(sp)
    300a:	0141                	c.addi	sp,16
    300c:	00008067          	jalr	zero,0(ra)
    3010:	40b2                	c.lwsp	ra,12(sp)
    3012:	4422                	c.lwsp	s0,8(sp)
    3014:	478d                	c.li	a5,3
    3016:	c09c                	c.sw	a5,0(s1)
    3018:	4492                	c.lwsp	s1,4(sp)
    301a:	0141                	c.addi	sp,16
    301c:	00008067          	jalr	zero,0(ra)

00003020 <Proc_7.isra.0>:
    3020:	0509                	c.addi	a0,2
    3022:	952e                	c.add	a0,a1
    3024:	c208                	c.sw	a0,0(a2)
    3026:	8082                	c.jr	ra

00003028 <Proc_5.isra.0>:
    3028:	04100713          	addi	a4,zero,65
    302c:	80efb48b          	sbgp	a4,-2040 # 201408 <Ch_1_Glob>
    3030:	800fcdab          	swgp	zero,-2024 # 201418 <Bool_Glob>
    3034:	00008067          	jalr	zero,0(ra)

00003038 <Proc_4.isra.0>:
    3038:	809fa78b          	lbugp	a5,-2040 # 201408 <Ch_1_Glob>
    303c:	81bfa6ab          	lwgp	a3,-2024 # 201418 <Bool_Glob>
    3040:	fbf78793          	addi	a5,a5,-65
    3044:	0017b793          	sltiu	a5,a5,1
    3048:	8fd5                	c.or	a5,a3
    304a:	80ffcdab          	swgp	a5,-2024 # 201418 <Bool_Glob>
    304e:	04200713          	addi	a4,zero,66
    3052:	80efb88b          	sbgp	a4,-2032 # 201410 <Ch_2_Glob>
    3056:	8082                	c.jr	ra

00003058 <Proc_3.isra.0>:
    3058:	823fa62b          	lwgp	a2,-2016 # 201420 <Ptr_Glob>
    305c:	c601                	c.beqz	a2,3064 <Proc_3.isra.0+0xc>
    305e:	421c                	c.lw	a5,0(a2)
    3060:	00f52023          	sw	a5,0(a0)
    3064:	817fa5ab          	lwgp	a1,-2028 # 201414 <Int_Glob>
    3068:	0631                	c.addi	a2,12
    306a:	4529                	c.li	a0,10
    306c:	fb5ff06f          	jal	zero,3020 <Proc_7.isra.0>

00003070 <Proc_1.isra.0>:
    3070:	1141                	c.addi	sp,-16
    3072:	c04a                	c.swsp	s2,0(sp)
    3074:	823fa92b          	lwgp	s2,-2016 # 201420 <Ptr_Glob>
    3078:	c422                	c.swsp	s0,8(sp)
    307a:	00092683          	lw	a3,0(s2)
    307e:	4100                	c.lw	s0,0(a0)
    3080:	00492703          	lw	a4,4(s2)
    3084:	00892783          	lw	a5,8(s2)
    3088:	c606                	c.swsp	ra,12(sp)
    308a:	c226                	c.swsp	s1,4(sp)
    308c:	c014                	c.sw	a3,0(s0)
    308e:	c058                	c.sw	a4,4(s0)
    3090:	c41c                	c.sw	a5,8(s0)
    3092:	00c92683          	lw	a3,12(s2)
    3096:	01092703          	lw	a4,16(s2)
    309a:	01492783          	lw	a5,20(s2)
    309e:	c454                	c.sw	a3,12(s0)
    30a0:	c818                	c.sw	a4,16(s0)
    30a2:	c85c                	c.sw	a5,20(s0)
    30a4:	01892683          	lw	a3,24(s2)
    30a8:	01c92703          	lw	a4,28(s2)
    30ac:	02092783          	lw	a5,32(s2)
    30b0:	cc58                	c.sw	a4,28(s0)
    30b2:	d01c                	c.sw	a5,32(s0)
    30b4:	cc14                	c.sw	a3,24(s0)
    30b6:	02492583          	lw	a1,36(s2)
    30ba:	02892603          	lw	a2,40(s2)
    30be:	02c92683          	lw	a3,44(s2)
    30c2:	4118                	c.lw	a4,0(a0)
    30c4:	4795                	c.li	a5,5
    30c6:	d04c                	c.sw	a1,36(s0)
    30c8:	d410                	c.sw	a2,40(s0)
    30ca:	d454                	c.sw	a3,44(s0)
    30cc:	c55c                	c.sw	a5,12(a0)
    30ce:	84aa                	c.mv	s1,a0
    30d0:	8522                	c.mv	a0,s0
    30d2:	c45c                	c.sw	a5,12(s0)
    30d4:	c018                	c.sw	a4,0(s0)
    30d6:	3749                	c.jal	3058 <Proc_3.isra.0>
    30d8:	00442783          	lw	a5,4(s0)
    30dc:	c3a1                	c.beqz	a5,311c <Proc_1.isra.0+0xac>
    30de:	409c                	c.lw	a5,0(s1)
    30e0:	40b2                	c.lwsp	ra,12(sp)
    30e2:	4390                	c.lw	a2,0(a5)
    30e4:	43d4                	c.lw	a3,4(a5)
    30e6:	4798                	c.lw	a4,8(a5)
    30e8:	c090                	c.sw	a2,0(s1)
    30ea:	c0d4                	c.sw	a3,4(s1)
    30ec:	c498                	c.sw	a4,8(s1)
    30ee:	47d0                	c.lw	a2,12(a5)
    30f0:	4b94                	c.lw	a3,16(a5)
    30f2:	4bd8                	c.lw	a4,20(a5)
    30f4:	c4d0                	c.sw	a2,12(s1)
    30f6:	c894                	c.sw	a3,16(s1)
    30f8:	c8d8                	c.sw	a4,20(s1)
    30fa:	4fd4                	c.lw	a3,28(a5)
    30fc:	5398                	c.lw	a4,32(a5)
    30fe:	4f90                	c.lw	a2,24(a5)
    3100:	ccd4                	c.sw	a3,28(s1)
    3102:	cc90                	c.sw	a2,24(s1)
    3104:	d098                	c.sw	a4,32(s1)
    3106:	53d4                	c.lw	a3,36(a5)
    3108:	5798                	c.lw	a4,40(a5)
    310a:	57dc                	c.lw	a5,44(a5)
    310c:	4422                	c.lwsp	s0,8(sp)
    310e:	d0d4                	c.sw	a3,36(s1)
    3110:	d498                	c.sw	a4,40(s1)
    3112:	d4dc                	c.sw	a5,44(s1)
    3114:	4902                	c.lwsp	s2,0(sp)
    3116:	4492                	c.lwsp	s1,4(sp)
    3118:	0141                	c.addi	sp,16
    311a:	8082                	c.jr	ra
    311c:	4488                	c.lw	a0,8(s1)
    311e:	00840593          	addi	a1,s0,8
    3122:	4799                	c.li	a5,6
    3124:	c45c                	c.sw	a5,12(s0)
    3126:	3559                	c.jal	2fac <Proc_6.isra.0>
    3128:	00092783          	lw	a5,0(s2)
    312c:	4448                	c.lw	a0,12(s0)
    312e:	c01c                	c.sw	a5,0(s0)
    3130:	00c40613          	addi	a2,s0,12
    3134:	4422                	c.lwsp	s0,8(sp)
    3136:	40b2                	c.lwsp	ra,12(sp)
    3138:	4492                	c.lwsp	s1,4(sp)
    313a:	4902                	c.lwsp	s2,0(sp)
    313c:	45a9                	c.li	a1,10
    313e:	0141                	c.addi	sp,16
    3140:	ee1ff06f          	jal	zero,3020 <Proc_7.isra.0>

00003144 <Proc_2.isra.0>:
    3144:	809fa78b          	lbugp	a5,-2040 # 201408 <Ch_1_Glob>
    3148:	4017d45b          	beqc	a5,65,3150 <Proc_2.isra.0+0xc>
    314c:	00008067          	jalr	zero,0(ra)
    3150:	411c                	c.lw	a5,0(a0)
    3152:	817fa72b          	lwgp	a4,-2028 # 201414 <Int_Glob>
    3156:	07a5                	c.addi	a5,9
    3158:	8f99                	c.sub	a5,a4
    315a:	c11c                	c.sw	a5,0(a0)
    315c:	00008067          	jalr	zero,0(ra)

00003160 <Func_2>:
    3160:	1141                	c.addi	sp,-16
    3162:	c422                	c.swsp	s0,8(sp)
    3164:	c226                	c.swsp	s1,4(sp)
    3166:	842a                	c.mv	s0,a0
    3168:	84ae                	c.mv	s1,a1
    316a:	c606                	c.swsp	ra,12(sp)
    316c:	0034c583          	lbu	a1,3(s1)
    3170:	00244503          	lbu	a0,2(s0)
    3174:	dbdff0ef          	jal	ra,2f30 <Func_1>
    3178:	f975                	c.bnez	a0,316c <Func_2+0xc>
    317a:	85a6                	c.mv	a1,s1
    317c:	00040513          	addi	a0,s0,0
    3180:	594000ef          	jal	ra,3714 <strcmp>
    3184:	4781                	c.li	a5,0
    3186:	00a05763          	bge	zero,a0,3194 <Func_2+0x34>
    318a:	46a9                	c.li	a3,10
    318c:	00100793          	addi	a5,zero,1
    3190:	80dfcbab          	swgp	a3,-2028 # 201414 <Int_Glob>
    3194:	40b2                	c.lwsp	ra,12(sp)
    3196:	4422                	c.lwsp	s0,8(sp)
    3198:	4492                	c.lwsp	s1,4(sp)
    319a:	853e                	c.mv	a0,a5
    319c:	0141                	c.addi	sp,16
    319e:	8082                	c.jr	ra
    31a0:	0001                	c.addi	zero,0
	...

000031a4 <main>:
    31a4:	7135                	c.addi16sp	sp,-160
    31a6:	03000513          	addi	a0,zero,48
    31aa:	cf06                	c.swsp	ra,156(sp)
    31ac:	cd22                	c.swsp	s0,152(sp)
    31ae:	c356                	c.swsp	s5,132(sp)
    31b0:	d8ea                	c.swsp	s10,112(sp)
    31b2:	d6ee                	c.swsp	s11,108(sp)
    31b4:	cb26                	c.swsp	s1,148(sp)
    31b6:	c94a                	c.swsp	s2,144(sp)
    31b8:	c74e                	c.swsp	s3,140(sp)
    31ba:	c552                	c.swsp	s4,136(sp)
    31bc:	c15a                	c.swsp	s6,128(sp)
    31be:	dede                	c.swsp	s7,124(sp)
    31c0:	dce2                	c.swsp	s8,120(sp)
    31c2:	dae6                	c.swsp	s9,116(sp)
    31c4:	d41ff0ef          	jal	ra,2f04 <malloc>
    31c8:	87aa                	c.mv	a5,a0
    31ca:	03000513          	addi	a0,zero,48
    31ce:	82ffc3ab          	swgp	a5,-2012 # 201424 <Next_Ptr_Glob>
    31d2:	3b0d                	c.jal	2f04 <malloc>
    31d4:	827fa72b          	lwgp	a4,-2012 # 201424 <Next_Ptr_Glob>
    31d8:	87aa                	c.mv	a5,a0
    31da:	c398                	c.sw	a4,0(a5)
    31dc:	4709                	c.li	a4,2
    31de:	c798                	c.sw	a4,8(a5)
    31e0:	467d                	c.li	a2,31
    31e2:	02800713          	addi	a4,zero,40
    31e6:	c00d958b          	addigp	a1,-7168 # 200000 <__DATA_BASE>
    31ea:	0541                	c.addi	a0,16
    31ec:	00e7a623          	sw	a4,12(a5)
    31f0:	82ffc1ab          	swgp	a5,-2016 # 201420 <Ptr_Glob>
    31f4:	0007a223          	sw	zero,4(a5)
    31f8:	4a8000ef          	jal	ra,36a0 <memcpy>
    31fc:	95dd978b          	addigp	a5,-5796 # 20055c <__DATA_BASE+0x55c>
    3200:	01c7d683          	lhu	a3,28(a5)
    3204:	01e7c703          	lbu	a4,30(a5)
    3208:	0007ae03          	lw	t3,0(a5)
    320c:	0047a303          	lw	t1,4(a5)
    3210:	0087a883          	lw	a7,8(a5)
    3214:	00c7a803          	lw	a6,12(a5)
    3218:	4bd0                	c.lw	a2,20(a5)
    321a:	4b8c                	c.lw	a1,16(a5)
    321c:	4f9c                	c.lw	a5,24(a5)
    321e:	8f1f940b          	addigp	s0,-1808 # 2014f0 <Arr_2_Glob>
    3222:	ccbe                	c.swsp	a5,88(sp)
    3224:	4529                	c.li	a0,10
    3226:	47a9                	c.li	a5,10
    3228:	04d11e23          	sh	a3,92(sp)
    322c:	c0f2                	c.swsp	t3,64(sp)
    322e:	c29a                	c.swsp	t1,68(sp)
    3230:	c4c6                	c.swsp	a7,72(sp)
    3232:	c6c2                	c.swsp	a6,76(sp)
    3234:	cab2                	c.swsp	a2,84(sp)
    3236:	04e10f23          	sb	a4,94(sp)
    323a:	64f42e23          	sw	a5,1628(s0)
    323e:	c8ae                	c.swsp	a1,80(sp)
    3240:	c622                	c.swsp	s0,12(sp)
    3242:	394d                	c.jal	2ef4 <putchar>
    3244:	c20d950b          	addigp	a0,-7136 # 200020 <__DATA_BASE+0x20>
    3248:	ca9ff0ef          	jal	ra,2ef0 <puts>
    324c:	00a00513          	addi	a0,zero,10
    3250:	ca5ff0ef          	jal	ra,2ef4 <putchar>
    3254:	c50d950b          	addigp	a0,-7088 # 200050 <__DATA_BASE+0x50>
    3258:	c99ff0ef          	jal	ra,2ef0 <puts>
    325c:	00a00513          	addi	a0,zero,10
    3260:	c95ff0ef          	jal	ra,2ef4 <putchar>
    3264:	c80d950b          	addigp	a0,-7040 # 200080 <__DATA_BASE+0x80>
    3268:	c85ff0ef          	jal	ra,2eec <iprintf>
    326c:	100c                	c.addi4spn	a1,sp,32
    326e:	cb8d950b          	addigp	a0,-6984 # 2000b8 <__DATA_BASE+0xb8>
    3272:	3159                	c.jal	2ef8 <scanf>
    3274:	4529                	c.li	a0,10
    3276:	5a82                	c.lwsp	s5,32(sp)
    3278:	c7dff0ef          	jal	ra,2ef4 <putchar>
    327c:	85d6                	c.mv	a1,s5
    327e:	cbcd950b          	addigp	a0,-6980 # 2000bc <__DATA_BASE+0xbc>
    3282:	31ad                	c.jal	2eec <iprintf>
    3284:	00000513          	addi	a0,zero,0
    3288:	c79ff0ef          	jal	ra,2f00 <time>
    328c:	80afcfab          	swgp	a0,-2020 # 20141c <Begin_Time>
    3290:	41505263          	bge	zero,s5,3694 <main+0x4f0>
    3294:	c436                	c.swsp	a3,8(sp)
    3296:	c236                	c.swsp	a3,4(sp)
    3298:	823facab          	lwgp	s9,-2016 # 201420 <Ptr_Glob>
    329c:	00100993          	addi	s3,zero,1
    32a0:	97dd948b          	addigp	s1,-5764 # 20057c <__DATA_BASE+0x57c>
    32a4:	04010b13          	addi	s6,sp,64
    32a8:	99dd9c0b          	addigp	s8,-5732 # 20059c <__DATA_BASE+0x59c>
    32ac:	d7dff0ef          	jal	ra,3028 <Proc_5.isra.0>
    32b0:	d89ff0ef          	jal	ra,3038 <Proc_4.isra.0>
    32b4:	01c4d703          	lhu	a4,28(s1)
    32b8:	0004af03          	lw	t5,0(s1)
    32bc:	0044ae83          	lw	t4,4(s1)
    32c0:	0084ae03          	lw	t3,8(s1)
    32c4:	00c4a303          	lw	t1,12(s1)
    32c8:	0104a883          	lw	a7,16(s1)
    32cc:	0144a803          	lw	a6,20(s1)
    32d0:	01e4c783          	lbu	a5,30(s1)
    32d4:	4c90                	c.lw	a2,24(s1)
    32d6:	100c                	c.addi4spn	a1,sp,32
    32d8:	4685                	c.li	a3,1
    32da:	855a                	c.mv	a0,s6
    32dc:	d07a                	c.swsp	t5,32(sp)
    32de:	d276                	c.swsp	t4,36(sp)
    32e0:	d472                	c.swsp	t3,40(sp)
    32e2:	d61a                	c.swsp	t1,44(sp)
    32e4:	d846                	c.swsp	a7,48(sp)
    32e6:	da42                	c.swsp	a6,52(sp)
    32e8:	02e11e23          	sh	a4,60(sp)
    32ec:	dc32                	c.swsp	a2,56(sp)
    32ee:	02f10f23          	sb	a5,62(sp)
    32f2:	ca36                	c.swsp	a3,20(sp)
    32f4:	e6dff0ef          	jal	ra,3160 <Func_2>
    32f8:	46a2                	c.lwsp	a3,8(sp)
    32fa:	00153793          	sltiu	a5,a0,1
    32fe:	461d                	c.li	a2,7
    3300:	0828                	c.addi4spn	a0,sp,24
    3302:	80ffcdab          	swgp	a5,-2024 # 201418 <Bool_Glob>
    3306:	cc32                	c.swsp	a2,24(sp)
    3308:	c5dff0ef          	jal	ra,2f64 <Proc_7.constprop.0.isra.0>
    330c:	01812503          	lw	a0,24(sp)
    3310:	c65ff0ef          	jal	ra,2f74 <Proc_8.constprop.0.isra.0>
    3314:	000c8513          	addi	a0,s9,0
    3318:	d59ff0ef          	jal	ra,3070 <Proc_1.isra.0>
    331c:	4692                	c.lwsp	a3,4(sp)
    331e:	04000613          	addi	a2,zero,64
    3322:	811fa40b          	lbugp	s0,-2032 # 201410 <Ch_2_Glob>
    3326:	34867763          	bgeu	a2,s0,3674 <main+0x4d0>
    332a:	04100b93          	addi	s7,zero,65
    332e:	490d                	c.li	s2,3
    3330:	0100006f          	jal	zero,3340 <main+0x19c>
    3334:	001b8793          	addi	a5,s7,1
    3338:	0ff7fb93          	andi	s7,a5,255
    333c:	07746063          	bltu	s0,s7,339c <main+0x1f8>
    3340:	855e                	c.mv	a0,s7
    3342:	3129                	c.jal	2f4c <Func_1.constprop.0>
    3344:	4752                	c.lwsp	a4,20(sp)
    3346:	fee517e3          	bne	a0,a4,3334 <main+0x190>
    334a:	0848                	c.addi4spn	a0,sp,20
    334c:	c21ff0ef          	jal	ra,2f6c <Proc_6.constprop.0.isra.0>
    3350:	01cc5603          	lhu	a2,28(s8)
    3354:	01ec4703          	lbu	a4,30(s8)
    3358:	000c2e83          	lw	t4,0(s8)
    335c:	004c2e03          	lw	t3,4(s8)
    3360:	008c2303          	lw	t1,8(s8)
    3364:	00cc2883          	lw	a7,12(s8)
    3368:	010c2803          	lw	a6,16(s8)
    336c:	014c2503          	lw	a0,20(s8)
    3370:	018c2583          	lw	a1,24(s8)
    3374:	001b8793          	addi	a5,s7,1
    3378:	0ff7fb93          	andi	s7,a5,255
    337c:	d076                	c.swsp	t4,32(sp)
    337e:	d272                	c.swsp	t3,36(sp)
    3380:	d41a                	c.swsp	t1,40(sp)
    3382:	d646                	c.swsp	a7,44(sp)
    3384:	d842                	c.swsp	a6,48(sp)
    3386:	da2a                	c.swsp	a0,52(sp)
    3388:	dc2e                	c.swsp	a1,56(sp)
    338a:	02c11e23          	sh	a2,60(sp)
    338e:	02e10f23          	sb	a4,62(sp)
    3392:	813fcbab          	swgp	s3,-2028 # 201414 <Int_Glob>
    3396:	894e                	c.mv	s2,s3
    3398:	fb7474e3          	bgeu	s0,s7,3340 <main+0x19c>
    339c:	0b29095b          	lea.h	s2,s2,s2
    33a0:	4be2                	c.lwsp	s7,24(sp)
    33a2:	0985                	c.addi	s3,1
    33a4:	03794433          	div	s0,s2,s7
    33a8:	0868                	c.addi4spn	a0,sp,28
    33aa:	ce22                	c.swsp	s0,28(sp)
    33ac:	d99ff0ef          	jal	ra,3144 <Proc_2.isra.0>
    33b0:	ef3adee3          	bge	s5,s3,32ac <main+0x108>
    33b4:	41790933          	sub	s2,s2,s7
    33b8:	00391793          	slli	a5,s2,0x3
    33bc:	41278933          	sub	s2,a5,s2
    33c0:	01c12483          	lw	s1,28(sp)
    33c4:	40890933          	sub	s2,s2,s0
    33c8:	4501                	c.li	a0,0
    33ca:	3e1d                	c.jal	2f00 <time>
    33cc:	87aa                	c.mv	a5,a0
    33ce:	cecd950b          	addigp	a0,-6932 # 2000ec <__DATA_BASE+0xec>
    33d2:	80ffc7ab          	swgp	a5,-2036 # 20140c <End_Time>
    33d6:	3e29                	c.jal	2ef0 <puts>
    33d8:	00a00513          	addi	a0,zero,10
    33dc:	b19ff0ef          	jal	ra,2ef4 <putchar>
    33e0:	cfcd950b          	addigp	a0,-6916 # 2000fc <__DATA_BASE+0xfc>
    33e4:	b0dff0ef          	jal	ra,2ef0 <puts>
    33e8:	00a00513          	addi	a0,zero,10
    33ec:	b09ff0ef          	jal	ra,2ef4 <putchar>
    33f0:	817fa5ab          	lwgp	a1,-2028 # 201414 <Int_Glob>
    33f4:	d34d950b          	addigp	a0,-6860 # 200134 <__DATA_BASE+0x134>
    33f8:	af5ff0ef          	jal	ra,2eec <iprintf>
    33fc:	4595                	c.li	a1,5
    33fe:	d50d950b          	addigp	a0,-6832 # 200150 <__DATA_BASE+0x150>
    3402:	34ed                	c.jal	2eec <iprintf>
    3404:	46a2                	c.lwsp	a3,8(sp)
    3406:	81bfa5ab          	lwgp	a1,-2024 # 201418 <Bool_Glob>
    340a:	d6cd950b          	addigp	a0,-6804 # 20016c <__DATA_BASE+0x16c>
    340e:	3cf9                	c.jal	2eec <iprintf>
    3410:	4585                	c.li	a1,1
    3412:	d50d950b          	addigp	a0,-6832 # 200150 <__DATA_BASE+0x150>
    3416:	3cd9                	c.jal	2eec <iprintf>
    3418:	809fa58b          	lbugp	a1,-2040 # 201408 <Ch_1_Glob>
    341c:	d88d950b          	addigp	a0,-6776 # 200188 <__DATA_BASE+0x188>
    3420:	acdff0ef          	jal	ra,2eec <iprintf>
    3424:	04100593          	addi	a1,zero,65
    3428:	da4d950b          	addigp	a0,-6748 # 2001a4 <__DATA_BASE+0x1a4>
    342c:	ac1ff0ef          	jal	ra,2eec <iprintf>
    3430:	4692                	c.lwsp	a3,4(sp)
    3432:	811fa58b          	lbugp	a1,-2032 # 201410 <Ch_2_Glob>
    3436:	dc0d950b          	addigp	a0,-6720 # 2001c0 <__DATA_BASE+0x1c0>
    343a:	3c4d                	c.jal	2eec <iprintf>
    343c:	04200593          	addi	a1,zero,66
    3440:	da4d950b          	addigp	a0,-6748 # 2001a4 <__DATA_BASE+0x1a4>
    3444:	aa9ff0ef          	jal	ra,2eec <iprintf>
    3448:	84bfa5ab          	lwgp	a1,-1976 # 201448 <Arr_1_Glob+0x20>
    344c:	ddcd950b          	addigp	a0,-6692 # 2001dc <__DATA_BASE+0x1dc>
    3450:	a9dff0ef          	jal	ra,2eec <iprintf>
    3454:	459d                	c.li	a1,7
    3456:	d50d950b          	addigp	a0,-6832 # 200150 <__DATA_BASE+0x150>
    345a:	3c49                	c.jal	2eec <iprintf>
    345c:	46b2                	c.lwsp	a3,12(sp)
    345e:	65c6a583          	lw	a1,1628(a3)
    3462:	df8d950b          	addigp	a0,-6664 # 2001f8 <__DATA_BASE+0x1f8>
    3466:	3459                	c.jal	2eec <iprintf>
    3468:	e14d950b          	addigp	a0,-6636 # 200214 <__DATA_BASE+0x214>
    346c:	a85ff0ef          	jal	ra,2ef0 <puts>
    3470:	e40d950b          	addigp	a0,-6592 # 200240 <__DATA_BASE+0x240>
    3474:	a7dff0ef          	jal	ra,2ef0 <puts>
    3478:	823fa7ab          	lwgp	a5,-2016 # 201420 <Ptr_Glob>
    347c:	438c                	c.lw	a1,0(a5)
    347e:	e4cd950b          	addigp	a0,-6580 # 20024c <__DATA_BASE+0x24c>
    3482:	34ad                	c.jal	2eec <iprintf>
    3484:	e68d950b          	addigp	a0,-6552 # 200268 <__DATA_BASE+0x268>
    3488:	a69ff0ef          	jal	ra,2ef0 <puts>
    348c:	823fa6ab          	lwgp	a3,-2016 # 201420 <Ptr_Glob>
    3490:	42cc                	c.lw	a1,4(a3)
    3492:	e98d950b          	addigp	a0,-6504 # 200298 <__DATA_BASE+0x298>
    3496:	3c99                	c.jal	2eec <iprintf>
    3498:	4581                	c.li	a1,0
    349a:	d50d950b          	addigp	a0,-6832 # 200150 <__DATA_BASE+0x150>
    349e:	34b9                	c.jal	2eec <iprintf>
    34a0:	823fa6ab          	lwgp	a3,-2016 # 201420 <Ptr_Glob>
    34a4:	468c                	c.lw	a1,8(a3)
    34a6:	eb4d950b          	addigp	a0,-6476 # 2002b4 <__DATA_BASE+0x2b4>
    34aa:	3489                	c.jal	2eec <iprintf>
    34ac:	4589                	c.li	a1,2
    34ae:	d50d950b          	addigp	a0,-6832 # 200150 <__DATA_BASE+0x150>
    34b2:	3c2d                	c.jal	2eec <iprintf>
    34b4:	823fa6ab          	lwgp	a3,-2016 # 201420 <Ptr_Glob>
    34b8:	46cc                	c.lw	a1,12(a3)
    34ba:	ed0d950b          	addigp	a0,-6448 # 2002d0 <__DATA_BASE+0x2d0>
    34be:	343d                	c.jal	2eec <iprintf>
    34c0:	45c5                	c.li	a1,17
    34c2:	d50d950b          	addigp	a0,-6832 # 200150 <__DATA_BASE+0x150>
    34c6:	341d                	c.jal	2eec <iprintf>
    34c8:	823fa5ab          	lwgp	a1,-2016 # 201420 <Ptr_Glob>
    34cc:	05c1                	c.addi	a1,16
    34ce:	eecd950b          	addigp	a0,-6420 # 2002ec <__DATA_BASE+0x2ec>
    34d2:	3c29                	c.jal	2eec <iprintf>
    34d4:	f08d950b          	addigp	a0,-6392 # 200308 <__DATA_BASE+0x308>
    34d8:	a19ff0ef          	jal	ra,2ef0 <puts>
    34dc:	f3cd950b          	addigp	a0,-6340 # 20033c <__DATA_BASE+0x33c>
    34e0:	a11ff0ef          	jal	ra,2ef0 <puts>
    34e4:	827fa6ab          	lwgp	a3,-2012 # 201424 <Next_Ptr_Glob>
    34e8:	428c                	c.lw	a1,0(a3)
    34ea:	e4cd950b          	addigp	a0,-6580 # 20024c <__DATA_BASE+0x24c>
    34ee:	3afd                	c.jal	2eec <iprintf>
    34f0:	f4cd950b          	addigp	a0,-6324 # 20034c <__DATA_BASE+0x34c>
    34f4:	9fdff0ef          	jal	ra,2ef0 <puts>
    34f8:	827fa72b          	lwgp	a4,-2012 # 201424 <Next_Ptr_Glob>
    34fc:	434c                	c.lw	a1,4(a4)
    34fe:	e98d950b          	addigp	a0,-6504 # 200298 <__DATA_BASE+0x298>
    3502:	32ed                	c.jal	2eec <iprintf>
    3504:	4581                	c.li	a1,0
    3506:	d50d950b          	addigp	a0,-6832 # 200150 <__DATA_BASE+0x150>
    350a:	32cd                	c.jal	2eec <iprintf>
    350c:	827fa7ab          	lwgp	a5,-2012 # 201424 <Next_Ptr_Glob>
    3510:	eb4d950b          	addigp	a0,-6476 # 2002b4 <__DATA_BASE+0x2b4>
    3514:	0087a583          	lw	a1,8(a5)
    3518:	9d5ff0ef          	jal	ra,2eec <iprintf>
    351c:	00100593          	addi	a1,zero,1
    3520:	d50d950b          	addigp	a0,-6832 # 200150 <__DATA_BASE+0x150>
    3524:	9c9ff0ef          	jal	ra,2eec <iprintf>
    3528:	827fa7ab          	lwgp	a5,-2012 # 201424 <Next_Ptr_Glob>
    352c:	ed0d950b          	addigp	a0,-6448 # 2002d0 <__DATA_BASE+0x2d0>
    3530:	00c7a583          	lw	a1,12(a5)
    3534:	9b9ff0ef          	jal	ra,2eec <iprintf>
    3538:	01200593          	addi	a1,zero,18
    353c:	d50d950b          	addigp	a0,-6832 # 200150 <__DATA_BASE+0x150>
    3540:	9adff0ef          	jal	ra,2eec <iprintf>
    3544:	827fa5ab          	lwgp	a1,-2012 # 201424 <Next_Ptr_Glob>
    3548:	eecd950b          	addigp	a0,-6420 # 2002ec <__DATA_BASE+0x2ec>
    354c:	01058593          	addi	a1,a1,16
    3550:	99dff0ef          	jal	ra,2eec <iprintf>
    3554:	f08d950b          	addigp	a0,-6392 # 200308 <__DATA_BASE+0x308>
    3558:	999ff0ef          	jal	ra,2ef0 <puts>
    355c:	00048593          	addi	a1,s1,0
    3560:	f8cd950b          	addigp	a0,-6260 # 20038c <__DATA_BASE+0x38c>
    3564:	989ff0ef          	jal	ra,2eec <iprintf>
    3568:	00500593          	addi	a1,zero,5
    356c:	d50d950b          	addigp	a0,-6832 # 200150 <__DATA_BASE+0x150>
    3570:	97dff0ef          	jal	ra,2eec <iprintf>
    3574:	00090593          	addi	a1,s2,0
    3578:	fa8d950b          	addigp	a0,-6232 # 2003a8 <__DATA_BASE+0x3a8>
    357c:	971ff0ef          	jal	ra,2eec <iprintf>
    3580:	00d00593          	addi	a1,zero,13
    3584:	d50d950b          	addigp	a0,-6832 # 200150 <__DATA_BASE+0x150>
    3588:	965ff0ef          	jal	ra,2eec <iprintf>
    358c:	01812583          	lw	a1,24(sp)
    3590:	fc4d950b          	addigp	a0,-6204 # 2003c4 <__DATA_BASE+0x3c4>
    3594:	959ff0ef          	jal	ra,2eec <iprintf>
    3598:	00700593          	addi	a1,zero,7
    359c:	d50d950b          	addigp	a0,-6832 # 200150 <__DATA_BASE+0x150>
    35a0:	94dff0ef          	jal	ra,2eec <iprintf>
    35a4:	01412583          	lw	a1,20(sp)
    35a8:	fe0d950b          	addigp	a0,-6176 # 2003e0 <__DATA_BASE+0x3e0>
    35ac:	941ff0ef          	jal	ra,2eec <iprintf>
    35b0:	00100593          	addi	a1,zero,1
    35b4:	d50d950b          	addigp	a0,-6832 # 200150 <__DATA_BASE+0x150>
    35b8:	935ff0ef          	jal	ra,2eec <iprintf>
    35bc:	000b0593          	addi	a1,s6,0
    35c0:	ffcd950b          	addigp	a0,-6148 # 2003fc <__DATA_BASE+0x3fc>
    35c4:	929ff0ef          	jal	ra,2eec <iprintf>
    35c8:	819d950b          	addigp	a0,-6120 # 200418 <__DATA_BASE+0x418>
    35cc:	925ff0ef          	jal	ra,2ef0 <puts>
    35d0:	02010593          	addi	a1,sp,32
    35d4:	84dd950b          	addigp	a0,-6068 # 20044c <__DATA_BASE+0x44c>
    35d8:	915ff0ef          	jal	ra,2eec <iprintf>
    35dc:	869d950b          	addigp	a0,-6040 # 200468 <__DATA_BASE+0x468>
    35e0:	911ff0ef          	jal	ra,2ef0 <puts>
    35e4:	00a00513          	addi	a0,zero,10
    35e8:	90dff0ef          	jal	ra,2ef4 <putchar>
    35ec:	80ffa7ab          	lwgp	a5,-2036 # 20140c <End_Time>
    35f0:	81ffa6ab          	lwgp	a3,-2020 # 20141c <Begin_Time>
    35f4:	4705                	c.li	a4,1
    35f6:	8f95                	c.sub	a5,a3
    35f8:	08f75063          	bge	a4,a5,3678 <main+0x4d4>
    35fc:	d20787d3          	fcvt.d.w	fa5,a5
    3600:	d20a8753          	fcvt.d.w	fa4,s5
    3604:	02facab3          	div	s5,s5,a5
    3608:	002007b7          	lui	a5,0x200
    360c:	5c07b687          	fld	fa3,1472(a5) # 2005c0 <__DATA_BASE+0x5c0>
    3610:	8f5d950b          	addigp	a0,-5900 # 2004f4 <__DATA_BASE+0x4f4>
    3614:	12d7f7d3          	fmul.d	fa5,fa5,fa3
    3618:	1ae7f7d3          	fdiv.d	fa5,fa5,fa4
    361c:	815fc1ab          	swgp	s5,-2048 # 201400 <__bss_start>
    3620:	c20797d3          	fcvt.w.d	a5,fa5,rtz
    3624:	80ffc3ab          	swgp	a5,-2044 # 201404 <Microseconds>
    3628:	8c5ff0ef          	jal	ra,2eec <iprintf>
    362c:	807fa5ab          	lwgp	a1,-2044 # 201404 <Microseconds>
    3630:	925d950b          	addigp	a0,-5852 # 200524 <__DATA_BASE+0x524>
    3634:	8b5ff0ef          	jal	ra,2ee8 <printf>
    3638:	92dd950b          	addigp	a0,-5844 # 20052c <__DATA_BASE+0x52c>
    363c:	8b1ff0ef          	jal	ra,2eec <iprintf>
    3640:	803fa5ab          	lwgp	a1,-2048 # 201400 <__bss_start>
    3644:	925d950b          	addigp	a0,-5852 # 200524 <__DATA_BASE+0x524>
    3648:	8a1ff0ef          	jal	ra,2ee8 <printf>
    364c:	00a00513          	addi	a0,zero,10
    3650:	8a5ff0ef          	jal	ra,2ef4 <putchar>
    3654:	40fa                	c.lwsp	ra,156(sp)
    3656:	446a                	c.lwsp	s0,152(sp)
    3658:	44da                	c.lwsp	s1,148(sp)
    365a:	494a                	c.lwsp	s2,144(sp)
    365c:	49ba                	c.lwsp	s3,140(sp)
    365e:	4a2a                	c.lwsp	s4,136(sp)
    3660:	4a9a                	c.lwsp	s5,132(sp)
    3662:	4b0a                	c.lwsp	s6,128(sp)
    3664:	5bf6                	c.lwsp	s7,124(sp)
    3666:	5c66                	c.lwsp	s8,120(sp)
    3668:	5cd6                	c.lwsp	s9,116(sp)
    366a:	5d46                	c.lwsp	s10,112(sp)
    366c:	5db6                	c.lwsp	s11,108(sp)
    366e:	4501                	c.li	a0,0
    3670:	610d                	c.addi16sp	sp,160
    3672:	8082                	c.jr	ra
    3674:	4925                	c.li	s2,9
    3676:	b32d                	c.j	33a0 <main+0x1fc>
    3678:	89dd950b          	addigp	a0,-5988 # 20049c <__DATA_BASE+0x49c>
    367c:	875ff0ef          	jal	ra,2ef0 <puts>
    3680:	8d5d950b          	addigp	a0,-5932 # 2004d4 <__DATA_BASE+0x4d4>
    3684:	86dff0ef          	jal	ra,2ef0 <puts>
    3688:	00a00513          	addi	a0,zero,10
    368c:	869ff0ef          	jal	ra,2ef4 <putchar>
    3690:	fc5ff06f          	jal	zero,3654 <main+0x4b0>
    3694:	c436                	c.swsp	a3,8(sp)
    3696:	04010b13          	addi	s6,sp,64
    369a:	c236                	c.swsp	a3,4(sp)
    369c:	b335                	c.j	33c8 <main+0x224>
	...

000036a0 <memcpy>:
    36a0:	c63d                	c.beqz	a2,370e <memcpy+0x6e>
    36a2:	82aa                	c.mv	t0,a0
    36a4:	83b2                	c.mv	t2,a2
    36a6:	fe03f313          	andi	t1,t2,-32
    36aa:	9316                	c.add	t1,t0
    36ac:	02655863          	bge	a0,t1,36dc <memcpy+0x3c>
    36b0:	4190                	c.lw	a2,0(a1)
    36b2:	41d4                	c.lw	a3,4(a1)
    36b4:	4598                	c.lw	a4,8(a1)
    36b6:	45dc                	c.lw	a5,12(a1)
    36b8:	c110                	c.sw	a2,0(a0)
    36ba:	c154                	c.sw	a3,4(a0)
    36bc:	c518                	c.sw	a4,8(a0)
    36be:	c55c                	c.sw	a5,12(a0)
    36c0:	4990                	c.lw	a2,16(a1)
    36c2:	49d4                	c.lw	a3,20(a1)
    36c4:	4d98                	c.lw	a4,24(a1)
    36c6:	4ddc                	c.lw	a5,28(a1)
    36c8:	c910                	c.sw	a2,16(a0)
    36ca:	c954                	c.sw	a3,20(a0)
    36cc:	cd18                	c.sw	a4,24(a0)
    36ce:	cd5c                	c.sw	a5,28(a0)
    36d0:	02058593          	addi	a1,a1,32
    36d4:	02050513          	addi	a0,a0,32
    36d8:	fc654ce3          	blt	a0,t1,36b0 <memcpy+0x10>
    36dc:	ffc3f313          	andi	t1,t2,-4
    36e0:	00530333          	add	t1,t1,t0
    36e4:	00655863          	bge	a0,t1,36f4 <memcpy+0x54>
    36e8:	4190                	c.lw	a2,0(a1)
    36ea:	0591                	c.addi	a1,4
    36ec:	c110                	c.sw	a2,0(a0)
    36ee:	0511                	c.addi	a0,4
    36f0:	fe654ce3          	blt	a0,t1,36e8 <memcpy+0x48>
    36f4:	00728333          	add	t1,t0,t2
    36f8:	00655a63          	bge	a0,t1,370c <memcpy+0x6c>
    36fc:	0005c603          	lbu	a2,0(a1)
    3700:	0585                	c.addi	a1,1
    3702:	00c50023          	sb	a2,0(a0)
    3706:	0505                	c.addi	a0,1
    3708:	fe654ae3          	blt	a0,t1,36fc <memcpy+0x5c>
    370c:	8516                	c.mv	a0,t0
    370e:	8082                	c.jr	ra
    3710:	0001                	c.addi	zero,0
	...

00003714 <strcmp>:
    3714:	00b56633          	or	a2,a0,a1
    3718:	8a0d                	c.andi	a2,3
    371a:	ee0d                	c.bnez	a2,3754 <strcmp+0x40>
    371c:	4110                	c.lw	a2,0(a0)
    371e:	4194                	c.lw	a3,0(a1)
    3720:	22d607db          	ffzmism	a5,a2,a3
    3724:	e3b1                	c.bnez	a5,3768 <strcmp+0x54>
    3726:	4150                	c.lw	a2,4(a0)
    3728:	41d4                	c.lw	a3,4(a1)
    372a:	22d607db          	ffzmism	a5,a2,a3
    372e:	ef8d                	c.bnez	a5,3768 <strcmp+0x54>
    3730:	4510                	c.lw	a2,8(a0)
    3732:	4594                	c.lw	a3,8(a1)
    3734:	22d607db          	ffzmism	a5,a2,a3
    3738:	eb85                	c.bnez	a5,3768 <strcmp+0x54>
    373a:	4550                	c.lw	a2,12(a0)
    373c:	45d4                	c.lw	a3,12(a1)
    373e:	22d607db          	ffzmism	a5,a2,a3
    3742:	e39d                	c.bnez	a5,3768 <strcmp+0x54>
    3744:	4910                	c.lw	a2,16(a0)
    3746:	4994                	c.lw	a3,16(a1)
    3748:	22d607db          	ffzmism	a5,a2,a3
    374c:	ef91                	c.bnez	a5,3768 <strcmp+0x54>
    374e:	0551                	c.addi	a0,20
    3750:	05d1                	c.addi	a1,20
    3752:	b7e9                	c.j	371c <strcmp+0x8>
    3754:	00054603          	lbu	a2,0(a0)
    3758:	0005c683          	lbu	a3,0(a1)
    375c:	0505                	c.addi	a0,1
    375e:	0585                	c.addi	a1,1
    3760:	00d61d63          	bne	a2,a3,377a <strcmp+0x66>
    3764:	fe0618e3          	bne	a2,zero,3754 <strcmp+0x40>
    3768:	078e                	c.slli	a5,0x3
    376a:	00f65633          	srl	a2,a2,a5
    376e:	0ff67613          	andi	a2,a2,255
    3772:	00f6d6b3          	srl	a3,a3,a5
    3776:	0ff6f693          	andi	a3,a3,255
    377a:	40d60533          	sub	a0,a2,a3
    377e:	8082                	c.jr	ra
    3780:	0001                	c.addi	zero,0
    3782:	0000                	c.unimp
    3784:	0000                	c.unimp
	...

Disassembly of section .loader:

80000000 <__start_addr-0x10>:
80000000:	00000297          	auipc	t0,0x0
80000004:	0102a283          	lw	t0,16(t0) # 80000010 <__start_addr>
80000008:	8282                	c.jr	t0
8000000a:	00000013          	addi	zero,zero,0
8000000e:	0001                	c.addi	zero,0

80000010 <__start_addr>:
80000010:	0080                	c.addi4spn	s0,sp,64
80000012:	0000                	c.unimp
80000014:	0000                	c.unimp
	...

Contents of section .init:
 0000 00100000 f8100000 f8100000 f8100000  ................
 0010 f8100000 f8100000 f8100000 f8100000  ................
 0020 f8100000 f8100000 f8100000 f8100000  ................
 0030 f8100000 f8100000 f8100000 f8100000  ................
 0040 f8100000 f8100000 f8100000 f8100000  ................
 0050 f8100000 f8100000 f8100000 f8100000  ................
 0060 f8100000 f8100000 f8100000 f8100000  ................
 0070 f8100000 f8100000 f8100000 f8100000  ................
 0080 09a0f322 20346384 02006f10 a0068140  ..." 4c...o....@
 0090 01418141 01428142 01438143 01448144  .A.A.B.B.C.C.D.D
 00a0 01458145 01468146 01478147 01488148  .E.E.F.F.G.G.H.H
 00b0 01498149 014a814a 014b814b 014c814c  .I.I.J.J.K.K.L.L
 00c0 014d814d 014e814e 014f814f f3271030  .M.M.N.N.O.O.'.0
 00d0 9583858b c1c70967 73200730 530000f0  .......gs .0S...
 00e0 d30000f0 530100f0 d30100f0 530200f0  ....S.......S...
 00f0 d30200f0 530300f0 d30300f0 530400f0  ....S.......S...
 0100 d30400f0 530500f0 d30500f0 530600f0  ....S.......S...
 0110 d30600f0 530700f0 d30700f0 530800f0  ....S.......S...
 0120 d30800f0 530900f0 d30900f0 530a00f0  ....S.......S...
 0130 d30a00f0 530b00f0 d30b00f0 530c00f0  ....S.......S...
 0140 d30c00f0 530d00f0 d30d00f0 530e00f0  ....S.......S...
 0150 d30e00f0 530f00f0 d30f00f0 f3271030  ....S........'.0
 0160 d583858b d9cbf327 00301307 00207320  .......'.0... s 
 0170 07305777 00015730 005ed730 005e5731  .0Ww..W0.^.0.^W1
 0180 005ed731 005e5732 005ed732 005e5733  .^.1.^W2.^.2.^W3
 0190 005ed733 005e5734 005ed734 005e5735  .^.3.^W4.^.4.^W5
 01a0 005ed735 005e5736 005ed736 005e5737  .^.5.^W6.^.6.^W7
 01b0 005ed737 005e5738 005ed738 005e5739  .^.7.^W8.^.8.^W9
 01c0 005ed739 005e573a 005ed73a 005e573b  .^.9.^W:.^.:.^W;
 01d0 005ed73b 005e573c 005ed73c 005e573d  .^.;.^W<.^.<.^W=
 01e0 005ed73d 005e573e 005ed73e 005e573f  .^.=.^W>.^.>.^W?
 01f0 005ed73f 005e7390 07309701 000083a1  .^.?.^s..0......
 0200 61149702 000083a2 62147323 40f1a163  a.......b.s#@..c
 0210 63050300 9e927d13 e5bf1681 732320fc  c.....}.....s# .
 0220 1353b301 13731300 630f0300 97220000  .S...s..c...."..
 0230 938242dd 73907230 97120000 938282dc  ..B.s.r0........
 0240 93e23200 85a89712 00009382 a2e37323  ..2...........s#
 0250 10301353 23011373 13006307 03027323  .0.S#..s..c...s#
 0260 30309303 00203363 73007310 33307323  00... 3cs.s.30s#
 0270 007d1373 d3ff7310 037d7390 52109712  .}.s..s..}s.R...
 0280 00009382 22d83da0 97120000 938282d7  ....".=.........
 0290 732320fc 1353c300 13731300 630c0300  s# ..S...s..c...
 02a0 7323007d 13632300 7310037d 97020000  s#.}.c#.s..}....
 02b0 938242d5 73905230 bd427390 023afd52  ..B.s.R0.Bs..:.R
 02c0 7390023b ef205037 17450000 130585d3  s..;. P7.E......
 02d0 97050000 83a50508 17060000 03260608  .............&..
 02e0 630cb500 63fac500 83220500 23a05500  c...c...."..#.U.
 02f0 11059105 e3eac5fe 17050000 03250506  .............%..
 0300 97050000 83a50506 6377b500 23200500  ........cw..# ..
 0310 1105e36d b5fe1705 00000325 25059705  ...m.......%%...
 0320 000083a5 25056377 b5002320 05001105  ....%.cw..# ....
 0330 e36db5fe ef20103e 01a08280 13000000  .m... .>........
 0340 001c2000 00000000 00002800 00000000  .. .......(.....
 0350 00082000 00000000 00142000 00000000  .. ....... .....
 0360 003c2000 00000000 00003000 00000000  .< .......0.....
 0370 00003000 00000000 01001300 0000      ..0...........  

Contents of section .rodata:
 200000 44485259 53544f4e 45205052 4f475241  DHRYSTONE PROGRA
 200010 4d2c2053 4f4d4520 53545249 4e470000  M, SOME STRING..
 200020 44687279 73746f6e 65204265 6e63686d  Dhrystone Benchm
 200030 61726b2c 20566572 73696f6e 20322e31  ark, Version 2.1
 200040 20284c61 6e677561 67653a20 43290000   (Language: C)..
 200050 50726f67 72616d20 636f6d70 696c6564  Program compiled
 200060 20776974 686f7574 20277265 67697374   without 'regist
 200070 65722720 61747472 69627574 65000000  er' attribute...
 200080 506c6561 73652067 69766520 74686520  Please give the 
 200090 6e756d62 6572206f 66207275 6e732074  number of runs t
 2000a0 68726f75 67682074 68652062 656e6368  hrough the bench
 2000b0 6d61726b 3a200000 25640000 45786563  mark: ..%d..Exec
 2000c0 7574696f 6e207374 61727473 2c202564  ution starts, %d
 2000d0 2072756e 73207468 726f7567 68204468   runs through Dh
 2000e0 72797374 6f6e650a 00000000 45786563  rystone.....Exec
 2000f0 7574696f 6e20656e 64730000 46696e61  ution ends..Fina
 200100 6c207661 6c756573 206f6620 74686520  l values of the 
 200110 76617269 61626c65 73207573 65642069  variables used i
 200120 6e207468 65206265 6e63686d 61726b3a  n the benchmark:
 200130 00000000 496e745f 476c6f62 3a202020  ....Int_Glob:   
 200140 20202020 20202020 2025640a 00000000           %d.....
 200150 20202020 20202020 73686f75 6c642062          should b
 200160 653a2020 2025640a 00000000 426f6f6c  e:   %d.....Bool
 200170 5f476c6f 623a2020 20202020 20202020  _Glob:          
 200180 2025640a 00000000 43685f31 5f476c6f   %d.....Ch_1_Glo
 200190 623a2020 20202020 20202020 2025630a  b:           %c.
 2001a0 00000000 20202020 20202020 73686f75  ....        shou
 2001b0 6c642062 653a2020 2025630a 00000000  ld be:   %c.....
 2001c0 43685f32 5f476c6f 623a2020 20202020  Ch_2_Glob:      
 2001d0 20202020 2025630a 00000000 4172725f       %c.....Arr_
 2001e0 315f476c 6f625b38 5d3a2020 20202020  1_Glob[8]:      
 2001f0 2025640a 00000000 4172725f 325f476c   %d.....Arr_2_Gl
 200200 6f625b38 5d5b375d 3a202020 2025640a  ob[8][7]:    %d.
 200210 00000000 20202020 20202020 73686f75  ....        shou
 200220 6c642062 653a2020 204e756d 6265725f  ld be:   Number_
 200230 4f665f52 756e7320 2b203130 00000000  Of_Runs + 10....
 200240 5074725f 476c6f62 2d3e0000 20205074  Ptr_Glob->..  Pt
 200250 725f436f 6d703a20 20202020 20202020  r_Comp:         
 200260 2025640a 00000000 20202020 20202020   %d.....        
 200270 73686f75 6c642062 653a2020 2028696d  should be:   (im
 200280 706c656d 656e7461 74696f6e 2d646570  plementation-dep
 200290 656e6465 6e742900 20204469 7363723a  endent).  Discr:
 2002a0 20202020 20202020 20202020 2025640a               %d.
 2002b0 00000000 2020456e 756d5f43 6f6d703a  ....  Enum_Comp:
 2002c0 20202020 20202020 2025640a 00000000           %d.....
 2002d0 2020496e 745f436f 6d703a20 20202020    Int_Comp:     
 2002e0 20202020 2025640a 00000000 20205374       %d.....  St
 2002f0 725f436f 6d703a20 20202020 20202020  r_Comp:         
 200300 2025730a 00000000 20202020 20202020   %s.....        
 200310 73686f75 6c642062 653a2020 20444852  should be:   DHR
 200320 5953544f 4e452050 524f4752 414d2c20  YSTONE PROGRAM, 
 200330 534f4d45 20535452 494e4700 4e657874  SOME STRING.Next
 200340 5f507472 5f476c6f 622d3e00 20202020  _Ptr_Glob->.    
 200350 20202020 73686f75 6c642062 653a2020      should be:  
 200360 2028696d 706c656d 656e7461 74696f6e   (implementation
 200370 2d646570 656e6465 6e74292c 2073616d  -dependent), sam
 200380 65206173 2061626f 76650000 496e745f  e as above..Int_
 200390 315f4c6f 633a2020 20202020 20202020  1_Loc:          
 2003a0 2025640a 00000000 496e745f 325f4c6f   %d.....Int_2_Lo
 2003b0 633a2020 20202020 20202020 2025640a  c:           %d.
 2003c0 00000000 496e745f 335f4c6f 633a2020  ....Int_3_Loc:  
 2003d0 20202020 20202020 2025640a 00000000           %d.....
 2003e0 456e756d 5f4c6f63 3a202020 20202020  Enum_Loc:       
 2003f0 20202020 2025640a 00000000 5374725f       %d.....Str_
 200400 315f4c6f 633a2020 20202020 20202020  1_Loc:          
 200410 2025730a 00000000 20202020 20202020   %s.....        
 200420 73686f75 6c642062 653a2020 20444852  should be:   DHR
 200430 5953544f 4e452050 524f4752 414d2c20  YSTONE PROGRAM, 
 200440 31275354 20535452 494e4700 5374725f  1'ST STRING.Str_
 200450 325f4c6f 633a2020 20202020 20202020  2_Loc:          
 200460 2025730a 00000000 20202020 20202020   %s.....        
 200470 73686f75 6c642062 653a2020 20444852  should be:   DHR
 200480 5953544f 4e452050 524f4752 414d2c20  YSTONE PROGRAM, 
 200490 32274e44 20535452 494e4700 4d656173  2'ND STRING.Meas
 2004a0 75726564 2074696d 6520746f 6f20736d  ured time too sm
 2004b0 616c6c20 746f206f 62746169 6e206d65  all to obtain me
 2004c0 616e696e 6766756c 20726573 756c7473  aningful results
 2004d0 00000000 506c6561 73652069 6e637265  ....Please incre
 2004e0 61736520 6e756d62 6572206f 66207275  ase number of ru
 2004f0 6e730000 4d696372 6f736563 6f6e6473  ns..Microseconds
 200500 20666f72 206f6e65 2072756e 20746872   for one run thr
 200510 6f756768 20446872 7973746f 6e653a20  ough Dhrystone: 
 200520 00000000 25362e31 66200a00 44687279  ....%6.1f ..Dhry
 200530 73746f6e 65732070 65722053 65636f6e  stones per Secon
 200540 643a2020 20202020 20202020 20202020  d:              
 200550 20202020 20202020 00000000 44485259          ....DHRY
 200560 53544f4e 45205052 4f475241 4d2c2031  STONE PROGRAM, 1
 200570 27535420 53545249 4e470000 44485259  'ST STRING..DHRY
 200580 53544f4e 45205052 4f475241 4d2c2032  STONE PROGRAM, 2
 200590 274e4420 53545249 4e470000 44485259  'ND STRING..DHRY
 2005a0 53544f4e 45205052 4f475241 4d2c2033  STONE PROGRAM, 3
 2005b0 27524420 53545249 4e470000 00000000  'RD STRING......
 2005c0 00000000 80842e41                    .......A        

Contents of section .data:
 200800 000c2000 00000000 00000000 00000000  .. .............
 200810 00000000 00000000 00000000 00000000  ................
 200820 00000000 00000000 00000000 00000000  ................
 200830 00000000 00000000 00000000 00000000  ................
 200840 00000000 00000000 00000000 00000000  ................
 200850 00000000 00000000 00000000 00000000  ................
 200860 00000000 00000000 00000000 00000000  ................
 200870 00000000 00000000 00000000 00000000  ................
 200880 00000000 00000000 00000000 00000000  ................
 200890 00000000 00000000 00000000 00000000  ................
 2008a0 00000000 00000000 00000000 00000000  ................
 2008b0 00000000 00000000 00000000 00000000  ................
 2008c0 00000000 00000000 00000000 00000000  ................
 2008d0 00000000 00000000 00000000 00000000  ................
 2008e0 00000000 00000000 00000000 00000000  ................
 2008f0 00000000 00000000 00000000 00000000  ................
 200900 00000000 00000000 00000000 00000000  ................
 200910 00000000 00000000 00000000 00000000  ................
 200920 00000000 00000000 00000000 00000000  ................
 200930 00000000 00000000 00000000 00000000  ................
 200940 00000000 00000000 00000000 00000000  ................
 200950 00000000 00000000 00000000 00000000  ................
 200960 00000000 00000000 00000000 00000000  ................
 200970 00000000 00000000 00000000 00000000  ................
 200980 00000000 00000000 00000000 00000000  ................
 200990 00000000 00000000 00000000 00000000  ................
 2009a0 00000000 00000000 00000000 00000000  ................
 2009b0 00000000 00000000 00000000 00000000  ................
 2009c0 00000000 00000000 00000000 00000000  ................
 2009d0 00000000 00000000 00000000 00000000  ................
 2009e0 00000000 00000000 00000000 00000000  ................
 2009f0 00000000 00000000 00000000 00000000  ................
 200a00 00000000 00000000 00000000 00000000  ................
 200a10 00000000 00000000 00000000 00000000  ................
 200a20 00000000 00000000 00000000 00000000  ................
 200a30 00000000 00000000 00000000 00000000  ................
 200a40 00000000 00000000 00000000 00000000  ................
 200a50 00000000 00000000 00000000 00000000  ................
 200a60 00000000 00000000 00000000 00000000  ................
 200a70 00000000 00000000 00000000 00000000  ................
 200a80 00000000 00000000 00000000 00000000  ................
 200a90 00000000 00000000 00000000 00000000  ................
 200aa0 00000000 00000000 00000000 00000000  ................
 200ab0 00000000 00000000 00000000 00000000  ................
 200ac0 00000000 00000000 00000000 00000000  ................
 200ad0 00000000 00000000 00000000 00000000  ................
 200ae0 00000000 00000000 00000000 00000000  ................
 200af0 00000000 00000000 00000000 00000000  ................
 200b00 00000000 00000000 00000000 00000000  ................
 200b10 00000000 00000000 00000000 00000000  ................
 200b20 00000000 00000000 00000000 00000000  ................
 200b30 00000000 00000000 00000000 00000000  ................
 200b40 00000000 00000000 00000000 00000000  ................
 200b50 00000000 00000000 00000000 00000000  ................
 200b60 00000000 00000000 00000000 00000000  ................
 200b70 00000000 00000000 00000000 00000000  ................
 200b80 00000000 00000000 00000000 00000000  ................
 200b90 00000000 00000000 00000000 00000000  ................
 200ba0 00000000 00000000 00000000 00000000  ................
 200bb0 00000000 00000000 00000000 00000000  ................
 200bc0 00000000 00000000 00000000 00000000  ................
 200bd0 00000000 00000000 00000000 00000000  ................
 200be0 00000000 00000000 00000000 00000000  ................
 200bf0 00000000 00000000 00000000 00000000  ................
 200c00 00000000 00000000 00000000 00000000  ................
 200c10 00000000 00000000 00000000 00000000  ................
 200c20 00000000 00000000 00000000 00000000  ................
 200c30 00000000 00000000 00000000 00000000  ................
 200c40 00000000 00000000 00000000 00000000  ................
 200c50 00000000 00000000 00000000 00000000  ................
 200c60 00000000 00000000 00000000 00000000  ................
 200c70 00000000 00000000 00000000 00000000  ................
 200c80 00000000 00000000 00000000 00000000  ................
 200c90 00000000 00000000 00000000 00000000  ................
 200ca0 00000000 00000000 00000000 00000000  ................
 200cb0 00000000 00000000 00000000 00000000  ................
 200cc0 00000000 00000000 00000000 00000000  ................
 200cd0 00000000 00000000 00000000 00000000  ................
 200ce0 00000000 00000000 00000000 00000000  ................
 200cf0 00000000 00000000 00000000 00000000  ................
 200d00 00000000 00000000 00000000 00000000  ................
 200d10 00000000 00000000 00000000 00000000  ................
 200d20 00000000 00000000 00000000 00000000  ................
 200d30 00000000 00000000 00000000 00000000  ................
 200d40 00000000 00000000 00000000 00000000  ................
 200d50 00000000 00000000 00000000 00000000  ................
 200d60 00000000 00000000 00000000 00000000  ................
 200d70 00000000 00000000 00000000 00000000  ................
 200d80 00000000 00000000 00000000 00000000  ................
 200d90 00000000 00000000 00000000 00000000  ................
 200da0 00000000 00000000 00000000 00000000  ................
 200db0 00000000 00000000 00000000 00000000  ................
 200dc0 00000000 00000000 00000000 00000000  ................
 200dd0 00000000 00000000 00000000 00000000  ................
 200de0 00000000 00000000 00000000 00000000  ................
 200df0 00000000 00000000 00000000 00000000  ................
 200e00 00000000 00000000 00000000 00000000  ................
 200e10 00000000 00000000 00000000 00000000  ................
 200e20 00000000 00000000 00000000 00000000  ................
 200e30 00000000 00000000 00000000 00000000  ................
 200e40 00000000 00000000 00000000 00000000  ................
 200e50 00000000 00000000 00000000 00000000  ................
 200e60 00000000 00000000 00000000 00000000  ................
 200e70 00000000 00000000 00000000 00000000  ................
 200e80 00000000 00000000 00000000 00000000  ................
 200e90 00000000 00000000 00000000 00000000  ................
 200ea0 00000000 00000000 00000000 00000000  ................
 200eb0 00000000 00000000 00000000 00000000  ................
 200ec0 00000000 00000000 00000000 00000000  ................
 200ed0 00000000 00000000 00000000 00000000  ................
 200ee0 00000000 00000000 00000000 00000000  ................
 200ef0 00000000 00000000 00000000 00000000  ................
 200f00 00000000 00000000 00000000 00000000  ................
 200f10 00000000 00000000 00000000 00000000  ................
 200f20 00000000 00000000 00000000 00000000  ................
 200f30 00000000 00000000 00000000 00000000  ................
 200f40 00000000 00000000 00000000 00000000  ................
 200f50 00000000 00000000 00000000 00000000  ................
 200f60 00000000 00000000 00000000 00000000  ................
 200f70 00000000 00000000 00000000 00000000  ................
 200f80 00000000 00000000 00000000 00000000  ................
 200f90 00000000 00000000 00000000 00000000  ................
 200fa0 00000000 00000000 00000000 00000000  ................
 200fb0 00000000 00000000 00000000 00000000  ................
 200fc0 00000000 00000000 00000000 00000000  ................
 200fd0 00000000 00000000 00000000 00000000  ................
 200fe0 00000000 00000000 00000000 00000000  ................
 200ff0 00000000 00000000 00000000 00000000  ................
 201000 00000000 00000000 00000000 00000000  ................
 201010 00000000 00000000 00000000 00000000  ................
 201020 00000000 00000000 00000000 00000000  ................
 201030 00000000 00000000 00000000 00000000  ................
 201040 00000000 00000000 00000000 00000000  ................
 201050 00000000 00000000 00000000 00000000  ................
 201060 00000000 00000000 00000000 00000000  ................
 201070 00000000 00000000 00000000 00000000  ................
 201080 00000000 00000000 00000000 00000000  ................
 201090 00000000 00000000 00000000 00000000  ................
 2010a0 00000000 00000000 00000000 00000000  ................
 2010b0 00000000 00000000 00000000 00000000  ................
 2010c0 00000000 00000000 00000000 00000000  ................
 2010d0 00000000 00000000 00000000 00000000  ................
 2010e0 00000000 00000000 00000000 00000000  ................
 2010f0 00000000 00000000 00000000 00000000  ................
 201100 00000000 00000000 00000000 00000000  ................
 201110 00000000 00000000 00000000 00000000  ................
 201120 00000000 00000000 00000000 00000000  ................
 201130 00000000 00000000 00000000 00000000  ................
 201140 00000000 00000000 00000000 00000000  ................
 201150 00000000 00000000 00000000 00000000  ................
 201160 00000000 00000000 00000000 00000000  ................
 201170 00000000 00000000 00000000 00000000  ................
 201180 00000000 00000000 00000000 00000000  ................
 201190 00000000 00000000 00000000 00000000  ................
 2011a0 00000000 00000000 00000000 00000000  ................
 2011b0 00000000 00000000 00000000 00000000  ................
 2011c0 00000000 00000000 00000000 00000000  ................
 2011d0 00000000 00000000 00000000 00000000  ................
 2011e0 00000000 00000000 00000000 00000000  ................
 2011f0 00000000 00000000 00000000 00000000  ................
 201200 00000000 00000000 00000000 00000000  ................
 201210 00000000 00000000 00000000 00000000  ................
 201220 00000000 00000000 00000000 00000000  ................
 201230 00000000 00000000 00000000 00000000  ................
 201240 00000000 00000000 00000000 00000000  ................
 201250 00000000 00000000 00000000 00000000  ................
 201260 00000000 00000000 00000000 00000000  ................
 201270 00000000 00000000 00000000 00000000  ................
 201280 00000000 00000000 00000000 00000000  ................
 201290 00000000 00000000 00000000 00000000  ................
 2012a0 00000000 00000000 00000000 00000000  ................
 2012b0 00000000 00000000 00000000 00000000  ................
 2012c0 00000000 00000000 00000000 00000000  ................
 2012d0 00000000 00000000 00000000 00000000  ................
 2012e0 00000000 00000000 00000000 00000000  ................
 2012f0 00000000 00000000 00000000 00000000  ................
 201300 00000000 00000000 00000000 00000000  ................
 201310 00000000 00000000 00000000 00000000  ................
 201320 00000000 00000000 00000000 00000000  ................
 201330 00000000 00000000 00000000 00000000  ................
 201340 00000000 00000000 00000000 00000000  ................
 201350 00000000 00000000 00000000 00000000  ................
 201360 00000000 00000000 00000000 00000000  ................
 201370 00000000 00000000 00000000 00000000  ................
 201380 00000000 00000000 00000000 00000000  ................
 201390 00000000 00000000 00000000 00000000  ................
 2013a0 00000000 00000000 00000000 00000000  ................
 2013b0 00000000 00000000 00000000 00000000  ................
 2013c0 00000000 00000000 00000000 00000000  ................
 2013d0 00000000 00000000 00000000 00000000  ................
 2013e0 00000000 00000000 00000000 00000000  ................
 2013f0 00000000 00000000 00000000 00000000  ................

Contents of section .loader:
 80000000 97020000 83a20201 82821300 00000100  ................
 80000010 80000000 00000000                    ........        
