
a.out:     file format elf32-littleriscv


Disassembly of section .text.init:

00000000 <_RELAX_END_>:
	...

00000080 <_start>:
  80:	0340006f          	jal	zero,b4 <reset_vector>

00000084 <trap_vector>:
  84:	00000f17          	auipc	t5,0x0
  88:	f7cf0f13          	addi	t5,t5,-132 # 0 <_RELAX_END_>
  8c:	000f0363          	beq	t5,zero,92 <trap_vector+0xe>
  90:	8f02                	c.jr	t5
  92:	34202f73          	csrrs	t5,mcause,zero
  96:	000f5363          	bge	t5,zero,9c <handle_exception>
  9a:	a009                	c.j	9c <handle_exception>

0000009c <handle_exception>:
  9c:	5391e193          	ori	gp,gp,1337

000000a0 <fail_handler>:
  a0:	0ff0000f          	fence	iorw,iorw
  a4:	e00802b7          	lui	t0,0xe0080
  a8:	01234337          	lui	t1,0x1234
  ac:	56930313          	addi	t1,t1,1385 # 1234569 <begin_signature+0x1233569>
  b0:	0062a023          	sw	t1,0(t0) # e0080000 <__start_addr+0x6007fff0>

000000b4 <reset_vector>:
  b4:	f1402573          	csrrs	a0,mhartid,zero
  b8:	00051063          	bne	a0,zero,b8 <reset_vector+0x4>
  bc:	00000297          	auipc	t0,0x0
  c0:	01028293          	addi	t0,t0,16 # cc <reset_vector+0x18>
  c4:	30529073          	csrrw	zero,mtvec,t0
  c8:	18005073          	csrrwi	zero,satp,0
  cc:	00000297          	auipc	t0,0x0
  d0:	02028293          	addi	t0,t0,32 # ec <reset_vector+0x38>
  d4:	30529073          	csrrw	zero,mtvec,t0
  d8:	800002b7          	lui	t0,0x80000
  dc:	fff28293          	addi	t0,t0,-1 # 7fffffff <__start_addr+0xffffffef>
  e0:	3b029073          	csrrw	zero,pmpaddr0,t0
  e4:	01f00293          	addi	t0,zero,31
  e8:	3a029073          	csrrw	zero,pmpcfg0,t0
  ec:	00000297          	auipc	t0,0x0
  f0:	01828293          	addi	t0,t0,24 # 104 <reset_vector+0x50>
  f4:	30529073          	csrrw	zero,mtvec,t0
  f8:	30205073          	csrrwi	zero,medeleg,0
  fc:	30305073          	csrrwi	zero,mideleg,0
 100:	30405073          	csrrwi	zero,mie,0
 104:	4181                	c.li	gp,0
 106:	00000297          	auipc	t0,0x0
 10a:	f7e28293          	addi	t0,t0,-130 # 84 <trap_vector>
 10e:	30529073          	csrrw	zero,mtvec,t0
 112:	30102573          	csrrs	a0,misa,zero
 116:	00055c63          	bge	a0,zero,12e <reset_vector+0x7a>
 11a:	0ff0000f          	fence	iorw,iorw
 11e:	e00802b7          	lui	t0,0xe0080
 122:	01234337          	lui	t1,0x1234
 126:	56830313          	addi	t1,t1,1384 # 1234568 <begin_signature+0x1233568>
 12a:	0062a023          	sw	t1,0(t0) # e0080000 <__start_addr+0x6007fff0>
 12e:	00000297          	auipc	t0,0x0
 132:	ed228293          	addi	t0,t0,-302 # 0 <_RELAX_END_>
 136:	00028e63          	beq	t0,zero,152 <reset_vector+0x9e>
 13a:	10529073          	csrrw	zero,stvec,t0
 13e:	0000b2b7          	lui	t0,0xb
 142:	10928293          	addi	t0,t0,265 # b109 <begin_signature+0xa109>
 146:	30229073          	csrrw	zero,medeleg,t0
 14a:	30202373          	csrrs	t1,medeleg,zero
 14e:	f46297e3          	bne	t0,t1,9c <handle_exception>
 152:	30005073          	csrrwi	zero,mstatus,0
 156:	557d                	c.li	a0,-1
 158:	3b051073          	csrrw	zero,pmpaddr0,a0
 15c:	3a0fd073          	csrrwi	zero,pmpcfg0,31
 160:	00000297          	auipc	t0,0x0
 164:	01428293          	addi	t0,t0,20 # 174 <test_2>
 168:	34129073          	csrrw	zero,mepc,t0
 16c:	f1402573          	csrrs	a0,mhartid,zero
 170:	30200073          	mret

00000174 <test_2>:
 174:	ff0100b7          	lui	ra,0xff010
 178:	f0008093          	addi	ra,ra,-256 # ff00ff00 <__start_addr+0x7f00fef0>
 17c:	0f0f1137          	lui	sp,0xf0f1
 180:	f0f10113          	addi	sp,sp,-241 # f0f0f0f <begin_signature+0xf0eff0f>
 184:	0020f733          	and	a4,ra,sp
 188:	0f001eb7          	lui	t4,0xf001
 18c:	f00e8e93          	addi	t4,t4,-256 # f000f00 <begin_signature+0xeffff00>
 190:	4189                	c.li	gp,2
 192:	3dd71c63          	bne	a4,t4,56a <fail>

00000196 <test_3>:
 196:	0ff010b7          	lui	ra,0xff01
 19a:	ff008093          	addi	ra,ra,-16 # ff00ff0 <begin_signature+0xfeffff0>
 19e:	f0f0f137          	lui	sp,0xf0f0f
 1a2:	0f010113          	addi	sp,sp,240 # f0f0f0f0 <__start_addr+0x70f0f0e0>
 1a6:	0020f733          	and	a4,ra,sp
 1aa:	00f00eb7          	lui	t4,0xf00
 1ae:	0f0e8e93          	addi	t4,t4,240 # f000f0 <begin_signature+0xeff0f0>
 1b2:	418d                	c.li	gp,3
 1b4:	3bd71b63          	bne	a4,t4,56a <fail>

000001b8 <test_4>:
 1b8:	00ff00b7          	lui	ra,0xff0
 1bc:	0ff08093          	addi	ra,ra,255 # ff00ff <begin_signature+0xfef0ff>
 1c0:	0f0f1137          	lui	sp,0xf0f1
 1c4:	f0f10113          	addi	sp,sp,-241 # f0f0f0f <begin_signature+0xf0eff0f>
 1c8:	0020f733          	and	a4,ra,sp
 1cc:	000f0eb7          	lui	t4,0xf0
 1d0:	00fe8e93          	addi	t4,t4,15 # f000f <begin_signature+0xef00f>
 1d4:	4191                	c.li	gp,4
 1d6:	39d71a63          	bne	a4,t4,56a <fail>

000001da <test_5>:
 1da:	f00ff0b7          	lui	ra,0xf00ff
 1de:	00f08093          	addi	ra,ra,15 # f00ff00f <__start_addr+0x700fefff>
 1e2:	f0f0f137          	lui	sp,0xf0f0f
 1e6:	0f010113          	addi	sp,sp,240 # f0f0f0f0 <__start_addr+0x70f0f0e0>
 1ea:	0020f733          	and	a4,ra,sp
 1ee:	f000feb7          	lui	t4,0xf000f
 1f2:	4195                	c.li	gp,5
 1f4:	37d71b63          	bne	a4,t4,56a <fail>

000001f8 <test_6>:
 1f8:	ff0100b7          	lui	ra,0xff010
 1fc:	f0008093          	addi	ra,ra,-256 # ff00ff00 <__start_addr+0x7f00fef0>
 200:	0f0f1137          	lui	sp,0xf0f1
 204:	f0f10113          	addi	sp,sp,-241 # f0f0f0f <begin_signature+0xf0eff0f>
 208:	0020f0b3          	and	ra,ra,sp
 20c:	0f001eb7          	lui	t4,0xf001
 210:	f00e8e93          	addi	t4,t4,-256 # f000f00 <begin_signature+0xeffff00>
 214:	4199                	c.li	gp,6
 216:	35d09a63          	bne	ra,t4,56a <fail>

0000021a <test_7>:
 21a:	0ff010b7          	lui	ra,0xff01
 21e:	ff008093          	addi	ra,ra,-16 # ff00ff0 <begin_signature+0xfeffff0>
 222:	f0f0f137          	lui	sp,0xf0f0f
 226:	0f010113          	addi	sp,sp,240 # f0f0f0f0 <__start_addr+0x70f0f0e0>
 22a:	0020f133          	and	sp,ra,sp
 22e:	00f00eb7          	lui	t4,0xf00
 232:	0f0e8e93          	addi	t4,t4,240 # f000f0 <begin_signature+0xeff0f0>
 236:	419d                	c.li	gp,7
 238:	33d11963          	bne	sp,t4,56a <fail>

0000023c <test_8>:
 23c:	ff0100b7          	lui	ra,0xff010
 240:	f0008093          	addi	ra,ra,-256 # ff00ff00 <__start_addr+0x7f00fef0>
 244:	0010f0b3          	and	ra,ra,ra
 248:	ff010eb7          	lui	t4,0xff010
 24c:	f00e8e93          	addi	t4,t4,-256 # ff00ff00 <__start_addr+0x7f00fef0>
 250:	41a1                	c.li	gp,8
 252:	31d09c63          	bne	ra,t4,56a <fail>

00000256 <test_9>:
 256:	4201                	c.li	tp,0
 258:	ff0100b7          	lui	ra,0xff010
 25c:	f0008093          	addi	ra,ra,-256 # ff00ff00 <__start_addr+0x7f00fef0>
 260:	0f0f1137          	lui	sp,0xf0f1
 264:	f0f10113          	addi	sp,sp,-241 # f0f0f0f <begin_signature+0xf0eff0f>
 268:	0020f733          	and	a4,ra,sp
 26c:	833a                	c.mv	t1,a4
 26e:	0205                	c.addi	tp,1
 270:	4289                	c.li	t0,2
 272:	fe5213e3          	bne	tp,t0,258 <test_9+0x2>
 276:	0f001eb7          	lui	t4,0xf001
 27a:	f00e8e93          	addi	t4,t4,-256 # f000f00 <begin_signature+0xeffff00>
 27e:	41a5                	c.li	gp,9
 280:	2fd31563          	bne	t1,t4,56a <fail>

00000284 <test_10>:
 284:	4201                	c.li	tp,0
 286:	0ff010b7          	lui	ra,0xff01
 28a:	ff008093          	addi	ra,ra,-16 # ff00ff0 <begin_signature+0xfeffff0>
 28e:	f0f0f137          	lui	sp,0xf0f0f
 292:	0f010113          	addi	sp,sp,240 # f0f0f0f0 <__start_addr+0x70f0f0e0>
 296:	0020f733          	and	a4,ra,sp
 29a:	0001                	c.addi	zero,0
 29c:	833a                	c.mv	t1,a4
 29e:	0205                	c.addi	tp,1
 2a0:	4289                	c.li	t0,2
 2a2:	fe5212e3          	bne	tp,t0,286 <test_10+0x2>
 2a6:	00f00eb7          	lui	t4,0xf00
 2aa:	0f0e8e93          	addi	t4,t4,240 # f000f0 <begin_signature+0xeff0f0>
 2ae:	41a9                	c.li	gp,10
 2b0:	2bd31d63          	bne	t1,t4,56a <fail>

000002b4 <test_11>:
 2b4:	4201                	c.li	tp,0
 2b6:	00ff00b7          	lui	ra,0xff0
 2ba:	0ff08093          	addi	ra,ra,255 # ff00ff <begin_signature+0xfef0ff>
 2be:	0f0f1137          	lui	sp,0xf0f1
 2c2:	f0f10113          	addi	sp,sp,-241 # f0f0f0f <begin_signature+0xf0eff0f>
 2c6:	0020f733          	and	a4,ra,sp
 2ca:	0001                	c.addi	zero,0
 2cc:	0001                	c.addi	zero,0
 2ce:	833a                	c.mv	t1,a4
 2d0:	0205                	c.addi	tp,1
 2d2:	4289                	c.li	t0,2
 2d4:	fe5211e3          	bne	tp,t0,2b6 <test_11+0x2>
 2d8:	000f0eb7          	lui	t4,0xf0
 2dc:	00fe8e93          	addi	t4,t4,15 # f000f <begin_signature+0xef00f>
 2e0:	41ad                	c.li	gp,11
 2e2:	29d31463          	bne	t1,t4,56a <fail>

000002e6 <test_12>:
 2e6:	4201                	c.li	tp,0
 2e8:	ff0100b7          	lui	ra,0xff010
 2ec:	f0008093          	addi	ra,ra,-256 # ff00ff00 <__start_addr+0x7f00fef0>
 2f0:	0f0f1137          	lui	sp,0xf0f1
 2f4:	f0f10113          	addi	sp,sp,-241 # f0f0f0f <begin_signature+0xf0eff0f>
 2f8:	0020f733          	and	a4,ra,sp
 2fc:	0205                	c.addi	tp,1
 2fe:	4289                	c.li	t0,2
 300:	fe5214e3          	bne	tp,t0,2e8 <test_12+0x2>
 304:	0f001eb7          	lui	t4,0xf001
 308:	f00e8e93          	addi	t4,t4,-256 # f000f00 <begin_signature+0xeffff00>
 30c:	41b1                	c.li	gp,12
 30e:	25d71e63          	bne	a4,t4,56a <fail>

00000312 <test_13>:
 312:	4201                	c.li	tp,0
 314:	0ff010b7          	lui	ra,0xff01
 318:	ff008093          	addi	ra,ra,-16 # ff00ff0 <begin_signature+0xfeffff0>
 31c:	f0f0f137          	lui	sp,0xf0f0f
 320:	0f010113          	addi	sp,sp,240 # f0f0f0f0 <__start_addr+0x70f0f0e0>
 324:	0001                	c.addi	zero,0
 326:	0020f733          	and	a4,ra,sp
 32a:	0205                	c.addi	tp,1
 32c:	4289                	c.li	t0,2
 32e:	fe5213e3          	bne	tp,t0,314 <test_13+0x2>
 332:	00f00eb7          	lui	t4,0xf00
 336:	0f0e8e93          	addi	t4,t4,240 # f000f0 <begin_signature+0xeff0f0>
 33a:	41b5                	c.li	gp,13
 33c:	23d71763          	bne	a4,t4,56a <fail>

00000340 <test_14>:
 340:	4201                	c.li	tp,0
 342:	00ff00b7          	lui	ra,0xff0
 346:	0ff08093          	addi	ra,ra,255 # ff00ff <begin_signature+0xfef0ff>
 34a:	0f0f1137          	lui	sp,0xf0f1
 34e:	f0f10113          	addi	sp,sp,-241 # f0f0f0f <begin_signature+0xf0eff0f>
 352:	0001                	c.addi	zero,0
 354:	0001                	c.addi	zero,0
 356:	0020f733          	and	a4,ra,sp
 35a:	0205                	c.addi	tp,1
 35c:	4289                	c.li	t0,2
 35e:	fe5212e3          	bne	tp,t0,342 <test_14+0x2>
 362:	000f0eb7          	lui	t4,0xf0
 366:	00fe8e93          	addi	t4,t4,15 # f000f <begin_signature+0xef00f>
 36a:	41b9                	c.li	gp,14
 36c:	1fd71f63          	bne	a4,t4,56a <fail>

00000370 <test_15>:
 370:	4201                	c.li	tp,0
 372:	ff0100b7          	lui	ra,0xff010
 376:	f0008093          	addi	ra,ra,-256 # ff00ff00 <__start_addr+0x7f00fef0>
 37a:	0001                	c.addi	zero,0
 37c:	0f0f1137          	lui	sp,0xf0f1
 380:	f0f10113          	addi	sp,sp,-241 # f0f0f0f <begin_signature+0xf0eff0f>
 384:	0020f733          	and	a4,ra,sp
 388:	0205                	c.addi	tp,1
 38a:	4289                	c.li	t0,2
 38c:	fe5213e3          	bne	tp,t0,372 <test_15+0x2>
 390:	0f001eb7          	lui	t4,0xf001
 394:	f00e8e93          	addi	t4,t4,-256 # f000f00 <begin_signature+0xeffff00>
 398:	41bd                	c.li	gp,15
 39a:	1dd71863          	bne	a4,t4,56a <fail>

0000039e <test_16>:
 39e:	4201                	c.li	tp,0
 3a0:	0ff010b7          	lui	ra,0xff01
 3a4:	ff008093          	addi	ra,ra,-16 # ff00ff0 <begin_signature+0xfeffff0>
 3a8:	0001                	c.addi	zero,0
 3aa:	f0f0f137          	lui	sp,0xf0f0f
 3ae:	0f010113          	addi	sp,sp,240 # f0f0f0f0 <__start_addr+0x70f0f0e0>
 3b2:	0001                	c.addi	zero,0
 3b4:	0020f733          	and	a4,ra,sp
 3b8:	0205                	c.addi	tp,1
 3ba:	4289                	c.li	t0,2
 3bc:	fe5212e3          	bne	tp,t0,3a0 <test_16+0x2>
 3c0:	00f00eb7          	lui	t4,0xf00
 3c4:	0f0e8e93          	addi	t4,t4,240 # f000f0 <begin_signature+0xeff0f0>
 3c8:	41c1                	c.li	gp,16
 3ca:	1bd71063          	bne	a4,t4,56a <fail>

000003ce <test_17>:
 3ce:	4201                	c.li	tp,0
 3d0:	00ff00b7          	lui	ra,0xff0
 3d4:	0ff08093          	addi	ra,ra,255 # ff00ff <begin_signature+0xfef0ff>
 3d8:	0001                	c.addi	zero,0
 3da:	0001                	c.addi	zero,0
 3dc:	0f0f1137          	lui	sp,0xf0f1
 3e0:	f0f10113          	addi	sp,sp,-241 # f0f0f0f <begin_signature+0xf0eff0f>
 3e4:	0020f733          	and	a4,ra,sp
 3e8:	0205                	c.addi	tp,1
 3ea:	4289                	c.li	t0,2
 3ec:	fe5212e3          	bne	tp,t0,3d0 <test_17+0x2>
 3f0:	000f0eb7          	lui	t4,0xf0
 3f4:	00fe8e93          	addi	t4,t4,15 # f000f <begin_signature+0xef00f>
 3f8:	41c5                	c.li	gp,17
 3fa:	17d71863          	bne	a4,t4,56a <fail>

000003fe <test_18>:
 3fe:	4201                	c.li	tp,0
 400:	0f0f1137          	lui	sp,0xf0f1
 404:	f0f10113          	addi	sp,sp,-241 # f0f0f0f <begin_signature+0xf0eff0f>
 408:	ff0100b7          	lui	ra,0xff010
 40c:	f0008093          	addi	ra,ra,-256 # ff00ff00 <__start_addr+0x7f00fef0>
 410:	0020f733          	and	a4,ra,sp
 414:	0205                	c.addi	tp,1
 416:	4289                	c.li	t0,2
 418:	fe5214e3          	bne	tp,t0,400 <test_18+0x2>
 41c:	0f001eb7          	lui	t4,0xf001
 420:	f00e8e93          	addi	t4,t4,-256 # f000f00 <begin_signature+0xeffff00>
 424:	41c9                	c.li	gp,18
 426:	15d71263          	bne	a4,t4,56a <fail>

0000042a <test_19>:
 42a:	4201                	c.li	tp,0
 42c:	f0f0f137          	lui	sp,0xf0f0f
 430:	0f010113          	addi	sp,sp,240 # f0f0f0f0 <__start_addr+0x70f0f0e0>
 434:	0ff010b7          	lui	ra,0xff01
 438:	ff008093          	addi	ra,ra,-16 # ff00ff0 <begin_signature+0xfeffff0>
 43c:	0001                	c.addi	zero,0
 43e:	0020f733          	and	a4,ra,sp
 442:	0205                	c.addi	tp,1
 444:	4289                	c.li	t0,2
 446:	fe5213e3          	bne	tp,t0,42c <test_19+0x2>
 44a:	00f00eb7          	lui	t4,0xf00
 44e:	0f0e8e93          	addi	t4,t4,240 # f000f0 <begin_signature+0xeff0f0>
 452:	41cd                	c.li	gp,19
 454:	11d71b63          	bne	a4,t4,56a <fail>

00000458 <test_20>:
 458:	4201                	c.li	tp,0
 45a:	0f0f1137          	lui	sp,0xf0f1
 45e:	f0f10113          	addi	sp,sp,-241 # f0f0f0f <begin_signature+0xf0eff0f>
 462:	00ff00b7          	lui	ra,0xff0
 466:	0ff08093          	addi	ra,ra,255 # ff00ff <begin_signature+0xfef0ff>
 46a:	0001                	c.addi	zero,0
 46c:	0001                	c.addi	zero,0
 46e:	0020f733          	and	a4,ra,sp
 472:	0205                	c.addi	tp,1
 474:	4289                	c.li	t0,2
 476:	fe5212e3          	bne	tp,t0,45a <test_20+0x2>
 47a:	000f0eb7          	lui	t4,0xf0
 47e:	00fe8e93          	addi	t4,t4,15 # f000f <begin_signature+0xef00f>
 482:	41d1                	c.li	gp,20
 484:	0fd71363          	bne	a4,t4,56a <fail>

00000488 <test_21>:
 488:	4201                	c.li	tp,0
 48a:	0f0f1137          	lui	sp,0xf0f1
 48e:	f0f10113          	addi	sp,sp,-241 # f0f0f0f <begin_signature+0xf0eff0f>
 492:	0001                	c.addi	zero,0
 494:	ff0100b7          	lui	ra,0xff010
 498:	f0008093          	addi	ra,ra,-256 # ff00ff00 <__start_addr+0x7f00fef0>
 49c:	0020f733          	and	a4,ra,sp
 4a0:	0205                	c.addi	tp,1
 4a2:	4289                	c.li	t0,2
 4a4:	fe5213e3          	bne	tp,t0,48a <test_21+0x2>
 4a8:	0f001eb7          	lui	t4,0xf001
 4ac:	f00e8e93          	addi	t4,t4,-256 # f000f00 <begin_signature+0xeffff00>
 4b0:	41d5                	c.li	gp,21
 4b2:	0bd71c63          	bne	a4,t4,56a <fail>

000004b6 <test_22>:
 4b6:	4201                	c.li	tp,0
 4b8:	f0f0f137          	lui	sp,0xf0f0f
 4bc:	0f010113          	addi	sp,sp,240 # f0f0f0f0 <__start_addr+0x70f0f0e0>
 4c0:	0001                	c.addi	zero,0
 4c2:	0ff010b7          	lui	ra,0xff01
 4c6:	ff008093          	addi	ra,ra,-16 # ff00ff0 <begin_signature+0xfeffff0>
 4ca:	0001                	c.addi	zero,0
 4cc:	0020f733          	and	a4,ra,sp
 4d0:	0205                	c.addi	tp,1
 4d2:	4289                	c.li	t0,2
 4d4:	fe5212e3          	bne	tp,t0,4b8 <test_22+0x2>
 4d8:	00f00eb7          	lui	t4,0xf00
 4dc:	0f0e8e93          	addi	t4,t4,240 # f000f0 <begin_signature+0xeff0f0>
 4e0:	41d9                	c.li	gp,22
 4e2:	09d71463          	bne	a4,t4,56a <fail>

000004e6 <test_23>:
 4e6:	4201                	c.li	tp,0
 4e8:	0f0f1137          	lui	sp,0xf0f1
 4ec:	f0f10113          	addi	sp,sp,-241 # f0f0f0f <begin_signature+0xf0eff0f>
 4f0:	0001                	c.addi	zero,0
 4f2:	0001                	c.addi	zero,0
 4f4:	00ff00b7          	lui	ra,0xff0
 4f8:	0ff08093          	addi	ra,ra,255 # ff00ff <begin_signature+0xfef0ff>
 4fc:	0020f733          	and	a4,ra,sp
 500:	0205                	c.addi	tp,1
 502:	4289                	c.li	t0,2
 504:	fe5212e3          	bne	tp,t0,4e8 <test_23+0x2>
 508:	000f0eb7          	lui	t4,0xf0
 50c:	00fe8e93          	addi	t4,t4,15 # f000f <begin_signature+0xef00f>
 510:	41dd                	c.li	gp,23
 512:	05d71c63          	bne	a4,t4,56a <fail>

00000516 <test_24>:
 516:	ff0100b7          	lui	ra,0xff010
 51a:	f0008093          	addi	ra,ra,-256 # ff00ff00 <__start_addr+0x7f00fef0>
 51e:	00107133          	and	sp,zero,ra
 522:	4e81                	c.li	t4,0
 524:	41e1                	c.li	gp,24
 526:	05d11263          	bne	sp,t4,56a <fail>

0000052a <test_25>:
 52a:	00ff00b7          	lui	ra,0xff0
 52e:	0ff08093          	addi	ra,ra,255 # ff00ff <begin_signature+0xfef0ff>
 532:	0000f133          	and	sp,ra,zero
 536:	4e81                	c.li	t4,0
 538:	41e5                	c.li	gp,25
 53a:	03d11863          	bne	sp,t4,56a <fail>

0000053e <test_26>:
 53e:	000070b3          	and	ra,zero,zero
 542:	4e81                	c.li	t4,0
 544:	41e9                	c.li	gp,26
 546:	03d09263          	bne	ra,t4,56a <fail>

0000054a <test_27>:
 54a:	111110b7          	lui	ra,0x11111
 54e:	11108093          	addi	ra,ra,273 # 11111111 <begin_signature+0x11110111>
 552:	22222137          	lui	sp,0x22222
 556:	22210113          	addi	sp,sp,546 # 22222222 <begin_signature+0x22221222>
 55a:	0020f033          	and	zero,ra,sp
 55e:	4e81                	c.li	t4,0
 560:	41ed                	c.li	gp,27
 562:	01d01463          	bne	zero,t4,56a <fail>
 566:	00301c63          	bne	zero,gp,57e <pass>

0000056a <fail>:
 56a:	0ff0000f          	fence	iorw,iorw
 56e:	e00802b7          	lui	t0,0xe0080
 572:	01234337          	lui	t1,0x1234
 576:	56930313          	addi	t1,t1,1385 # 1234569 <begin_signature+0x1233569>
 57a:	0062a023          	sw	t1,0(t0) # e0080000 <__start_addr+0x6007fff0>

0000057e <pass>:
 57e:	0ff0000f          	fence	iorw,iorw
 582:	e00802b7          	lui	t0,0xe0080
 586:	01234337          	lui	t1,0x1234
 58a:	56830313          	addi	t1,t1,1384 # 1234568 <begin_signature+0x1233568>
 58e:	0062a023          	sw	t1,0(t0) # e0080000 <__start_addr+0x6007fff0>
 592:	0000                	c.unimp
 594:	00000013          	addi	zero,zero,0
 598:	00000013          	addi	zero,zero,0
 59c:	00000013          	addi	zero,zero,0
 5a0:	00000013          	addi	zero,zero,0
 5a4:	00000013          	addi	zero,zero,0
 5a8:	00000013          	addi	zero,zero,0
 5ac:	00000013          	addi	zero,zero,0
 5b0:	00000013          	addi	zero,zero,0
 5b4:	00000013          	addi	zero,zero,0
 5b8:	00000013          	addi	zero,zero,0
 5bc:	00000013          	addi	zero,zero,0

Contents of section .loader:
 80000000 97020000 83a20201 82920000 00000000  ................
 80000010 80000000 00000000                    ........        
