
a.out:     file format elf32-littleriscv


Disassembly of section .text.init:

00000000 <_RELAX_END_>:
	...

00000080 <_start>:
  80:	0340006f          	jal	zero,b4 <reset_vector>

00000084 <trap_vector>:
  84:	00000f17          	auipc	t5,0x0
  88:	240f0f13          	addi	t5,t5,576 # 2c4 <mtvec_handler>
  8c:	000f0363          	beq	t5,zero,92 <trap_vector+0xe>
  90:	8f02                	c.jr	t5
  92:	34202f73          	csrrs	t5,mcause,zero
  96:	000f5363          	bge	t5,zero,9c <handle_exception>
  9a:	a009                	c.j	9c <handle_exception>

0000009c <handle_exception>:
  9c:	5391e193          	ori	gp,gp,1337

000000a0 <fail_handler>:
  a0:	0ff0000f          	fence	iorw,iorw
  a4:	e00802b7          	lui	t0,0xe0080
  a8:	01234337          	lui	t1,0x1234
  ac:	56930313          	addi	t1,t1,1385 # 1234569 <__global_pointer$+0x1232d59>
  b0:	0062a023          	sw	t1,0(t0) # e0080000 <__start_addr+0x6007fff0>

000000b4 <reset_vector>:
  b4:	f1402573          	csrrs	a0,mhartid,zero
  b8:	00051063          	bne	a0,zero,b8 <reset_vector+0x4>
  bc:	00000297          	auipc	t0,0x0
  c0:	01028293          	addi	t0,t0,16 # cc <reset_vector+0x18>
  c4:	30529073          	csrrw	zero,mtvec,t0
  c8:	18005073          	csrrwi	zero,satp,0
  cc:	00000297          	auipc	t0,0x0
  d0:	02028293          	addi	t0,t0,32 # ec <reset_vector+0x38>
  d4:	30529073          	csrrw	zero,mtvec,t0
  d8:	800002b7          	lui	t0,0x80000
  dc:	fff28293          	addi	t0,t0,-1 # 7fffffff <__start_addr+0xffffffef>
  e0:	3b029073          	csrrw	zero,pmpaddr0,t0
  e4:	01f00293          	addi	t0,zero,31
  e8:	3a029073          	csrrw	zero,pmpcfg0,t0
  ec:	00000297          	auipc	t0,0x0
  f0:	01828293          	addi	t0,t0,24 # 104 <reset_vector+0x50>
  f4:	30529073          	csrrw	zero,mtvec,t0
  f8:	30205073          	csrrwi	zero,medeleg,0
  fc:	30305073          	csrrwi	zero,mideleg,0
 100:	30405073          	csrrwi	zero,mie,0
 104:	4181                	c.li	gp,0
 106:	00000297          	auipc	t0,0x0
 10a:	f7e28293          	addi	t0,t0,-130 # 84 <trap_vector>
 10e:	30529073          	csrrw	zero,mtvec,t0
 112:	30102573          	csrrs	a0,misa,zero
 116:	00055c63          	bge	a0,zero,12e <reset_vector+0x7a>
 11a:	0ff0000f          	fence	iorw,iorw
 11e:	e00802b7          	lui	t0,0xe0080
 122:	01234337          	lui	t1,0x1234
 126:	56830313          	addi	t1,t1,1384 # 1234568 <__global_pointer$+0x1232d58>
 12a:	0062a023          	sw	t1,0(t0) # e0080000 <__start_addr+0x6007fff0>
 12e:	00000297          	auipc	t0,0x0
 132:	ed228293          	addi	t0,t0,-302 # 0 <_RELAX_END_>
 136:	00028e63          	beq	t0,zero,152 <reset_vector+0x9e>
 13a:	10529073          	csrrw	zero,stvec,t0
 13e:	0000b2b7          	lui	t0,0xb
 142:	10928293          	addi	t0,t0,265 # b109 <__global_pointer$+0x98f9>
 146:	30229073          	csrrw	zero,medeleg,t0
 14a:	30202373          	csrrs	t1,medeleg,zero
 14e:	f46297e3          	bne	t0,t1,9c <handle_exception>
 152:	30005073          	csrrwi	zero,mstatus,0
 156:	00002537          	lui	a0,0x2
 15a:	80050513          	addi	a0,a0,-2048 # 1800 <_end+0x7f0>
 15e:	30052073          	csrrs	zero,mstatus,a0
 162:	557d                	c.li	a0,-1
 164:	3b051073          	csrrw	zero,pmpaddr0,a0
 168:	3a0fd073          	csrrwi	zero,pmpcfg0,31
 16c:	00000297          	auipc	t0,0x0
 170:	01428293          	addi	t0,t0,20 # 180 <reset_vector+0xcc>
 174:	34129073          	csrrw	zero,mepc,t0
 178:	f1402573          	csrrs	a0,mhartid,zero
 17c:	30200073          	mret
 180:	3401d073          	csrrwi	zero,mscratch,3

00000184 <test_2>:
 184:	34002573          	csrrs	a0,mscratch,zero
 188:	4e8d                	c.li	t4,3
 18a:	4189                	c.li	gp,2
 18c:	11d51863          	bne	a0,t4,29c <fail>

00000190 <test_3>:
 190:	3400f5f3          	csrrci	a1,mscratch,1
 194:	4e8d                	c.li	t4,3
 196:	418d                	c.li	gp,3
 198:	11d59263          	bne	a1,t4,29c <fail>

0000019c <test_4>:
 19c:	34026673          	csrrsi	a2,mscratch,4
 1a0:	4e89                	c.li	t4,2
 1a2:	4191                	c.li	gp,4
 1a4:	0fd61c63          	bne	a2,t4,29c <fail>

000001a8 <test_5>:
 1a8:	340156f3          	csrrwi	a3,mscratch,2
 1ac:	4e99                	c.li	t4,6
 1ae:	4195                	c.li	gp,5
 1b0:	0fd69663          	bne	a3,t4,29c <fail>

000001b4 <test_6>:
 1b4:	0bad2537          	lui	a0,0xbad2
 1b8:	dea50513          	addi	a0,a0,-534 # bad1dea <__global_pointer$+0xbad05da>
 1bc:	340515f3          	csrrw	a1,mscratch,a0
 1c0:	4e89                	c.li	t4,2
 1c2:	4199                	c.li	gp,6
 1c4:	0dd59c63          	bne	a1,t4,29c <fail>

000001c8 <test_7>:
 1c8:	00002537          	lui	a0,0x2
 1cc:	dea50513          	addi	a0,a0,-534 # 1dea <__global_pointer$+0x5da>
 1d0:	34053573          	csrrc	a0,mscratch,a0
 1d4:	0bad2eb7          	lui	t4,0xbad2
 1d8:	deae8e93          	addi	t4,t4,-534 # bad1dea <__global_pointer$+0xbad05da>
 1dc:	419d                	c.li	gp,7
 1de:	0bd51f63          	bne	a0,t4,29c <fail>

000001e2 <test_8>:
 1e2:	0000c537          	lui	a0,0xc
 1e6:	eef50513          	addi	a0,a0,-273 # beef <__global_pointer$+0xa6df>
 1ea:	34052573          	csrrs	a0,mscratch,a0
 1ee:	0bad0eb7          	lui	t4,0xbad0
 1f2:	41a1                	c.li	gp,8
 1f4:	0bd51463          	bne	a0,t4,29c <fail>

000001f8 <test_9>:
 1f8:	34002573          	csrrs	a0,mscratch,zero
 1fc:	0badceb7          	lui	t4,0xbadc
 200:	eefe8e93          	addi	t4,t4,-273 # badbeef <__global_pointer$+0xbada6df>
 204:	41a5                	c.li	gp,9
 206:	09d51b63          	bne	a0,t4,29c <fail>
 20a:	30102573          	csrrs	a0,misa,zero
 20e:	02057513          	andi	a0,a0,32
 212:	c11d                	c.beqz	a0,238 <test_10+0xe>
 214:	6599                	c.lui	a1,0x6
 216:	3005a073          	csrrs	zero,mstatus,a1
 21a:	f0000053          	fmv.w.x	ft0,zero
 21e:	3005b073          	csrrc	zero,mstatus,a1
 222:	00001597          	auipc	a1,0x1
 226:	dde58593          	addi	a1,a1,-546 # 1000 <begin_signature>

0000022a <test_10>:
 22a:	0005a027          	fsw	ft0,0(a1)
 22e:	4188                	c.lw	a0,0(a1)
 230:	4e85                	c.li	t4,1
 232:	41a9                	c.li	gp,10
 234:	07d51463          	bne	a0,t4,29c <fail>
 238:	30102573          	csrrs	a0,misa,zero
 23c:	8151                	c.srli	a0,0x14
 23e:	8905                	c.andi	a0,1
 240:	c131                	c.beqz	a0,284 <finish>
 242:	000022b7          	lui	t0,0x2
 246:	80028293          	addi	t0,t0,-2048 # 1800 <_end+0x7f0>
 24a:	3002b073          	csrrc	zero,mstatus,t0
 24e:	00000297          	auipc	t0,0x0
 252:	01028293          	addi	t0,t0,16 # 25e <test_11>
 256:	34129073          	csrrw	zero,mepc,t0
 25a:	30200073          	mret

0000025e <test_11>:
 25e:	0ff00513          	addi	a0,zero,255
 262:	c0001573          	csrrw	a0,cycle,zero
 266:	0ff00e93          	addi	t4,zero,255
 26a:	41ad                	c.li	gp,11
 26c:	03d51863          	bne	a0,t4,29c <fail>

00000270 <test_12>:
 270:	0ff00513          	addi	a0,zero,255
 274:	30002573          	csrrs	a0,mstatus,zero
 278:	0ff00e93          	addi	t4,zero,255
 27c:	00c00193          	addi	gp,zero,12
 280:	01d51e63          	bne	a0,t4,29c <fail>

00000284 <finish>:
 284:	0ff0000f          	fence	iorw,iorw
 288:	e00802b7          	lui	t0,0xe0080
 28c:	01234337          	lui	t1,0x1234
 290:	56830313          	addi	t1,t1,1384 # 1234568 <__global_pointer$+0x1232d58>
 294:	0062a023          	sw	t1,0(t0) # e0080000 <__start_addr+0x6007fff0>
 298:	00301c63          	bne	zero,gp,2b0 <pass>

0000029c <fail>:
 29c:	0ff0000f          	fence	iorw,iorw
 2a0:	e00802b7          	lui	t0,0xe0080
 2a4:	01234337          	lui	t1,0x1234
 2a8:	56930313          	addi	t1,t1,1385 # 1234569 <__global_pointer$+0x1232d59>
 2ac:	0062a023          	sw	t1,0(t0) # e0080000 <__start_addr+0x6007fff0>

000002b0 <pass>:
 2b0:	0ff0000f          	fence	iorw,iorw
 2b4:	e00802b7          	lui	t0,0xe0080
 2b8:	01234337          	lui	t1,0x1234
 2bc:	56830313          	addi	t1,t1,1384 # 1234568 <__global_pointer$+0x1232d58>
 2c0:	0062a023          	sw	t1,0(t0) # e0080000 <__start_addr+0x6007fff0>

000002c4 <mtvec_handler>:
 2c4:	42a5                	c.li	t0,9
 2c6:	0051e563          	bltu	gp,t0,2d0 <mtvec_handler+0xc>
 2ca:	42ad                	c.li	t0,11
 2cc:	0232f163          	bgeu	t0,gp,2ee <privileged>
 2d0:	342022f3          	csrrs	t0,mcause,zero
 2d4:	4321                	c.li	t1,8
 2d6:	fc6293e3          	bne	t0,t1,29c <fail>
 2da:	0ff0000f          	fence	iorw,iorw
 2de:	e00802b7          	lui	t0,0xe0080
 2e2:	01234337          	lui	t1,0x1234
 2e6:	56830313          	addi	t1,t1,1384 # 1234568 <__global_pointer$+0x1232d58>
 2ea:	0062a023          	sw	t1,0(t0) # e0080000 <__start_addr+0x6007fff0>

000002ee <privileged>:
 2ee:	342022f3          	csrrs	t0,mcause,zero
 2f2:	4309                	c.li	t1,2
 2f4:	fa6294e3          	bne	t0,t1,29c <fail>
 2f8:	341022f3          	csrrs	t0,mepc,zero
 2fc:	0291                	c.addi	t0,4
 2fe:	34129073          	csrrw	zero,mepc,t0
 302:	30200073          	mret
 306:	0000                	c.unimp
 308:	00000013          	addi	zero,zero,0
 30c:	00000013          	addi	zero,zero,0
 310:	00000013          	addi	zero,zero,0
 314:	00000013          	addi	zero,zero,0
 318:	00000013          	addi	zero,zero,0
 31c:	00000013          	addi	zero,zero,0
 320:	00000013          	addi	zero,zero,0
 324:	00000013          	addi	zero,zero,0
 328:	00000013          	addi	zero,zero,0
 32c:	00000013          	addi	zero,zero,0
 330:	00000013          	addi	zero,zero,0
 334:	00000013          	addi	zero,zero,0
 338:	00000013          	addi	zero,zero,0
 33c:	00000013          	addi	zero,zero,0

Contents of section .data:
 1000 01000000 00000000 00000000 00000000  ................

Contents of section .loader:
 80000000 97020000 83a20201 82920000 00000000  ................
 80000010 80000000 00000000                    ........        
