
a.out:     file format elf32-littleriscv


Disassembly of section .text.init:

00000000 <_RELAX_END_>:
	...

00000080 <_start>:
  80:	0340006f          	jal	zero,b4 <reset_vector>

00000084 <trap_vector>:
  84:	00000f17          	auipc	t5,0x0
  88:	f7cf0f13          	addi	t5,t5,-132 # 0 <_RELAX_END_>
  8c:	000f0363          	beq	t5,zero,92 <trap_vector+0xe>
  90:	8f02                	c.jr	t5
  92:	34202f73          	csrrs	t5,mcause,zero
  96:	000f5363          	bge	t5,zero,9c <handle_exception>
  9a:	a009                	c.j	9c <handle_exception>

0000009c <handle_exception>:
  9c:	5391e193          	ori	gp,gp,1337

000000a0 <fail_handler>:
  a0:	0ff0000f          	fence	iorw,iorw
  a4:	e00802b7          	lui	t0,0xe0080
  a8:	01234337          	lui	t1,0x1234
  ac:	56930313          	addi	t1,t1,1385 # 1234569 <begin_signature+0x1233569>
  b0:	0062a023          	sw	t1,0(t0) # e0080000 <__start_addr+0x6007fff0>

000000b4 <reset_vector>:
  b4:	f1402573          	csrrs	a0,mhartid,zero
  b8:	00051063          	bne	a0,zero,b8 <reset_vector+0x4>
  bc:	00000297          	auipc	t0,0x0
  c0:	01028293          	addi	t0,t0,16 # cc <reset_vector+0x18>
  c4:	30529073          	csrrw	zero,mtvec,t0
  c8:	18005073          	csrrwi	zero,satp,0
  cc:	00000297          	auipc	t0,0x0
  d0:	02028293          	addi	t0,t0,32 # ec <reset_vector+0x38>
  d4:	30529073          	csrrw	zero,mtvec,t0
  d8:	800002b7          	lui	t0,0x80000
  dc:	fff28293          	addi	t0,t0,-1 # 7fffffff <__start_addr+0xffffffef>
  e0:	3b029073          	csrrw	zero,pmpaddr0,t0
  e4:	01f00293          	addi	t0,zero,31
  e8:	3a029073          	csrrw	zero,pmpcfg0,t0
  ec:	00000297          	auipc	t0,0x0
  f0:	01828293          	addi	t0,t0,24 # 104 <reset_vector+0x50>
  f4:	30529073          	csrrw	zero,mtvec,t0
  f8:	30205073          	csrrwi	zero,medeleg,0
  fc:	30305073          	csrrwi	zero,mideleg,0
 100:	30405073          	csrrwi	zero,mie,0
 104:	4181                	c.li	gp,0
 106:	00000297          	auipc	t0,0x0
 10a:	f7e28293          	addi	t0,t0,-130 # 84 <trap_vector>
 10e:	30529073          	csrrw	zero,mtvec,t0
 112:	30102573          	csrrs	a0,misa,zero
 116:	00055c63          	bge	a0,zero,12e <reset_vector+0x7a>
 11a:	0ff0000f          	fence	iorw,iorw
 11e:	e00802b7          	lui	t0,0xe0080
 122:	01234337          	lui	t1,0x1234
 126:	56830313          	addi	t1,t1,1384 # 1234568 <begin_signature+0x1233568>
 12a:	0062a023          	sw	t1,0(t0) # e0080000 <__start_addr+0x6007fff0>
 12e:	00000297          	auipc	t0,0x0
 132:	ed228293          	addi	t0,t0,-302 # 0 <_RELAX_END_>
 136:	00028e63          	beq	t0,zero,152 <reset_vector+0x9e>
 13a:	10529073          	csrrw	zero,stvec,t0
 13e:	0000b2b7          	lui	t0,0xb
 142:	10928293          	addi	t0,t0,265 # b109 <begin_signature+0xa109>
 146:	30229073          	csrrw	zero,medeleg,t0
 14a:	30202373          	csrrs	t1,medeleg,zero
 14e:	f46297e3          	bne	t0,t1,9c <handle_exception>
 152:	30005073          	csrrwi	zero,mstatus,0
 156:	557d                	c.li	a0,-1
 158:	3b051073          	csrrw	zero,pmpaddr0,a0
 15c:	3a0fd073          	csrrwi	zero,pmpcfg0,31
 160:	00000297          	auipc	t0,0x0
 164:	01428293          	addi	t0,t0,20 # 174 <test_2>
 168:	34129073          	csrrw	zero,mepc,t0
 16c:	f1402573          	csrrs	a0,mhartid,zero
 170:	30200073          	mret

00000174 <test_2>:
 174:	40d1                	c.li	ra,20
 176:	4119                	c.li	sp,6
 178:	0220c733          	div	a4,ra,sp
 17c:	4e8d                	c.li	t4,3
 17e:	4189                	c.li	gp,2
 180:	0bd71363          	bne	a4,t4,226 <fail>

00000184 <test_3>:
 184:	fec00093          	addi	ra,zero,-20
 188:	4119                	c.li	sp,6
 18a:	0220c733          	div	a4,ra,sp
 18e:	ffd00e93          	addi	t4,zero,-3
 192:	418d                	c.li	gp,3
 194:	09d71963          	bne	a4,t4,226 <fail>

00000198 <test_4>:
 198:	40d1                	c.li	ra,20
 19a:	ffa00113          	addi	sp,zero,-6
 19e:	0220c733          	div	a4,ra,sp
 1a2:	ffd00e93          	addi	t4,zero,-3
 1a6:	4191                	c.li	gp,4
 1a8:	07d71f63          	bne	a4,t4,226 <fail>

000001ac <test_5>:
 1ac:	fec00093          	addi	ra,zero,-20
 1b0:	ffa00113          	addi	sp,zero,-6
 1b4:	0220c733          	div	a4,ra,sp
 1b8:	4e8d                	c.li	t4,3
 1ba:	4195                	c.li	gp,5
 1bc:	07d71563          	bne	a4,t4,226 <fail>

000001c0 <test_6>:
 1c0:	800000b7          	lui	ra,0x80000
 1c4:	4105                	c.li	sp,1
 1c6:	0220c733          	div	a4,ra,sp
 1ca:	80000eb7          	lui	t4,0x80000
 1ce:	4199                	c.li	gp,6
 1d0:	05d71b63          	bne	a4,t4,226 <fail>

000001d4 <test_7>:
 1d4:	800000b7          	lui	ra,0x80000
 1d8:	fff00113          	addi	sp,zero,-1
 1dc:	0220c733          	div	a4,ra,sp
 1e0:	80000eb7          	lui	t4,0x80000
 1e4:	419d                	c.li	gp,7
 1e6:	05d71063          	bne	a4,t4,226 <fail>

000001ea <test_8>:
 1ea:	800000b7          	lui	ra,0x80000
 1ee:	4101                	c.li	sp,0
 1f0:	0220c733          	div	a4,ra,sp
 1f4:	fff00e93          	addi	t4,zero,-1
 1f8:	41a1                	c.li	gp,8
 1fa:	03d71663          	bne	a4,t4,226 <fail>

000001fe <test_9>:
 1fe:	4085                	c.li	ra,1
 200:	4101                	c.li	sp,0
 202:	0220c733          	div	a4,ra,sp
 206:	fff00e93          	addi	t4,zero,-1
 20a:	41a5                	c.li	gp,9
 20c:	01d71d63          	bne	a4,t4,226 <fail>

00000210 <test_10>:
 210:	4081                	c.li	ra,0
 212:	4101                	c.li	sp,0
 214:	0220c733          	div	a4,ra,sp
 218:	fff00e93          	addi	t4,zero,-1
 21c:	41a9                	c.li	gp,10
 21e:	01d71463          	bne	a4,t4,226 <fail>
 222:	00301c63          	bne	zero,gp,23a <pass>

00000226 <fail>:
 226:	0ff0000f          	fence	iorw,iorw
 22a:	e00802b7          	lui	t0,0xe0080
 22e:	01234337          	lui	t1,0x1234
 232:	56930313          	addi	t1,t1,1385 # 1234569 <begin_signature+0x1233569>
 236:	0062a023          	sw	t1,0(t0) # e0080000 <__start_addr+0x6007fff0>

0000023a <pass>:
 23a:	0ff0000f          	fence	iorw,iorw
 23e:	e00802b7          	lui	t0,0xe0080
 242:	01234337          	lui	t1,0x1234
 246:	56830313          	addi	t1,t1,1384 # 1234568 <begin_signature+0x1233568>
 24a:	0062a023          	sw	t1,0(t0) # e0080000 <__start_addr+0x6007fff0>
 24e:	0000                	c.unimp
 250:	00000013          	addi	zero,zero,0
 254:	00000013          	addi	zero,zero,0
 258:	00000013          	addi	zero,zero,0
 25c:	00000013          	addi	zero,zero,0
 260:	00000013          	addi	zero,zero,0
 264:	00000013          	addi	zero,zero,0
 268:	00000013          	addi	zero,zero,0
 26c:	00000013          	addi	zero,zero,0
 270:	00000013          	addi	zero,zero,0
 274:	00000013          	addi	zero,zero,0
 278:	00000013          	addi	zero,zero,0
 27c:	00000013          	addi	zero,zero,0

Contents of section .loader:
 80000000 97020000 83a20201 82920000 00000000  ................
 80000010 80000000 00000000                    ........        
