
a.out:     file format elf32-littleriscv


Disassembly of section .text.init:

00000000 <_RELAX_END_>:
	...

00000080 <_start>:
  80:	0340006f          	jal	zero,b4 <reset_vector>

00000084 <trap_vector>:
  84:	00000f17          	auipc	t5,0x0
  88:	f7cf0f13          	addi	t5,t5,-132 # 0 <_RELAX_END_>
  8c:	000f0363          	beq	t5,zero,92 <trap_vector+0xe>
  90:	8f02                	c.jr	t5
  92:	34202f73          	csrrs	t5,mcause,zero
  96:	000f5363          	bge	t5,zero,9c <handle_exception>
  9a:	a009                	c.j	9c <handle_exception>

0000009c <handle_exception>:
  9c:	5391e193          	ori	gp,gp,1337

000000a0 <fail_handler>:
  a0:	0ff0000f          	fence	iorw,iorw
  a4:	e00802b7          	lui	t0,0xe0080
  a8:	01234337          	lui	t1,0x1234
  ac:	56930313          	addi	t1,t1,1385 # 1234569 <__global_pointer$+0x1232d59>
  b0:	0062a023          	sw	t1,0(t0) # e0080000 <__start_addr+0x6007fff0>

000000b4 <reset_vector>:
  b4:	f1402573          	csrrs	a0,mhartid,zero
  b8:	00051063          	bne	a0,zero,b8 <reset_vector+0x4>
  bc:	00000297          	auipc	t0,0x0
  c0:	01028293          	addi	t0,t0,16 # cc <reset_vector+0x18>
  c4:	30529073          	csrrw	zero,mtvec,t0
  c8:	18005073          	csrrwi	zero,satp,0
  cc:	00000297          	auipc	t0,0x0
  d0:	02028293          	addi	t0,t0,32 # ec <reset_vector+0x38>
  d4:	30529073          	csrrw	zero,mtvec,t0
  d8:	800002b7          	lui	t0,0x80000
  dc:	fff28293          	addi	t0,t0,-1 # 7fffffff <__start_addr+0xffffffef>
  e0:	3b029073          	csrrw	zero,pmpaddr0,t0
  e4:	01f00293          	addi	t0,zero,31
  e8:	3a029073          	csrrw	zero,pmpcfg0,t0
  ec:	00000297          	auipc	t0,0x0
  f0:	01828293          	addi	t0,t0,24 # 104 <reset_vector+0x50>
  f4:	30529073          	csrrw	zero,mtvec,t0
  f8:	30205073          	csrrwi	zero,medeleg,0
  fc:	30305073          	csrrwi	zero,mideleg,0
 100:	30405073          	csrrwi	zero,mie,0
 104:	4181                	c.li	gp,0
 106:	00000297          	auipc	t0,0x0
 10a:	f7e28293          	addi	t0,t0,-130 # 84 <trap_vector>
 10e:	30529073          	csrrw	zero,mtvec,t0
 112:	30102573          	csrrs	a0,misa,zero
 116:	00055c63          	bge	a0,zero,12e <reset_vector+0x7a>
 11a:	0ff0000f          	fence	iorw,iorw
 11e:	e00802b7          	lui	t0,0xe0080
 122:	01234337          	lui	t1,0x1234
 126:	56830313          	addi	t1,t1,1384 # 1234568 <__global_pointer$+0x1232d58>
 12a:	0062a023          	sw	t1,0(t0) # e0080000 <__start_addr+0x6007fff0>
 12e:	00000297          	auipc	t0,0x0
 132:	ed228293          	addi	t0,t0,-302 # 0 <_RELAX_END_>
 136:	00028e63          	beq	t0,zero,152 <reset_vector+0x9e>
 13a:	10529073          	csrrw	zero,stvec,t0
 13e:	0000b2b7          	lui	t0,0xb
 142:	10928293          	addi	t0,t0,265 # b109 <__global_pointer$+0x98f9>
 146:	30229073          	csrrw	zero,medeleg,t0
 14a:	30202373          	csrrs	t1,medeleg,zero
 14e:	f46297e3          	bne	t0,t1,9c <handle_exception>
 152:	30005073          	csrrwi	zero,mstatus,0
 156:	557d                	c.li	a0,-1
 158:	3b051073          	csrrw	zero,pmpaddr0,a0
 15c:	3a0fd073          	csrrwi	zero,pmpcfg0,31
 160:	00000297          	auipc	t0,0x0
 164:	01428293          	addi	t0,t0,20 # 174 <test_2>
 168:	34129073          	csrrw	zero,mepc,t0
 16c:	f1402573          	csrrs	a0,mhartid,zero
 170:	30200073          	mret

00000174 <test_2>:
 174:	00001097          	auipc	ra,0x1
 178:	e8c08093          	addi	ra,ra,-372 # 1000 <begin_signature>
 17c:	0000a703          	lw	a4,0(ra)
 180:	00ff0eb7          	lui	t4,0xff0
 184:	0ffe8e93          	addi	t4,t4,255 # ff00ff <__global_pointer$+0xfee8ef>
 188:	4189                	c.li	gp,2
 18a:	21d71763          	bne	a4,t4,398 <fail>

0000018e <test_3>:
 18e:	00001097          	auipc	ra,0x1
 192:	e7208093          	addi	ra,ra,-398 # 1000 <begin_signature>
 196:	0040a703          	lw	a4,4(ra)
 19a:	ff010eb7          	lui	t4,0xff010
 19e:	f00e8e93          	addi	t4,t4,-256 # ff00ff00 <__start_addr+0x7f00fef0>
 1a2:	418d                	c.li	gp,3
 1a4:	1fd71a63          	bne	a4,t4,398 <fail>

000001a8 <test_4>:
 1a8:	00001097          	auipc	ra,0x1
 1ac:	e5808093          	addi	ra,ra,-424 # 1000 <begin_signature>
 1b0:	0080a703          	lw	a4,8(ra)
 1b4:	0ff01eb7          	lui	t4,0xff01
 1b8:	ff0e8e93          	addi	t4,t4,-16 # ff00ff0 <__global_pointer$+0xfeff7e0>
 1bc:	4191                	c.li	gp,4
 1be:	1dd71d63          	bne	a4,t4,398 <fail>

000001c2 <test_5>:
 1c2:	00001097          	auipc	ra,0x1
 1c6:	e3e08093          	addi	ra,ra,-450 # 1000 <begin_signature>
 1ca:	00c0a703          	lw	a4,12(ra)
 1ce:	f00ffeb7          	lui	t4,0xf00ff
 1d2:	00fe8e93          	addi	t4,t4,15 # f00ff00f <__start_addr+0x700fefff>
 1d6:	4195                	c.li	gp,5
 1d8:	1dd71063          	bne	a4,t4,398 <fail>

000001dc <test_6>:
 1dc:	00001097          	auipc	ra,0x1
 1e0:	e3008093          	addi	ra,ra,-464 # 100c <tdat4>
 1e4:	ff40a703          	lw	a4,-12(ra)
 1e8:	00ff0eb7          	lui	t4,0xff0
 1ec:	0ffe8e93          	addi	t4,t4,255 # ff00ff <__global_pointer$+0xfee8ef>
 1f0:	4199                	c.li	gp,6
 1f2:	1bd71363          	bne	a4,t4,398 <fail>

000001f6 <test_7>:
 1f6:	00001097          	auipc	ra,0x1
 1fa:	e1608093          	addi	ra,ra,-490 # 100c <tdat4>
 1fe:	ff80a703          	lw	a4,-8(ra)
 202:	ff010eb7          	lui	t4,0xff010
 206:	f00e8e93          	addi	t4,t4,-256 # ff00ff00 <__start_addr+0x7f00fef0>
 20a:	419d                	c.li	gp,7
 20c:	19d71663          	bne	a4,t4,398 <fail>

00000210 <test_8>:
 210:	00001097          	auipc	ra,0x1
 214:	dfc08093          	addi	ra,ra,-516 # 100c <tdat4>
 218:	ffc0a703          	lw	a4,-4(ra)
 21c:	0ff01eb7          	lui	t4,0xff01
 220:	ff0e8e93          	addi	t4,t4,-16 # ff00ff0 <__global_pointer$+0xfeff7e0>
 224:	41a1                	c.li	gp,8
 226:	17d71963          	bne	a4,t4,398 <fail>

0000022a <test_9>:
 22a:	00001097          	auipc	ra,0x1
 22e:	de208093          	addi	ra,ra,-542 # 100c <tdat4>
 232:	0000a703          	lw	a4,0(ra)
 236:	f00ffeb7          	lui	t4,0xf00ff
 23a:	00fe8e93          	addi	t4,t4,15 # f00ff00f <__start_addr+0x700fefff>
 23e:	41a5                	c.li	gp,9
 240:	15d71c63          	bne	a4,t4,398 <fail>

00000244 <test_10>:
 244:	00001097          	auipc	ra,0x1
 248:	dbc08093          	addi	ra,ra,-580 # 1000 <begin_signature>
 24c:	1081                	c.addi	ra,-32
 24e:	0200a283          	lw	t0,32(ra)
 252:	00ff0eb7          	lui	t4,0xff0
 256:	0ffe8e93          	addi	t4,t4,255 # ff00ff <__global_pointer$+0xfee8ef>
 25a:	41a9                	c.li	gp,10
 25c:	13d29e63          	bne	t0,t4,398 <fail>

00000260 <test_11>:
 260:	00001097          	auipc	ra,0x1
 264:	da008093          	addi	ra,ra,-608 # 1000 <begin_signature>
 268:	10f5                	c.addi	ra,-3
 26a:	0070a283          	lw	t0,7(ra)
 26e:	ff010eb7          	lui	t4,0xff010
 272:	f00e8e93          	addi	t4,t4,-256 # ff00ff00 <__start_addr+0x7f00fef0>
 276:	41ad                	c.li	gp,11
 278:	13d29063          	bne	t0,t4,398 <fail>

0000027c <test_12>:
 27c:	41b1                	c.li	gp,12
 27e:	4201                	c.li	tp,0
 280:	00001097          	auipc	ra,0x1
 284:	d8408093          	addi	ra,ra,-636 # 1004 <tdat2>
 288:	0040a703          	lw	a4,4(ra)
 28c:	833a                	c.mv	t1,a4
 28e:	0ff01eb7          	lui	t4,0xff01
 292:	ff0e8e93          	addi	t4,t4,-16 # ff00ff0 <__global_pointer$+0xfeff7e0>
 296:	11d31163          	bne	t1,t4,398 <fail>
 29a:	0205                	c.addi	tp,1
 29c:	4289                	c.li	t0,2
 29e:	fe5211e3          	bne	tp,t0,280 <test_12+0x4>

000002a2 <test_13>:
 2a2:	41b5                	c.li	gp,13
 2a4:	4201                	c.li	tp,0
 2a6:	00001097          	auipc	ra,0x1
 2aa:	d6208093          	addi	ra,ra,-670 # 1008 <tdat3>
 2ae:	0040a703          	lw	a4,4(ra)
 2b2:	0001                	c.addi	zero,0
 2b4:	833a                	c.mv	t1,a4
 2b6:	f00ffeb7          	lui	t4,0xf00ff
 2ba:	00fe8e93          	addi	t4,t4,15 # f00ff00f <__start_addr+0x700fefff>
 2be:	0dd31d63          	bne	t1,t4,398 <fail>
 2c2:	0205                	c.addi	tp,1
 2c4:	4289                	c.li	t0,2
 2c6:	fe5210e3          	bne	tp,t0,2a6 <test_13+0x4>

000002ca <test_14>:
 2ca:	41b9                	c.li	gp,14
 2cc:	4201                	c.li	tp,0
 2ce:	00001097          	auipc	ra,0x1
 2d2:	d3208093          	addi	ra,ra,-718 # 1000 <begin_signature>
 2d6:	0040a703          	lw	a4,4(ra)
 2da:	0001                	c.addi	zero,0
 2dc:	0001                	c.addi	zero,0
 2de:	833a                	c.mv	t1,a4
 2e0:	ff010eb7          	lui	t4,0xff010
 2e4:	f00e8e93          	addi	t4,t4,-256 # ff00ff00 <__start_addr+0x7f00fef0>
 2e8:	0bd31863          	bne	t1,t4,398 <fail>
 2ec:	0205                	c.addi	tp,1
 2ee:	4289                	c.li	t0,2
 2f0:	fc521fe3          	bne	tp,t0,2ce <test_14+0x4>

000002f4 <test_15>:
 2f4:	41bd                	c.li	gp,15
 2f6:	4201                	c.li	tp,0
 2f8:	00001097          	auipc	ra,0x1
 2fc:	d0c08093          	addi	ra,ra,-756 # 1004 <tdat2>
 300:	0040a703          	lw	a4,4(ra)
 304:	0ff01eb7          	lui	t4,0xff01
 308:	ff0e8e93          	addi	t4,t4,-16 # ff00ff0 <__global_pointer$+0xfeff7e0>
 30c:	09d71663          	bne	a4,t4,398 <fail>
 310:	0205                	c.addi	tp,1
 312:	4289                	c.li	t0,2
 314:	fe5212e3          	bne	tp,t0,2f8 <test_15+0x4>

00000318 <test_16>:
 318:	41c1                	c.li	gp,16
 31a:	4201                	c.li	tp,0
 31c:	00001097          	auipc	ra,0x1
 320:	cec08093          	addi	ra,ra,-788 # 1008 <tdat3>
 324:	0001                	c.addi	zero,0
 326:	0040a703          	lw	a4,4(ra)
 32a:	f00ffeb7          	lui	t4,0xf00ff
 32e:	00fe8e93          	addi	t4,t4,15 # f00ff00f <__start_addr+0x700fefff>
 332:	07d71363          	bne	a4,t4,398 <fail>
 336:	0205                	c.addi	tp,1
 338:	4289                	c.li	t0,2
 33a:	fe5211e3          	bne	tp,t0,31c <test_16+0x4>

0000033e <test_17>:
 33e:	41c5                	c.li	gp,17
 340:	4201                	c.li	tp,0
 342:	00001097          	auipc	ra,0x1
 346:	cbe08093          	addi	ra,ra,-834 # 1000 <begin_signature>
 34a:	0001                	c.addi	zero,0
 34c:	0001                	c.addi	zero,0
 34e:	0040a703          	lw	a4,4(ra)
 352:	ff010eb7          	lui	t4,0xff010
 356:	f00e8e93          	addi	t4,t4,-256 # ff00ff00 <__start_addr+0x7f00fef0>
 35a:	03d71f63          	bne	a4,t4,398 <fail>
 35e:	0205                	c.addi	tp,1
 360:	4289                	c.li	t0,2
 362:	fe5210e3          	bne	tp,t0,342 <test_17+0x4>

00000366 <test_18>:
 366:	00001297          	auipc	t0,0x1
 36a:	c9a28293          	addi	t0,t0,-870 # 1000 <begin_signature>
 36e:	0002a103          	lw	sp,0(t0)
 372:	4109                	c.li	sp,2
 374:	4e89                	c.li	t4,2
 376:	41c9                	c.li	gp,18
 378:	03d11063          	bne	sp,t4,398 <fail>

0000037c <test_19>:
 37c:	00001297          	auipc	t0,0x1
 380:	c8428293          	addi	t0,t0,-892 # 1000 <begin_signature>
 384:	0002a103          	lw	sp,0(t0)
 388:	0001                	c.addi	zero,0
 38a:	4109                	c.li	sp,2
 38c:	4e89                	c.li	t4,2
 38e:	41cd                	c.li	gp,19
 390:	01d11463          	bne	sp,t4,398 <fail>
 394:	00301c63          	bne	zero,gp,3ac <pass>

00000398 <fail>:
 398:	0ff0000f          	fence	iorw,iorw
 39c:	e00802b7          	lui	t0,0xe0080
 3a0:	01234337          	lui	t1,0x1234
 3a4:	56930313          	addi	t1,t1,1385 # 1234569 <__global_pointer$+0x1232d59>
 3a8:	0062a023          	sw	t1,0(t0) # e0080000 <__start_addr+0x6007fff0>

000003ac <pass>:
 3ac:	0ff0000f          	fence	iorw,iorw
 3b0:	e00802b7          	lui	t0,0xe0080
 3b4:	01234337          	lui	t1,0x1234
 3b8:	56830313          	addi	t1,t1,1384 # 1234568 <__global_pointer$+0x1232d58>
 3bc:	0062a023          	sw	t1,0(t0) # e0080000 <__start_addr+0x6007fff0>
 3c0:	0000                	c.unimp
 3c2:	0001                	c.addi	zero,0
 3c4:	00000013          	addi	zero,zero,0
 3c8:	00000013          	addi	zero,zero,0
 3cc:	00000013          	addi	zero,zero,0
 3d0:	00000013          	addi	zero,zero,0
 3d4:	00000013          	addi	zero,zero,0
 3d8:	00000013          	addi	zero,zero,0
 3dc:	00000013          	addi	zero,zero,0
 3e0:	00000013          	addi	zero,zero,0
 3e4:	00000013          	addi	zero,zero,0
 3e8:	00000013          	addi	zero,zero,0
 3ec:	00000013          	addi	zero,zero,0
 3f0:	00000013          	addi	zero,zero,0
 3f4:	00000013          	addi	zero,zero,0
 3f8:	00000013          	addi	zero,zero,0
 3fc:	00000013          	addi	zero,zero,0

Contents of section .data:
 1000 ff00ff00 00ff00ff f00ff00f 0ff00ff0  ................

Contents of section .loader:
 80000000 97020000 83a20201 82920000 00000000  ................
 80000010 80000000 00000000                    ........        
