
a.out:     file format elf32-littleriscv


Disassembly of section .text.init:

00000000 <_RELAX_END_>:
	...

00000080 <_start>:
  80:	0340006f          	jal	zero,b4 <reset_vector>

00000084 <trap_vector>:
  84:	00000f17          	auipc	t5,0x0
  88:	f7cf0f13          	addi	t5,t5,-132 # 0 <_RELAX_END_>
  8c:	000f0363          	beq	t5,zero,92 <trap_vector+0xe>
  90:	8f02                	c.jr	t5
  92:	34202f73          	csrrs	t5,mcause,zero
  96:	000f5363          	bge	t5,zero,9c <handle_exception>
  9a:	a009                	c.j	9c <handle_exception>

0000009c <handle_exception>:
  9c:	5391e193          	ori	gp,gp,1337

000000a0 <fail_handler>:
  a0:	0ff0000f          	fence	iorw,iorw
  a4:	e00802b7          	lui	t0,0xe0080
  a8:	01234337          	lui	t1,0x1234
  ac:	56930313          	addi	t1,t1,1385 # 1234569 <begin_signature+0x1233569>
  b0:	0062a023          	sw	t1,0(t0) # e0080000 <__start_addr+0x6007fff0>

000000b4 <reset_vector>:
  b4:	f1402573          	csrrs	a0,mhartid,zero
  b8:	00051063          	bne	a0,zero,b8 <reset_vector+0x4>
  bc:	00000297          	auipc	t0,0x0
  c0:	01028293          	addi	t0,t0,16 # cc <reset_vector+0x18>
  c4:	30529073          	csrrw	zero,mtvec,t0
  c8:	18005073          	csrrwi	zero,satp,0
  cc:	00000297          	auipc	t0,0x0
  d0:	02028293          	addi	t0,t0,32 # ec <reset_vector+0x38>
  d4:	30529073          	csrrw	zero,mtvec,t0
  d8:	800002b7          	lui	t0,0x80000
  dc:	fff28293          	addi	t0,t0,-1 # 7fffffff <__start_addr+0xffffffef>
  e0:	3b029073          	csrrw	zero,pmpaddr0,t0
  e4:	01f00293          	addi	t0,zero,31
  e8:	3a029073          	csrrw	zero,pmpcfg0,t0
  ec:	00000297          	auipc	t0,0x0
  f0:	01828293          	addi	t0,t0,24 # 104 <reset_vector+0x50>
  f4:	30529073          	csrrw	zero,mtvec,t0
  f8:	30205073          	csrrwi	zero,medeleg,0
  fc:	30305073          	csrrwi	zero,mideleg,0
 100:	30405073          	csrrwi	zero,mie,0
 104:	4181                	c.li	gp,0
 106:	00000297          	auipc	t0,0x0
 10a:	f7e28293          	addi	t0,t0,-130 # 84 <trap_vector>
 10e:	30529073          	csrrw	zero,mtvec,t0
 112:	30102573          	csrrs	a0,misa,zero
 116:	00055c63          	bge	a0,zero,12e <reset_vector+0x7a>
 11a:	0ff0000f          	fence	iorw,iorw
 11e:	e00802b7          	lui	t0,0xe0080
 122:	01234337          	lui	t1,0x1234
 126:	56830313          	addi	t1,t1,1384 # 1234568 <begin_signature+0x1233568>
 12a:	0062a023          	sw	t1,0(t0) # e0080000 <__start_addr+0x6007fff0>
 12e:	00000297          	auipc	t0,0x0
 132:	ed228293          	addi	t0,t0,-302 # 0 <_RELAX_END_>
 136:	00028e63          	beq	t0,zero,152 <reset_vector+0x9e>
 13a:	10529073          	csrrw	zero,stvec,t0
 13e:	0000b2b7          	lui	t0,0xb
 142:	10928293          	addi	t0,t0,265 # b109 <begin_signature+0xa109>
 146:	30229073          	csrrw	zero,medeleg,t0
 14a:	30202373          	csrrs	t1,medeleg,zero
 14e:	f46297e3          	bne	t0,t1,9c <handle_exception>
 152:	30005073          	csrrwi	zero,mstatus,0
 156:	557d                	c.li	a0,-1
 158:	3b051073          	csrrw	zero,pmpaddr0,a0
 15c:	3a0fd073          	csrrwi	zero,pmpcfg0,31
 160:	00000297          	auipc	t0,0x0
 164:	01428293          	addi	t0,t0,20 # 174 <test_2>
 168:	34129073          	csrrw	zero,mepc,t0
 16c:	f1402573          	csrrs	a0,mhartid,zero
 170:	30200073          	mret

00000174 <test_2>:
 174:	800000b7          	lui	ra,0x80000
 178:	4101                	c.li	sp,0
 17a:	0020d733          	srl	a4,ra,sp
 17e:	80000eb7          	lui	t4,0x80000
 182:	4189                	c.li	gp,2
 184:	45d71a63          	bne	a4,t4,5d8 <fail>

00000188 <test_3>:
 188:	800000b7          	lui	ra,0x80000
 18c:	4105                	c.li	sp,1
 18e:	0020d733          	srl	a4,ra,sp
 192:	40000eb7          	lui	t4,0x40000
 196:	418d                	c.li	gp,3
 198:	45d71063          	bne	a4,t4,5d8 <fail>

0000019c <test_4>:
 19c:	800000b7          	lui	ra,0x80000
 1a0:	411d                	c.li	sp,7
 1a2:	0020d733          	srl	a4,ra,sp
 1a6:	01000eb7          	lui	t4,0x1000
 1aa:	4191                	c.li	gp,4
 1ac:	43d71663          	bne	a4,t4,5d8 <fail>

000001b0 <test_5>:
 1b0:	800000b7          	lui	ra,0x80000
 1b4:	4139                	c.li	sp,14
 1b6:	0020d733          	srl	a4,ra,sp
 1ba:	00020eb7          	lui	t4,0x20
 1be:	4195                	c.li	gp,5
 1c0:	41d71c63          	bne	a4,t4,5d8 <fail>

000001c4 <test_6>:
 1c4:	800000b7          	lui	ra,0x80000
 1c8:	00108093          	addi	ra,ra,1 # 80000001 <__start_addr+0xfffffff1>
 1cc:	417d                	c.li	sp,31
 1ce:	0020d733          	srl	a4,ra,sp
 1d2:	4e85                	c.li	t4,1
 1d4:	4199                	c.li	gp,6
 1d6:	41d71163          	bne	a4,t4,5d8 <fail>

000001da <test_7>:
 1da:	fff00093          	addi	ra,zero,-1
 1de:	4101                	c.li	sp,0
 1e0:	0020d733          	srl	a4,ra,sp
 1e4:	fff00e93          	addi	t4,zero,-1
 1e8:	419d                	c.li	gp,7
 1ea:	3fd71763          	bne	a4,t4,5d8 <fail>

000001ee <test_8>:
 1ee:	fff00093          	addi	ra,zero,-1
 1f2:	4105                	c.li	sp,1
 1f4:	0020d733          	srl	a4,ra,sp
 1f8:	80000eb7          	lui	t4,0x80000
 1fc:	fffe8e93          	addi	t4,t4,-1 # 7fffffff <__start_addr+0xffffffef>
 200:	41a1                	c.li	gp,8
 202:	3dd71b63          	bne	a4,t4,5d8 <fail>

00000206 <test_9>:
 206:	fff00093          	addi	ra,zero,-1
 20a:	411d                	c.li	sp,7
 20c:	0020d733          	srl	a4,ra,sp
 210:	02000eb7          	lui	t4,0x2000
 214:	fffe8e93          	addi	t4,t4,-1 # 1ffffff <begin_signature+0x1ffefff>
 218:	41a5                	c.li	gp,9
 21a:	3bd71f63          	bne	a4,t4,5d8 <fail>

0000021e <test_10>:
 21e:	fff00093          	addi	ra,zero,-1
 222:	4139                	c.li	sp,14
 224:	0020d733          	srl	a4,ra,sp
 228:	00040eb7          	lui	t4,0x40
 22c:	fffe8e93          	addi	t4,t4,-1 # 3ffff <begin_signature+0x3efff>
 230:	41a9                	c.li	gp,10
 232:	3bd71363          	bne	a4,t4,5d8 <fail>

00000236 <test_11>:
 236:	fff00093          	addi	ra,zero,-1
 23a:	417d                	c.li	sp,31
 23c:	0020d733          	srl	a4,ra,sp
 240:	4e85                	c.li	t4,1
 242:	41ad                	c.li	gp,11
 244:	39d71a63          	bne	a4,t4,5d8 <fail>

00000248 <test_12>:
 248:	212120b7          	lui	ra,0x21212
 24c:	12108093          	addi	ra,ra,289 # 21212121 <begin_signature+0x21211121>
 250:	4101                	c.li	sp,0
 252:	0020d733          	srl	a4,ra,sp
 256:	21212eb7          	lui	t4,0x21212
 25a:	121e8e93          	addi	t4,t4,289 # 21212121 <begin_signature+0x21211121>
 25e:	41b1                	c.li	gp,12
 260:	37d71c63          	bne	a4,t4,5d8 <fail>

00000264 <test_13>:
 264:	212120b7          	lui	ra,0x21212
 268:	12108093          	addi	ra,ra,289 # 21212121 <begin_signature+0x21211121>
 26c:	4105                	c.li	sp,1
 26e:	0020d733          	srl	a4,ra,sp
 272:	10909eb7          	lui	t4,0x10909
 276:	090e8e93          	addi	t4,t4,144 # 10909090 <begin_signature+0x10908090>
 27a:	41b5                	c.li	gp,13
 27c:	35d71e63          	bne	a4,t4,5d8 <fail>

00000280 <test_14>:
 280:	212120b7          	lui	ra,0x21212
 284:	12108093          	addi	ra,ra,289 # 21212121 <begin_signature+0x21211121>
 288:	411d                	c.li	sp,7
 28a:	0020d733          	srl	a4,ra,sp
 28e:	00424eb7          	lui	t4,0x424
 292:	242e8e93          	addi	t4,t4,578 # 424242 <begin_signature+0x423242>
 296:	41b9                	c.li	gp,14
 298:	35d71063          	bne	a4,t4,5d8 <fail>

0000029c <test_15>:
 29c:	212120b7          	lui	ra,0x21212
 2a0:	12108093          	addi	ra,ra,289 # 21212121 <begin_signature+0x21211121>
 2a4:	4139                	c.li	sp,14
 2a6:	0020d733          	srl	a4,ra,sp
 2aa:	00008eb7          	lui	t4,0x8
 2ae:	484e8e93          	addi	t4,t4,1156 # 8484 <begin_signature+0x7484>
 2b2:	41bd                	c.li	gp,15
 2b4:	33d71263          	bne	a4,t4,5d8 <fail>

000002b8 <test_16>:
 2b8:	212120b7          	lui	ra,0x21212
 2bc:	12108093          	addi	ra,ra,289 # 21212121 <begin_signature+0x21211121>
 2c0:	417d                	c.li	sp,31
 2c2:	0020d733          	srl	a4,ra,sp
 2c6:	4e81                	c.li	t4,0
 2c8:	41c1                	c.li	gp,16
 2ca:	31d71763          	bne	a4,t4,5d8 <fail>

000002ce <test_17>:
 2ce:	212120b7          	lui	ra,0x21212
 2d2:	12108093          	addi	ra,ra,289 # 21212121 <begin_signature+0x21211121>
 2d6:	fc000113          	addi	sp,zero,-64
 2da:	0020d733          	srl	a4,ra,sp
 2de:	21212eb7          	lui	t4,0x21212
 2e2:	121e8e93          	addi	t4,t4,289 # 21212121 <begin_signature+0x21211121>
 2e6:	41c5                	c.li	gp,17
 2e8:	2fd71863          	bne	a4,t4,5d8 <fail>

000002ec <test_18>:
 2ec:	212120b7          	lui	ra,0x21212
 2f0:	12108093          	addi	ra,ra,289 # 21212121 <begin_signature+0x21211121>
 2f4:	fc100113          	addi	sp,zero,-63
 2f8:	0020d733          	srl	a4,ra,sp
 2fc:	10909eb7          	lui	t4,0x10909
 300:	090e8e93          	addi	t4,t4,144 # 10909090 <begin_signature+0x10908090>
 304:	41c9                	c.li	gp,18
 306:	2dd71963          	bne	a4,t4,5d8 <fail>

0000030a <test_19>:
 30a:	212120b7          	lui	ra,0x21212
 30e:	12108093          	addi	ra,ra,289 # 21212121 <begin_signature+0x21211121>
 312:	fc700113          	addi	sp,zero,-57
 316:	0020d733          	srl	a4,ra,sp
 31a:	00424eb7          	lui	t4,0x424
 31e:	242e8e93          	addi	t4,t4,578 # 424242 <begin_signature+0x423242>
 322:	41cd                	c.li	gp,19
 324:	2bd71a63          	bne	a4,t4,5d8 <fail>

00000328 <test_20>:
 328:	212120b7          	lui	ra,0x21212
 32c:	12108093          	addi	ra,ra,289 # 21212121 <begin_signature+0x21211121>
 330:	fce00113          	addi	sp,zero,-50
 334:	0020d733          	srl	a4,ra,sp
 338:	00008eb7          	lui	t4,0x8
 33c:	484e8e93          	addi	t4,t4,1156 # 8484 <begin_signature+0x7484>
 340:	41d1                	c.li	gp,20
 342:	29d71b63          	bne	a4,t4,5d8 <fail>

00000346 <test_21>:
 346:	212120b7          	lui	ra,0x21212
 34a:	12108093          	addi	ra,ra,289 # 21212121 <begin_signature+0x21211121>
 34e:	fff00113          	addi	sp,zero,-1
 352:	0020d733          	srl	a4,ra,sp
 356:	4e81                	c.li	t4,0
 358:	41d5                	c.li	gp,21
 35a:	27d71f63          	bne	a4,t4,5d8 <fail>

0000035e <test_22>:
 35e:	800000b7          	lui	ra,0x80000
 362:	411d                	c.li	sp,7
 364:	0020d0b3          	srl	ra,ra,sp
 368:	01000eb7          	lui	t4,0x1000
 36c:	41d9                	c.li	gp,22
 36e:	27d09563          	bne	ra,t4,5d8 <fail>

00000372 <test_23>:
 372:	800000b7          	lui	ra,0x80000
 376:	4139                	c.li	sp,14
 378:	0020d133          	srl	sp,ra,sp
 37c:	00020eb7          	lui	t4,0x20
 380:	41dd                	c.li	gp,23
 382:	25d11b63          	bne	sp,t4,5d8 <fail>

00000386 <test_24>:
 386:	409d                	c.li	ra,7
 388:	0010d0b3          	srl	ra,ra,ra
 38c:	4e81                	c.li	t4,0
 38e:	41e1                	c.li	gp,24
 390:	25d09463          	bne	ra,t4,5d8 <fail>

00000394 <test_25>:
 394:	4201                	c.li	tp,0
 396:	800000b7          	lui	ra,0x80000
 39a:	411d                	c.li	sp,7
 39c:	0020d733          	srl	a4,ra,sp
 3a0:	833a                	c.mv	t1,a4
 3a2:	0205                	c.addi	tp,1
 3a4:	4289                	c.li	t0,2
 3a6:	fe5218e3          	bne	tp,t0,396 <test_25+0x2>
 3aa:	01000eb7          	lui	t4,0x1000
 3ae:	41e5                	c.li	gp,25
 3b0:	23d31463          	bne	t1,t4,5d8 <fail>

000003b4 <test_26>:
 3b4:	4201                	c.li	tp,0
 3b6:	800000b7          	lui	ra,0x80000
 3ba:	4139                	c.li	sp,14
 3bc:	0020d733          	srl	a4,ra,sp
 3c0:	0001                	c.addi	zero,0
 3c2:	833a                	c.mv	t1,a4
 3c4:	0205                	c.addi	tp,1
 3c6:	4289                	c.li	t0,2
 3c8:	fe5217e3          	bne	tp,t0,3b6 <test_26+0x2>
 3cc:	00020eb7          	lui	t4,0x20
 3d0:	41e9                	c.li	gp,26
 3d2:	21d31363          	bne	t1,t4,5d8 <fail>

000003d6 <test_27>:
 3d6:	4201                	c.li	tp,0
 3d8:	800000b7          	lui	ra,0x80000
 3dc:	417d                	c.li	sp,31
 3de:	0020d733          	srl	a4,ra,sp
 3e2:	0001                	c.addi	zero,0
 3e4:	0001                	c.addi	zero,0
 3e6:	833a                	c.mv	t1,a4
 3e8:	0205                	c.addi	tp,1
 3ea:	4289                	c.li	t0,2
 3ec:	fe5216e3          	bne	tp,t0,3d8 <test_27+0x2>
 3f0:	4e85                	c.li	t4,1
 3f2:	41ed                	c.li	gp,27
 3f4:	1fd31263          	bne	t1,t4,5d8 <fail>

000003f8 <test_28>:
 3f8:	4201                	c.li	tp,0
 3fa:	800000b7          	lui	ra,0x80000
 3fe:	411d                	c.li	sp,7
 400:	0020d733          	srl	a4,ra,sp
 404:	0205                	c.addi	tp,1
 406:	4289                	c.li	t0,2
 408:	fe5219e3          	bne	tp,t0,3fa <test_28+0x2>
 40c:	01000eb7          	lui	t4,0x1000
 410:	41f1                	c.li	gp,28
 412:	1dd71363          	bne	a4,t4,5d8 <fail>

00000416 <test_29>:
 416:	4201                	c.li	tp,0
 418:	800000b7          	lui	ra,0x80000
 41c:	4139                	c.li	sp,14
 41e:	0001                	c.addi	zero,0
 420:	0020d733          	srl	a4,ra,sp
 424:	0205                	c.addi	tp,1
 426:	4289                	c.li	t0,2
 428:	fe5218e3          	bne	tp,t0,418 <test_29+0x2>
 42c:	00020eb7          	lui	t4,0x20
 430:	41f5                	c.li	gp,29
 432:	1bd71363          	bne	a4,t4,5d8 <fail>

00000436 <test_30>:
 436:	4201                	c.li	tp,0
 438:	800000b7          	lui	ra,0x80000
 43c:	417d                	c.li	sp,31
 43e:	0001                	c.addi	zero,0
 440:	0001                	c.addi	zero,0
 442:	0020d733          	srl	a4,ra,sp
 446:	0205                	c.addi	tp,1
 448:	4289                	c.li	t0,2
 44a:	fe5217e3          	bne	tp,t0,438 <test_30+0x2>
 44e:	4e85                	c.li	t4,1
 450:	41f9                	c.li	gp,30
 452:	19d71363          	bne	a4,t4,5d8 <fail>

00000456 <test_31>:
 456:	4201                	c.li	tp,0
 458:	800000b7          	lui	ra,0x80000
 45c:	0001                	c.addi	zero,0
 45e:	411d                	c.li	sp,7
 460:	0020d733          	srl	a4,ra,sp
 464:	0205                	c.addi	tp,1
 466:	4289                	c.li	t0,2
 468:	fe5218e3          	bne	tp,t0,458 <test_31+0x2>
 46c:	01000eb7          	lui	t4,0x1000
 470:	41fd                	c.li	gp,31
 472:	17d71363          	bne	a4,t4,5d8 <fail>

00000476 <test_32>:
 476:	4201                	c.li	tp,0
 478:	800000b7          	lui	ra,0x80000
 47c:	0001                	c.addi	zero,0
 47e:	4139                	c.li	sp,14
 480:	0001                	c.addi	zero,0
 482:	0020d733          	srl	a4,ra,sp
 486:	0205                	c.addi	tp,1
 488:	4289                	c.li	t0,2
 48a:	fe5217e3          	bne	tp,t0,478 <test_32+0x2>
 48e:	00020eb7          	lui	t4,0x20
 492:	02000193          	addi	gp,zero,32
 496:	15d71163          	bne	a4,t4,5d8 <fail>

0000049a <test_33>:
 49a:	4201                	c.li	tp,0
 49c:	800000b7          	lui	ra,0x80000
 4a0:	0001                	c.addi	zero,0
 4a2:	0001                	c.addi	zero,0
 4a4:	417d                	c.li	sp,31
 4a6:	0020d733          	srl	a4,ra,sp
 4aa:	0205                	c.addi	tp,1
 4ac:	4289                	c.li	t0,2
 4ae:	fe5217e3          	bne	tp,t0,49c <test_33+0x2>
 4b2:	4e85                	c.li	t4,1
 4b4:	02100193          	addi	gp,zero,33
 4b8:	13d71063          	bne	a4,t4,5d8 <fail>

000004bc <test_34>:
 4bc:	4201                	c.li	tp,0
 4be:	411d                	c.li	sp,7
 4c0:	800000b7          	lui	ra,0x80000
 4c4:	0020d733          	srl	a4,ra,sp
 4c8:	0205                	c.addi	tp,1
 4ca:	4289                	c.li	t0,2
 4cc:	fe5219e3          	bne	tp,t0,4be <test_34+0x2>
 4d0:	01000eb7          	lui	t4,0x1000
 4d4:	02200193          	addi	gp,zero,34
 4d8:	11d71063          	bne	a4,t4,5d8 <fail>

000004dc <test_35>:
 4dc:	4201                	c.li	tp,0
 4de:	4139                	c.li	sp,14
 4e0:	800000b7          	lui	ra,0x80000
 4e4:	0001                	c.addi	zero,0
 4e6:	0020d733          	srl	a4,ra,sp
 4ea:	0205                	c.addi	tp,1
 4ec:	4289                	c.li	t0,2
 4ee:	fe5218e3          	bne	tp,t0,4de <test_35+0x2>
 4f2:	00020eb7          	lui	t4,0x20
 4f6:	02300193          	addi	gp,zero,35
 4fa:	0dd71f63          	bne	a4,t4,5d8 <fail>

000004fe <test_36>:
 4fe:	4201                	c.li	tp,0
 500:	417d                	c.li	sp,31
 502:	800000b7          	lui	ra,0x80000
 506:	0001                	c.addi	zero,0
 508:	0001                	c.addi	zero,0
 50a:	0020d733          	srl	a4,ra,sp
 50e:	0205                	c.addi	tp,1
 510:	4289                	c.li	t0,2
 512:	fe5217e3          	bne	tp,t0,500 <test_36+0x2>
 516:	4e85                	c.li	t4,1
 518:	02400193          	addi	gp,zero,36
 51c:	0bd71e63          	bne	a4,t4,5d8 <fail>

00000520 <test_37>:
 520:	4201                	c.li	tp,0
 522:	411d                	c.li	sp,7
 524:	0001                	c.addi	zero,0
 526:	800000b7          	lui	ra,0x80000
 52a:	0020d733          	srl	a4,ra,sp
 52e:	0205                	c.addi	tp,1
 530:	4289                	c.li	t0,2
 532:	fe5218e3          	bne	tp,t0,522 <test_37+0x2>
 536:	01000eb7          	lui	t4,0x1000
 53a:	02500193          	addi	gp,zero,37
 53e:	09d71d63          	bne	a4,t4,5d8 <fail>

00000542 <test_38>:
 542:	4201                	c.li	tp,0
 544:	4139                	c.li	sp,14
 546:	0001                	c.addi	zero,0
 548:	800000b7          	lui	ra,0x80000
 54c:	0001                	c.addi	zero,0
 54e:	0020d733          	srl	a4,ra,sp
 552:	0205                	c.addi	tp,1
 554:	4289                	c.li	t0,2
 556:	fe5217e3          	bne	tp,t0,544 <test_38+0x2>
 55a:	00020eb7          	lui	t4,0x20
 55e:	02600193          	addi	gp,zero,38
 562:	07d71b63          	bne	a4,t4,5d8 <fail>

00000566 <test_39>:
 566:	4201                	c.li	tp,0
 568:	417d                	c.li	sp,31
 56a:	0001                	c.addi	zero,0
 56c:	0001                	c.addi	zero,0
 56e:	800000b7          	lui	ra,0x80000
 572:	0020d733          	srl	a4,ra,sp
 576:	0205                	c.addi	tp,1
 578:	4289                	c.li	t0,2
 57a:	fe5217e3          	bne	tp,t0,568 <test_39+0x2>
 57e:	4e85                	c.li	t4,1
 580:	02700193          	addi	gp,zero,39
 584:	05d71a63          	bne	a4,t4,5d8 <fail>

00000588 <test_40>:
 588:	40bd                	c.li	ra,15
 58a:	00105133          	srl	sp,zero,ra
 58e:	4e81                	c.li	t4,0
 590:	02800193          	addi	gp,zero,40
 594:	05d11263          	bne	sp,t4,5d8 <fail>

00000598 <test_41>:
 598:	02000093          	addi	ra,zero,32
 59c:	0000d133          	srl	sp,ra,zero
 5a0:	02000e93          	addi	t4,zero,32
 5a4:	02900193          	addi	gp,zero,41
 5a8:	03d11863          	bne	sp,t4,5d8 <fail>

000005ac <test_42>:
 5ac:	000050b3          	srl	ra,zero,zero
 5b0:	4e81                	c.li	t4,0
 5b2:	02a00193          	addi	gp,zero,42
 5b6:	03d09163          	bne	ra,t4,5d8 <fail>

000005ba <test_43>:
 5ba:	40000093          	addi	ra,zero,1024
 5be:	00001137          	lui	sp,0x1
 5c2:	80010113          	addi	sp,sp,-2048 # 800 <_end+0x1c0>
 5c6:	0020d033          	srl	zero,ra,sp
 5ca:	4e81                	c.li	t4,0
 5cc:	02b00193          	addi	gp,zero,43
 5d0:	01d01463          	bne	zero,t4,5d8 <fail>
 5d4:	00301c63          	bne	zero,gp,5ec <pass>

000005d8 <fail>:
 5d8:	0ff0000f          	fence	iorw,iorw
 5dc:	e00802b7          	lui	t0,0xe0080
 5e0:	01234337          	lui	t1,0x1234
 5e4:	56930313          	addi	t1,t1,1385 # 1234569 <begin_signature+0x1233569>
 5e8:	0062a023          	sw	t1,0(t0) # e0080000 <__start_addr+0x6007fff0>

000005ec <pass>:
 5ec:	0ff0000f          	fence	iorw,iorw
 5f0:	e00802b7          	lui	t0,0xe0080
 5f4:	01234337          	lui	t1,0x1234
 5f8:	56830313          	addi	t1,t1,1384 # 1234568 <begin_signature+0x1233568>
 5fc:	0062a023          	sw	t1,0(t0) # e0080000 <__start_addr+0x6007fff0>
 600:	0000                	c.unimp
 602:	0001                	c.addi	zero,0
 604:	00000013          	addi	zero,zero,0
 608:	00000013          	addi	zero,zero,0
 60c:	00000013          	addi	zero,zero,0
 610:	00000013          	addi	zero,zero,0
 614:	00000013          	addi	zero,zero,0
 618:	00000013          	addi	zero,zero,0
 61c:	00000013          	addi	zero,zero,0
 620:	00000013          	addi	zero,zero,0
 624:	00000013          	addi	zero,zero,0
 628:	00000013          	addi	zero,zero,0
 62c:	00000013          	addi	zero,zero,0
 630:	00000013          	addi	zero,zero,0
 634:	00000013          	addi	zero,zero,0
 638:	00000013          	addi	zero,zero,0
 63c:	00000013          	addi	zero,zero,0

Contents of section .loader:
 80000000 97020000 83a20201 82920000 00000000  ................
 80000010 80000000 00000000                    ........        
