
a.out:     file format elf32-littleriscv


Disassembly of section .init:

00000000 <__boot_start>:
   0:	1000                	c.addi4spn	s0,sp,32
   2:	0000                	c.unimp
   4:	10f8                	c.addi4spn	a4,sp,108
   6:	0000                	c.unimp
   8:	10f8                	c.addi4spn	a4,sp,108
   a:	0000                	c.unimp
   c:	10f8                	c.addi4spn	a4,sp,108
   e:	0000                	c.unimp
  10:	10f8                	c.addi4spn	a4,sp,108
  12:	0000                	c.unimp
  14:	10f8                	c.addi4spn	a4,sp,108
  16:	0000                	c.unimp
  18:	10f8                	c.addi4spn	a4,sp,108
  1a:	0000                	c.unimp
  1c:	10f8                	c.addi4spn	a4,sp,108
  1e:	0000                	c.unimp
  20:	10f8                	c.addi4spn	a4,sp,108
  22:	0000                	c.unimp
  24:	10f8                	c.addi4spn	a4,sp,108
  26:	0000                	c.unimp
  28:	10f8                	c.addi4spn	a4,sp,108
  2a:	0000                	c.unimp
  2c:	10f8                	c.addi4spn	a4,sp,108
  2e:	0000                	c.unimp
  30:	10f8                	c.addi4spn	a4,sp,108
  32:	0000                	c.unimp
  34:	10f8                	c.addi4spn	a4,sp,108
  36:	0000                	c.unimp
  38:	10f8                	c.addi4spn	a4,sp,108
  3a:	0000                	c.unimp
  3c:	10f8                	c.addi4spn	a4,sp,108
  3e:	0000                	c.unimp
  40:	10f8                	c.addi4spn	a4,sp,108
  42:	0000                	c.unimp
  44:	10f8                	c.addi4spn	a4,sp,108
  46:	0000                	c.unimp
  48:	10f8                	c.addi4spn	a4,sp,108
  4a:	0000                	c.unimp
  4c:	10f8                	c.addi4spn	a4,sp,108
  4e:	0000                	c.unimp
  50:	10f8                	c.addi4spn	a4,sp,108
  52:	0000                	c.unimp
  54:	10f8                	c.addi4spn	a4,sp,108
  56:	0000                	c.unimp
  58:	10f8                	c.addi4spn	a4,sp,108
  5a:	0000                	c.unimp
  5c:	10f8                	c.addi4spn	a4,sp,108
  5e:	0000                	c.unimp
  60:	10f8                	c.addi4spn	a4,sp,108
  62:	0000                	c.unimp
  64:	10f8                	c.addi4spn	a4,sp,108
  66:	0000                	c.unimp
  68:	10f8                	c.addi4spn	a4,sp,108
  6a:	0000                	c.unimp
  6c:	10f8                	c.addi4spn	a4,sp,108
  6e:	0000                	c.unimp
  70:	10f8                	c.addi4spn	a4,sp,108
  72:	0000                	c.unimp
  74:	10f8                	c.addi4spn	a4,sp,108
  76:	0000                	c.unimp
  78:	10f8                	c.addi4spn	a4,sp,108
  7a:	0000                	c.unimp
  7c:	10f8                	c.addi4spn	a4,sp,108
	...

00000080 <_start>:
  80:	a009                	c.j	82 <_reset_handler>

00000082 <_reset_handler>:
  82:	342022f3          	csrrs	t0,mcause,zero
  86:	00028463          	beq	t0,zero,8e <_reset_handler+0xc>
  8a:	7530206f          	jal	zero,2fdc <nmi_handler>
  8e:	4081                	c.li	ra,0
  90:	4101                	c.li	sp,0
  92:	4181                	c.li	gp,0
  94:	4201                	c.li	tp,0
  96:	4281                	c.li	t0,0
  98:	4301                	c.li	t1,0
  9a:	4381                	c.li	t2,0
  9c:	4401                	c.li	s0,0
  9e:	4481                	c.li	s1,0
  a0:	4501                	c.li	a0,0
  a2:	4581                	c.li	a1,0
  a4:	4601                	c.li	a2,0
  a6:	4681                	c.li	a3,0
  a8:	4701                	c.li	a4,0
  aa:	4781                	c.li	a5,0
  ac:	4801                	c.li	a6,0
  ae:	4881                	c.li	a7,0
  b0:	4901                	c.li	s2,0
  b2:	4981                	c.li	s3,0
  b4:	4a01                	c.li	s4,0
  b6:	4a81                	c.li	s5,0
  b8:	4b01                	c.li	s6,0
  ba:	4b81                	c.li	s7,0
  bc:	4c01                	c.li	s8,0
  be:	4c81                	c.li	s9,0
  c0:	4d01                	c.li	s10,0
  c2:	4d81                	c.li	s11,0
  c4:	4e01                	c.li	t3,0
  c6:	4e81                	c.li	t4,0
  c8:	4f01                	c.li	t5,0
  ca:	4f81                	c.li	t6,0
  cc:	301027f3          	csrrs	a5,misa,zero
  d0:	8395                	c.srli	a5,0x5
  d2:	8b85                	c.andi	a5,1
  d4:	c7c1                	c.beqz	a5,15c <_reset_handler+0xda>
  d6:	6709                	c.lui	a4,0x2
  d8:	30072073          	csrrs	zero,mstatus,a4
  dc:	f0000053          	fmv.w.x	ft0,zero
  e0:	f00000d3          	fmv.w.x	ft1,zero
  e4:	f0000153          	fmv.w.x	ft2,zero
  e8:	f00001d3          	fmv.w.x	ft3,zero
  ec:	f0000253          	fmv.w.x	ft4,zero
  f0:	f00002d3          	fmv.w.x	ft5,zero
  f4:	f0000353          	fmv.w.x	ft6,zero
  f8:	f00003d3          	fmv.w.x	ft7,zero
  fc:	f0000453          	fmv.w.x	fs0,zero
 100:	f00004d3          	fmv.w.x	fs1,zero
 104:	f0000553          	fmv.w.x	fa0,zero
 108:	f00005d3          	fmv.w.x	fa1,zero
 10c:	f0000653          	fmv.w.x	fa2,zero
 110:	f00006d3          	fmv.w.x	fa3,zero
 114:	f0000753          	fmv.w.x	fa4,zero
 118:	f00007d3          	fmv.w.x	fa5,zero
 11c:	f0000853          	fmv.w.x	fa6,zero
 120:	f00008d3          	fmv.w.x	fa7,zero
 124:	f0000953          	fmv.w.x	fs2,zero
 128:	f00009d3          	fmv.w.x	fs3,zero
 12c:	f0000a53          	fmv.w.x	fs4,zero
 130:	f0000ad3          	fmv.w.x	fs5,zero
 134:	f0000b53          	fmv.w.x	fs6,zero
 138:	f0000bd3          	fmv.w.x	fs7,zero
 13c:	f0000c53          	fmv.w.x	fs8,zero
 140:	f0000cd3          	fmv.w.x	fs9,zero
 144:	f0000d53          	fmv.w.x	fs10,zero
 148:	f0000dd3          	fmv.w.x	fs11,zero
 14c:	f0000e53          	fmv.w.x	ft8,zero
 150:	f0000ed3          	fmv.w.x	ft9,zero
 154:	f0000f53          	fmv.w.x	ft10,zero
 158:	f0000fd3          	fmv.w.x	ft11,zero
 15c:	301027f3          	csrrs	a5,misa,zero
 160:	83d5                	c.srli	a5,0x15
 162:	8b85                	c.andi	a5,1
 164:	cbd9                	c.beqz	a5,1fa <_reset_handler+0x178>
 166:	300027f3          	csrrs	a5,mstatus,zero
 16a:	20000713          	addi	a4,zero,512
 16e:	30072073          	csrrs	zero,mstatus,a4
 172:	01007757          	vsetvli	a4,zero,e32,m1,tu,mu,d1
 176:	5e003057          	vmv.v.i	v0,0
 17a:	5e0030d7          	vmv.v.i	v1,0
 17e:	5e003157          	vmv.v.i	v2,0
 182:	5e0031d7          	vmv.v.i	v3,0
 186:	5e003257          	vmv.v.i	v4,0
 18a:	5e0032d7          	vmv.v.i	v5,0
 18e:	5e003357          	vmv.v.i	v6,0
 192:	5e0033d7          	vmv.v.i	v7,0
 196:	5e003457          	vmv.v.i	v8,0
 19a:	5e0034d7          	vmv.v.i	v9,0
 19e:	5e003557          	vmv.v.i	v10,0
 1a2:	5e0035d7          	vmv.v.i	v11,0
 1a6:	5e003657          	vmv.v.i	v12,0
 1aa:	5e0036d7          	vmv.v.i	v13,0
 1ae:	5e003757          	vmv.v.i	v14,0
 1b2:	5e0037d7          	vmv.v.i	v15,0
 1b6:	5e003857          	vmv.v.i	v16,0
 1ba:	5e0038d7          	vmv.v.i	v17,0
 1be:	5e003957          	vmv.v.i	v18,0
 1c2:	5e0039d7          	vmv.v.i	v19,0
 1c6:	5e003a57          	vmv.v.i	v20,0
 1ca:	5e003ad7          	vmv.v.i	v21,0
 1ce:	5e003b57          	vmv.v.i	v22,0
 1d2:	5e003bd7          	vmv.v.i	v23,0
 1d6:	5e003c57          	vmv.v.i	v24,0
 1da:	5e003cd7          	vmv.v.i	v25,0
 1de:	5e003d57          	vmv.v.i	v26,0
 1e2:	5e003dd7          	vmv.v.i	v27,0
 1e6:	5e003e57          	vmv.v.i	v28,0
 1ea:	5e003ed7          	vmv.v.i	v29,0
 1ee:	5e003f57          	vmv.v.i	v30,0
 1f2:	5e003fd7          	vmv.v.i	v31,0
 1f6:	30079073          	csrrw	zero,mstatus,a5
 1fa:	00000197          	auipc	gp,0x0
 1fe:	1461a183          	lw	gp,326(gp) # 340 <__global_pointer_addr>
 202:	00000297          	auipc	t0,0x0
 206:	1462a283          	lw	t0,326(t0) # 348 <_stack_addr>
 20a:	f1402373          	csrrs	t1,mhartid,zero
 20e:	63a1                	c.lui	t2,0x8
 210:	00030563          	beq	t1,zero,21a <_reset_handler+0x198>
 214:	929e                	c.add	t0,t2
 216:	137d                	c.addi	t1,-1
 218:	bfe5                	c.j	210 <_reset_handler+0x18e>
 21a:	8116                	c.mv	sp,t0
 21c:	fc202373          	csrrs	t1,mmsc_cfg,zero
 220:	01b35313          	srli	t1,t1,0x1b
 224:	00137313          	andi	t1,t1,1
 228:	00030f63          	beq	t1,zero,246 <_reset_handler+0x1c4>
 22c:	00002297          	auipc	t0,0x2
 230:	dd428293          	addi	t0,t0,-556 # 2000 <_trap_entry_vclic>
 234:	30729073          	csrrw	zero,mtvt,t0
 238:	00001297          	auipc	t0,0x1
 23c:	dc828293          	addi	t0,t0,-568 # 1000 <m_trap_entry>
 240:	0032e293          	ori	t0,t0,3
 244:	a885                	c.j	2b4 <_mtvec_set>
 246:	00001297          	auipc	t0,0x1
 24a:	e3a28293          	addi	t0,t0,-454 # 1080 <s_trap_entry>
 24e:	30102373          	csrrs	t1,misa,zero
 252:	01235313          	srli	t1,t1,0x12
 256:	00137313          	andi	t1,t1,1
 25a:	02030763          	beq	t1,zero,288 <_init_mtvec>
 25e:	30302373          	csrrs	t1,mideleg,zero
 262:	20000393          	addi	t2,zero,512
 266:	00736333          	or	t1,t1,t2
 26a:	30331073          	csrrw	zero,mideleg,t1
 26e:	7d002373          	csrrs	t1,mmisc_ctl,zero
 272:	ffd37313          	andi	t1,t1,-3
 276:	7d031073          	csrrw	zero,mmisc_ctl,t1
 27a:	10529073          	csrrw	zero,stvec,t0
 27e:	00001297          	auipc	t0,0x1
 282:	d8228293          	addi	t0,t0,-638 # 1000 <m_trap_entry>
 286:	a03d                	c.j	2b4 <_mtvec_set>

00000288 <_init_mtvec>:
 288:	00001297          	auipc	t0,0x1
 28c:	d7828293          	addi	t0,t0,-648 # 1000 <m_trap_entry>
 290:	fc202373          	csrrs	t1,mmsc_cfg,zero
 294:	00c35313          	srli	t1,t1,0xc
 298:	00137313          	andi	t1,t1,1
 29c:	00030c63          	beq	t1,zero,2b4 <_mtvec_set>
 2a0:	7d002373          	csrrs	t1,mmisc_ctl,zero
 2a4:	00236313          	ori	t1,t1,2
 2a8:	7d031073          	csrrw	zero,mmisc_ctl,t1
 2ac:	00000297          	auipc	t0,0x0
 2b0:	d5428293          	addi	t0,t0,-684 # 0 <__boot_start>

000002b4 <_mtvec_set>:
 2b4:	30529073          	csrrw	zero,mtvec,t0
 2b8:	42bd                	c.li	t0,15
 2ba:	3a029073          	csrrw	zero,pmpcfg0,t0
 2be:	52fd                	c.li	t0,-1
 2c0:	3b029073          	csrrw	zero,pmpaddr0,t0
 2c4:	481020ef          	jal	ra,2f44 <__platform_init>
 2c8:	00004517          	auipc	a0,0x4
 2cc:	01850513          	addi	a0,a0,24 # 42e0 <__data_lmastart>
 2d0:	00000597          	auipc	a1,0x0
 2d4:	0805a583          	lw	a1,128(a1) # 350 <__data_start_addr>
 2d8:	00000617          	auipc	a2,0x0
 2dc:	08062603          	lw	a2,128(a2) # 358 <_edata_addr>
 2e0:	00b50c63          	beq	a0,a1,2f8 <_mtvec_set+0x44>
 2e4:	00c5fa63          	bgeu	a1,a2,2f8 <_mtvec_set+0x44>
 2e8:	00052283          	lw	t0,0(a0)
 2ec:	0055a023          	sw	t0,0(a1)
 2f0:	0511                	c.addi	a0,4
 2f2:	0591                	c.addi	a1,4
 2f4:	fec5eae3          	bltu	a1,a2,2e8 <_mtvec_set+0x34>
 2f8:	00000517          	auipc	a0,0x0
 2fc:	06052503          	lw	a0,96(a0) # 358 <_edata_addr>
 300:	00000597          	auipc	a1,0x0
 304:	0605a583          	lw	a1,96(a1) # 360 <_end_addr>
 308:	00b57763          	bgeu	a0,a1,316 <_mtvec_set+0x62>
 30c:	00052023          	sw	zero,0(a0)
 310:	0511                	c.addi	a0,4
 312:	feb56de3          	bltu	a0,a1,30c <_mtvec_set+0x58>
 316:	00000517          	auipc	a0,0x0
 31a:	05252503          	lw	a0,82(a0) # 368 <__sharedata_start_addr>
 31e:	00000597          	auipc	a1,0x0
 322:	0525a583          	lw	a1,82(a1) # 370 <__sharedata_end_addr>
 326:	00b57763          	bgeu	a0,a1,334 <_mtvec_set+0x80>
 32a:	00052023          	sw	zero,0(a0)
 32e:	0511                	c.addi	a0,4
 330:	feb56de3          	bltu	a0,a1,32a <_mtvec_set+0x76>
 334:	481020ef          	jal	ra,2fb4 <reset_handler>
 338:	a001                	c.j	338 <_mtvec_set+0x84>
 33a:	8082                	c.jr	ra
 33c:	00000013          	addi	zero,zero,0

00000340 <__global_pointer_addr>:
 340:	08f8                	c.addi4spn	a4,sp,92
 342:	0020                	c.addi4spn	s0,sp,8
 344:	0000                	c.unimp
	...

00000348 <_stack_addr>:
 348:	0000                	c.unimp
 34a:	0028                	c.addi4spn	a0,sp,8
 34c:	0000                	c.unimp
	...

00000350 <__data_start_addr>:
 350:	0000                	c.unimp
 352:	0020                	c.addi4spn	s0,sp,8
 354:	0000                	c.unimp
	...

00000358 <_edata_addr>:
 358:	00f8                	c.addi4spn	a4,sp,76
 35a:	0020                	c.addi4spn	s0,sp,8
 35c:	0000                	c.unimp
	...

00000360 <_end_addr>:
 360:	01f0                	c.addi4spn	a2,sp,204
 362:	0020                	c.addi4spn	s0,sp,8
 364:	0000                	c.unimp
	...

00000368 <__sharedata_start_addr>:
 368:	0000                	c.unimp
 36a:	0030                	c.addi4spn	a2,sp,8
 36c:	0000                	c.unimp
	...

00000370 <__sharedata_end_addr>:
 370:	0004                	0x4
 372:	0030                	c.addi4spn	a2,sp,8
 374:	0000                	c.unimp
 376:	0000                	c.unimp
 378:	0001                	c.addi	zero,0
 37a:	00000013          	addi	zero,zero,0

Disassembly of section .text:

00001000 <m_trap_entry>:
    1000:	7119                	c.addi16sp	sp,-128
    1002:	c006                	c.swsp	ra,0(sp)
    1004:	c212                	c.swsp	tp,4(sp)
    1006:	c416                	c.swsp	t0,8(sp)
    1008:	c61a                	c.swsp	t1,12(sp)
    100a:	c81e                	c.swsp	t2,16(sp)
    100c:	ca2a                	c.swsp	a0,20(sp)
    100e:	cc2e                	c.swsp	a1,24(sp)
    1010:	ce32                	c.swsp	a2,28(sp)
    1012:	d036                	c.swsp	a3,32(sp)
    1014:	d23a                	c.swsp	a4,36(sp)
    1016:	d43e                	c.swsp	a5,40(sp)
    1018:	d642                	c.swsp	a6,44(sp)
    101a:	d846                	c.swsp	a7,48(sp)
    101c:	da72                	c.swsp	t3,52(sp)
    101e:	dc76                	c.swsp	t4,56(sp)
    1020:	de7a                	c.swsp	t5,60(sp)
    1022:	c0fe                	c.swsp	t6,64(sp)
    1024:	341022f3          	csrrs	t0,mepc,zero
    1028:	30002373          	csrrs	t1,mstatus,zero
    102c:	7c4023f3          	csrrs	t2,mxstatus,zero
    1030:	c296                	c.swsp	t0,68(sp)
    1032:	c49a                	c.swsp	t1,72(sp)
    1034:	c69e                	c.swsp	t2,76(sp)
    1036:	34202573          	csrrs	a0,mcause,zero
    103a:	858a                	c.mv	a1,sp
    103c:	088020ef          	jal	ra,30c4 <trap_handler>
    1040:	300477f3          	csrrci	a5,mstatus,8
    1044:	4296                	c.lwsp	t0,68(sp)
    1046:	4326                	c.lwsp	t1,72(sp)
    1048:	43b6                	c.lwsp	t2,76(sp)
    104a:	34129073          	csrrw	zero,mepc,t0
    104e:	30031073          	csrrw	zero,mstatus,t1
    1052:	7c439073          	csrrw	zero,mxstatus,t2
    1056:	4082                	c.lwsp	ra,0(sp)
    1058:	4212                	c.lwsp	tp,4(sp)
    105a:	42a2                	c.lwsp	t0,8(sp)
    105c:	4332                	c.lwsp	t1,12(sp)
    105e:	43c2                	c.lwsp	t2,16(sp)
    1060:	4552                	c.lwsp	a0,20(sp)
    1062:	45e2                	c.lwsp	a1,24(sp)
    1064:	4672                	c.lwsp	a2,28(sp)
    1066:	5682                	c.lwsp	a3,32(sp)
    1068:	5712                	c.lwsp	a4,36(sp)
    106a:	57a2                	c.lwsp	a5,40(sp)
    106c:	5832                	c.lwsp	a6,44(sp)
    106e:	58c2                	c.lwsp	a7,48(sp)
    1070:	5e52                	c.lwsp	t3,52(sp)
    1072:	5ee2                	c.lwsp	t4,56(sp)
    1074:	5f72                	c.lwsp	t5,60(sp)
    1076:	4f86                	c.lwsp	t6,64(sp)
    1078:	08010113          	addi	sp,sp,128
    107c:	30200073          	mret

00001080 <s_trap_entry>:
    1080:	7119                	c.addi16sp	sp,-128
    1082:	c006                	c.swsp	ra,0(sp)
    1084:	c212                	c.swsp	tp,4(sp)
    1086:	c416                	c.swsp	t0,8(sp)
    1088:	c61a                	c.swsp	t1,12(sp)
    108a:	c81e                	c.swsp	t2,16(sp)
    108c:	ca2a                	c.swsp	a0,20(sp)
    108e:	cc2e                	c.swsp	a1,24(sp)
    1090:	ce32                	c.swsp	a2,28(sp)
    1092:	d036                	c.swsp	a3,32(sp)
    1094:	d23a                	c.swsp	a4,36(sp)
    1096:	d43e                	c.swsp	a5,40(sp)
    1098:	d642                	c.swsp	a6,44(sp)
    109a:	d846                	c.swsp	a7,48(sp)
    109c:	da72                	c.swsp	t3,52(sp)
    109e:	dc76                	c.swsp	t4,56(sp)
    10a0:	de7a                	c.swsp	t5,60(sp)
    10a2:	c0fe                	c.swsp	t6,64(sp)
    10a4:	141022f3          	csrrs	t0,sepc,zero
    10a8:	10002373          	csrrs	t1,sstatus,zero
    10ac:	c296                	c.swsp	t0,68(sp)
    10ae:	c49a                	c.swsp	t1,72(sp)
    10b0:	14202573          	csrrs	a0,scause,zero
    10b4:	858a                	c.mv	a1,sp
    10b6:	00e020ef          	jal	ra,30c4 <trap_handler>
    10ba:	100177f3          	csrrci	a5,sstatus,2
    10be:	4296                	c.lwsp	t0,68(sp)
    10c0:	4326                	c.lwsp	t1,72(sp)
    10c2:	14129073          	csrrw	zero,sepc,t0
    10c6:	10031073          	csrrw	zero,sstatus,t1
    10ca:	4082                	c.lwsp	ra,0(sp)
    10cc:	4212                	c.lwsp	tp,4(sp)
    10ce:	42a2                	c.lwsp	t0,8(sp)
    10d0:	4332                	c.lwsp	t1,12(sp)
    10d2:	43c2                	c.lwsp	t2,16(sp)
    10d4:	4552                	c.lwsp	a0,20(sp)
    10d6:	45e2                	c.lwsp	a1,24(sp)
    10d8:	4672                	c.lwsp	a2,28(sp)
    10da:	5682                	c.lwsp	a3,32(sp)
    10dc:	5712                	c.lwsp	a4,36(sp)
    10de:	57a2                	c.lwsp	a5,40(sp)
    10e0:	5832                	c.lwsp	a6,44(sp)
    10e2:	58c2                	c.lwsp	a7,48(sp)
    10e4:	5e52                	c.lwsp	t3,52(sp)
    10e6:	5ee2                	c.lwsp	t4,56(sp)
    10e8:	5f72                	c.lwsp	t5,60(sp)
    10ea:	4f86                	c.lwsp	t6,64(sp)
    10ec:	6109                	c.addi16sp	sp,128
    10ee:	10200073          	sret
    10f2:	a001                	c.j	10f2 <s_trap_entry+0x72>
    10f4:	a001                	c.j	10f4 <s_trap_entry+0x74>
    10f6:	a001                	c.j	10f6 <s_trap_entry+0x76>

000010f8 <_EI_10_HANDLER_WRAPPER>:
    10f8:	7119                	c.addi16sp	sp,-128
    10fa:	c006                	c.swsp	ra,0(sp)
    10fc:	c212                	c.swsp	tp,4(sp)
    10fe:	c416                	c.swsp	t0,8(sp)
    1100:	c61a                	c.swsp	t1,12(sp)
    1102:	c81e                	c.swsp	t2,16(sp)
    1104:	ca2a                	c.swsp	a0,20(sp)
    1106:	cc2e                	c.swsp	a1,24(sp)
    1108:	ce32                	c.swsp	a2,28(sp)
    110a:	d036                	c.swsp	a3,32(sp)
    110c:	d23a                	c.swsp	a4,36(sp)
    110e:	d43e                	c.swsp	a5,40(sp)
    1110:	d642                	c.swsp	a6,44(sp)
    1112:	d846                	c.swsp	a7,48(sp)
    1114:	da72                	c.swsp	t3,52(sp)
    1116:	dc76                	c.swsp	t4,56(sp)
    1118:	de7a                	c.swsp	t5,60(sp)
    111a:	c0fe                	c.swsp	t6,64(sp)
    111c:	341022f3          	csrrs	t0,mepc,zero
    1120:	30002373          	csrrs	t1,mstatus,zero
    1124:	7c4023f3          	csrrs	t2,mxstatus,zero
    1128:	c296                	c.swsp	t0,68(sp)
    112a:	c49a                	c.swsp	t1,72(sp)
    112c:	c69e                	c.swsp	t2,76(sp)
    112e:	34202573          	csrrs	a0,mcause,zero
    1132:	305025f3          	csrrs	a1,mtvec,zero
    1136:	898d                	c.andi	a1,3
    1138:	c581                	c.beqz	a1,1140 <_EI_10_HANDLER_WRAPPER+0x48>
    113a:	3ff57513          	andi	a0,a0,1023
    113e:	1539                	c.addi	a0,-18
    1140:	72d010ef          	jal	ra,306c <machine_ei_handler>
    1144:	300477f3          	csrrci	a5,mstatus,8
    1148:	4296                	c.lwsp	t0,68(sp)
    114a:	4326                	c.lwsp	t1,72(sp)
    114c:	43b6                	c.lwsp	t2,76(sp)
    114e:	34129073          	csrrw	zero,mepc,t0
    1152:	30031073          	csrrw	zero,mstatus,t1
    1156:	7c439073          	csrrw	zero,mxstatus,t2
    115a:	4082                	c.lwsp	ra,0(sp)
    115c:	4212                	c.lwsp	tp,4(sp)
    115e:	42a2                	c.lwsp	t0,8(sp)
    1160:	4332                	c.lwsp	t1,12(sp)
    1162:	43c2                	c.lwsp	t2,16(sp)
    1164:	4552                	c.lwsp	a0,20(sp)
    1166:	45e2                	c.lwsp	a1,24(sp)
    1168:	4672                	c.lwsp	a2,28(sp)
    116a:	5682                	c.lwsp	a3,32(sp)
    116c:	5712                	c.lwsp	a4,36(sp)
    116e:	57a2                	c.lwsp	a5,40(sp)
    1170:	5832                	c.lwsp	a6,44(sp)
    1172:	58c2                	c.lwsp	a7,48(sp)
    1174:	5e52                	c.lwsp	t3,52(sp)
    1176:	5ee2                	c.lwsp	t4,56(sp)
    1178:	5f72                	c.lwsp	t5,60(sp)
    117a:	4f86                	c.lwsp	t6,64(sp)
    117c:	6109                	c.addi16sp	sp,128
    117e:	30200073          	mret
    1182:	00000013          	addi	zero,zero,0
    1186:	00000013          	addi	zero,zero,0
    118a:	00000013          	addi	zero,zero,0
    118e:	00000013          	addi	zero,zero,0
    1192:	00000013          	addi	zero,zero,0
    1196:	00000013          	addi	zero,zero,0
    119a:	00000013          	addi	zero,zero,0
    119e:	00000013          	addi	zero,zero,0
    11a2:	00000013          	addi	zero,zero,0
    11a6:	00000013          	addi	zero,zero,0
    11aa:	00000013          	addi	zero,zero,0
    11ae:	00000013          	addi	zero,zero,0
    11b2:	00000013          	addi	zero,zero,0
    11b6:	00000013          	addi	zero,zero,0
    11ba:	00000013          	addi	zero,zero,0
    11be:	00000013          	addi	zero,zero,0
    11c2:	00000013          	addi	zero,zero,0
    11c6:	00000013          	addi	zero,zero,0
    11ca:	00000013          	addi	zero,zero,0
    11ce:	00000013          	addi	zero,zero,0
    11d2:	00000013          	addi	zero,zero,0
    11d6:	00000013          	addi	zero,zero,0
    11da:	00000013          	addi	zero,zero,0
    11de:	00000013          	addi	zero,zero,0
    11e2:	00000013          	addi	zero,zero,0
    11e6:	00000013          	addi	zero,zero,0
    11ea:	00000013          	addi	zero,zero,0
    11ee:	00000013          	addi	zero,zero,0
    11f2:	00000013          	addi	zero,zero,0
    11f6:	00000013          	addi	zero,zero,0
    11fa:	00000013          	addi	zero,zero,0
    11fe:	00000013          	addi	zero,zero,0
    1202:	00000013          	addi	zero,zero,0
    1206:	00000013          	addi	zero,zero,0
    120a:	00000013          	addi	zero,zero,0
    120e:	00000013          	addi	zero,zero,0
    1212:	00000013          	addi	zero,zero,0
    1216:	00000013          	addi	zero,zero,0
    121a:	00000013          	addi	zero,zero,0
    121e:	00000013          	addi	zero,zero,0
    1222:	00000013          	addi	zero,zero,0
    1226:	00000013          	addi	zero,zero,0
    122a:	00000013          	addi	zero,zero,0
    122e:	00000013          	addi	zero,zero,0
    1232:	00000013          	addi	zero,zero,0
    1236:	00000013          	addi	zero,zero,0
    123a:	00000013          	addi	zero,zero,0
    123e:	00000013          	addi	zero,zero,0
    1242:	00000013          	addi	zero,zero,0
    1246:	00000013          	addi	zero,zero,0
    124a:	00000013          	addi	zero,zero,0
    124e:	00000013          	addi	zero,zero,0
    1252:	00000013          	addi	zero,zero,0
    1256:	00000013          	addi	zero,zero,0
    125a:	00000013          	addi	zero,zero,0
    125e:	00000013          	addi	zero,zero,0
    1262:	00000013          	addi	zero,zero,0
    1266:	00000013          	addi	zero,zero,0
    126a:	00000013          	addi	zero,zero,0
    126e:	00000013          	addi	zero,zero,0
    1272:	00000013          	addi	zero,zero,0
    1276:	00000013          	addi	zero,zero,0
    127a:	00000013          	addi	zero,zero,0
    127e:	00000013          	addi	zero,zero,0
    1282:	00000013          	addi	zero,zero,0
    1286:	00000013          	addi	zero,zero,0
    128a:	00000013          	addi	zero,zero,0
    128e:	00000013          	addi	zero,zero,0
    1292:	00000013          	addi	zero,zero,0
    1296:	00000013          	addi	zero,zero,0
    129a:	00000013          	addi	zero,zero,0
    129e:	00000013          	addi	zero,zero,0
    12a2:	00000013          	addi	zero,zero,0
    12a6:	00000013          	addi	zero,zero,0
    12aa:	00000013          	addi	zero,zero,0
    12ae:	00000013          	addi	zero,zero,0
    12b2:	00000013          	addi	zero,zero,0
    12b6:	00000013          	addi	zero,zero,0
    12ba:	00000013          	addi	zero,zero,0
    12be:	00000013          	addi	zero,zero,0
    12c2:	00000013          	addi	zero,zero,0
    12c6:	00000013          	addi	zero,zero,0
    12ca:	00000013          	addi	zero,zero,0
    12ce:	00000013          	addi	zero,zero,0
    12d2:	00000013          	addi	zero,zero,0
    12d6:	00000013          	addi	zero,zero,0
    12da:	00000013          	addi	zero,zero,0
    12de:	00000013          	addi	zero,zero,0
    12e2:	00000013          	addi	zero,zero,0
    12e6:	00000013          	addi	zero,zero,0
    12ea:	00000013          	addi	zero,zero,0
    12ee:	00000013          	addi	zero,zero,0
    12f2:	00000013          	addi	zero,zero,0
    12f6:	00000013          	addi	zero,zero,0
    12fa:	00000013          	addi	zero,zero,0
    12fe:	00000013          	addi	zero,zero,0
    1302:	00000013          	addi	zero,zero,0
    1306:	00000013          	addi	zero,zero,0
    130a:	00000013          	addi	zero,zero,0
    130e:	00000013          	addi	zero,zero,0
    1312:	00000013          	addi	zero,zero,0
    1316:	00000013          	addi	zero,zero,0
    131a:	00000013          	addi	zero,zero,0
    131e:	00000013          	addi	zero,zero,0
    1322:	00000013          	addi	zero,zero,0
    1326:	00000013          	addi	zero,zero,0
    132a:	00000013          	addi	zero,zero,0
    132e:	00000013          	addi	zero,zero,0
    1332:	00000013          	addi	zero,zero,0
    1336:	00000013          	addi	zero,zero,0
    133a:	00000013          	addi	zero,zero,0
    133e:	00000013          	addi	zero,zero,0
    1342:	00000013          	addi	zero,zero,0
    1346:	00000013          	addi	zero,zero,0
    134a:	00000013          	addi	zero,zero,0
    134e:	00000013          	addi	zero,zero,0
    1352:	00000013          	addi	zero,zero,0
    1356:	00000013          	addi	zero,zero,0
    135a:	00000013          	addi	zero,zero,0
    135e:	00000013          	addi	zero,zero,0
    1362:	00000013          	addi	zero,zero,0
    1366:	00000013          	addi	zero,zero,0
    136a:	00000013          	addi	zero,zero,0
    136e:	00000013          	addi	zero,zero,0
    1372:	00000013          	addi	zero,zero,0
    1376:	00000013          	addi	zero,zero,0
    137a:	00000013          	addi	zero,zero,0
    137e:	00000013          	addi	zero,zero,0
    1382:	00000013          	addi	zero,zero,0
    1386:	00000013          	addi	zero,zero,0
    138a:	00000013          	addi	zero,zero,0
    138e:	00000013          	addi	zero,zero,0
    1392:	00000013          	addi	zero,zero,0
    1396:	00000013          	addi	zero,zero,0
    139a:	00000013          	addi	zero,zero,0
    139e:	00000013          	addi	zero,zero,0
    13a2:	00000013          	addi	zero,zero,0
    13a6:	00000013          	addi	zero,zero,0
    13aa:	00000013          	addi	zero,zero,0
    13ae:	00000013          	addi	zero,zero,0
    13b2:	00000013          	addi	zero,zero,0
    13b6:	00000013          	addi	zero,zero,0
    13ba:	00000013          	addi	zero,zero,0
    13be:	00000013          	addi	zero,zero,0
    13c2:	00000013          	addi	zero,zero,0
    13c6:	00000013          	addi	zero,zero,0
    13ca:	00000013          	addi	zero,zero,0
    13ce:	00000013          	addi	zero,zero,0
    13d2:	00000013          	addi	zero,zero,0
    13d6:	00000013          	addi	zero,zero,0
    13da:	00000013          	addi	zero,zero,0
    13de:	00000013          	addi	zero,zero,0
    13e2:	00000013          	addi	zero,zero,0
    13e6:	00000013          	addi	zero,zero,0
    13ea:	00000013          	addi	zero,zero,0
    13ee:	00000013          	addi	zero,zero,0
    13f2:	00000013          	addi	zero,zero,0
    13f6:	00000013          	addi	zero,zero,0
    13fa:	00000013          	addi	zero,zero,0
    13fe:	00000013          	addi	zero,zero,0
    1402:	00000013          	addi	zero,zero,0
    1406:	00000013          	addi	zero,zero,0
    140a:	00000013          	addi	zero,zero,0
    140e:	00000013          	addi	zero,zero,0
    1412:	00000013          	addi	zero,zero,0
    1416:	00000013          	addi	zero,zero,0
    141a:	00000013          	addi	zero,zero,0
    141e:	00000013          	addi	zero,zero,0
    1422:	00000013          	addi	zero,zero,0
    1426:	00000013          	addi	zero,zero,0
    142a:	00000013          	addi	zero,zero,0
    142e:	00000013          	addi	zero,zero,0
    1432:	00000013          	addi	zero,zero,0
    1436:	00000013          	addi	zero,zero,0
    143a:	00000013          	addi	zero,zero,0
    143e:	00000013          	addi	zero,zero,0
    1442:	00000013          	addi	zero,zero,0
    1446:	00000013          	addi	zero,zero,0
    144a:	00000013          	addi	zero,zero,0
    144e:	00000013          	addi	zero,zero,0
    1452:	00000013          	addi	zero,zero,0
    1456:	00000013          	addi	zero,zero,0
    145a:	00000013          	addi	zero,zero,0
    145e:	00000013          	addi	zero,zero,0
    1462:	00000013          	addi	zero,zero,0
    1466:	00000013          	addi	zero,zero,0
    146a:	00000013          	addi	zero,zero,0
    146e:	00000013          	addi	zero,zero,0
    1472:	00000013          	addi	zero,zero,0
    1476:	00000013          	addi	zero,zero,0
    147a:	00000013          	addi	zero,zero,0
    147e:	00000013          	addi	zero,zero,0
    1482:	00000013          	addi	zero,zero,0
    1486:	00000013          	addi	zero,zero,0
    148a:	00000013          	addi	zero,zero,0
    148e:	00000013          	addi	zero,zero,0
    1492:	00000013          	addi	zero,zero,0
    1496:	00000013          	addi	zero,zero,0
    149a:	00000013          	addi	zero,zero,0
    149e:	00000013          	addi	zero,zero,0
    14a2:	00000013          	addi	zero,zero,0
    14a6:	00000013          	addi	zero,zero,0
    14aa:	00000013          	addi	zero,zero,0
    14ae:	00000013          	addi	zero,zero,0
    14b2:	00000013          	addi	zero,zero,0
    14b6:	00000013          	addi	zero,zero,0
    14ba:	00000013          	addi	zero,zero,0
    14be:	00000013          	addi	zero,zero,0
    14c2:	00000013          	addi	zero,zero,0
    14c6:	00000013          	addi	zero,zero,0
    14ca:	00000013          	addi	zero,zero,0
    14ce:	00000013          	addi	zero,zero,0
    14d2:	00000013          	addi	zero,zero,0
    14d6:	00000013          	addi	zero,zero,0
    14da:	00000013          	addi	zero,zero,0
    14de:	00000013          	addi	zero,zero,0
    14e2:	00000013          	addi	zero,zero,0
    14e6:	00000013          	addi	zero,zero,0
    14ea:	00000013          	addi	zero,zero,0
    14ee:	00000013          	addi	zero,zero,0
    14f2:	00000013          	addi	zero,zero,0
    14f6:	00000013          	addi	zero,zero,0
    14fa:	00000013          	addi	zero,zero,0
    14fe:	00000013          	addi	zero,zero,0
    1502:	00000013          	addi	zero,zero,0
    1506:	00000013          	addi	zero,zero,0
    150a:	00000013          	addi	zero,zero,0
    150e:	00000013          	addi	zero,zero,0
    1512:	00000013          	addi	zero,zero,0
    1516:	00000013          	addi	zero,zero,0
    151a:	00000013          	addi	zero,zero,0
    151e:	00000013          	addi	zero,zero,0
    1522:	00000013          	addi	zero,zero,0
    1526:	00000013          	addi	zero,zero,0
    152a:	00000013          	addi	zero,zero,0
    152e:	00000013          	addi	zero,zero,0
    1532:	00000013          	addi	zero,zero,0
    1536:	00000013          	addi	zero,zero,0
    153a:	00000013          	addi	zero,zero,0
    153e:	00000013          	addi	zero,zero,0
    1542:	00000013          	addi	zero,zero,0
    1546:	00000013          	addi	zero,zero,0
    154a:	00000013          	addi	zero,zero,0
    154e:	00000013          	addi	zero,zero,0
    1552:	00000013          	addi	zero,zero,0
    1556:	00000013          	addi	zero,zero,0
    155a:	00000013          	addi	zero,zero,0
    155e:	00000013          	addi	zero,zero,0
    1562:	00000013          	addi	zero,zero,0
    1566:	00000013          	addi	zero,zero,0
    156a:	00000013          	addi	zero,zero,0
    156e:	00000013          	addi	zero,zero,0
    1572:	00000013          	addi	zero,zero,0
    1576:	00000013          	addi	zero,zero,0
    157a:	00000013          	addi	zero,zero,0
    157e:	00000013          	addi	zero,zero,0
    1582:	00000013          	addi	zero,zero,0
    1586:	00000013          	addi	zero,zero,0
    158a:	00000013          	addi	zero,zero,0
    158e:	00000013          	addi	zero,zero,0
    1592:	00000013          	addi	zero,zero,0
    1596:	00000013          	addi	zero,zero,0
    159a:	00000013          	addi	zero,zero,0
    159e:	00000013          	addi	zero,zero,0
    15a2:	00000013          	addi	zero,zero,0
    15a6:	00000013          	addi	zero,zero,0
    15aa:	00000013          	addi	zero,zero,0
    15ae:	00000013          	addi	zero,zero,0
    15b2:	00000013          	addi	zero,zero,0
    15b6:	00000013          	addi	zero,zero,0
    15ba:	00000013          	addi	zero,zero,0
    15be:	00000013          	addi	zero,zero,0
    15c2:	00000013          	addi	zero,zero,0
    15c6:	00000013          	addi	zero,zero,0
    15ca:	00000013          	addi	zero,zero,0
    15ce:	00000013          	addi	zero,zero,0
    15d2:	00000013          	addi	zero,zero,0
    15d6:	00000013          	addi	zero,zero,0
    15da:	00000013          	addi	zero,zero,0
    15de:	00000013          	addi	zero,zero,0
    15e2:	00000013          	addi	zero,zero,0
    15e6:	00000013          	addi	zero,zero,0
    15ea:	00000013          	addi	zero,zero,0
    15ee:	00000013          	addi	zero,zero,0
    15f2:	00000013          	addi	zero,zero,0
    15f6:	00000013          	addi	zero,zero,0
    15fa:	00000013          	addi	zero,zero,0
    15fe:	00000013          	addi	zero,zero,0
    1602:	00000013          	addi	zero,zero,0
    1606:	00000013          	addi	zero,zero,0
    160a:	00000013          	addi	zero,zero,0
    160e:	00000013          	addi	zero,zero,0
    1612:	00000013          	addi	zero,zero,0
    1616:	00000013          	addi	zero,zero,0
    161a:	00000013          	addi	zero,zero,0
    161e:	00000013          	addi	zero,zero,0
    1622:	00000013          	addi	zero,zero,0
    1626:	00000013          	addi	zero,zero,0
    162a:	00000013          	addi	zero,zero,0
    162e:	00000013          	addi	zero,zero,0
    1632:	00000013          	addi	zero,zero,0
    1636:	00000013          	addi	zero,zero,0
    163a:	00000013          	addi	zero,zero,0
    163e:	00000013          	addi	zero,zero,0
    1642:	00000013          	addi	zero,zero,0
    1646:	00000013          	addi	zero,zero,0
    164a:	00000013          	addi	zero,zero,0
    164e:	00000013          	addi	zero,zero,0
    1652:	00000013          	addi	zero,zero,0
    1656:	00000013          	addi	zero,zero,0
    165a:	00000013          	addi	zero,zero,0
    165e:	00000013          	addi	zero,zero,0
    1662:	00000013          	addi	zero,zero,0
    1666:	00000013          	addi	zero,zero,0
    166a:	00000013          	addi	zero,zero,0
    166e:	00000013          	addi	zero,zero,0
    1672:	00000013          	addi	zero,zero,0
    1676:	00000013          	addi	zero,zero,0
    167a:	00000013          	addi	zero,zero,0
    167e:	00000013          	addi	zero,zero,0
    1682:	00000013          	addi	zero,zero,0
    1686:	00000013          	addi	zero,zero,0
    168a:	00000013          	addi	zero,zero,0
    168e:	00000013          	addi	zero,zero,0
    1692:	00000013          	addi	zero,zero,0
    1696:	00000013          	addi	zero,zero,0
    169a:	00000013          	addi	zero,zero,0
    169e:	00000013          	addi	zero,zero,0
    16a2:	00000013          	addi	zero,zero,0
    16a6:	00000013          	addi	zero,zero,0
    16aa:	00000013          	addi	zero,zero,0
    16ae:	00000013          	addi	zero,zero,0
    16b2:	00000013          	addi	zero,zero,0
    16b6:	00000013          	addi	zero,zero,0
    16ba:	00000013          	addi	zero,zero,0
    16be:	00000013          	addi	zero,zero,0
    16c2:	00000013          	addi	zero,zero,0
    16c6:	00000013          	addi	zero,zero,0
    16ca:	00000013          	addi	zero,zero,0
    16ce:	00000013          	addi	zero,zero,0
    16d2:	00000013          	addi	zero,zero,0
    16d6:	00000013          	addi	zero,zero,0
    16da:	00000013          	addi	zero,zero,0
    16de:	00000013          	addi	zero,zero,0
    16e2:	00000013          	addi	zero,zero,0
    16e6:	00000013          	addi	zero,zero,0
    16ea:	00000013          	addi	zero,zero,0
    16ee:	00000013          	addi	zero,zero,0
    16f2:	00000013          	addi	zero,zero,0
    16f6:	00000013          	addi	zero,zero,0
    16fa:	00000013          	addi	zero,zero,0
    16fe:	00000013          	addi	zero,zero,0
    1702:	00000013          	addi	zero,zero,0
    1706:	00000013          	addi	zero,zero,0
    170a:	00000013          	addi	zero,zero,0
    170e:	00000013          	addi	zero,zero,0
    1712:	00000013          	addi	zero,zero,0
    1716:	00000013          	addi	zero,zero,0
    171a:	00000013          	addi	zero,zero,0
    171e:	00000013          	addi	zero,zero,0
    1722:	00000013          	addi	zero,zero,0
    1726:	00000013          	addi	zero,zero,0
    172a:	00000013          	addi	zero,zero,0
    172e:	00000013          	addi	zero,zero,0
    1732:	00000013          	addi	zero,zero,0
    1736:	00000013          	addi	zero,zero,0
    173a:	00000013          	addi	zero,zero,0
    173e:	00000013          	addi	zero,zero,0
    1742:	00000013          	addi	zero,zero,0
    1746:	00000013          	addi	zero,zero,0
    174a:	00000013          	addi	zero,zero,0
    174e:	00000013          	addi	zero,zero,0
    1752:	00000013          	addi	zero,zero,0
    1756:	00000013          	addi	zero,zero,0
    175a:	00000013          	addi	zero,zero,0
    175e:	00000013          	addi	zero,zero,0
    1762:	00000013          	addi	zero,zero,0
    1766:	00000013          	addi	zero,zero,0
    176a:	00000013          	addi	zero,zero,0
    176e:	00000013          	addi	zero,zero,0
    1772:	00000013          	addi	zero,zero,0
    1776:	00000013          	addi	zero,zero,0
    177a:	00000013          	addi	zero,zero,0
    177e:	00000013          	addi	zero,zero,0
    1782:	00000013          	addi	zero,zero,0
    1786:	00000013          	addi	zero,zero,0
    178a:	00000013          	addi	zero,zero,0
    178e:	00000013          	addi	zero,zero,0
    1792:	00000013          	addi	zero,zero,0
    1796:	00000013          	addi	zero,zero,0
    179a:	00000013          	addi	zero,zero,0
    179e:	00000013          	addi	zero,zero,0
    17a2:	00000013          	addi	zero,zero,0
    17a6:	00000013          	addi	zero,zero,0
    17aa:	00000013          	addi	zero,zero,0
    17ae:	00000013          	addi	zero,zero,0
    17b2:	00000013          	addi	zero,zero,0
    17b6:	00000013          	addi	zero,zero,0
    17ba:	00000013          	addi	zero,zero,0
    17be:	00000013          	addi	zero,zero,0
    17c2:	00000013          	addi	zero,zero,0
    17c6:	00000013          	addi	zero,zero,0
    17ca:	00000013          	addi	zero,zero,0
    17ce:	00000013          	addi	zero,zero,0
    17d2:	00000013          	addi	zero,zero,0
    17d6:	00000013          	addi	zero,zero,0
    17da:	00000013          	addi	zero,zero,0
    17de:	00000013          	addi	zero,zero,0
    17e2:	00000013          	addi	zero,zero,0
    17e6:	00000013          	addi	zero,zero,0
    17ea:	00000013          	addi	zero,zero,0
    17ee:	00000013          	addi	zero,zero,0
    17f2:	00000013          	addi	zero,zero,0
    17f6:	00000013          	addi	zero,zero,0
    17fa:	00000013          	addi	zero,zero,0
    17fe:	00000013          	addi	zero,zero,0
    1802:	00000013          	addi	zero,zero,0
    1806:	00000013          	addi	zero,zero,0
    180a:	00000013          	addi	zero,zero,0
    180e:	00000013          	addi	zero,zero,0
    1812:	00000013          	addi	zero,zero,0
    1816:	00000013          	addi	zero,zero,0
    181a:	00000013          	addi	zero,zero,0
    181e:	00000013          	addi	zero,zero,0
    1822:	00000013          	addi	zero,zero,0
    1826:	00000013          	addi	zero,zero,0
    182a:	00000013          	addi	zero,zero,0
    182e:	00000013          	addi	zero,zero,0
    1832:	00000013          	addi	zero,zero,0
    1836:	00000013          	addi	zero,zero,0
    183a:	00000013          	addi	zero,zero,0
    183e:	00000013          	addi	zero,zero,0
    1842:	00000013          	addi	zero,zero,0
    1846:	00000013          	addi	zero,zero,0
    184a:	00000013          	addi	zero,zero,0
    184e:	00000013          	addi	zero,zero,0
    1852:	00000013          	addi	zero,zero,0
    1856:	00000013          	addi	zero,zero,0
    185a:	00000013          	addi	zero,zero,0
    185e:	00000013          	addi	zero,zero,0
    1862:	00000013          	addi	zero,zero,0
    1866:	00000013          	addi	zero,zero,0
    186a:	00000013          	addi	zero,zero,0
    186e:	00000013          	addi	zero,zero,0
    1872:	00000013          	addi	zero,zero,0
    1876:	00000013          	addi	zero,zero,0
    187a:	00000013          	addi	zero,zero,0
    187e:	00000013          	addi	zero,zero,0
    1882:	00000013          	addi	zero,zero,0
    1886:	00000013          	addi	zero,zero,0
    188a:	00000013          	addi	zero,zero,0
    188e:	00000013          	addi	zero,zero,0
    1892:	00000013          	addi	zero,zero,0
    1896:	00000013          	addi	zero,zero,0
    189a:	00000013          	addi	zero,zero,0
    189e:	00000013          	addi	zero,zero,0
    18a2:	00000013          	addi	zero,zero,0
    18a6:	00000013          	addi	zero,zero,0
    18aa:	00000013          	addi	zero,zero,0
    18ae:	00000013          	addi	zero,zero,0
    18b2:	00000013          	addi	zero,zero,0
    18b6:	00000013          	addi	zero,zero,0
    18ba:	00000013          	addi	zero,zero,0
    18be:	00000013          	addi	zero,zero,0
    18c2:	00000013          	addi	zero,zero,0
    18c6:	00000013          	addi	zero,zero,0
    18ca:	00000013          	addi	zero,zero,0
    18ce:	00000013          	addi	zero,zero,0
    18d2:	00000013          	addi	zero,zero,0
    18d6:	00000013          	addi	zero,zero,0
    18da:	00000013          	addi	zero,zero,0
    18de:	00000013          	addi	zero,zero,0
    18e2:	00000013          	addi	zero,zero,0
    18e6:	00000013          	addi	zero,zero,0
    18ea:	00000013          	addi	zero,zero,0
    18ee:	00000013          	addi	zero,zero,0
    18f2:	00000013          	addi	zero,zero,0
    18f6:	00000013          	addi	zero,zero,0
    18fa:	00000013          	addi	zero,zero,0
    18fe:	00000013          	addi	zero,zero,0
    1902:	00000013          	addi	zero,zero,0
    1906:	00000013          	addi	zero,zero,0
    190a:	00000013          	addi	zero,zero,0
    190e:	00000013          	addi	zero,zero,0
    1912:	00000013          	addi	zero,zero,0
    1916:	00000013          	addi	zero,zero,0
    191a:	00000013          	addi	zero,zero,0
    191e:	00000013          	addi	zero,zero,0
    1922:	00000013          	addi	zero,zero,0
    1926:	00000013          	addi	zero,zero,0
    192a:	00000013          	addi	zero,zero,0
    192e:	00000013          	addi	zero,zero,0
    1932:	00000013          	addi	zero,zero,0
    1936:	00000013          	addi	zero,zero,0
    193a:	00000013          	addi	zero,zero,0
    193e:	00000013          	addi	zero,zero,0
    1942:	00000013          	addi	zero,zero,0
    1946:	00000013          	addi	zero,zero,0
    194a:	00000013          	addi	zero,zero,0
    194e:	00000013          	addi	zero,zero,0
    1952:	00000013          	addi	zero,zero,0
    1956:	00000013          	addi	zero,zero,0
    195a:	00000013          	addi	zero,zero,0
    195e:	00000013          	addi	zero,zero,0
    1962:	00000013          	addi	zero,zero,0
    1966:	00000013          	addi	zero,zero,0
    196a:	00000013          	addi	zero,zero,0
    196e:	00000013          	addi	zero,zero,0
    1972:	00000013          	addi	zero,zero,0
    1976:	00000013          	addi	zero,zero,0
    197a:	00000013          	addi	zero,zero,0
    197e:	00000013          	addi	zero,zero,0
    1982:	00000013          	addi	zero,zero,0
    1986:	00000013          	addi	zero,zero,0
    198a:	00000013          	addi	zero,zero,0
    198e:	00000013          	addi	zero,zero,0
    1992:	00000013          	addi	zero,zero,0
    1996:	00000013          	addi	zero,zero,0
    199a:	00000013          	addi	zero,zero,0
    199e:	00000013          	addi	zero,zero,0
    19a2:	00000013          	addi	zero,zero,0
    19a6:	00000013          	addi	zero,zero,0
    19aa:	00000013          	addi	zero,zero,0
    19ae:	00000013          	addi	zero,zero,0
    19b2:	00000013          	addi	zero,zero,0
    19b6:	00000013          	addi	zero,zero,0
    19ba:	00000013          	addi	zero,zero,0
    19be:	00000013          	addi	zero,zero,0
    19c2:	00000013          	addi	zero,zero,0
    19c6:	00000013          	addi	zero,zero,0
    19ca:	00000013          	addi	zero,zero,0
    19ce:	00000013          	addi	zero,zero,0
    19d2:	00000013          	addi	zero,zero,0
    19d6:	00000013          	addi	zero,zero,0
    19da:	00000013          	addi	zero,zero,0
    19de:	00000013          	addi	zero,zero,0
    19e2:	00000013          	addi	zero,zero,0
    19e6:	00000013          	addi	zero,zero,0
    19ea:	00000013          	addi	zero,zero,0
    19ee:	00000013          	addi	zero,zero,0
    19f2:	00000013          	addi	zero,zero,0
    19f6:	00000013          	addi	zero,zero,0
    19fa:	00000013          	addi	zero,zero,0
    19fe:	00000013          	addi	zero,zero,0
    1a02:	00000013          	addi	zero,zero,0
    1a06:	00000013          	addi	zero,zero,0
    1a0a:	00000013          	addi	zero,zero,0
    1a0e:	00000013          	addi	zero,zero,0
    1a12:	00000013          	addi	zero,zero,0
    1a16:	00000013          	addi	zero,zero,0
    1a1a:	00000013          	addi	zero,zero,0
    1a1e:	00000013          	addi	zero,zero,0
    1a22:	00000013          	addi	zero,zero,0
    1a26:	00000013          	addi	zero,zero,0
    1a2a:	00000013          	addi	zero,zero,0
    1a2e:	00000013          	addi	zero,zero,0
    1a32:	00000013          	addi	zero,zero,0
    1a36:	00000013          	addi	zero,zero,0
    1a3a:	00000013          	addi	zero,zero,0
    1a3e:	00000013          	addi	zero,zero,0
    1a42:	00000013          	addi	zero,zero,0
    1a46:	00000013          	addi	zero,zero,0
    1a4a:	00000013          	addi	zero,zero,0
    1a4e:	00000013          	addi	zero,zero,0
    1a52:	00000013          	addi	zero,zero,0
    1a56:	00000013          	addi	zero,zero,0
    1a5a:	00000013          	addi	zero,zero,0
    1a5e:	00000013          	addi	zero,zero,0
    1a62:	00000013          	addi	zero,zero,0
    1a66:	00000013          	addi	zero,zero,0
    1a6a:	00000013          	addi	zero,zero,0
    1a6e:	00000013          	addi	zero,zero,0
    1a72:	00000013          	addi	zero,zero,0
    1a76:	00000013          	addi	zero,zero,0
    1a7a:	00000013          	addi	zero,zero,0
    1a7e:	00000013          	addi	zero,zero,0
    1a82:	00000013          	addi	zero,zero,0
    1a86:	00000013          	addi	zero,zero,0
    1a8a:	00000013          	addi	zero,zero,0
    1a8e:	00000013          	addi	zero,zero,0
    1a92:	00000013          	addi	zero,zero,0
    1a96:	00000013          	addi	zero,zero,0
    1a9a:	00000013          	addi	zero,zero,0
    1a9e:	00000013          	addi	zero,zero,0
    1aa2:	00000013          	addi	zero,zero,0
    1aa6:	00000013          	addi	zero,zero,0
    1aaa:	00000013          	addi	zero,zero,0
    1aae:	00000013          	addi	zero,zero,0
    1ab2:	00000013          	addi	zero,zero,0
    1ab6:	00000013          	addi	zero,zero,0
    1aba:	00000013          	addi	zero,zero,0
    1abe:	00000013          	addi	zero,zero,0
    1ac2:	00000013          	addi	zero,zero,0
    1ac6:	00000013          	addi	zero,zero,0
    1aca:	00000013          	addi	zero,zero,0
    1ace:	00000013          	addi	zero,zero,0
    1ad2:	00000013          	addi	zero,zero,0
    1ad6:	00000013          	addi	zero,zero,0
    1ada:	00000013          	addi	zero,zero,0
    1ade:	00000013          	addi	zero,zero,0
    1ae2:	00000013          	addi	zero,zero,0
    1ae6:	00000013          	addi	zero,zero,0
    1aea:	00000013          	addi	zero,zero,0
    1aee:	00000013          	addi	zero,zero,0
    1af2:	00000013          	addi	zero,zero,0
    1af6:	00000013          	addi	zero,zero,0
    1afa:	00000013          	addi	zero,zero,0
    1afe:	00000013          	addi	zero,zero,0
    1b02:	00000013          	addi	zero,zero,0
    1b06:	00000013          	addi	zero,zero,0
    1b0a:	00000013          	addi	zero,zero,0
    1b0e:	00000013          	addi	zero,zero,0
    1b12:	00000013          	addi	zero,zero,0
    1b16:	00000013          	addi	zero,zero,0
    1b1a:	00000013          	addi	zero,zero,0
    1b1e:	00000013          	addi	zero,zero,0
    1b22:	00000013          	addi	zero,zero,0
    1b26:	00000013          	addi	zero,zero,0
    1b2a:	00000013          	addi	zero,zero,0
    1b2e:	00000013          	addi	zero,zero,0
    1b32:	00000013          	addi	zero,zero,0
    1b36:	00000013          	addi	zero,zero,0
    1b3a:	00000013          	addi	zero,zero,0
    1b3e:	00000013          	addi	zero,zero,0
    1b42:	00000013          	addi	zero,zero,0
    1b46:	00000013          	addi	zero,zero,0
    1b4a:	00000013          	addi	zero,zero,0
    1b4e:	00000013          	addi	zero,zero,0
    1b52:	00000013          	addi	zero,zero,0
    1b56:	00000013          	addi	zero,zero,0
    1b5a:	00000013          	addi	zero,zero,0
    1b5e:	00000013          	addi	zero,zero,0
    1b62:	00000013          	addi	zero,zero,0
    1b66:	00000013          	addi	zero,zero,0
    1b6a:	00000013          	addi	zero,zero,0
    1b6e:	00000013          	addi	zero,zero,0
    1b72:	00000013          	addi	zero,zero,0
    1b76:	00000013          	addi	zero,zero,0
    1b7a:	00000013          	addi	zero,zero,0
    1b7e:	00000013          	addi	zero,zero,0
    1b82:	00000013          	addi	zero,zero,0
    1b86:	00000013          	addi	zero,zero,0
    1b8a:	00000013          	addi	zero,zero,0
    1b8e:	00000013          	addi	zero,zero,0
    1b92:	00000013          	addi	zero,zero,0
    1b96:	00000013          	addi	zero,zero,0
    1b9a:	00000013          	addi	zero,zero,0
    1b9e:	00000013          	addi	zero,zero,0
    1ba2:	00000013          	addi	zero,zero,0
    1ba6:	00000013          	addi	zero,zero,0
    1baa:	00000013          	addi	zero,zero,0
    1bae:	00000013          	addi	zero,zero,0
    1bb2:	00000013          	addi	zero,zero,0
    1bb6:	00000013          	addi	zero,zero,0
    1bba:	00000013          	addi	zero,zero,0
    1bbe:	00000013          	addi	zero,zero,0
    1bc2:	00000013          	addi	zero,zero,0
    1bc6:	00000013          	addi	zero,zero,0
    1bca:	00000013          	addi	zero,zero,0
    1bce:	00000013          	addi	zero,zero,0
    1bd2:	00000013          	addi	zero,zero,0
    1bd6:	00000013          	addi	zero,zero,0
    1bda:	00000013          	addi	zero,zero,0
    1bde:	00000013          	addi	zero,zero,0
    1be2:	00000013          	addi	zero,zero,0
    1be6:	00000013          	addi	zero,zero,0
    1bea:	00000013          	addi	zero,zero,0
    1bee:	00000013          	addi	zero,zero,0
    1bf2:	00000013          	addi	zero,zero,0
    1bf6:	00000013          	addi	zero,zero,0
    1bfa:	00000013          	addi	zero,zero,0
    1bfe:	00000013          	addi	zero,zero,0
    1c02:	00000013          	addi	zero,zero,0
    1c06:	00000013          	addi	zero,zero,0
    1c0a:	00000013          	addi	zero,zero,0
    1c0e:	00000013          	addi	zero,zero,0
    1c12:	00000013          	addi	zero,zero,0
    1c16:	00000013          	addi	zero,zero,0
    1c1a:	00000013          	addi	zero,zero,0
    1c1e:	00000013          	addi	zero,zero,0
    1c22:	00000013          	addi	zero,zero,0
    1c26:	00000013          	addi	zero,zero,0
    1c2a:	00000013          	addi	zero,zero,0
    1c2e:	00000013          	addi	zero,zero,0
    1c32:	00000013          	addi	zero,zero,0
    1c36:	00000013          	addi	zero,zero,0
    1c3a:	00000013          	addi	zero,zero,0
    1c3e:	00000013          	addi	zero,zero,0
    1c42:	00000013          	addi	zero,zero,0
    1c46:	00000013          	addi	zero,zero,0
    1c4a:	00000013          	addi	zero,zero,0
    1c4e:	00000013          	addi	zero,zero,0
    1c52:	00000013          	addi	zero,zero,0
    1c56:	00000013          	addi	zero,zero,0
    1c5a:	00000013          	addi	zero,zero,0
    1c5e:	00000013          	addi	zero,zero,0
    1c62:	00000013          	addi	zero,zero,0
    1c66:	00000013          	addi	zero,zero,0
    1c6a:	00000013          	addi	zero,zero,0
    1c6e:	00000013          	addi	zero,zero,0
    1c72:	00000013          	addi	zero,zero,0
    1c76:	00000013          	addi	zero,zero,0
    1c7a:	00000013          	addi	zero,zero,0
    1c7e:	00000013          	addi	zero,zero,0
    1c82:	00000013          	addi	zero,zero,0
    1c86:	00000013          	addi	zero,zero,0
    1c8a:	00000013          	addi	zero,zero,0
    1c8e:	00000013          	addi	zero,zero,0
    1c92:	00000013          	addi	zero,zero,0
    1c96:	00000013          	addi	zero,zero,0
    1c9a:	00000013          	addi	zero,zero,0
    1c9e:	00000013          	addi	zero,zero,0
    1ca2:	00000013          	addi	zero,zero,0
    1ca6:	00000013          	addi	zero,zero,0
    1caa:	00000013          	addi	zero,zero,0
    1cae:	00000013          	addi	zero,zero,0
    1cb2:	00000013          	addi	zero,zero,0
    1cb6:	00000013          	addi	zero,zero,0
    1cba:	00000013          	addi	zero,zero,0
    1cbe:	00000013          	addi	zero,zero,0
    1cc2:	00000013          	addi	zero,zero,0
    1cc6:	00000013          	addi	zero,zero,0
    1cca:	00000013          	addi	zero,zero,0
    1cce:	00000013          	addi	zero,zero,0
    1cd2:	00000013          	addi	zero,zero,0
    1cd6:	00000013          	addi	zero,zero,0
    1cda:	00000013          	addi	zero,zero,0
    1cde:	00000013          	addi	zero,zero,0
    1ce2:	00000013          	addi	zero,zero,0
    1ce6:	00000013          	addi	zero,zero,0
    1cea:	00000013          	addi	zero,zero,0
    1cee:	00000013          	addi	zero,zero,0
    1cf2:	00000013          	addi	zero,zero,0
    1cf6:	00000013          	addi	zero,zero,0
    1cfa:	00000013          	addi	zero,zero,0
    1cfe:	00000013          	addi	zero,zero,0
    1d02:	00000013          	addi	zero,zero,0
    1d06:	00000013          	addi	zero,zero,0
    1d0a:	00000013          	addi	zero,zero,0
    1d0e:	00000013          	addi	zero,zero,0
    1d12:	00000013          	addi	zero,zero,0
    1d16:	00000013          	addi	zero,zero,0
    1d1a:	00000013          	addi	zero,zero,0
    1d1e:	00000013          	addi	zero,zero,0
    1d22:	00000013          	addi	zero,zero,0
    1d26:	00000013          	addi	zero,zero,0
    1d2a:	00000013          	addi	zero,zero,0
    1d2e:	00000013          	addi	zero,zero,0
    1d32:	00000013          	addi	zero,zero,0
    1d36:	00000013          	addi	zero,zero,0
    1d3a:	00000013          	addi	zero,zero,0
    1d3e:	00000013          	addi	zero,zero,0
    1d42:	00000013          	addi	zero,zero,0
    1d46:	00000013          	addi	zero,zero,0
    1d4a:	00000013          	addi	zero,zero,0
    1d4e:	00000013          	addi	zero,zero,0
    1d52:	00000013          	addi	zero,zero,0
    1d56:	00000013          	addi	zero,zero,0
    1d5a:	00000013          	addi	zero,zero,0
    1d5e:	00000013          	addi	zero,zero,0
    1d62:	00000013          	addi	zero,zero,0
    1d66:	00000013          	addi	zero,zero,0
    1d6a:	00000013          	addi	zero,zero,0
    1d6e:	00000013          	addi	zero,zero,0
    1d72:	00000013          	addi	zero,zero,0
    1d76:	00000013          	addi	zero,zero,0
    1d7a:	00000013          	addi	zero,zero,0
    1d7e:	00000013          	addi	zero,zero,0
    1d82:	00000013          	addi	zero,zero,0
    1d86:	00000013          	addi	zero,zero,0
    1d8a:	00000013          	addi	zero,zero,0
    1d8e:	00000013          	addi	zero,zero,0
    1d92:	00000013          	addi	zero,zero,0
    1d96:	00000013          	addi	zero,zero,0
    1d9a:	00000013          	addi	zero,zero,0
    1d9e:	00000013          	addi	zero,zero,0
    1da2:	00000013          	addi	zero,zero,0
    1da6:	00000013          	addi	zero,zero,0
    1daa:	00000013          	addi	zero,zero,0
    1dae:	00000013          	addi	zero,zero,0
    1db2:	00000013          	addi	zero,zero,0
    1db6:	00000013          	addi	zero,zero,0
    1dba:	00000013          	addi	zero,zero,0
    1dbe:	00000013          	addi	zero,zero,0
    1dc2:	00000013          	addi	zero,zero,0
    1dc6:	00000013          	addi	zero,zero,0
    1dca:	00000013          	addi	zero,zero,0
    1dce:	00000013          	addi	zero,zero,0
    1dd2:	00000013          	addi	zero,zero,0
    1dd6:	00000013          	addi	zero,zero,0
    1dda:	00000013          	addi	zero,zero,0
    1dde:	00000013          	addi	zero,zero,0
    1de2:	00000013          	addi	zero,zero,0
    1de6:	00000013          	addi	zero,zero,0
    1dea:	00000013          	addi	zero,zero,0
    1dee:	00000013          	addi	zero,zero,0
    1df2:	00000013          	addi	zero,zero,0
    1df6:	00000013          	addi	zero,zero,0
    1dfa:	00000013          	addi	zero,zero,0
    1dfe:	00000013          	addi	zero,zero,0
    1e02:	00000013          	addi	zero,zero,0
    1e06:	00000013          	addi	zero,zero,0
    1e0a:	00000013          	addi	zero,zero,0
    1e0e:	00000013          	addi	zero,zero,0
    1e12:	00000013          	addi	zero,zero,0
    1e16:	00000013          	addi	zero,zero,0
    1e1a:	00000013          	addi	zero,zero,0
    1e1e:	00000013          	addi	zero,zero,0
    1e22:	00000013          	addi	zero,zero,0
    1e26:	00000013          	addi	zero,zero,0
    1e2a:	00000013          	addi	zero,zero,0
    1e2e:	00000013          	addi	zero,zero,0
    1e32:	00000013          	addi	zero,zero,0
    1e36:	00000013          	addi	zero,zero,0
    1e3a:	00000013          	addi	zero,zero,0
    1e3e:	00000013          	addi	zero,zero,0
    1e42:	00000013          	addi	zero,zero,0
    1e46:	00000013          	addi	zero,zero,0
    1e4a:	00000013          	addi	zero,zero,0
    1e4e:	00000013          	addi	zero,zero,0
    1e52:	00000013          	addi	zero,zero,0
    1e56:	00000013          	addi	zero,zero,0
    1e5a:	00000013          	addi	zero,zero,0
    1e5e:	00000013          	addi	zero,zero,0
    1e62:	00000013          	addi	zero,zero,0
    1e66:	00000013          	addi	zero,zero,0
    1e6a:	00000013          	addi	zero,zero,0
    1e6e:	00000013          	addi	zero,zero,0
    1e72:	00000013          	addi	zero,zero,0
    1e76:	00000013          	addi	zero,zero,0
    1e7a:	00000013          	addi	zero,zero,0
    1e7e:	00000013          	addi	zero,zero,0
    1e82:	00000013          	addi	zero,zero,0
    1e86:	00000013          	addi	zero,zero,0
    1e8a:	00000013          	addi	zero,zero,0
    1e8e:	00000013          	addi	zero,zero,0
    1e92:	00000013          	addi	zero,zero,0
    1e96:	00000013          	addi	zero,zero,0
    1e9a:	00000013          	addi	zero,zero,0
    1e9e:	00000013          	addi	zero,zero,0
    1ea2:	00000013          	addi	zero,zero,0
    1ea6:	00000013          	addi	zero,zero,0
    1eaa:	00000013          	addi	zero,zero,0
    1eae:	00000013          	addi	zero,zero,0
    1eb2:	00000013          	addi	zero,zero,0
    1eb6:	00000013          	addi	zero,zero,0
    1eba:	00000013          	addi	zero,zero,0
    1ebe:	00000013          	addi	zero,zero,0
    1ec2:	00000013          	addi	zero,zero,0
    1ec6:	00000013          	addi	zero,zero,0
    1eca:	00000013          	addi	zero,zero,0
    1ece:	00000013          	addi	zero,zero,0
    1ed2:	00000013          	addi	zero,zero,0
    1ed6:	00000013          	addi	zero,zero,0
    1eda:	00000013          	addi	zero,zero,0
    1ede:	00000013          	addi	zero,zero,0
    1ee2:	00000013          	addi	zero,zero,0
    1ee6:	00000013          	addi	zero,zero,0
    1eea:	00000013          	addi	zero,zero,0
    1eee:	00000013          	addi	zero,zero,0
    1ef2:	00000013          	addi	zero,zero,0
    1ef6:	00000013          	addi	zero,zero,0
    1efa:	00000013          	addi	zero,zero,0
    1efe:	00000013          	addi	zero,zero,0
    1f02:	00000013          	addi	zero,zero,0
    1f06:	00000013          	addi	zero,zero,0
    1f0a:	00000013          	addi	zero,zero,0
    1f0e:	00000013          	addi	zero,zero,0
    1f12:	00000013          	addi	zero,zero,0
    1f16:	00000013          	addi	zero,zero,0
    1f1a:	00000013          	addi	zero,zero,0
    1f1e:	00000013          	addi	zero,zero,0
    1f22:	00000013          	addi	zero,zero,0
    1f26:	00000013          	addi	zero,zero,0
    1f2a:	00000013          	addi	zero,zero,0
    1f2e:	00000013          	addi	zero,zero,0
    1f32:	00000013          	addi	zero,zero,0
    1f36:	00000013          	addi	zero,zero,0
    1f3a:	00000013          	addi	zero,zero,0
    1f3e:	00000013          	addi	zero,zero,0
    1f42:	00000013          	addi	zero,zero,0
    1f46:	00000013          	addi	zero,zero,0
    1f4a:	00000013          	addi	zero,zero,0
    1f4e:	00000013          	addi	zero,zero,0
    1f52:	00000013          	addi	zero,zero,0
    1f56:	00000013          	addi	zero,zero,0
    1f5a:	00000013          	addi	zero,zero,0
    1f5e:	00000013          	addi	zero,zero,0
    1f62:	00000013          	addi	zero,zero,0
    1f66:	00000013          	addi	zero,zero,0
    1f6a:	00000013          	addi	zero,zero,0
    1f6e:	00000013          	addi	zero,zero,0
    1f72:	00000013          	addi	zero,zero,0
    1f76:	00000013          	addi	zero,zero,0
    1f7a:	00000013          	addi	zero,zero,0
    1f7e:	00000013          	addi	zero,zero,0
    1f82:	00000013          	addi	zero,zero,0
    1f86:	00000013          	addi	zero,zero,0
    1f8a:	00000013          	addi	zero,zero,0
    1f8e:	00000013          	addi	zero,zero,0
    1f92:	00000013          	addi	zero,zero,0
    1f96:	00000013          	addi	zero,zero,0
    1f9a:	00000013          	addi	zero,zero,0
    1f9e:	00000013          	addi	zero,zero,0
    1fa2:	00000013          	addi	zero,zero,0
    1fa6:	00000013          	addi	zero,zero,0
    1faa:	00000013          	addi	zero,zero,0
    1fae:	00000013          	addi	zero,zero,0
    1fb2:	00000013          	addi	zero,zero,0
    1fb6:	00000013          	addi	zero,zero,0
    1fba:	00000013          	addi	zero,zero,0
    1fbe:	00000013          	addi	zero,zero,0
    1fc2:	00000013          	addi	zero,zero,0
    1fc6:	00000013          	addi	zero,zero,0
    1fca:	00000013          	addi	zero,zero,0
    1fce:	00000013          	addi	zero,zero,0
    1fd2:	00000013          	addi	zero,zero,0
    1fd6:	00000013          	addi	zero,zero,0
    1fda:	00000013          	addi	zero,zero,0
    1fde:	00000013          	addi	zero,zero,0
    1fe2:	00000013          	addi	zero,zero,0
    1fe6:	00000013          	addi	zero,zero,0
    1fea:	00000013          	addi	zero,zero,0
    1fee:	00000013          	addi	zero,zero,0
    1ff2:	00000013          	addi	zero,zero,0
    1ff6:	00000013          	addi	zero,zero,0
    1ffa:	00000013          	addi	zero,zero,0
    1ffe:	0001                	c.addi	zero,0

00002000 <_trap_entry_vclic>:
    2000:	1000                	c.addi4spn	s0,sp,32
    2002:	0000                	c.unimp
    2004:	1000                	c.addi4spn	s0,sp,32
    2006:	0000                	c.unimp
    2008:	1000                	c.addi4spn	s0,sp,32
    200a:	0000                	c.unimp
    200c:	1000                	c.addi4spn	s0,sp,32
    200e:	0000                	c.unimp
    2010:	1000                	c.addi4spn	s0,sp,32
    2012:	0000                	c.unimp
    2014:	1000                	c.addi4spn	s0,sp,32
    2016:	0000                	c.unimp
    2018:	1000                	c.addi4spn	s0,sp,32
    201a:	0000                	c.unimp
    201c:	1000                	c.addi4spn	s0,sp,32
    201e:	0000                	c.unimp
    2020:	1000                	c.addi4spn	s0,sp,32
    2022:	0000                	c.unimp
    2024:	1000                	c.addi4spn	s0,sp,32
    2026:	0000                	c.unimp
    2028:	1000                	c.addi4spn	s0,sp,32
    202a:	0000                	c.unimp
    202c:	1000                	c.addi4spn	s0,sp,32
    202e:	0000                	c.unimp
    2030:	1000                	c.addi4spn	s0,sp,32
    2032:	0000                	c.unimp
    2034:	1000                	c.addi4spn	s0,sp,32
    2036:	0000                	c.unimp
    2038:	1000                	c.addi4spn	s0,sp,32
    203a:	0000                	c.unimp
    203c:	1000                	c.addi4spn	s0,sp,32
    203e:	0000                	c.unimp
    2040:	1000                	c.addi4spn	s0,sp,32
    2042:	0000                	c.unimp
    2044:	1000                	c.addi4spn	s0,sp,32
    2046:	0000                	c.unimp
    2048:	1000                	c.addi4spn	s0,sp,32
    204a:	0000                	c.unimp
    204c:	10f8                	c.addi4spn	a4,sp,108
    204e:	0000                	c.unimp
    2050:	10f8                	c.addi4spn	a4,sp,108
    2052:	0000                	c.unimp
    2054:	10f8                	c.addi4spn	a4,sp,108
    2056:	0000                	c.unimp
    2058:	10f8                	c.addi4spn	a4,sp,108
    205a:	0000                	c.unimp
    205c:	10f8                	c.addi4spn	a4,sp,108
    205e:	0000                	c.unimp
    2060:	10f8                	c.addi4spn	a4,sp,108
    2062:	0000                	c.unimp
    2064:	10f8                	c.addi4spn	a4,sp,108
    2066:	0000                	c.unimp
    2068:	10f8                	c.addi4spn	a4,sp,108
    206a:	0000                	c.unimp
    206c:	10f8                	c.addi4spn	a4,sp,108
    206e:	0000                	c.unimp
    2070:	10f8                	c.addi4spn	a4,sp,108
    2072:	0000                	c.unimp
    2074:	10f8                	c.addi4spn	a4,sp,108
    2076:	0000                	c.unimp
    2078:	10f8                	c.addi4spn	a4,sp,108
    207a:	0000                	c.unimp
    207c:	10f8                	c.addi4spn	a4,sp,108
    207e:	0000                	c.unimp
    2080:	10f8                	c.addi4spn	a4,sp,108
    2082:	0000                	c.unimp
    2084:	10f8                	c.addi4spn	a4,sp,108
    2086:	0000                	c.unimp
    2088:	10f8                	c.addi4spn	a4,sp,108
    208a:	0000                	c.unimp
    208c:	10f8                	c.addi4spn	a4,sp,108
    208e:	0000                	c.unimp
    2090:	10f8                	c.addi4spn	a4,sp,108
    2092:	0000                	c.unimp
    2094:	10f8                	c.addi4spn	a4,sp,108
    2096:	0000                	c.unimp
    2098:	10f8                	c.addi4spn	a4,sp,108
    209a:	0000                	c.unimp
    209c:	10f8                	c.addi4spn	a4,sp,108
    209e:	0000                	c.unimp
    20a0:	10f8                	c.addi4spn	a4,sp,108
    20a2:	0000                	c.unimp
    20a4:	10f8                	c.addi4spn	a4,sp,108
    20a6:	0000                	c.unimp
    20a8:	10f8                	c.addi4spn	a4,sp,108
    20aa:	0000                	c.unimp
    20ac:	10f8                	c.addi4spn	a4,sp,108
    20ae:	0000                	c.unimp
    20b0:	10f8                	c.addi4spn	a4,sp,108
    20b2:	0000                	c.unimp
    20b4:	10f8                	c.addi4spn	a4,sp,108
    20b6:	0000                	c.unimp
    20b8:	10f8                	c.addi4spn	a4,sp,108
    20ba:	0000                	c.unimp
    20bc:	10f8                	c.addi4spn	a4,sp,108
    20be:	0000                	c.unimp
    20c0:	10f8                	c.addi4spn	a4,sp,108
    20c2:	0000                	c.unimp
    20c4:	10f8                	c.addi4spn	a4,sp,108
    20c6:	0000                	c.unimp
    20c8:	0001                	c.addi	zero,0
    20ca:	00000013          	addi	zero,zero,0
    20ce:	00000013          	addi	zero,zero,0
    20d2:	00000013          	addi	zero,zero,0
    20d6:	00000013          	addi	zero,zero,0
    20da:	00000013          	addi	zero,zero,0
    20de:	00000013          	addi	zero,zero,0
    20e2:	00000013          	addi	zero,zero,0
    20e6:	00000013          	addi	zero,zero,0
    20ea:	00000013          	addi	zero,zero,0
    20ee:	00000013          	addi	zero,zero,0
    20f2:	00000013          	addi	zero,zero,0
    20f6:	00000013          	addi	zero,zero,0
    20fa:	00000013          	addi	zero,zero,0
    20fe:	00000013          	addi	zero,zero,0
    2102:	00000013          	addi	zero,zero,0
    2106:	00000013          	addi	zero,zero,0
    210a:	00000013          	addi	zero,zero,0
    210e:	00000013          	addi	zero,zero,0
    2112:	00000013          	addi	zero,zero,0
    2116:	00000013          	addi	zero,zero,0
    211a:	00000013          	addi	zero,zero,0
    211e:	00000013          	addi	zero,zero,0
    2122:	00000013          	addi	zero,zero,0
    2126:	00000013          	addi	zero,zero,0
    212a:	00000013          	addi	zero,zero,0
    212e:	00000013          	addi	zero,zero,0
    2132:	00000013          	addi	zero,zero,0
    2136:	00000013          	addi	zero,zero,0
    213a:	00000013          	addi	zero,zero,0
    213e:	00000013          	addi	zero,zero,0
    2142:	00000013          	addi	zero,zero,0
    2146:	00000013          	addi	zero,zero,0
    214a:	00000013          	addi	zero,zero,0
    214e:	00000013          	addi	zero,zero,0
    2152:	00000013          	addi	zero,zero,0
    2156:	00000013          	addi	zero,zero,0
    215a:	00000013          	addi	zero,zero,0
    215e:	00000013          	addi	zero,zero,0
    2162:	00000013          	addi	zero,zero,0
    2166:	00000013          	addi	zero,zero,0
    216a:	00000013          	addi	zero,zero,0
    216e:	00000013          	addi	zero,zero,0
    2172:	00000013          	addi	zero,zero,0
    2176:	00000013          	addi	zero,zero,0
    217a:	00000013          	addi	zero,zero,0
    217e:	00000013          	addi	zero,zero,0
    2182:	00000013          	addi	zero,zero,0
    2186:	00000013          	addi	zero,zero,0
    218a:	00000013          	addi	zero,zero,0
    218e:	00000013          	addi	zero,zero,0
    2192:	00000013          	addi	zero,zero,0
    2196:	00000013          	addi	zero,zero,0
    219a:	00000013          	addi	zero,zero,0
    219e:	00000013          	addi	zero,zero,0
    21a2:	00000013          	addi	zero,zero,0
    21a6:	00000013          	addi	zero,zero,0
    21aa:	00000013          	addi	zero,zero,0
    21ae:	00000013          	addi	zero,zero,0
    21b2:	00000013          	addi	zero,zero,0
    21b6:	00000013          	addi	zero,zero,0
    21ba:	00000013          	addi	zero,zero,0
    21be:	00000013          	addi	zero,zero,0
    21c2:	00000013          	addi	zero,zero,0
    21c6:	00000013          	addi	zero,zero,0
    21ca:	00000013          	addi	zero,zero,0
    21ce:	00000013          	addi	zero,zero,0
    21d2:	00000013          	addi	zero,zero,0
    21d6:	00000013          	addi	zero,zero,0
    21da:	00000013          	addi	zero,zero,0
    21de:	00000013          	addi	zero,zero,0
    21e2:	00000013          	addi	zero,zero,0
    21e6:	00000013          	addi	zero,zero,0
    21ea:	00000013          	addi	zero,zero,0
    21ee:	00000013          	addi	zero,zero,0
    21f2:	00000013          	addi	zero,zero,0
    21f6:	00000013          	addi	zero,zero,0
    21fa:	00000013          	addi	zero,zero,0
    21fe:	00000013          	addi	zero,zero,0
    2202:	00000013          	addi	zero,zero,0
    2206:	00000013          	addi	zero,zero,0
    220a:	00000013          	addi	zero,zero,0
    220e:	00000013          	addi	zero,zero,0
    2212:	00000013          	addi	zero,zero,0
    2216:	00000013          	addi	zero,zero,0
    221a:	00000013          	addi	zero,zero,0
    221e:	00000013          	addi	zero,zero,0
    2222:	00000013          	addi	zero,zero,0
    2226:	00000013          	addi	zero,zero,0
    222a:	00000013          	addi	zero,zero,0
    222e:	00000013          	addi	zero,zero,0
    2232:	00000013          	addi	zero,zero,0
    2236:	00000013          	addi	zero,zero,0
    223a:	00000013          	addi	zero,zero,0
    223e:	00000013          	addi	zero,zero,0
    2242:	00000013          	addi	zero,zero,0
    2246:	00000013          	addi	zero,zero,0
    224a:	00000013          	addi	zero,zero,0
    224e:	00000013          	addi	zero,zero,0
    2252:	00000013          	addi	zero,zero,0
    2256:	00000013          	addi	zero,zero,0
    225a:	00000013          	addi	zero,zero,0
    225e:	00000013          	addi	zero,zero,0
    2262:	00000013          	addi	zero,zero,0
    2266:	00000013          	addi	zero,zero,0
    226a:	00000013          	addi	zero,zero,0
    226e:	00000013          	addi	zero,zero,0
    2272:	00000013          	addi	zero,zero,0
    2276:	00000013          	addi	zero,zero,0
    227a:	00000013          	addi	zero,zero,0
    227e:	00000013          	addi	zero,zero,0
    2282:	00000013          	addi	zero,zero,0
    2286:	00000013          	addi	zero,zero,0
    228a:	00000013          	addi	zero,zero,0
    228e:	00000013          	addi	zero,zero,0
    2292:	00000013          	addi	zero,zero,0
    2296:	00000013          	addi	zero,zero,0
    229a:	00000013          	addi	zero,zero,0
    229e:	00000013          	addi	zero,zero,0
    22a2:	00000013          	addi	zero,zero,0
    22a6:	00000013          	addi	zero,zero,0
    22aa:	00000013          	addi	zero,zero,0
    22ae:	00000013          	addi	zero,zero,0
    22b2:	00000013          	addi	zero,zero,0
    22b6:	00000013          	addi	zero,zero,0
    22ba:	00000013          	addi	zero,zero,0
    22be:	00000013          	addi	zero,zero,0
    22c2:	00000013          	addi	zero,zero,0
    22c6:	00000013          	addi	zero,zero,0
    22ca:	00000013          	addi	zero,zero,0
    22ce:	00000013          	addi	zero,zero,0
    22d2:	00000013          	addi	zero,zero,0
    22d6:	00000013          	addi	zero,zero,0
    22da:	00000013          	addi	zero,zero,0
    22de:	00000013          	addi	zero,zero,0
    22e2:	00000013          	addi	zero,zero,0
    22e6:	00000013          	addi	zero,zero,0
    22ea:	00000013          	addi	zero,zero,0
    22ee:	00000013          	addi	zero,zero,0
    22f2:	00000013          	addi	zero,zero,0
    22f6:	00000013          	addi	zero,zero,0
    22fa:	00000013          	addi	zero,zero,0
    22fe:	00000013          	addi	zero,zero,0
    2302:	00000013          	addi	zero,zero,0
    2306:	00000013          	addi	zero,zero,0
    230a:	00000013          	addi	zero,zero,0
    230e:	00000013          	addi	zero,zero,0
    2312:	00000013          	addi	zero,zero,0
    2316:	00000013          	addi	zero,zero,0
    231a:	00000013          	addi	zero,zero,0
    231e:	00000013          	addi	zero,zero,0
    2322:	00000013          	addi	zero,zero,0
    2326:	00000013          	addi	zero,zero,0
    232a:	00000013          	addi	zero,zero,0
    232e:	00000013          	addi	zero,zero,0
    2332:	00000013          	addi	zero,zero,0
    2336:	00000013          	addi	zero,zero,0
    233a:	00000013          	addi	zero,zero,0
    233e:	00000013          	addi	zero,zero,0
    2342:	00000013          	addi	zero,zero,0
    2346:	00000013          	addi	zero,zero,0
    234a:	00000013          	addi	zero,zero,0
    234e:	00000013          	addi	zero,zero,0
    2352:	00000013          	addi	zero,zero,0
    2356:	00000013          	addi	zero,zero,0
    235a:	00000013          	addi	zero,zero,0
    235e:	00000013          	addi	zero,zero,0
    2362:	00000013          	addi	zero,zero,0
    2366:	00000013          	addi	zero,zero,0
    236a:	00000013          	addi	zero,zero,0
    236e:	00000013          	addi	zero,zero,0
    2372:	00000013          	addi	zero,zero,0
    2376:	00000013          	addi	zero,zero,0
    237a:	00000013          	addi	zero,zero,0
    237e:	00000013          	addi	zero,zero,0
    2382:	00000013          	addi	zero,zero,0
    2386:	00000013          	addi	zero,zero,0
    238a:	00000013          	addi	zero,zero,0
    238e:	00000013          	addi	zero,zero,0
    2392:	00000013          	addi	zero,zero,0
    2396:	00000013          	addi	zero,zero,0
    239a:	00000013          	addi	zero,zero,0
    239e:	00000013          	addi	zero,zero,0
    23a2:	00000013          	addi	zero,zero,0
    23a6:	00000013          	addi	zero,zero,0
    23aa:	00000013          	addi	zero,zero,0
    23ae:	00000013          	addi	zero,zero,0
    23b2:	00000013          	addi	zero,zero,0
    23b6:	00000013          	addi	zero,zero,0
    23ba:	00000013          	addi	zero,zero,0
    23be:	00000013          	addi	zero,zero,0
    23c2:	00000013          	addi	zero,zero,0
    23c6:	00000013          	addi	zero,zero,0
    23ca:	00000013          	addi	zero,zero,0
    23ce:	00000013          	addi	zero,zero,0
    23d2:	00000013          	addi	zero,zero,0
    23d6:	00000013          	addi	zero,zero,0
    23da:	00000013          	addi	zero,zero,0
    23de:	00000013          	addi	zero,zero,0
    23e2:	00000013          	addi	zero,zero,0
    23e6:	00000013          	addi	zero,zero,0
    23ea:	00000013          	addi	zero,zero,0
    23ee:	00000013          	addi	zero,zero,0
    23f2:	00000013          	addi	zero,zero,0
    23f6:	00000013          	addi	zero,zero,0
    23fa:	00000013          	addi	zero,zero,0
    23fe:	00000013          	addi	zero,zero,0
    2402:	00000013          	addi	zero,zero,0
    2406:	00000013          	addi	zero,zero,0
    240a:	00000013          	addi	zero,zero,0
    240e:	00000013          	addi	zero,zero,0
    2412:	00000013          	addi	zero,zero,0
    2416:	00000013          	addi	zero,zero,0
    241a:	00000013          	addi	zero,zero,0
    241e:	00000013          	addi	zero,zero,0
    2422:	00000013          	addi	zero,zero,0
    2426:	00000013          	addi	zero,zero,0
    242a:	00000013          	addi	zero,zero,0
    242e:	00000013          	addi	zero,zero,0
    2432:	00000013          	addi	zero,zero,0
    2436:	00000013          	addi	zero,zero,0
    243a:	00000013          	addi	zero,zero,0
    243e:	00000013          	addi	zero,zero,0
    2442:	00000013          	addi	zero,zero,0
    2446:	00000013          	addi	zero,zero,0
    244a:	00000013          	addi	zero,zero,0
    244e:	00000013          	addi	zero,zero,0
    2452:	00000013          	addi	zero,zero,0
    2456:	00000013          	addi	zero,zero,0
    245a:	00000013          	addi	zero,zero,0
    245e:	00000013          	addi	zero,zero,0
    2462:	00000013          	addi	zero,zero,0
    2466:	00000013          	addi	zero,zero,0
    246a:	00000013          	addi	zero,zero,0
    246e:	00000013          	addi	zero,zero,0
    2472:	00000013          	addi	zero,zero,0
    2476:	00000013          	addi	zero,zero,0
    247a:	00000013          	addi	zero,zero,0
    247e:	00000013          	addi	zero,zero,0
    2482:	00000013          	addi	zero,zero,0
    2486:	00000013          	addi	zero,zero,0
    248a:	00000013          	addi	zero,zero,0
    248e:	00000013          	addi	zero,zero,0
    2492:	00000013          	addi	zero,zero,0
    2496:	00000013          	addi	zero,zero,0
    249a:	00000013          	addi	zero,zero,0
    249e:	00000013          	addi	zero,zero,0
    24a2:	00000013          	addi	zero,zero,0
    24a6:	00000013          	addi	zero,zero,0
    24aa:	00000013          	addi	zero,zero,0
    24ae:	00000013          	addi	zero,zero,0
    24b2:	00000013          	addi	zero,zero,0
    24b6:	00000013          	addi	zero,zero,0
    24ba:	00000013          	addi	zero,zero,0
    24be:	00000013          	addi	zero,zero,0
    24c2:	00000013          	addi	zero,zero,0
    24c6:	00000013          	addi	zero,zero,0
    24ca:	00000013          	addi	zero,zero,0
    24ce:	00000013          	addi	zero,zero,0
    24d2:	00000013          	addi	zero,zero,0
    24d6:	00000013          	addi	zero,zero,0
    24da:	00000013          	addi	zero,zero,0
    24de:	00000013          	addi	zero,zero,0
    24e2:	00000013          	addi	zero,zero,0
    24e6:	00000013          	addi	zero,zero,0
    24ea:	00000013          	addi	zero,zero,0
    24ee:	00000013          	addi	zero,zero,0
    24f2:	00000013          	addi	zero,zero,0
    24f6:	00000013          	addi	zero,zero,0
    24fa:	00000013          	addi	zero,zero,0
    24fe:	00000013          	addi	zero,zero,0
    2502:	00000013          	addi	zero,zero,0
    2506:	00000013          	addi	zero,zero,0
    250a:	00000013          	addi	zero,zero,0
    250e:	00000013          	addi	zero,zero,0
    2512:	00000013          	addi	zero,zero,0
    2516:	00000013          	addi	zero,zero,0
    251a:	00000013          	addi	zero,zero,0
    251e:	00000013          	addi	zero,zero,0
    2522:	00000013          	addi	zero,zero,0
    2526:	00000013          	addi	zero,zero,0
    252a:	00000013          	addi	zero,zero,0
    252e:	00000013          	addi	zero,zero,0
    2532:	00000013          	addi	zero,zero,0
    2536:	00000013          	addi	zero,zero,0
    253a:	00000013          	addi	zero,zero,0
    253e:	00000013          	addi	zero,zero,0
    2542:	00000013          	addi	zero,zero,0
    2546:	00000013          	addi	zero,zero,0
    254a:	00000013          	addi	zero,zero,0
    254e:	00000013          	addi	zero,zero,0
    2552:	00000013          	addi	zero,zero,0
    2556:	00000013          	addi	zero,zero,0
    255a:	00000013          	addi	zero,zero,0
    255e:	00000013          	addi	zero,zero,0
    2562:	00000013          	addi	zero,zero,0
    2566:	00000013          	addi	zero,zero,0
    256a:	00000013          	addi	zero,zero,0
    256e:	00000013          	addi	zero,zero,0
    2572:	00000013          	addi	zero,zero,0
    2576:	00000013          	addi	zero,zero,0
    257a:	00000013          	addi	zero,zero,0
    257e:	00000013          	addi	zero,zero,0
    2582:	00000013          	addi	zero,zero,0
    2586:	00000013          	addi	zero,zero,0
    258a:	00000013          	addi	zero,zero,0
    258e:	00000013          	addi	zero,zero,0
    2592:	00000013          	addi	zero,zero,0
    2596:	00000013          	addi	zero,zero,0
    259a:	00000013          	addi	zero,zero,0
    259e:	00000013          	addi	zero,zero,0
    25a2:	00000013          	addi	zero,zero,0
    25a6:	00000013          	addi	zero,zero,0
    25aa:	00000013          	addi	zero,zero,0
    25ae:	00000013          	addi	zero,zero,0
    25b2:	00000013          	addi	zero,zero,0
    25b6:	00000013          	addi	zero,zero,0
    25ba:	00000013          	addi	zero,zero,0
    25be:	00000013          	addi	zero,zero,0
    25c2:	00000013          	addi	zero,zero,0
    25c6:	00000013          	addi	zero,zero,0
    25ca:	00000013          	addi	zero,zero,0
    25ce:	00000013          	addi	zero,zero,0
    25d2:	00000013          	addi	zero,zero,0
    25d6:	00000013          	addi	zero,zero,0
    25da:	00000013          	addi	zero,zero,0
    25de:	00000013          	addi	zero,zero,0
    25e2:	00000013          	addi	zero,zero,0
    25e6:	00000013          	addi	zero,zero,0
    25ea:	00000013          	addi	zero,zero,0
    25ee:	00000013          	addi	zero,zero,0
    25f2:	00000013          	addi	zero,zero,0
    25f6:	00000013          	addi	zero,zero,0
    25fa:	00000013          	addi	zero,zero,0
    25fe:	00000013          	addi	zero,zero,0
    2602:	00000013          	addi	zero,zero,0
    2606:	00000013          	addi	zero,zero,0
    260a:	00000013          	addi	zero,zero,0
    260e:	00000013          	addi	zero,zero,0
    2612:	00000013          	addi	zero,zero,0
    2616:	00000013          	addi	zero,zero,0
    261a:	00000013          	addi	zero,zero,0
    261e:	00000013          	addi	zero,zero,0
    2622:	00000013          	addi	zero,zero,0
    2626:	00000013          	addi	zero,zero,0
    262a:	00000013          	addi	zero,zero,0
    262e:	00000013          	addi	zero,zero,0
    2632:	00000013          	addi	zero,zero,0
    2636:	00000013          	addi	zero,zero,0
    263a:	00000013          	addi	zero,zero,0
    263e:	00000013          	addi	zero,zero,0
    2642:	00000013          	addi	zero,zero,0
    2646:	00000013          	addi	zero,zero,0
    264a:	00000013          	addi	zero,zero,0
    264e:	00000013          	addi	zero,zero,0
    2652:	00000013          	addi	zero,zero,0
    2656:	00000013          	addi	zero,zero,0
    265a:	00000013          	addi	zero,zero,0
    265e:	00000013          	addi	zero,zero,0
    2662:	00000013          	addi	zero,zero,0
    2666:	00000013          	addi	zero,zero,0
    266a:	00000013          	addi	zero,zero,0
    266e:	00000013          	addi	zero,zero,0
    2672:	00000013          	addi	zero,zero,0
    2676:	00000013          	addi	zero,zero,0
    267a:	00000013          	addi	zero,zero,0
    267e:	00000013          	addi	zero,zero,0
    2682:	00000013          	addi	zero,zero,0
    2686:	00000013          	addi	zero,zero,0
    268a:	00000013          	addi	zero,zero,0
    268e:	00000013          	addi	zero,zero,0
    2692:	00000013          	addi	zero,zero,0
    2696:	00000013          	addi	zero,zero,0
    269a:	00000013          	addi	zero,zero,0
    269e:	00000013          	addi	zero,zero,0
    26a2:	00000013          	addi	zero,zero,0
    26a6:	00000013          	addi	zero,zero,0
    26aa:	00000013          	addi	zero,zero,0
    26ae:	00000013          	addi	zero,zero,0
    26b2:	00000013          	addi	zero,zero,0
    26b6:	00000013          	addi	zero,zero,0
    26ba:	00000013          	addi	zero,zero,0
    26be:	00000013          	addi	zero,zero,0
    26c2:	00000013          	addi	zero,zero,0
    26c6:	00000013          	addi	zero,zero,0
    26ca:	00000013          	addi	zero,zero,0
    26ce:	00000013          	addi	zero,zero,0
    26d2:	00000013          	addi	zero,zero,0
    26d6:	00000013          	addi	zero,zero,0
    26da:	00000013          	addi	zero,zero,0
    26de:	00000013          	addi	zero,zero,0
    26e2:	00000013          	addi	zero,zero,0
    26e6:	00000013          	addi	zero,zero,0
    26ea:	00000013          	addi	zero,zero,0
    26ee:	00000013          	addi	zero,zero,0
    26f2:	00000013          	addi	zero,zero,0
    26f6:	00000013          	addi	zero,zero,0
    26fa:	00000013          	addi	zero,zero,0
    26fe:	00000013          	addi	zero,zero,0
    2702:	00000013          	addi	zero,zero,0
    2706:	00000013          	addi	zero,zero,0
    270a:	00000013          	addi	zero,zero,0
    270e:	00000013          	addi	zero,zero,0
    2712:	00000013          	addi	zero,zero,0
    2716:	00000013          	addi	zero,zero,0
    271a:	00000013          	addi	zero,zero,0
    271e:	00000013          	addi	zero,zero,0
    2722:	00000013          	addi	zero,zero,0
    2726:	00000013          	addi	zero,zero,0
    272a:	00000013          	addi	zero,zero,0
    272e:	00000013          	addi	zero,zero,0
    2732:	00000013          	addi	zero,zero,0
    2736:	00000013          	addi	zero,zero,0
    273a:	00000013          	addi	zero,zero,0
    273e:	00000013          	addi	zero,zero,0
    2742:	00000013          	addi	zero,zero,0
    2746:	00000013          	addi	zero,zero,0
    274a:	00000013          	addi	zero,zero,0
    274e:	00000013          	addi	zero,zero,0
    2752:	00000013          	addi	zero,zero,0
    2756:	00000013          	addi	zero,zero,0
    275a:	00000013          	addi	zero,zero,0
    275e:	00000013          	addi	zero,zero,0
    2762:	00000013          	addi	zero,zero,0
    2766:	00000013          	addi	zero,zero,0
    276a:	00000013          	addi	zero,zero,0
    276e:	00000013          	addi	zero,zero,0
    2772:	00000013          	addi	zero,zero,0
    2776:	00000013          	addi	zero,zero,0
    277a:	00000013          	addi	zero,zero,0
    277e:	00000013          	addi	zero,zero,0
    2782:	00000013          	addi	zero,zero,0
    2786:	00000013          	addi	zero,zero,0
    278a:	00000013          	addi	zero,zero,0
    278e:	00000013          	addi	zero,zero,0
    2792:	00000013          	addi	zero,zero,0
    2796:	00000013          	addi	zero,zero,0
    279a:	00000013          	addi	zero,zero,0
    279e:	00000013          	addi	zero,zero,0
    27a2:	00000013          	addi	zero,zero,0
    27a6:	00000013          	addi	zero,zero,0
    27aa:	00000013          	addi	zero,zero,0
    27ae:	00000013          	addi	zero,zero,0
    27b2:	00000013          	addi	zero,zero,0
    27b6:	00000013          	addi	zero,zero,0
    27ba:	00000013          	addi	zero,zero,0
    27be:	00000013          	addi	zero,zero,0
    27c2:	00000013          	addi	zero,zero,0
    27c6:	00000013          	addi	zero,zero,0
    27ca:	00000013          	addi	zero,zero,0
    27ce:	00000013          	addi	zero,zero,0
    27d2:	00000013          	addi	zero,zero,0
    27d6:	00000013          	addi	zero,zero,0
    27da:	00000013          	addi	zero,zero,0
    27de:	00000013          	addi	zero,zero,0
    27e2:	00000013          	addi	zero,zero,0
    27e6:	00000013          	addi	zero,zero,0
    27ea:	00000013          	addi	zero,zero,0
    27ee:	00000013          	addi	zero,zero,0
    27f2:	00000013          	addi	zero,zero,0
    27f6:	00000013          	addi	zero,zero,0
    27fa:	00000013          	addi	zero,zero,0
    27fe:	00000013          	addi	zero,zero,0
    2802:	00000013          	addi	zero,zero,0
    2806:	00000013          	addi	zero,zero,0
    280a:	00000013          	addi	zero,zero,0
    280e:	00000013          	addi	zero,zero,0
    2812:	00000013          	addi	zero,zero,0
    2816:	00000013          	addi	zero,zero,0
    281a:	00000013          	addi	zero,zero,0
    281e:	00000013          	addi	zero,zero,0
    2822:	00000013          	addi	zero,zero,0
    2826:	00000013          	addi	zero,zero,0
    282a:	00000013          	addi	zero,zero,0
    282e:	00000013          	addi	zero,zero,0
    2832:	00000013          	addi	zero,zero,0
    2836:	00000013          	addi	zero,zero,0
    283a:	00000013          	addi	zero,zero,0
    283e:	00000013          	addi	zero,zero,0
    2842:	00000013          	addi	zero,zero,0
    2846:	00000013          	addi	zero,zero,0
    284a:	00000013          	addi	zero,zero,0
    284e:	00000013          	addi	zero,zero,0
    2852:	00000013          	addi	zero,zero,0
    2856:	00000013          	addi	zero,zero,0
    285a:	00000013          	addi	zero,zero,0
    285e:	00000013          	addi	zero,zero,0
    2862:	00000013          	addi	zero,zero,0
    2866:	00000013          	addi	zero,zero,0
    286a:	00000013          	addi	zero,zero,0
    286e:	00000013          	addi	zero,zero,0
    2872:	00000013          	addi	zero,zero,0
    2876:	00000013          	addi	zero,zero,0
    287a:	00000013          	addi	zero,zero,0
    287e:	00000013          	addi	zero,zero,0
    2882:	00000013          	addi	zero,zero,0
    2886:	00000013          	addi	zero,zero,0
    288a:	00000013          	addi	zero,zero,0
    288e:	00000013          	addi	zero,zero,0
    2892:	00000013          	addi	zero,zero,0
    2896:	00000013          	addi	zero,zero,0
    289a:	00000013          	addi	zero,zero,0
    289e:	00000013          	addi	zero,zero,0
    28a2:	00000013          	addi	zero,zero,0
    28a6:	00000013          	addi	zero,zero,0
    28aa:	00000013          	addi	zero,zero,0
    28ae:	00000013          	addi	zero,zero,0
    28b2:	00000013          	addi	zero,zero,0
    28b6:	00000013          	addi	zero,zero,0
    28ba:	00000013          	addi	zero,zero,0
    28be:	00000013          	addi	zero,zero,0
    28c2:	00000013          	addi	zero,zero,0
    28c6:	00000013          	addi	zero,zero,0
    28ca:	00000013          	addi	zero,zero,0
    28ce:	00000013          	addi	zero,zero,0
    28d2:	00000013          	addi	zero,zero,0
    28d6:	00000013          	addi	zero,zero,0
    28da:	00000013          	addi	zero,zero,0
    28de:	00000013          	addi	zero,zero,0
    28e2:	00000013          	addi	zero,zero,0
    28e6:	00000013          	addi	zero,zero,0
    28ea:	00000013          	addi	zero,zero,0
    28ee:	00000013          	addi	zero,zero,0
    28f2:	00000013          	addi	zero,zero,0
    28f6:	00000013          	addi	zero,zero,0
    28fa:	00000013          	addi	zero,zero,0
    28fe:	00000013          	addi	zero,zero,0
    2902:	00000013          	addi	zero,zero,0
    2906:	00000013          	addi	zero,zero,0
    290a:	00000013          	addi	zero,zero,0
    290e:	00000013          	addi	zero,zero,0
    2912:	00000013          	addi	zero,zero,0
    2916:	00000013          	addi	zero,zero,0
    291a:	00000013          	addi	zero,zero,0
    291e:	00000013          	addi	zero,zero,0
    2922:	00000013          	addi	zero,zero,0
    2926:	00000013          	addi	zero,zero,0
    292a:	00000013          	addi	zero,zero,0
    292e:	00000013          	addi	zero,zero,0
    2932:	00000013          	addi	zero,zero,0
    2936:	00000013          	addi	zero,zero,0
    293a:	00000013          	addi	zero,zero,0
    293e:	00000013          	addi	zero,zero,0
    2942:	00000013          	addi	zero,zero,0
    2946:	00000013          	addi	zero,zero,0
    294a:	00000013          	addi	zero,zero,0
    294e:	00000013          	addi	zero,zero,0
    2952:	00000013          	addi	zero,zero,0
    2956:	00000013          	addi	zero,zero,0
    295a:	00000013          	addi	zero,zero,0
    295e:	00000013          	addi	zero,zero,0
    2962:	00000013          	addi	zero,zero,0
    2966:	00000013          	addi	zero,zero,0
    296a:	00000013          	addi	zero,zero,0
    296e:	00000013          	addi	zero,zero,0
    2972:	00000013          	addi	zero,zero,0
    2976:	00000013          	addi	zero,zero,0
    297a:	00000013          	addi	zero,zero,0
    297e:	00000013          	addi	zero,zero,0
    2982:	00000013          	addi	zero,zero,0
    2986:	00000013          	addi	zero,zero,0
    298a:	00000013          	addi	zero,zero,0
    298e:	00000013          	addi	zero,zero,0
    2992:	00000013          	addi	zero,zero,0
    2996:	00000013          	addi	zero,zero,0
    299a:	00000013          	addi	zero,zero,0
    299e:	00000013          	addi	zero,zero,0
    29a2:	00000013          	addi	zero,zero,0
    29a6:	00000013          	addi	zero,zero,0
    29aa:	00000013          	addi	zero,zero,0
    29ae:	00000013          	addi	zero,zero,0
    29b2:	00000013          	addi	zero,zero,0
    29b6:	00000013          	addi	zero,zero,0
    29ba:	00000013          	addi	zero,zero,0
    29be:	00000013          	addi	zero,zero,0
    29c2:	00000013          	addi	zero,zero,0
    29c6:	00000013          	addi	zero,zero,0
    29ca:	00000013          	addi	zero,zero,0
    29ce:	00000013          	addi	zero,zero,0
    29d2:	00000013          	addi	zero,zero,0
    29d6:	00000013          	addi	zero,zero,0
    29da:	00000013          	addi	zero,zero,0
    29de:	00000013          	addi	zero,zero,0
    29e2:	00000013          	addi	zero,zero,0
    29e6:	00000013          	addi	zero,zero,0
    29ea:	00000013          	addi	zero,zero,0
    29ee:	00000013          	addi	zero,zero,0
    29f2:	00000013          	addi	zero,zero,0
    29f6:	00000013          	addi	zero,zero,0
    29fa:	00000013          	addi	zero,zero,0
    29fe:	00000013          	addi	zero,zero,0
    2a02:	00000013          	addi	zero,zero,0
    2a06:	00000013          	addi	zero,zero,0
    2a0a:	00000013          	addi	zero,zero,0
    2a0e:	00000013          	addi	zero,zero,0
    2a12:	00000013          	addi	zero,zero,0
    2a16:	00000013          	addi	zero,zero,0
    2a1a:	00000013          	addi	zero,zero,0
    2a1e:	00000013          	addi	zero,zero,0
    2a22:	00000013          	addi	zero,zero,0
    2a26:	00000013          	addi	zero,zero,0
    2a2a:	00000013          	addi	zero,zero,0
    2a2e:	00000013          	addi	zero,zero,0
    2a32:	00000013          	addi	zero,zero,0
    2a36:	00000013          	addi	zero,zero,0
    2a3a:	00000013          	addi	zero,zero,0
    2a3e:	00000013          	addi	zero,zero,0
    2a42:	00000013          	addi	zero,zero,0
    2a46:	00000013          	addi	zero,zero,0
    2a4a:	00000013          	addi	zero,zero,0
    2a4e:	00000013          	addi	zero,zero,0
    2a52:	00000013          	addi	zero,zero,0
    2a56:	00000013          	addi	zero,zero,0
    2a5a:	00000013          	addi	zero,zero,0
    2a5e:	00000013          	addi	zero,zero,0
    2a62:	00000013          	addi	zero,zero,0
    2a66:	00000013          	addi	zero,zero,0
    2a6a:	00000013          	addi	zero,zero,0
    2a6e:	00000013          	addi	zero,zero,0
    2a72:	00000013          	addi	zero,zero,0
    2a76:	00000013          	addi	zero,zero,0
    2a7a:	00000013          	addi	zero,zero,0
    2a7e:	00000013          	addi	zero,zero,0
    2a82:	00000013          	addi	zero,zero,0
    2a86:	00000013          	addi	zero,zero,0
    2a8a:	00000013          	addi	zero,zero,0
    2a8e:	00000013          	addi	zero,zero,0
    2a92:	00000013          	addi	zero,zero,0
    2a96:	00000013          	addi	zero,zero,0
    2a9a:	00000013          	addi	zero,zero,0
    2a9e:	00000013          	addi	zero,zero,0
    2aa2:	00000013          	addi	zero,zero,0
    2aa6:	00000013          	addi	zero,zero,0
    2aaa:	00000013          	addi	zero,zero,0
    2aae:	00000013          	addi	zero,zero,0
    2ab2:	00000013          	addi	zero,zero,0
    2ab6:	00000013          	addi	zero,zero,0
    2aba:	00000013          	addi	zero,zero,0
    2abe:	00000013          	addi	zero,zero,0
    2ac2:	00000013          	addi	zero,zero,0
    2ac6:	00000013          	addi	zero,zero,0
    2aca:	00000013          	addi	zero,zero,0
    2ace:	00000013          	addi	zero,zero,0
    2ad2:	00000013          	addi	zero,zero,0
    2ad6:	00000013          	addi	zero,zero,0
    2ada:	00000013          	addi	zero,zero,0
    2ade:	00000013          	addi	zero,zero,0
    2ae2:	00000013          	addi	zero,zero,0
    2ae6:	00000013          	addi	zero,zero,0
    2aea:	00000013          	addi	zero,zero,0
    2aee:	00000013          	addi	zero,zero,0
    2af2:	00000013          	addi	zero,zero,0
    2af6:	00000013          	addi	zero,zero,0
    2afa:	00000013          	addi	zero,zero,0
    2afe:	00000013          	addi	zero,zero,0
    2b02:	00000013          	addi	zero,zero,0
    2b06:	00000013          	addi	zero,zero,0
    2b0a:	00000013          	addi	zero,zero,0
    2b0e:	00000013          	addi	zero,zero,0
    2b12:	00000013          	addi	zero,zero,0
    2b16:	00000013          	addi	zero,zero,0
    2b1a:	00000013          	addi	zero,zero,0
    2b1e:	00000013          	addi	zero,zero,0
    2b22:	00000013          	addi	zero,zero,0
    2b26:	00000013          	addi	zero,zero,0
    2b2a:	00000013          	addi	zero,zero,0
    2b2e:	00000013          	addi	zero,zero,0
    2b32:	00000013          	addi	zero,zero,0
    2b36:	00000013          	addi	zero,zero,0
    2b3a:	00000013          	addi	zero,zero,0
    2b3e:	00000013          	addi	zero,zero,0
    2b42:	00000013          	addi	zero,zero,0
    2b46:	00000013          	addi	zero,zero,0
    2b4a:	00000013          	addi	zero,zero,0
    2b4e:	00000013          	addi	zero,zero,0
    2b52:	00000013          	addi	zero,zero,0
    2b56:	00000013          	addi	zero,zero,0
    2b5a:	00000013          	addi	zero,zero,0
    2b5e:	00000013          	addi	zero,zero,0
    2b62:	00000013          	addi	zero,zero,0
    2b66:	00000013          	addi	zero,zero,0
    2b6a:	00000013          	addi	zero,zero,0
    2b6e:	00000013          	addi	zero,zero,0
    2b72:	00000013          	addi	zero,zero,0
    2b76:	00000013          	addi	zero,zero,0
    2b7a:	00000013          	addi	zero,zero,0
    2b7e:	00000013          	addi	zero,zero,0
    2b82:	00000013          	addi	zero,zero,0
    2b86:	00000013          	addi	zero,zero,0
    2b8a:	00000013          	addi	zero,zero,0
    2b8e:	00000013          	addi	zero,zero,0
    2b92:	00000013          	addi	zero,zero,0
    2b96:	00000013          	addi	zero,zero,0
    2b9a:	00000013          	addi	zero,zero,0
    2b9e:	00000013          	addi	zero,zero,0
    2ba2:	00000013          	addi	zero,zero,0
    2ba6:	00000013          	addi	zero,zero,0
    2baa:	00000013          	addi	zero,zero,0
    2bae:	00000013          	addi	zero,zero,0
    2bb2:	00000013          	addi	zero,zero,0
    2bb6:	00000013          	addi	zero,zero,0
    2bba:	00000013          	addi	zero,zero,0
    2bbe:	00000013          	addi	zero,zero,0
    2bc2:	00000013          	addi	zero,zero,0
    2bc6:	00000013          	addi	zero,zero,0
    2bca:	00000013          	addi	zero,zero,0
    2bce:	00000013          	addi	zero,zero,0
    2bd2:	00000013          	addi	zero,zero,0
    2bd6:	00000013          	addi	zero,zero,0
    2bda:	00000013          	addi	zero,zero,0
    2bde:	00000013          	addi	zero,zero,0
    2be2:	00000013          	addi	zero,zero,0
    2be6:	00000013          	addi	zero,zero,0
    2bea:	00000013          	addi	zero,zero,0
    2bee:	00000013          	addi	zero,zero,0
    2bf2:	00000013          	addi	zero,zero,0
    2bf6:	00000013          	addi	zero,zero,0
    2bfa:	00000013          	addi	zero,zero,0
    2bfe:	00000013          	addi	zero,zero,0
    2c02:	00000013          	addi	zero,zero,0
    2c06:	00000013          	addi	zero,zero,0
    2c0a:	00000013          	addi	zero,zero,0
    2c0e:	00000013          	addi	zero,zero,0
    2c12:	00000013          	addi	zero,zero,0
    2c16:	00000013          	addi	zero,zero,0
    2c1a:	00000013          	addi	zero,zero,0
    2c1e:	00000013          	addi	zero,zero,0
    2c22:	00000013          	addi	zero,zero,0
    2c26:	00000013          	addi	zero,zero,0
    2c2a:	00000013          	addi	zero,zero,0
    2c2e:	00000013          	addi	zero,zero,0
    2c32:	00000013          	addi	zero,zero,0
    2c36:	00000013          	addi	zero,zero,0
    2c3a:	00000013          	addi	zero,zero,0
    2c3e:	00000013          	addi	zero,zero,0
    2c42:	00000013          	addi	zero,zero,0
    2c46:	00000013          	addi	zero,zero,0
    2c4a:	00000013          	addi	zero,zero,0
    2c4e:	00000013          	addi	zero,zero,0
    2c52:	00000013          	addi	zero,zero,0
    2c56:	00000013          	addi	zero,zero,0
    2c5a:	00000013          	addi	zero,zero,0
    2c5e:	00000013          	addi	zero,zero,0
    2c62:	00000013          	addi	zero,zero,0
    2c66:	00000013          	addi	zero,zero,0
    2c6a:	00000013          	addi	zero,zero,0
    2c6e:	00000013          	addi	zero,zero,0
    2c72:	00000013          	addi	zero,zero,0
    2c76:	00000013          	addi	zero,zero,0
    2c7a:	00000013          	addi	zero,zero,0
    2c7e:	00000013          	addi	zero,zero,0
    2c82:	00000013          	addi	zero,zero,0
    2c86:	00000013          	addi	zero,zero,0
    2c8a:	00000013          	addi	zero,zero,0
    2c8e:	00000013          	addi	zero,zero,0
    2c92:	00000013          	addi	zero,zero,0
    2c96:	00000013          	addi	zero,zero,0
    2c9a:	00000013          	addi	zero,zero,0
    2c9e:	00000013          	addi	zero,zero,0
    2ca2:	00000013          	addi	zero,zero,0
    2ca6:	00000013          	addi	zero,zero,0
    2caa:	00000013          	addi	zero,zero,0
    2cae:	00000013          	addi	zero,zero,0
    2cb2:	00000013          	addi	zero,zero,0
    2cb6:	00000013          	addi	zero,zero,0
    2cba:	00000013          	addi	zero,zero,0
    2cbe:	00000013          	addi	zero,zero,0
    2cc2:	00000013          	addi	zero,zero,0
    2cc6:	00000013          	addi	zero,zero,0
    2cca:	00000013          	addi	zero,zero,0
    2cce:	00000013          	addi	zero,zero,0
    2cd2:	00000013          	addi	zero,zero,0
    2cd6:	00000013          	addi	zero,zero,0
    2cda:	00000013          	addi	zero,zero,0
    2cde:	00000013          	addi	zero,zero,0
    2ce2:	00000013          	addi	zero,zero,0
    2ce6:	00000013          	addi	zero,zero,0
    2cea:	00000013          	addi	zero,zero,0
    2cee:	00000013          	addi	zero,zero,0
    2cf2:	00000013          	addi	zero,zero,0
    2cf6:	00000013          	addi	zero,zero,0
    2cfa:	00000013          	addi	zero,zero,0
    2cfe:	00000013          	addi	zero,zero,0
    2d02:	00000013          	addi	zero,zero,0
    2d06:	00000013          	addi	zero,zero,0
    2d0a:	00000013          	addi	zero,zero,0
    2d0e:	00000013          	addi	zero,zero,0
    2d12:	00000013          	addi	zero,zero,0
    2d16:	00000013          	addi	zero,zero,0
    2d1a:	00000013          	addi	zero,zero,0
    2d1e:	00000013          	addi	zero,zero,0
    2d22:	00000013          	addi	zero,zero,0
    2d26:	00000013          	addi	zero,zero,0
    2d2a:	00000013          	addi	zero,zero,0
    2d2e:	00000013          	addi	zero,zero,0
    2d32:	00000013          	addi	zero,zero,0
    2d36:	00000013          	addi	zero,zero,0
    2d3a:	00000013          	addi	zero,zero,0
    2d3e:	00000013          	addi	zero,zero,0
    2d42:	00000013          	addi	zero,zero,0
    2d46:	00000013          	addi	zero,zero,0
    2d4a:	00000013          	addi	zero,zero,0
    2d4e:	00000013          	addi	zero,zero,0
    2d52:	00000013          	addi	zero,zero,0
    2d56:	00000013          	addi	zero,zero,0
    2d5a:	00000013          	addi	zero,zero,0
    2d5e:	00000013          	addi	zero,zero,0
    2d62:	00000013          	addi	zero,zero,0
    2d66:	00000013          	addi	zero,zero,0
    2d6a:	00000013          	addi	zero,zero,0
    2d6e:	00000013          	addi	zero,zero,0
    2d72:	00000013          	addi	zero,zero,0
    2d76:	00000013          	addi	zero,zero,0
    2d7a:	00000013          	addi	zero,zero,0
    2d7e:	00000013          	addi	zero,zero,0
    2d82:	00000013          	addi	zero,zero,0
    2d86:	00000013          	addi	zero,zero,0
    2d8a:	00000013          	addi	zero,zero,0
    2d8e:	00000013          	addi	zero,zero,0
    2d92:	00000013          	addi	zero,zero,0
    2d96:	00000013          	addi	zero,zero,0
    2d9a:	00000013          	addi	zero,zero,0
    2d9e:	00000013          	addi	zero,zero,0
    2da2:	00000013          	addi	zero,zero,0
    2da6:	00000013          	addi	zero,zero,0
    2daa:	00000013          	addi	zero,zero,0
    2dae:	00000013          	addi	zero,zero,0
    2db2:	00000013          	addi	zero,zero,0
    2db6:	00000013          	addi	zero,zero,0
    2dba:	00000013          	addi	zero,zero,0
    2dbe:	00000013          	addi	zero,zero,0
    2dc2:	00000013          	addi	zero,zero,0
    2dc6:	00000013          	addi	zero,zero,0
    2dca:	00000013          	addi	zero,zero,0
    2dce:	00000013          	addi	zero,zero,0
    2dd2:	00000013          	addi	zero,zero,0
    2dd6:	00000013          	addi	zero,zero,0
    2dda:	00000013          	addi	zero,zero,0
    2dde:	00000013          	addi	zero,zero,0
    2de2:	00000013          	addi	zero,zero,0
    2de6:	00000013          	addi	zero,zero,0
    2dea:	00000013          	addi	zero,zero,0
    2dee:	00000013          	addi	zero,zero,0
    2df2:	00000013          	addi	zero,zero,0
    2df6:	00000013          	addi	zero,zero,0
    2dfa:	00000013          	addi	zero,zero,0
    2dfe:	00000013          	addi	zero,zero,0
    2e02:	00000013          	addi	zero,zero,0
    2e06:	00000013          	addi	zero,zero,0
    2e0a:	00000013          	addi	zero,zero,0
    2e0e:	00000013          	addi	zero,zero,0
    2e12:	00000013          	addi	zero,zero,0
    2e16:	00000013          	addi	zero,zero,0
    2e1a:	00000013          	addi	zero,zero,0
    2e1e:	00000013          	addi	zero,zero,0
    2e22:	00000013          	addi	zero,zero,0
    2e26:	00000013          	addi	zero,zero,0
    2e2a:	00000013          	addi	zero,zero,0
    2e2e:	00000013          	addi	zero,zero,0
    2e32:	00000013          	addi	zero,zero,0
	...

00002e38 <main>:
    2e38:	4501                	c.li	a0,0
    2e3a:	8082                	c.jr	ra
    2e3c:	0001                	c.addi	zero,0
	...

00002e40 <outbyte>:
    2e40:	00d55a5b          	beqc	a0,13,2e54 <outbyte+0x14>
    2e44:	00a55a5b          	beqc	a0,10,2e58 <outbyte+0x18>
    2e48:	0ff57793          	andi	a5,a0,255
    2e4c:	e0080737          	lui	a4,0xe0080
    2e50:	00f70223          	sb	a5,4(a4) # e0080004 <start_address+0x6007fff8>
    2e54:	00008067          	jalr	zero,0(ra)
    2e58:	e0080737          	lui	a4,0xe0080
    2e5c:	ddddf7b7          	lui	a5,0xddddf
    2e60:	eee78793          	addi	a5,a5,-274 # ddddeeee <start_address+0x5dddeee2>
    2e64:	c31c                	c.sw	a5,0(a4)
    2e66:	8082                	c.jr	ra

00002e68 <_fstat>:
    2e68:	4501                	c.li	a0,0
    2e6a:	8082                	c.jr	ra

00002e6c <_write>:
    2e6c:	157d                	c.addi	a0,-1
    2e6e:	4785                	c.li	a5,1
    2e70:	00a7f463          	bgeu	a5,a0,2e78 <_write+0xc>
    2e74:	4501                	c.li	a0,0
    2e76:	8082                	c.jr	ra
    2e78:	1141                	c.addi	sp,-16
    2e7a:	c606                	c.swsp	ra,12(sp)
    2e7c:	c422                	c.swsp	s0,8(sp)
    2e7e:	c226                	c.swsp	s1,4(sp)
    2e80:	c04a                	c.swsp	s2,0(sp)
    2e82:	842e                	c.mv	s0,a1
    2e84:	00060493          	addi	s1,a2,0
    2e88:	02c05263          	bge	zero,a2,2eac <_write+0x40>
    2e8c:	00c58933          	add	s2,a1,a2
    2e90:	0405                	c.addi	s0,1
    2e92:	fff44503          	lbu	a0,-1(s0)
    2e96:	376d                	c.jal	2e40 <outbyte>
    2e98:	fe891ce3          	bne	s2,s0,2e90 <_write+0x24>
    2e9c:	00048513          	addi	a0,s1,0
    2ea0:	40b2                	c.lwsp	ra,12(sp)
    2ea2:	4422                	c.lwsp	s0,8(sp)
    2ea4:	4492                	c.lwsp	s1,4(sp)
    2ea6:	4902                	c.lwsp	s2,0(sp)
    2ea8:	0141                	c.addi	sp,16
    2eaa:	8082                	c.jr	ra
    2eac:	4501                	c.li	a0,0
    2eae:	bfcd                	c.j	2ea0 <_write+0x34>

00002eb0 <nds_write>:
    2eb0:	02b05663          	bge	zero,a1,2edc <nds_write+0x2c>
    2eb4:	1141                	c.addi	sp,-16
    2eb6:	c606                	c.swsp	ra,12(sp)
    2eb8:	c422                	c.swsp	s0,8(sp)
    2eba:	c226                	c.swsp	s1,4(sp)
    2ebc:	00050413          	addi	s0,a0,0
    2ec0:	00b504b3          	add	s1,a0,a1
    2ec4:	00044503          	lbu	a0,0(s0)
    2ec8:	f79ff0ef          	jal	ra,2e40 <outbyte>
    2ecc:	0405                	c.addi	s0,1
    2ece:	fe941be3          	bne	s0,s1,2ec4 <nds_write+0x14>
    2ed2:	40b2                	c.lwsp	ra,12(sp)
    2ed4:	4422                	c.lwsp	s0,8(sp)
    2ed6:	4492                	c.lwsp	s1,4(sp)
    2ed8:	0141                	c.addi	sp,16
    2eda:	8082                	c.jr	ra
    2edc:	8082                	c.jr	ra
	...

00002ee0 <exit>:
    2ee0:	ed01                	c.bnez	a0,2ef8 <exit+0x18>
    2ee2:	e0080737          	lui	a4,0xe0080
    2ee6:	012347b7          	lui	a5,0x1234
    2eea:	56878793          	addi	a5,a5,1384 # 1234568 <__sharedata_end+0xf34564>
    2eee:	c31c                	c.sw	a5,0(a4)
    2ef0:	10500073          	wfi
    2ef4:	ffdff06f          	jal	zero,2ef0 <exit+0x10>
    2ef8:	e0080737          	lui	a4,0xe0080
    2efc:	012347b7          	lui	a5,0x1234
    2f00:	56978793          	addi	a5,a5,1385 # 1234569 <__sharedata_end+0xf34565>
    2f04:	c31c                	c.sw	a5,0(a4)
    2f06:	b7ed                	c.j	2ef0 <exit+0x10>

00002f08 <go_to_main>:
    2f08:	1141                	c.addi	sp,-16
    2f0a:	c606                	c.swsp	ra,12(sp)
    2f0c:	f2dff0ef          	jal	ra,2e38 <main>
    2f10:	fd1ff0ef          	jal	ra,2ee0 <exit>

00002f14 <skip>:
    2f14:	7139                	c.addi16sp	sp,-64
    2f16:	ce06                	c.swsp	ra,28(sp)
    2f18:	d22e                	c.swsp	a1,36(sp)
    2f1a:	d432                	c.swsp	a2,40(sp)
    2f1c:	d636                	c.swsp	a3,44(sp)
    2f1e:	d83a                	c.swsp	a4,48(sp)
    2f20:	da3e                	c.swsp	a5,52(sp)
    2f22:	dc42                	c.swsp	a6,56(sp)
    2f24:	de46                	c.swsp	a7,60(sp)
    2f26:	104c                	c.addi4spn	a1,sp,36
    2f28:	00b12623          	sw	a1,12(sp)
    2f2c:	7aa000ef          	jal	ra,36d6 <viprintf>
    2f30:	e0080737          	lui	a4,0xe0080
    2f34:	012347b7          	lui	a5,0x1234
    2f38:	57178793          	addi	a5,a5,1393 # 1234571 <__sharedata_end+0xf3456d>
    2f3c:	00f72023          	sw	a5,0(a4) # e0080000 <start_address+0x6007fff4>
    2f40:	0000006f          	jal	zero,2f40 <skip+0x2c>

00002f44 <__platform_init>:
    2f44:	1101                	c.addi	sp,-32
    2f46:	ce06                	c.swsp	ra,28(sp)
    2f48:	518000ef          	jal	ra,3460 <check_l2c_exist>
    2f4c:	04051463          	bne	a0,zero,2f94 <__platform_init+0x50>
    2f50:	fc0027f3          	csrrs	a5,micm_cfg,zero
    2f54:	4cf7a7db          	bfoz	a5,a5,19,15
    2f58:	00078463          	beq	a5,zero,2f60 <__platform_init+0x1c>
    2f5c:	7c00e7f3          	csrrsi	a5,milmb,1
    2f60:	fc1027f3          	csrrs	a5,mdcm_cfg,zero
    2f64:	4cf7a7db          	bfoz	a5,a5,19,15
    2f68:	00078463          	beq	a5,zero,2f70 <__platform_init+0x2c>
    2f6c:	7c10e7f3          	csrrsi	a5,mdlmb,1
    2f70:	c602                	c.swsp	zero,12(sp)
    2f72:	f14027f3          	csrrs	a5,mhartid,zero
    2f76:	c63e                	c.swsp	a5,12(sp)
    2f78:	47b2                	c.lwsp	a5,12(sp)
    2f7a:	cb8d                	c.beqz	a5,2fac <__platform_init+0x68>
    2f7c:	e0080737          	lui	a4,0xe0080
    2f80:	012347b7          	lui	a5,0x1234
    2f84:	56878793          	addi	a5,a5,1384 # 1234568 <__sharedata_end+0xf34564>
    2f88:	00f72023          	sw	a5,0(a4) # e0080000 <start_address+0x6007fff4>
    2f8c:	10500073          	wfi
    2f90:	ffdff06f          	jal	zero,2f8c <__platform_init+0x48>
    2f94:	4f0000ef          	jal	ra,3484 <wait_l2c_init>
    2f98:	000807b7          	lui	a5,0x80
    2f9c:	7ca7a7f3          	csrrs	a5,mcache_ctl,a5
    2fa0:	7ca027f3          	csrrs	a5,mcache_ctl,zero
    2fa4:	bf47fe5b          	bbc	a5,20,2fa0 <__platform_init+0x5c>
    2fa8:	fa9ff06f          	jal	zero,2f50 <__platform_init+0xc>
    2fac:	40f2                	c.lwsp	ra,28(sp)
    2fae:	6105                	c.addi16sp	sp,32
    2fb0:	00008067          	jalr	zero,0(ra)

00002fb4 <reset_handler>:
    2fb4:	1101                	c.addi	sp,-32
    2fb6:	ce06                	c.swsp	ra,28(sp)
    2fb8:	c602                	c.swsp	zero,12(sp)
    2fba:	f14027f3          	csrrs	a5,mhartid,zero
    2fbe:	c63e                	c.swsp	a5,12(sp)
    2fc0:	2b0000ef          	jal	ra,3270 <ae350_init>
    2fc4:	000037b7          	lui	a5,0x3
    2fc8:	f0878793          	addi	a5,a5,-248 # 2f08 <go_to_main>
    2fcc:	34179073          	csrrw	zero,mepc,a5
    2fd0:	30200073          	mret
    2fd4:	40f2                	c.lwsp	ra,28(sp)
    2fd6:	6105                	c.addi16sp	sp,32
    2fd8:	00008067          	jalr	zero,0(ra)

00002fdc <nmi_handler>:
    2fdc:	f7810113          	addi	sp,sp,-136
    2fe0:	c206                	c.swsp	ra,4(sp)
    2fe2:	c812                	c.swsp	tp,16(sp)
    2fe4:	ca16                	c.swsp	t0,20(sp)
    2fe6:	cc1a                	c.swsp	t1,24(sp)
    2fe8:	ce1e                	c.swsp	t2,28(sp)
    2fea:	d42a                	c.swsp	a0,40(sp)
    2fec:	d62e                	c.swsp	a1,44(sp)
    2fee:	d832                	c.swsp	a2,48(sp)
    2ff0:	da36                	c.swsp	a3,52(sp)
    2ff2:	dc3a                	c.swsp	a4,56(sp)
    2ff4:	de3e                	c.swsp	a5,60(sp)
    2ff6:	c0c2                	c.swsp	a6,64(sp)
    2ff8:	c2c6                	c.swsp	a7,68(sp)
    2ffa:	d8f2                	c.swsp	t3,112(sp)
    2ffc:	daf6                	c.swsp	t4,116(sp)
    2ffe:	dcfa                	c.swsp	t5,120(sp)
    3000:	defe                	c.swsp	t6,124(sp)
    3002:	f05007b7          	lui	a5,0xf0500
    3006:	4fdc                	c.lw	a5,28(a5)
    3008:	cb95                	c.beqz	a5,303c <nmi_handler+0x60>
    300a:	803fa7ab          	lwgp	a5,-2048 # 2000f8 <nmi_handler_tab>
    300e:	4501                	c.li	a0,0
    3010:	9782                	c.jalr	a5
    3012:	4092                	c.lwsp	ra,4(sp)
    3014:	4242                	c.lwsp	tp,16(sp)
    3016:	42d2                	c.lwsp	t0,20(sp)
    3018:	4362                	c.lwsp	t1,24(sp)
    301a:	43f2                	c.lwsp	t2,28(sp)
    301c:	5522                	c.lwsp	a0,40(sp)
    301e:	55b2                	c.lwsp	a1,44(sp)
    3020:	5642                	c.lwsp	a2,48(sp)
    3022:	56d2                	c.lwsp	a3,52(sp)
    3024:	5762                	c.lwsp	a4,56(sp)
    3026:	57f2                	c.lwsp	a5,60(sp)
    3028:	4806                	c.lwsp	a6,64(sp)
    302a:	4896                	c.lwsp	a7,68(sp)
    302c:	5e46                	c.lwsp	t3,112(sp)
    302e:	5ed6                	c.lwsp	t4,116(sp)
    3030:	5f66                	c.lwsp	t5,120(sp)
    3032:	5ff6                	c.lwsp	t6,124(sp)
    3034:	08810113          	addi	sp,sp,136
    3038:	30200073          	mret
    303c:	4505                	c.li	a0,1
    303e:	354d                	c.jal	2ee0 <exit>

00003040 <supervisor_ei_handler>:
    3040:	1141                	c.addi	sp,-16
    3042:	c606                	c.swsp	ra,12(sp)
    3044:	c422                	c.swsp	s0,8(sp)
    3046:	e42017b7          	lui	a5,0xe4201
    304a:	43c0                	c.lw	s0,4(a5)
    304c:	cc01                	c.beqz	s0,3064 <supervisor_ei_handler+0x24>
    304e:	831f978b          	addigp	a5,-2000 # 200128 <intr_handler_tab>
    3052:	0c8787db          	lea.w	a5,a5,s0
    3056:	439c                	c.lw	a5,0(a5)
    3058:	8522                	c.mv	a0,s0
    305a:	9782                	c.jalr	a5
    305c:	e42017b7          	lui	a5,0xe4201
    3060:	0087a223          	sw	s0,4(a5) # e4201004 <start_address+0x64200ff8>
    3064:	40b2                	c.lwsp	ra,12(sp)
    3066:	4422                	c.lwsp	s0,8(sp)
    3068:	0141                	c.addi	sp,16
    306a:	8082                	c.jr	ra

0000306c <machine_ei_handler>:
    306c:	c905                	c.beqz	a0,309c <machine_ei_handler+0x30>
    306e:	1141                	c.addi	sp,-16
    3070:	c606                	c.swsp	ra,12(sp)
    3072:	c422                	c.swsp	s0,8(sp)
    3074:	842a                	c.mv	s0,a0
    3076:	831f978b          	addigp	a5,-2000 # 200128 <intr_handler_tab>
    307a:	0ca787db          	lea.w	a5,a5,a0
    307e:	439c                	c.lw	a5,0(a5)
    3080:	9782                	c.jalr	a5
    3082:	f14027f3          	csrrs	a5,mhartid,zero
    3086:	07b2                	c.slli	a5,0xc
    3088:	e4200737          	lui	a4,0xe4200
    308c:	0711                	c.addi	a4,4
    308e:	97ba                	c.add	a5,a4
    3090:	c380                	c.sw	s0,0(a5)
    3092:	40b2                	c.lwsp	ra,12(sp)
    3094:	4422                	c.lwsp	s0,8(sp)
    3096:	0141                	c.addi	sp,16
    3098:	00008067          	jalr	zero,0(ra)
    309c:	00008067          	jalr	zero,0(ra)

000030a0 <mswi_handler>:
    30a0:	304477f3          	csrrci	a5,mie,8
    30a4:	00008067          	jalr	zero,0(ra)

000030a8 <mti_handler>:
    30a8:	08000793          	addi	a5,zero,128
    30ac:	3047b7f3          	csrrc	a5,mie,a5
    30b0:	00008067          	jalr	zero,0(ra)

000030b4 <bus_write_error_li_handler>:
    30b4:	1141                	c.addi	sp,-16
    30b6:	c606                	c.swsp	ra,12(sp)
    30b8:	8cffa7ab          	lwgp	a5,-1844 # 2001c4 <general_exc_handler_tab+0x1c>
    30bc:	9782                	c.jalr	a5
    30be:	40b2                	c.lwsp	ra,12(sp)
    30c0:	0141                	c.addi	sp,16
    30c2:	8082                	c.jr	ra

000030c4 <trap_handler>:
    30c4:	1141                	c.addi	sp,-16
    30c6:	c606                	c.swsp	ra,12(sp)
    30c8:	87aa                	c.mv	a5,a0
    30ca:	852e                	c.mv	a0,a1
    30cc:	0207c463          	blt	a5,zero,30f4 <trap_handler+0x30>
    30d0:	80000737          	lui	a4,0x80000
    30d4:	ff074713          	xori	a4,a4,-16
    30d8:	8f7d                	c.and	a4,a5
    30da:	ef1d                	c.bnez	a4,3118 <trap_handler+0x54>
    30dc:	831f970b          	addigp	a4,-2000 # 200128 <intr_handler_tab>
    30e0:	0cf707db          	lea.w	a5,a4,a5
    30e4:	0807a783          	lw	a5,128(a5)
    30e8:	c7b5                	c.beqz	a5,3154 <trap_handler+0x90>
    30ea:	9782                	c.jalr	a5
    30ec:	40b2                	c.lwsp	ra,12(sp)
    30ee:	0141                	c.addi	sp,16
    30f0:	00008067          	jalr	zero,0(ra)
    30f4:	7807a75b          	bfoz	a4,a5,30,0
    30f8:	0297525b          	beqc	a4,9,311c <trap_handler+0x58>
    30fc:	02b7545b          	beqc	a4,11,3124 <trap_handler+0x60>
    3100:	02375e5b          	beqc	a4,3,313c <trap_handler+0x78>
    3104:	0477505b          	beqc	a4,7,3144 <trap_handler+0x80>
    3108:	80000737          	lui	a4,0x80000
    310c:	eff74713          	xori	a4,a4,-257
    3110:	00e7f7b3          	and	a5,a5,a4
    3114:	0317dc5b          	beqc	a5,17,314c <trap_handler+0x88>
    3118:	4505                	c.li	a0,1
    311a:	33d9                	c.jal	2ee0 <exit>
    311c:	f25ff0ef          	jal	ra,3040 <supervisor_ei_handler>
    3120:	fcdff06f          	jal	zero,30ec <trap_handler+0x28>
    3124:	f14027f3          	csrrs	a5,mhartid,zero
    3128:	07b2                	c.slli	a5,0xc
    312a:	e4200737          	lui	a4,0xe4200
    312e:	0711                	c.addi	a4,4
    3130:	97ba                	c.add	a5,a4
    3132:	4388                	c.lw	a0,0(a5)
    3134:	f39ff0ef          	jal	ra,306c <machine_ei_handler>
    3138:	fb5ff06f          	jal	zero,30ec <trap_handler+0x28>
    313c:	f65ff0ef          	jal	ra,30a0 <mswi_handler>
    3140:	fadff06f          	jal	zero,30ec <trap_handler+0x28>
    3144:	f65ff0ef          	jal	ra,30a8 <mti_handler>
    3148:	fa5ff06f          	jal	zero,30ec <trap_handler+0x28>
    314c:	f69ff0ef          	jal	ra,30b4 <bus_write_error_li_handler>
    3150:	f9dff06f          	jal	zero,30ec <trap_handler+0x28>
    3154:	4505                	c.li	a0,1
    3156:	3369                	c.jal	2ee0 <exit>
    3158:	0001                	c.addi	zero,0
	...

0000315c <setup_interrupt>:
    315c:	831f978b          	addigp	a5,-2000 # 200128 <intr_handler_tab>
    3160:	0ca7855b          	lea.w	a0,a5,a0
    3164:	c10c                	c.sw	a1,0(a0)
    3166:	8082                	c.jr	ra

00003168 <enable_s_interrupt>:
    3168:	e4000737          	lui	a4,0xe4000
    316c:	0ca7075b          	lea.w	a4,a4,a0
    3170:	4785                	c.li	a5,1
    3172:	c31c                	c.sw	a5,0(a4)
    3174:	e4002737          	lui	a4,0xe4002
    3178:	4314                	c.lw	a3,0(a4)
    317a:	00072023          	sw	zero,0(a4) # e4002000 <start_address+0x64001ff4>
    317e:	08072683          	lw	a3,128(a4)
    3182:	00a797b3          	sll	a5,a5,a0
    3186:	8fd5                	c.or	a5,a3
    3188:	08f72023          	sw	a5,128(a4)
    318c:	00008067          	jalr	zero,0(ra)

00003190 <disable_s_interrupt>:
    3190:	e40007b7          	lui	a5,0xe4000
    3194:	0ca7855b          	lea.w	a0,a5,a0
    3198:	00052023          	sw	zero,0(a0)
    319c:	00008067          	jalr	zero,0(ra)

000031a0 <disable_interrupt>:
    31a0:	e40007b7          	lui	a5,0xe4000
    31a4:	0ca7855b          	lea.w	a0,a5,a0
    31a8:	00052023          	sw	zero,0(a0)
    31ac:	00008067          	jalr	zero,0(ra)

000031b0 <clear_interrupt>:
    31b0:	00008067          	jalr	zero,0(ra)

000031b4 <default_general_exc_handler>:
    31b4:	1141                	c.addi	sp,-16
    31b6:	c606                	c.swsp	ra,12(sp)
    31b8:	4505                	c.li	a0,1
    31ba:	331d                	c.jal	2ee0 <exit>

000031bc <enable_interrupt>:
    31bc:	e40007b7          	lui	a5,0xe4000
    31c0:	0ca787db          	lea.w	a5,a5,a0
    31c4:	4705                	c.li	a4,1
    31c6:	c398                	c.sw	a4,0(a5)
    31c8:	f14026f3          	csrrs	a3,mhartid,zero
    31cc:	00555793          	srli	a5,a0,0x5
    31d0:	e4002637          	lui	a2,0xe4002
    31d4:	0cf607db          	lea.w	a5,a2,a5
    31d8:	069e                	c.slli	a3,0x7
    31da:	97b6                	c.add	a5,a3
    31dc:	4394                	c.lw	a3,0(a5)
    31de:	00a71733          	sll	a4,a4,a0
    31e2:	8f55                	c.or	a4,a3
    31e4:	c398                	c.sw	a4,0(a5)
    31e6:	8082                	c.jr	ra

000031e8 <backup_intr_handler_tab>:
    31e8:	004007b7          	lui	a5,0x400
    31ec:	ffc005b7          	lui	a1,0xffc00
    31f0:	831f960b          	addigp	a2,-2000 # 200128 <intr_handler_tab>
    31f4:	004006b7          	lui	a3,0x400
    31f8:	08068693          	addi	a3,a3,128 # 400080 <__sharedata_end+0x10007c>
    31fc:	00b78733          	add	a4,a5,a1
    3200:	9732                	c.add	a4,a2
    3202:	4318                	c.lw	a4,0(a4)
    3204:	c398                	c.sw	a4,0(a5)
    3206:	0791                	c.addi	a5,4
    3208:	fed79ae3          	bne	a5,a3,31fc <backup_intr_handler_tab+0x14>
    320c:	0000100f          	fence.i
    3210:	f01007b7          	lui	a5,0xf0100
    3214:	479c                	c.lw	a5,8(a5)
    3216:	0287f75b          	bbc	a5,8,3244 <backup_intr_handler_tab+0x5c>
    321a:	e05007b7          	lui	a5,0xe0500
    321e:	4398                	c.lw	a4,0(a5)
    3220:	43dc                	c.lw	a5,4(a5)
    3222:	2c77275b          	bfoz	a4,a4,11,7
    3226:	cf19                	c.beqz	a4,3244 <backup_intr_handler_tab+0x5c>
    3228:	e05007b7          	lui	a5,0xe0500
    322c:	4649                	c.li	a2,18
    322e:	4681                	c.li	a3,0
    3230:	c3b0                	c.sw	a2,64(a5)
    3232:	c3f4                	c.sw	a3,68(a5)
    3234:	e05006b7          	lui	a3,0xe0500
    3238:	0806a703          	lw	a4,128(a3) # e0500080 <start_address+0x60500074>
    323c:	0846a783          	lw	a5,132(a3)
    3240:	8f5d                	c.or	a4,a5
    3242:	fb7d                	c.bnez	a4,3238 <backup_intr_handler_tab+0x50>
    3244:	00008067          	jalr	zero,0(ra)

00003248 <restore_intr_handler_tab>:
    3248:	004007b7          	lui	a5,0x400
    324c:	ffc00537          	lui	a0,0xffc00
    3250:	831f958b          	addigp	a1,-2000 # 200128 <intr_handler_tab>
    3254:	00400637          	lui	a2,0x400
    3258:	08060613          	addi	a2,a2,128 # 400080 <__sharedata_end+0x10007c>
    325c:	00a78733          	add	a4,a5,a0
    3260:	972e                	c.add	a4,a1
    3262:	4394                	c.lw	a3,0(a5)
    3264:	c314                	c.sw	a3,0(a4)
    3266:	0791                	c.addi	a5,4
    3268:	fec79ae3          	bne	a5,a2,325c <restore_intr_handler_tab+0x14>
    326c:	00008067          	jalr	zero,0(ra)

00003270 <ae350_init>:
    3270:	1141                	c.addi	sp,-16
    3272:	c606                	c.swsp	ra,12(sp)
    3274:	c422                	c.swsp	s0,8(sp)
    3276:	c226                	c.swsp	s1,4(sp)
    3278:	c04a                	c.swsp	s2,0(sp)
    327a:	f14024f3          	csrrs	s1,mhartid,zero
    327e:	08000793          	addi	a5,zero,128
    3282:	3007a7f3          	csrrs	a5,mstatus,a5
    3286:	000217b7          	lui	a5,0x21
    328a:	a0078793          	addi	a5,a5,-1536 # 20a00 <__data_lmastart+0x1c720>
    328e:	3047a7f3          	csrrs	a5,mie,a5
    3292:	30102473          	csrrs	s0,misa,zero
    3296:	000407b7          	lui	a5,0x40
    329a:	8c7d                	c.and	s0,a5
    329c:	fc202973          	csrrs	s2,mmsc_cfg,zero
    32a0:	0c041a63          	bne	s0,zero,3374 <ae350_init+0x104>
    32a4:	00c9765b          	bbc	s2,12,32b0 <ae350_init+0x40>
    32a8:	e40007b7          	lui	a5,0xe4000
    32ac:	4709                	c.li	a4,2
    32ae:	c398                	c.sw	a4,0(a5)
    32b0:	6589                	c.lui	a1,0x2
    32b2:	00280537          	lui	a0,0x280
    32b6:	00050513          	addi	a0,a0,0 # 280000 <__STACK_BASE>
    32ba:	2a3d                	c.jal	33f8 <heap_init>
    32bc:	fc1027f3          	csrrs	a5,mdcm_cfg,zero
    32c0:	4cf7a7db          	bfoz	a5,a5,19,15
    32c4:	00500713          	addi	a4,zero,5
    32c8:	04f75063          	bge	a4,a5,3308 <ae350_init+0x98>
    32cc:	02e97e5b          	bbc	s2,14,3308 <ae350_init+0x98>
    32d0:	7c102773          	csrrs	a4,mdlmb,zero
    32d4:	c0077713          	andi	a4,a4,-1024
    32d8:	002806b7          	lui	a3,0x280
    32dc:	00068693          	addi	a3,a3,0 # 280000 <__STACK_BASE>
    32e0:	02e6e263          	bltu	a3,a4,3304 <ae350_init+0x94>
    32e4:	07a5                	c.addi	a5,9
    32e6:	4605                	c.li	a2,1
    32e8:	00f617b3          	sll	a5,a2,a5
    32ec:	97ba                	c.add	a5,a4
    32ee:	00f6fb63          	bgeu	a3,a5,3304 <ae350_init+0x94>
    32f2:	01649793          	slli	a5,s1,0x16
    32f6:	a02006b7          	lui	a3,0xa0200
    32fa:	97b6                	c.add	a5,a3
    32fc:	40e78733          	sub	a4,a5,a4
    3300:	80efc3ab          	swgp	a4,-2044 # 2000fc <dmac_addr_offset>
    3304:	0c041463          	bne	s0,zero,33cc <ae350_init+0x15c>
    3308:	000037b7          	lui	a5,0x3
    330c:	1bc78793          	addi	a5,a5,444 # 31bc <enable_interrupt>
    3310:	80ffcfab          	swgp	a5,-2020 # 200114 <intr_enable_ptr>
    3314:	000037b7          	lui	a5,0x3
    3318:	1a078793          	addi	a5,a5,416 # 31a0 <disable_interrupt>
    331c:	80ffcdab          	swgp	a5,-2024 # 200110 <intr_disable_ptr>
    3320:	000037b7          	lui	a5,0x3
    3324:	15c78793          	addi	a5,a5,348 # 315c <setup_interrupt>
    3328:	80ffc9ab          	swgp	a5,-2032 # 200108 <intr_setup_ptr>
    332c:	000037b7          	lui	a5,0x3
    3330:	1b078793          	addi	a5,a5,432 # 31b0 <clear_interrupt>
    3334:	80ffcbab          	swgp	a5,-2028 # 20010c <intr_clear_ptr>
    3338:	8b1f978b          	addigp	a5,-1872 # 2001a8 <general_exc_handler_tab>
    333c:	04078693          	addi	a3,a5,64
    3340:	00003737          	lui	a4,0x3
    3344:	1b470713          	addi	a4,a4,436 # 31b4 <default_general_exc_handler>
    3348:	c398                	c.sw	a4,0(a5)
    334a:	0791                	c.addi	a5,4
    334c:	fef69ee3          	bne	a3,a5,3348 <ae350_init+0xd8>
    3350:	f01007b7          	lui	a5,0xf0100
    3354:	0e47a783          	lw	a5,228(a5) # f01000e4 <start_address+0x701000d8>
    3358:	08b7d85b          	beqc	a5,11,33e8 <ae350_init+0x178>
    335c:	f01007b7          	lui	a5,0xf0100
    3360:	7ff00713          	addi	a4,zero,2047
    3364:	d398                	c.sw	a4,32(a5)
    3366:	40b2                	c.lwsp	ra,12(sp)
    3368:	4422                	c.lwsp	s0,8(sp)
    336a:	4492                	c.lwsp	s1,4(sp)
    336c:	4902                	c.lwsp	s2,0(sp)
    336e:	0141                	c.addi	sp,16
    3370:	00008067          	jalr	zero,0(ra)
    3374:	20000793          	addi	a5,zero,512
    3378:	1047a7f3          	csrrs	a5,sie,a5
    337c:	000207b7          	lui	a5,0x20
    3380:	9c47a7f3          	csrrs	a5,slie,a5
    3384:	300167f3          	csrrsi	a5,mstatus,2
    3388:	02000793          	addi	a5,zero,32
    338c:	1007a7f3          	csrrs	a5,sstatus,a5
    3390:	6789                	c.lui	a5,0x2
    3392:	80078793          	addi	a5,a5,-2048 # 1800 <_EI_10_HANDLER_WRAPPER+0x708>
    3396:	3007b7f3          	csrrc	a5,mstatus,a5
    339a:	6785                	c.lui	a5,0x1
    339c:	80078793          	addi	a5,a5,-2048 # 800 <__sharedata_end_addr+0x490>
    33a0:	3007a7f3          	csrrs	a5,mstatus,a5
    33a4:	57fd                	c.li	a5,-1
    33a6:	3b07a7f3          	csrrs	a5,pmpaddr0,a5
    33aa:	3a0fe7f3          	csrrsi	a5,pmpcfg0,31
    33ae:	6589                	c.lui	a1,0x2
    33b0:	00280537          	lui	a0,0x280
    33b4:	00050513          	addi	a0,a0,0 # 280000 <__STACK_BASE>
    33b8:	040000ef          	jal	ra,33f8 <heap_init>
    33bc:	fc1027f3          	csrrs	a5,mdcm_cfg,zero
    33c0:	4cf7a7db          	bfoz	a5,a5,19,15
    33c4:	00500713          	addi	a4,zero,5
    33c8:	02f74463          	blt	a4,a5,33f0 <ae350_init+0x180>
    33cc:	000037b7          	lui	a5,0x3
    33d0:	16878793          	addi	a5,a5,360 # 3168 <enable_s_interrupt>
    33d4:	80ffcfab          	swgp	a5,-2020 # 200114 <intr_enable_ptr>
    33d8:	000037b7          	lui	a5,0x3
    33dc:	19078793          	addi	a5,a5,400 # 3190 <disable_s_interrupt>
    33e0:	80ffcdab          	swgp	a5,-2024 # 200110 <intr_disable_ptr>
    33e4:	f3dff06f          	jal	zero,3320 <ae350_init+0xb0>
    33e8:	e61ff0ef          	jal	ra,3248 <restore_intr_handler_tab>
    33ec:	f71ff06f          	jal	zero,335c <ae350_init+0xec>
    33f0:	eee9705b          	bbs	s2,14,32d0 <ae350_init+0x60>
    33f4:	bfe1                	c.j	33cc <ae350_init+0x15c>
	...

000033f8 <heap_init>:
    33f8:	01b50793          	addi	a5,a0,27
    33fc:	9bc1                	c.andi	a5,-16
    33fe:	ff478713          	addi	a4,a5,-12
    3402:	80efc5ab          	swgp	a4,-2040 # 200100 <heap_start>
    3406:	952e                	c.add	a0,a1
    3408:	9941                	c.andi	a0,-16
    340a:	ff450713          	addi	a4,a0,-12
    340e:	fe07aa23          	sw	zero,-12(a5)
    3412:	80bfa7ab          	lwgp	a5,-2040 # 200100 <heap_start>
    3416:	00e78223          	sb	a4,4(a5)
    341a:	3c8726db          	bfoz	a3,a4,15,8
    341e:	00d782a3          	sb	a3,5(a5)
    3422:	5d0726db          	bfoz	a3,a4,23,16
    3426:	00d78323          	sb	a3,6(a5)
    342a:	01875693          	srli	a3,a4,0x18
    342e:	00d783a3          	sb	a3,7(a5)
    3432:	00078423          	sb	zero,8(a5)
    3436:	000784a3          	sb	zero,9(a5)
    343a:	00078523          	sb	zero,10(a5)
    343e:	000785a3          	sb	zero,11(a5)
    3442:	fef52a23          	sw	a5,-12(a0)
    3446:	fe052c23          	sw	zero,-8(a0)
    344a:	fe052e23          	sw	zero,-4(a0)
    344e:	8082                	c.jr	ra
    3450:	0001                	c.addi	zero,0
	...

00003454 <check_cluster_exist>:
    3454:	fc302573          	csrrs	a0,mmsc_cfg2,zero
    3458:	34d5255b          	bfoz	a0,a0,13,13
    345c:	00008067          	jalr	zero,0(ra)

00003460 <check_l2c_exist>:
    3460:	fc302573          	csrrs	a0,mmsc_cfg2,zero
    3464:	38e5255b          	bfoz	a0,a0,14,14
    3468:	00008067          	jalr	zero,0(ra)

0000346c <check_iocp_exist>:
    346c:	fc302573          	csrrs	a0,mmsc_cfg2,zero
    3470:	3cf5255b          	bfoz	a0,a0,15,15
    3474:	00008067          	jalr	zero,0(ra)

00003478 <get_core_pclus>:
    3478:	fc302573          	csrrs	a0,mmsc_cfg2,zero
    347c:	4d05255b          	bfoz	a0,a0,19,16
    3480:	00008067          	jalr	zero,0(ra)

00003484 <wait_l2c_init>:
    3484:	1141                	c.addi	sp,-16
    3486:	e0500637          	lui	a2,0xe0500
    348a:	6691                	c.lui	a3,0x4
    348c:	4618                	c.lw	a4,8(a2)
    348e:	465c                	c.lw	a5,12(a2)
    3490:	c43a                	c.swsp	a4,8(sp)
    3492:	c63e                	c.swsp	a5,12(sp)
    3494:	4722                	c.lwsp	a4,8(sp)
    3496:	47b2                	c.lwsp	a5,12(sp)
    3498:	8f75                	c.and	a4,a3
    349a:	fb6d                	c.bnez	a4,348c <wait_l2c_init+0x8>
    349c:	0141                	c.addi	sp,16
    349e:	8082                	c.jr	ra

000034a0 <enter_cache_coherent_mode>:
    34a0:	1101                	c.addi	sp,-32
    34a2:	ce06                	c.swsp	ra,28(sp)
    34a4:	cc22                	c.swsp	s0,24(sp)
    34a6:	ca26                	c.swsp	s1,20(sp)
    34a8:	842a                	c.mv	s0,a0
    34aa:	f14024f3          	csrrs	s1,mhartid,zero
    34ae:	3f4d                	c.jal	3460 <check_l2c_exist>
    34b0:	00050e63          	beq	a0,zero,34cc <enter_cache_coherent_mode+0x2c>
    34b4:	02848263          	beq	s1,s0,34d8 <enter_cache_coherent_mode+0x38>
    34b8:	000807b7          	lui	a5,0x80
    34bc:	7ca7a7f3          	csrrs	a5,mcache_ctl,a5
    34c0:	7ca027f3          	csrrs	a5,mcache_ctl,zero
    34c4:	bf47fe5b          	bbc	a5,20,34c0 <enter_cache_coherent_mode+0x20>
    34c8:	7ca167f3          	csrrsi	a5,mcache_ctl,2
    34cc:	40f2                	c.lwsp	ra,28(sp)
    34ce:	4462                	c.lwsp	s0,24(sp)
    34d0:	44d2                	c.lwsp	s1,20(sp)
    34d2:	6105                	c.addi16sp	sp,32
    34d4:	00008067          	jalr	zero,0(ra)
    34d8:	e05007b7          	lui	a5,0xe0500
    34dc:	4798                	c.lw	a4,8(a5)
    34de:	47dc                	c.lw	a5,12(a5)
    34e0:	c43a                	c.swsp	a4,8(sp)
    34e2:	c63e                	c.swsp	a5,12(sp)
    34e4:	4722                	c.lwsp	a4,8(sp)
    34e6:	47b2                	c.lwsp	a5,12(sp)
    34e8:	8b05                	c.andi	a4,1
    34ea:	f779                	c.bnez	a4,34b8 <enter_cache_coherent_mode+0x18>
    34ec:	4622                	c.lwsp	a2,8(sp)
    34ee:	46b2                	c.lwsp	a3,12(sp)
    34f0:	00166713          	ori	a4,a2,1
    34f4:	87b6                	c.mv	a5,a3
    34f6:	e05006b7          	lui	a3,0xe0500
    34fa:	c698                	c.sw	a4,8(a3)
    34fc:	c6dc                	c.sw	a5,12(a3)
    34fe:	bf6d                	c.j	34b8 <enter_cache_coherent_mode+0x18>

00003500 <leave_cache_coherent_mode>:
    3500:	1101                	c.addi	sp,-32
    3502:	ce06                	c.swsp	ra,28(sp)
    3504:	cc22                	c.swsp	s0,24(sp)
    3506:	ca26                	c.swsp	s1,20(sp)
    3508:	c84a                	c.swsp	s2,16(sp)
    350a:	892a                	c.mv	s2,a0
    350c:	842e                	c.mv	s0,a1
    350e:	f14024f3          	csrrs	s1,mhartid,zero
    3512:	7cc35073          	csrrwi	zero,mcctlcommand,6
    3516:	37a9                	c.jal	3460 <check_l2c_exist>
    3518:	c921                	c.beqz	a0,3568 <leave_cache_coherent_mode+0x68>
    351a:	0424dd5b          	beqc	s1,2,3574 <leave_cache_coherent_mode+0x74>
    351e:	0634d35b          	beqc	s1,3,3584 <leave_cache_coherent_mode+0x84>
    3522:	0014d95b          	beqc	s1,1,3534 <leave_cache_coherent_mode+0x34>
    3526:	e05007b7          	lui	a5,0xe0500
    352a:	4649                	c.li	a2,18
    352c:	4681                	c.li	a3,0
    352e:	c3b0                	c.sw	a2,64(a5)
    3530:	c3f4                	c.sw	a3,68(a5)
    3532:	a039                	c.j	3540 <leave_cache_coherent_mode+0x40>
    3534:	e05007b7          	lui	a5,0xe0500
    3538:	4649                	c.li	a2,18
    353a:	4681                	c.li	a3,0
    353c:	cbb0                	c.sw	a2,80(a5)
    353e:	cbf4                	c.sw	a3,84(a5)
    3540:	e05006b7          	lui	a3,0xe0500
    3544:	0806a703          	lw	a4,128(a3) # e0500080 <start_address+0x60500074>
    3548:	0846a783          	lw	a5,132(a3)
    354c:	8f5d                	c.or	a4,a5
    354e:	fb7d                	c.bnez	a4,3544 <leave_cache_coherent_mode+0x44>
    3550:	7ca177f3          	csrrci	a5,mcache_ctl,2
    3554:	000807b7          	lui	a5,0x80
    3558:	7ca7b7f3          	csrrc	a5,mcache_ctl,a5
    355c:	7ca027f3          	csrrs	a5,mcache_ctl,zero
    3560:	ff47fe5b          	bbs	a5,20,355c <leave_cache_coherent_mode+0x5c>
    3564:	03248863          	beq	s1,s2,3594 <leave_cache_coherent_mode+0x94>
    3568:	40f2                	c.lwsp	ra,28(sp)
    356a:	4462                	c.lwsp	s0,24(sp)
    356c:	44d2                	c.lwsp	s1,20(sp)
    356e:	4942                	c.lwsp	s2,16(sp)
    3570:	6105                	c.addi16sp	sp,32
    3572:	8082                	c.jr	ra
    3574:	e05007b7          	lui	a5,0xe0500
    3578:	4649                	c.li	a2,18
    357a:	4681                	c.li	a3,0
    357c:	d3b0                	c.sw	a2,96(a5)
    357e:	d3f4                	c.sw	a3,100(a5)
    3580:	fc1ff06f          	jal	zero,3540 <leave_cache_coherent_mode+0x40>
    3584:	e05007b7          	lui	a5,0xe0500
    3588:	4649                	c.li	a2,18
    358a:	4681                	c.li	a3,0
    358c:	dbb0                	c.sw	a2,112(a5)
    358e:	dbf4                	c.sw	a3,116(a5)
    3590:	fb1ff06f          	jal	zero,3540 <leave_cache_coherent_mode+0x40>
    3594:	fc040ae3          	beq	s0,zero,3568 <leave_cache_coherent_mode+0x68>
    3598:	e0500637          	lui	a2,0xe0500
    359c:	00ff06b7          	lui	a3,0xff0
    35a0:	4618                	c.lw	a4,8(a2)
    35a2:	465c                	c.lw	a5,12(a2)
    35a4:	c43a                	c.swsp	a4,8(sp)
    35a6:	c63e                	c.swsp	a5,12(sp)
    35a8:	4722                	c.lwsp	a4,8(sp)
    35aa:	47b2                	c.lwsp	a5,12(sp)
    35ac:	8f75                	c.and	a4,a3
    35ae:	fb6d                	c.bnez	a4,35a0 <leave_cache_coherent_mode+0xa0>
    35b0:	e05007b7          	lui	a5,0xe0500
    35b4:	4798                	c.lw	a4,8(a5)
    35b6:	47dc                	c.lw	a5,12(a5)
    35b8:	c43a                	c.swsp	a4,8(sp)
    35ba:	c63e                	c.swsp	a5,12(sp)
    35bc:	4722                	c.lwsp	a4,8(sp)
    35be:	47b2                	c.lwsp	a5,12(sp)
    35c0:	8b05                	c.andi	a4,1
    35c2:	d35d                	c.beqz	a4,3568 <leave_cache_coherent_mode+0x68>
    35c4:	4622                	c.lwsp	a2,8(sp)
    35c6:	46b2                	c.lwsp	a3,12(sp)
    35c8:	00164713          	xori	a4,a2,1
    35cc:	87b6                	c.mv	a5,a3
    35ce:	e05006b7          	lui	a3,0xe0500
    35d2:	c698                	c.sw	a4,8(a3)
    35d4:	c6dc                	c.sw	a5,12(a3)
    35d6:	bf49                	c.j	3568 <leave_cache_coherent_mode+0x68>

000035d8 <set_core_i_reset_vector>:
    35d8:	1141                	c.addi	sp,-16
    35da:	c606                	c.swsp	ra,12(sp)
    35dc:	c422                	c.swsp	s0,8(sp)
    35de:	c226                	c.swsp	s1,4(sp)
    35e0:	84ae                	c.mv	s1,a1
    35e2:	8432                	c.mv	s0,a2
    35e4:	479d                	c.li	a5,7
    35e6:	08a7e963          	bltu	a5,a0,3678 <set_core_i_reset_vector+0xa0>
    35ea:	000047b7          	lui	a5,0x4
    35ee:	22078793          	addi	a5,a5,544 # 4220 <__riscv_restore_0+0x20>
    35f2:	0ca7855b          	lea.w	a0,a5,a0
    35f6:	411c                	c.lw	a5,0(a0)
    35f8:	00078067          	jalr	zero,0(a5)
    35fc:	f01007b7          	lui	a5,0xf0100
    3600:	06478713          	addi	a4,a5,100 # f0100064 <start_address+0x70100058>
    3604:	05478793          	addi	a5,a5,84
    3608:	c384                	c.sw	s1,0(a5)
    360a:	c300                	c.sw	s0,0(a4)
    360c:	40b2                	c.lwsp	ra,12(sp)
    360e:	4422                	c.lwsp	s0,8(sp)
    3610:	4492                	c.lwsp	s1,4(sp)
    3612:	0141                	c.addi	sp,16
    3614:	00008067          	jalr	zero,0(ra)
    3618:	f01007b7          	lui	a5,0xf0100
    361c:	06878713          	addi	a4,a5,104 # f0100068 <start_address+0x7010005c>
    3620:	05878793          	addi	a5,a5,88
    3624:	fe5ff06f          	jal	zero,3608 <set_core_i_reset_vector+0x30>
    3628:	f01007b7          	lui	a5,0xf0100
    362c:	06c78713          	addi	a4,a5,108 # f010006c <start_address+0x70100060>
    3630:	05c78793          	addi	a5,a5,92
    3634:	fd5ff06f          	jal	zero,3608 <set_core_i_reset_vector+0x30>
    3638:	f01007b7          	lui	a5,0xf0100
    363c:	21078713          	addi	a4,a5,528 # f0100210 <start_address+0x70100204>
    3640:	20078793          	addi	a5,a5,512
    3644:	fc5ff06f          	jal	zero,3608 <set_core_i_reset_vector+0x30>
    3648:	f01007b7          	lui	a5,0xf0100
    364c:	21478713          	addi	a4,a5,532 # f0100214 <start_address+0x70100208>
    3650:	20478793          	addi	a5,a5,516
    3654:	fb5ff06f          	jal	zero,3608 <set_core_i_reset_vector+0x30>
    3658:	f01007b7          	lui	a5,0xf0100
    365c:	21878713          	addi	a4,a5,536 # f0100218 <start_address+0x7010020c>
    3660:	20878793          	addi	a5,a5,520
    3664:	fa5ff06f          	jal	zero,3608 <set_core_i_reset_vector+0x30>
    3668:	f01007b7          	lui	a5,0xf0100
    366c:	21c78713          	addi	a4,a5,540 # f010021c <start_address+0x70100210>
    3670:	20c78793          	addi	a5,a5,524
    3674:	f95ff06f          	jal	zero,3608 <set_core_i_reset_vector+0x30>
    3678:	00004537          	lui	a0,0x4
    367c:	20c50513          	addi	a0,a0,524 # 420c <__riscv_restore_0+0xc>
    3680:	895ff0ef          	jal	ra,2f14 <skip>
    3684:	4701                	c.li	a4,0
    3686:	4781                	c.li	a5,0
    3688:	f81ff06f          	jal	zero,3608 <set_core_i_reset_vector+0x30>
    368c:	f01007b7          	lui	a5,0xf0100
    3690:	06078713          	addi	a4,a5,96 # f0100060 <start_address+0x70100054>
    3694:	05078793          	addi	a5,a5,80
    3698:	bf85                	c.j	3608 <set_core_i_reset_vector+0x30>
    369a:	0001                	c.addi	zero,0

0000369c <__vprintf_help>:
    369c:	341002ef          	jal	t0,41dc <__riscv_save_0>
    36a0:	82bfa7ab          	lwgp	a5,-2008 # 200120 <__printf_count>
    36a4:	0785                	c.addi	a5,1
    36a6:	82ffc5ab          	swgp	a5,-2008 # 200120 <__printf_count>
    36aa:	827fa5ab          	lwgp	a1,-2012 # 20011c <__vprintf_buf>
    36ae:	823fa7ab          	lwgp	a5,-2016 # 200118 <__vprintf_buf_len>
    36b2:	00178713          	addi	a4,a5,1
    36b6:	97ae                	c.add	a5,a1
    36b8:	82efc1ab          	swgp	a4,-2016 # 200118 <__vprintf_buf_len>
    36bc:	00a78023          	sb	a0,0(a5)
    36c0:	4007695b          	bnec	a4,64,36d2 <__vprintf_help+0x36>
    36c4:	04000613          	addi	a2,zero,64
    36c8:	4505                	c.li	a0,1
    36ca:	fa2ff0ef          	jal	ra,2e6c <_write>
    36ce:	820fc1ab          	swgp	zero,-2016 # 200118 <__vprintf_buf_len>
    36d2:	32f0006f          	jal	zero,4200 <__riscv_restore_0>

000036d6 <viprintf>:
    36d6:	1141                	c.addi	sp,-16
    36d8:	c606                	c.swsp	ra,12(sp)
    36da:	c422                	c.swsp	s0,8(sp)
    36dc:	c226                	c.swsp	s1,4(sp)
    36de:	0800                	c.addi4spn	s0,sp,16
    36e0:	c04a                	c.swsp	s2,0(sp)
    36e2:	715d                	c.addi16sp	sp,-80
    36e4:	00f10793          	addi	a5,sp,15
    36e8:	00003637          	lui	a2,0x3
    36ec:	9bc1                	c.andi	a5,-16
    36ee:	69c60613          	addi	a2,a2,1692 # 369c <__vprintf_help>
    36f2:	82ffc3ab          	swgp	a5,-2012 # 20011c <__vprintf_buf>
    36f6:	820fc1ab          	swgp	zero,-2016 # 200118 <__vprintf_buf_len>
    36fa:	2885                	c.jal	376a <__printf_impl>
    36fc:	823fa62b          	lwgp	a2,-2016 # 200118 <__vprintf_buf_len>
    3700:	827fa5ab          	lwgp	a1,-2012 # 20011c <__vprintf_buf>
    3704:	4505                	c.li	a0,1
    3706:	f66ff0ef          	jal	ra,2e6c <_write>
    370a:	82bfa52b          	lwgp	a0,-2008 # 200120 <__printf_count>
    370e:	ff040113          	addi	sp,s0,-16
    3712:	40b2                	c.lwsp	ra,12(sp)
    3714:	4422                	c.lwsp	s0,8(sp)
    3716:	4492                	c.lwsp	s1,4(sp)
    3718:	4902                	c.lwsp	s2,0(sp)
    371a:	0141                	c.addi	sp,16
    371c:	8082                	c.jr	ra

0000371e <__print_integral>:
    371e:	2bf002ef          	jal	t0,41dc <__riscv_save_0>
    3722:	1101                	c.addi	sp,-32
    3724:	842a                	c.mv	s0,a0
    3726:	84ae                	c.mv	s1,a1
    3728:	8932                	c.mv	s2,a2
    372a:	c636                	c.swsp	a3,12(sp)
    372c:	853a                	c.mv	a0,a4
    372e:	85be                	c.mv	a1,a5
    3730:	0830                	c.addi4spn	a2,sp,24
    3732:	ca3e                	c.swsp	a5,20(sp)
    3734:	2959                	c.jal	3bca <__int_to_poly>
    3736:	46b2                	c.lwsp	a3,12(sp)
    3738:	882a                	c.mv	a6,a0
    373a:	083c                	c.addi4spn	a5,sp,24
    373c:	0858                	c.addi4spn	a4,sp,20
    373e:	864a                	c.mv	a2,s2
    3740:	85a6                	c.mv	a1,s1
    3742:	8522                	c.mv	a0,s0
    3744:	2165                	c.jal	3bec <__print_integral_poly>
    3746:	000047b7          	lui	a5,0x4
    374a:	24078793          	addi	a5,a5,576 # 4240 <__digits>
    374e:	00a46563          	bltu	s0,a0,3758 <__print_integral+0x3a>
    3752:	6105                	c.addi16sp	sp,32
    3754:	2ad0006f          	jal	zero,4200 <__riscv_restore_0>
    3758:	00044703          	lbu	a4,0(s0)
    375c:	0405                	c.addi	s0,1
    375e:	973e                	c.add	a4,a5
    3760:	00074703          	lbu	a4,0(a4)
    3764:	fee40fa3          	sb	a4,-1(s0)
    3768:	b7dd                	c.j	374e <__print_integral+0x30>

0000376a <__printf_impl>:
    376a:	243002ef          	jal	t0,41ac <__riscv_save_12>
    376e:	a6010113          	addi	sp,sp,-1440
    3772:	6b85                	c.lui	s7,0x1
    3774:	00004c37          	lui	s8,0x4
    3778:	842e                	c.mv	s0,a1
    377a:	250c0593          	addi	a1,s8,592 # 4250 <__digits+0x10>
    377e:	892a                	c.mv	s2,a0
    3780:	8a32                	c.mv	s4,a2
    3782:	01c10a93          	addi	s5,sp,28
    3786:	800b8b93          	addi	s7,s7,-2048 # 800 <__sharedata_end_addr+0x490>
    378a:	820fc5ab          	swgp	zero,-2008 # 200120 <__printf_count>
    378e:	c42e                	c.swsp	a1,8(sp)
    3790:	00094503          	lbu	a0,0(s2)
    3794:	e509                	c.bnez	a0,379e <__printf_impl+0x34>
    3796:	5a010113          	addi	sp,sp,1440
    379a:	24f0006f          	jal	zero,41e8 <__riscv_restore_12>
    379e:	00190493          	addi	s1,s2,1
    37a2:	005555db          	beqc	a0,37,37ac <__printf_impl+0x42>
    37a6:	9a02                	c.jalr	s4
    37a8:	8926                	c.mv	s2,s1
    37aa:	b7dd                	c.j	3790 <__printf_impl+0x26>
    37ac:	00194783          	lbu	a5,1(s2)
    37b0:	0057e8db          	bnec	a5,37,37c0 <__printf_impl+0x56>
    37b4:	02500513          	addi	a0,zero,37
    37b8:	00290493          	addi	s1,s2,2
    37bc:	9a02                	c.jalr	s4
    37be:	b7ed                	c.j	37a8 <__printf_impl+0x3e>
    37c0:	4681                	c.li	a3,0
    37c2:	4701                	c.li	a4,0
    37c4:	d002                	c.swsp	zero,32(sp)
    37c6:	0004c783          	lbu	a5,0(s1)
    37ca:	0007e7db          	bnec	a5,32,37d8 <__printf_impl+0x6e>
    37ce:	00276713          	ori	a4,a4,2
    37d2:	0485                	c.addi	s1,1
    37d4:	4685                	c.li	a3,1
    37d6:	bfc5                	c.j	37c6 <__printf_impl+0x5c>
    37d8:	00d7e5db          	bnec	a5,45,37e2 <__printf_impl+0x78>
    37dc:	00476713          	ori	a4,a4,4
    37e0:	bfcd                	c.j	37d2 <__printf_impl+0x68>
    37e2:	00b7e5db          	bnec	a5,43,37ec <__printf_impl+0x82>
    37e6:	00876713          	ori	a4,a4,8
    37ea:	b7e5                	c.j	37d2 <__printf_impl+0x68>
    37ec:	0037e5db          	bnec	a5,35,37f6 <__printf_impl+0x8c>
    37f0:	01076713          	ori	a4,a4,16
    37f4:	bff9                	c.j	37d2 <__printf_impl+0x68>
    37f6:	0107e5db          	bnec	a5,48,3800 <__printf_impl+0x96>
    37fa:	02076713          	ori	a4,a4,32
    37fe:	bfd1                	c.j	37d2 <__printf_impl+0x68>
    3800:	c291                	c.beqz	a3,3804 <__printf_impl+0x9a>
    3802:	d03a                	c.swsp	a4,32(sp)
    3804:	04a7eadb          	bnec	a5,42,3858 <__printf_impl+0xee>
    3808:	00042983          	lw	s3,0(s0)
    380c:	00440713          	addi	a4,s0,4
    3810:	0009d863          	bge	s3,zero,3820 <__printf_impl+0xb6>
    3814:	5782                	c.lwsp	a5,32(sp)
    3816:	413009b3          	sub	s3,zero,s3
    381a:	0047e793          	ori	a5,a5,4
    381e:	d03e                	c.swsp	a5,32(sp)
    3820:	0485                	c.addi	s1,1
    3822:	843a                	c.mv	s0,a4
    3824:	0004c783          	lbu	a5,0(s1)
    3828:	5d7d                	c.li	s10,-1
    382a:	06e7e8db          	bnec	a5,46,389a <__printf_impl+0x130>
    382e:	0014c783          	lbu	a5,1(s1)
    3832:	04a7dbdb          	beqc	a5,42,3888 <__printf_impl+0x11e>
    3836:	0485                	c.addi	s1,1
    3838:	4d01                	c.li	s10,0
    383a:	4725                	c.li	a4,9
    383c:	4629                	c.li	a2,10
    383e:	0004c783          	lbu	a5,0(s1)
    3842:	fd078793          	addi	a5,a5,-48
    3846:	0ff7f693          	andi	a3,a5,255
    384a:	04d76863          	bltu	a4,a3,389a <__printf_impl+0x130>
    384e:	02cd0d33          	mul	s10,s10,a2
    3852:	0485                	c.addi	s1,1
    3854:	9d3e                	c.add	s10,a5
    3856:	b7e5                	c.j	383e <__printf_impl+0xd4>
    3858:	fd078793          	addi	a5,a5,-48
    385c:	0ff7f793          	andi	a5,a5,255
    3860:	4725                	c.li	a4,9
    3862:	4981                	c.li	s3,0
    3864:	fcf760e3          	bltu	a4,a5,3824 <__printf_impl+0xba>
    3868:	4725                	c.li	a4,9
    386a:	4629                	c.li	a2,10
    386c:	a029                	c.j	3876 <__printf_impl+0x10c>
    386e:	02c989b3          	mul	s3,s3,a2
    3872:	0485                	c.addi	s1,1
    3874:	99be                	c.add	s3,a5
    3876:	0004c783          	lbu	a5,0(s1)
    387a:	fd078793          	addi	a5,a5,-48
    387e:	0ff7f693          	andi	a3,a5,255
    3882:	fed776e3          	bgeu	a4,a3,386e <__printf_impl+0x104>
    3886:	bf79                	c.j	3824 <__printf_impl+0xba>
    3888:	00042d03          	lw	s10,0(s0)
    388c:	00440793          	addi	a5,s0,4
    3890:	000d5363          	bge	s10,zero,3896 <__printf_impl+0x12c>
    3894:	5d7d                	c.li	s10,-1
    3896:	0489                	c.addi	s1,2
    3898:	843e                	c.mv	s0,a5
    389a:	43200793          	addi	a5,zero,1074
    389e:	866a                	c.mv	a2,s10
    38a0:	01a7d463          	bge	a5,s10,38a8 <__printf_impl+0x13e>
    38a4:	43200613          	addi	a2,zero,1074
    38a8:	0004c783          	lbu	a5,0(s1)
    38ac:	4687e2db          	bnec	a5,104,3910 <__printf_impl+0x1a6>
    38b0:	5782                	c.lwsp	a5,32(sp)
    38b2:	0014c703          	lbu	a4,1(s1)
    38b6:	448767db          	bnec	a4,104,3904 <__printf_impl+0x19a>
    38ba:	0407e793          	ori	a5,a5,64
    38be:	00248913          	addi	s2,s1,2
    38c2:	d03e                	c.swsp	a5,32(sp)
    38c4:	00094683          	lbu	a3,0(s2)
    38c8:	07800793          	addi	a5,zero,120
    38cc:	22d7eb63          	bltu	a5,a3,3b02 <__printf_impl+0x398>
    38d0:	05700793          	addi	a5,zero,87
    38d4:	06d7e863          	bltu	a5,a3,3944 <__printf_impl+0x1da>
    38d8:	4016d95b          	beqc	a3,65,38ea <__printf_impl+0x180>
    38dc:	fbb68793          	addi	a5,a3,-69 # e04fffbb <start_address+0x604fffaf>
    38e0:	0ff7f793          	andi	a5,a5,255
    38e4:	4709                	c.li	a4,2
    38e6:	20f76e63          	bltu	a4,a5,3b02 <__printf_impl+0x398>
    38ea:	00740593          	addi	a1,s0,7
    38ee:	99e1                	c.andi	a1,-8
    38f0:	2188                	c.fld	fa0,0(a1)
    38f2:	00858413          	addi	s0,a1,8 # 2008 <_trap_entry_vclic+0x8>
    38f6:	1048                	c.addi4spn	a0,sp,36
    38f8:	100c                	c.addi4spn	a1,sp,32
    38fa:	0206fc93          	andi	s9,a3,32
    38fe:	2e95                	c.jal	3c72 <__printf_float_impl>
    3900:	84aa                	c.mv	s1,a0
    3902:	a8bd                	c.j	3980 <__printf_impl+0x216>
    3904:	0807e793          	ori	a5,a5,128
    3908:	00148913          	addi	s2,s1,1
    390c:	d03e                	c.swsp	a5,32(sp)
    390e:	bf5d                	c.j	38c4 <__printf_impl+0x15a>
    3910:	40c7eddb          	bnec	a5,108,392a <__printf_impl+0x1c0>
    3914:	5782                	c.lwsp	a5,32(sp)
    3916:	0014c703          	lbu	a4,1(s1)
    391a:	40c765db          	bnec	a4,108,3924 <__printf_impl+0x1ba>
    391e:	2007e793          	ori	a5,a5,512
    3922:	bf71                	c.j	38be <__printf_impl+0x154>
    3924:	1007e793          	ori	a5,a5,256
    3928:	b7c5                	c.j	3908 <__printf_impl+0x19e>
    392a:	00148913          	addi	s2,s1,1
    392e:	41a7e7db          	bnec	a5,122,393c <__printf_impl+0x1d2>
    3932:	5782                	c.lwsp	a5,32(sp)
    3934:	1007e793          	ori	a5,a5,256
    3938:	d03e                	c.swsp	a5,32(sp)
    393a:	b769                	c.j	38c4 <__printf_impl+0x15a>
    393c:	ff47dbdb          	beqc	a5,116,3932 <__printf_impl+0x1c8>
    3940:	8926                	c.mv	s2,s1
    3942:	b749                	c.j	38c4 <__printf_impl+0x15a>
    3944:	fa868793          	addi	a5,a3,-88
    3948:	0ff7f793          	andi	a5,a5,255
    394c:	02000713          	addi	a4,zero,32
    3950:	1af76963          	bltu	a4,a5,3b02 <__printf_impl+0x398>
    3954:	45a2                	c.lwsp	a1,8(sp)
    3956:	0cf587db          	lea.w	a5,a1,a5
    395a:	439c                	c.lw	a5,0(a5)
    395c:	8782                	c.jr	a5
    395e:	45a9                	c.li	a1,10
    3960:	5782                	c.lwsp	a5,32(sp)
    3962:	1267f35b          	bbc	a5,6,3a88 <__printf_impl+0x31e>
    3966:	00044703          	lbu	a4,0(s0)
    396a:	00440d93          	addi	s11,s0,4
    396e:	4781                	c.li	a5,0
    3970:	a289                	c.j	3ab2 <__printf_impl+0x348>
    3972:	401c                	c.lw	a5,0(s0)
    3974:	4c81                	c.li	s9,0
    3976:	0411                	c.addi	s0,4
    3978:	02510493          	addi	s1,sp,37
    397c:	02f10223          	sb	a5,36(sp)
    3980:	02410c13          	addi	s8,sp,36
    3984:	a025                	c.j	39ac <__printf_impl+0x242>
    3986:	00042c03          	lw	s8,0(s0)
    398a:	85b2                	c.mv	a1,a2
    398c:	8562                	c.mv	a0,s8
    398e:	c632                	c.swsp	a2,12(sp)
    3990:	2f29                	c.jal	40aa <strnlen>
    3992:	57fd                	c.li	a5,-1
    3994:	00440c93          	addi	s9,s0,4
    3998:	00fd0663          	beq	s10,a5,39a4 <__printf_impl+0x23a>
    399c:	4632                	c.lwsp	a2,12(sp)
    399e:	00a65363          	bge	a2,a0,39a4 <__printf_impl+0x23a>
    39a2:	8532                	c.mv	a0,a2
    39a4:	8466                	c.mv	s0,s9
    39a6:	00ac04b3          	add	s1,s8,a0
    39aa:	4c81                	c.li	s9,0
    39ac:	5782                	c.lwsp	a5,32(sp)
    39ae:	02d00693          	addi	a3,zero,45
    39b2:	40a7fb5b          	bbs	a5,10,39c8 <__printf_impl+0x25e>
    39b6:	02b00693          	addi	a3,zero,43
    39ba:	4037f75b          	bbs	a5,3,39c8 <__printf_impl+0x25e>
    39be:	8d56                	c.mv	s10,s5
    39c0:	0017f85b          	bbc	a5,1,39d0 <__printf_impl+0x266>
    39c4:	02000693          	addi	a3,zero,32
    39c8:	01d10d13          	addi	s10,sp,29
    39cc:	00d10e23          	sb	a3,28(sp)
    39d0:	0177f6b3          	and	a3,a5,s7
    39d4:	ca91                	c.beqz	a3,39e8 <__printf_impl+0x27e>
    39d6:	03000693          	addi	a3,zero,48
    39da:	00dd0023          	sb	a3,0(s10)
    39de:	05800693          	addi	a3,zero,88
    39e2:	00dd00a3          	sb	a3,1(s10)
    39e6:	0d09                	c.addi	s10,2
    39e8:	5627f75b          	bbs	a5,2,3b56 <__printf_impl+0x3ec>
    39ec:	41848db3          	sub	s11,s1,s8
    39f0:	4057f95b          	bbs	a5,5,3a02 <__printf_impl+0x298>
    39f4:	41b987b3          	sub	a5,s3,s11
    39f8:	415d06b3          	sub	a3,s10,s5
    39fc:	8f95                	c.sub	a5,a3
    39fe:	16f04a63          	blt	zero,a5,3b72 <__printf_impl+0x408>
    3a02:	87d6                	c.mv	a5,s5
    3a04:	a271                	c.j	3b90 <__printf_impl+0x426>
    3a06:	5682                	c.lwsp	a3,32(sp)
    3a08:	0266f55b          	bbc	a3,6,3a32 <__printf_impl+0x2c8>
    3a0c:	00040703          	lb	a4,0(s0)
    3a10:	00440d93          	addi	s11,s0,4
    3a14:	41f75793          	srai	a5,a4,0x1f
    3a18:	0407d463          	bge	a5,zero,3a60 <__printf_impl+0x2f6>
    3a1c:	00e035b3          	sltu	a1,zero,a4
    3a20:	40f007b3          	sub	a5,zero,a5
    3a24:	40e00733          	sub	a4,zero,a4
    3a28:	8f8d                	c.sub	a5,a1
    3a2a:	4006e693          	ori	a3,a3,1024
    3a2e:	d036                	c.swsp	a3,32(sp)
    3a30:	a805                	c.j	3a60 <__printf_impl+0x2f6>
    3a32:	0076f75b          	bbc	a3,7,3a40 <__printf_impl+0x2d6>
    3a36:	00041703          	lh	a4,0(s0)
    3a3a:	00440d93          	addi	s11,s0,4
    3a3e:	bfd9                	c.j	3a14 <__printf_impl+0x2aa>
    3a40:	0086f65b          	bbc	a3,8,3a4c <__printf_impl+0x2e2>
    3a44:	4018                	c.lw	a4,0(s0)
    3a46:	00440d93          	addi	s11,s0,4
    3a4a:	b7e9                	c.j	3a14 <__printf_impl+0x2aa>
    3a4c:	be96fc5b          	bbc	a3,9,3a44 <__printf_impl+0x2da>
    3a50:	041d                	c.addi	s0,7
    3a52:	9861                	c.andi	s0,-8
    3a54:	405c                	c.lw	a5,4(s0)
    3a56:	4018                	c.lw	a4,0(s0)
    3a58:	00840d93          	addi	s11,s0,8
    3a5c:	0007c963          	blt	a5,zero,3a6e <__printf_impl+0x304>
    3a60:	56fd                	c.li	a3,-1
    3a62:	45a9                	c.li	a1,10
    3a64:	4c81                	c.li	s9,0
    3a66:	04dd1b63          	bne	s10,a3,3abc <__printf_impl+0x352>
    3a6a:	4605                	c.li	a2,1
    3a6c:	a0bd                	c.j	3ada <__printf_impl+0x370>
    3a6e:	f75d                	c.bnez	a4,3a1c <__printf_impl+0x2b2>
    3a70:	800005b7          	lui	a1,0x80000
    3a74:	fab794e3          	bne	a5,a1,3a1c <__printf_impl+0x2b2>
    3a78:	4701                	c.li	a4,0
    3a7a:	800007b7          	lui	a5,0x80000
    3a7e:	b775                	c.j	3a2a <__printf_impl+0x2c0>
    3a80:	45c1                	c.li	a1,16
    3a82:	bdf9                	c.j	3960 <__printf_impl+0x1f6>
    3a84:	45a1                	c.li	a1,8
    3a86:	bde9                	c.j	3960 <__printf_impl+0x1f6>
    3a88:	0077f75b          	bbc	a5,7,3a96 <__printf_impl+0x32c>
    3a8c:	00045703          	lhu	a4,0(s0)
    3a90:	00440d93          	addi	s11,s0,4
    3a94:	bde9                	c.j	396e <__printf_impl+0x204>
    3a96:	0087f65b          	bbc	a5,8,3aa2 <__printf_impl+0x338>
    3a9a:	4018                	c.lw	a4,0(s0)
    3a9c:	00440d93          	addi	s11,s0,4
    3aa0:	b5f9                	c.j	396e <__printf_impl+0x204>
    3aa2:	be97fc5b          	bbc	a5,9,3a9a <__printf_impl+0x330>
    3aa6:	041d                	c.addi	s0,7
    3aa8:	9861                	c.andi	s0,-8
    3aaa:	4018                	c.lw	a4,0(s0)
    3aac:	405c                	c.lw	a5,4(s0)
    3aae:	00840d93          	addi	s11,s0,8
    3ab2:	0206fc93          	andi	s9,a3,32
    3ab6:	56fd                	c.li	a3,-1
    3ab8:	02dd0863          	beq	s10,a3,3ae8 <__printf_impl+0x37e>
    3abc:	5682                	c.lwsp	a3,32(sp)
    3abe:	fdf6f693          	andi	a3,a3,-33
    3ac2:	d036                	c.swsp	a3,32(sp)
    3ac4:	0105eb5b          	bnec	a1,16,3ada <__printf_impl+0x370>
    3ac8:	5682                	c.lwsp	a3,32(sp)
    3aca:	0046f85b          	bbc	a3,4,3ada <__printf_impl+0x370>
    3ace:	00f76533          	or	a0,a4,a5
    3ad2:	c501                	c.beqz	a0,3ada <__printf_impl+0x370>
    3ad4:	0176e6b3          	or	a3,a3,s7
    3ad8:	d036                	c.swsp	a3,32(sp)
    3ada:	86b2                	c.mv	a3,a2
    3adc:	5602                	c.lwsp	a2,32(sp)
    3ade:	1048                	c.addi4spn	a0,sp,36
    3ae0:	393d                	c.jal	371e <__print_integral>
    3ae2:	846e                	c.mv	s0,s11
    3ae4:	84aa                	c.mv	s1,a0
    3ae6:	bd69                	c.j	3980 <__printf_impl+0x216>
    3ae8:	4605                	c.li	a2,1
    3aea:	bfe9                	c.j	3ac4 <__printf_impl+0x35a>
    3aec:	5602                	c.lwsp	a2,32(sp)
    3aee:	82bfa7ab          	lwgp	a5,-2008 # 200120 <__printf_count>
    3af2:	4018                	c.lw	a4,0(s0)
    3af4:	00440693          	addi	a3,s0,4
    3af8:	0066795b          	bbc	a2,6,3b0a <__printf_impl+0x3a0>
    3afc:	00f70023          	sb	a5,0(a4)
    3b00:	8436                	c.mv	s0,a3
    3b02:	1044                	c.addi4spn	s1,sp,36
    3b04:	4c81                	c.li	s9,0
    3b06:	8c26                	c.mv	s8,s1
    3b08:	b555                	c.j	39ac <__printf_impl+0x242>
    3b0a:	0076755b          	bbc	a2,7,3b14 <__printf_impl+0x3aa>
    3b0e:	00f71023          	sh	a5,0(a4)
    3b12:	b7fd                	c.j	3b00 <__printf_impl+0x396>
    3b14:	c31c                	c.sw	a5,0(a4)
    3b16:	fe86755b          	bbs	a2,8,3b00 <__printf_impl+0x396>
    3b1a:	be96735b          	bbc	a2,9,3b00 <__printf_impl+0x396>
    3b1e:	87fd                	c.srai	a5,0x1f
    3b20:	c35c                	c.sw	a5,4(a4)
    3b22:	bff9                	c.j	3b00 <__printf_impl+0x396>
    3b24:	000dc503          	lbu	a0,0(s11)
    3b28:	0d85                	c.addi	s11,1
    3b2a:	00ace533          	or	a0,s9,a0
    3b2e:	9a02                	c.jalr	s4
    3b30:	ffadeae3          	bltu	s11,s10,3b24 <__printf_impl+0x3ba>
    3b34:	4781                	c.li	a5,0
    3b36:	015d6463          	bltu	s10,s5,3b3e <__printf_impl+0x3d4>
    3b3a:	41aa87b3          	sub	a5,s5,s10
    3b3e:	99be                	c.add	s3,a5
    3b40:	8d62                	c.mv	s10,s8
    3b42:	01a49c63          	bne	s1,s10,3b5a <__printf_impl+0x3f0>
    3b46:	418484b3          	sub	s1,s1,s8
    3b4a:	409984b3          	sub	s1,s3,s1
    3b4e:	00904d63          	blt	zero,s1,3b68 <__printf_impl+0x3fe>
    3b52:	0905                	c.addi	s2,1
    3b54:	b935                	c.j	3790 <__printf_impl+0x26>
    3b56:	8dd6                	c.mv	s11,s5
    3b58:	bfe1                	c.j	3b30 <__printf_impl+0x3c6>
    3b5a:	000d4503          	lbu	a0,0(s10)
    3b5e:	0d05                	c.addi	s10,1
    3b60:	00ace533          	or	a0,s9,a0
    3b64:	9a02                	c.jalr	s4
    3b66:	bff1                	c.j	3b42 <__printf_impl+0x3d8>
    3b68:	02000513          	addi	a0,zero,32
    3b6c:	14fd                	c.addi	s1,-1
    3b6e:	9a02                	c.jalr	s4
    3b70:	bff9                	c.j	3b4e <__printf_impl+0x3e4>
    3b72:	02000513          	addi	a0,zero,32
    3b76:	c63e                	c.swsp	a5,12(sp)
    3b78:	9a02                	c.jalr	s4
    3b7a:	47b2                	c.lwsp	a5,12(sp)
    3b7c:	17fd                	c.addi	a5,-1
    3b7e:	b541                	c.j	39fe <__printf_impl+0x294>
    3b80:	0007c503          	lbu	a0,0(a5) # 80000000 <start_address+0xfffffff4>
    3b84:	c63e                	c.swsp	a5,12(sp)
    3b86:	00ace533          	or	a0,s9,a0
    3b8a:	9a02                	c.jalr	s4
    3b8c:	47b2                	c.lwsp	a5,12(sp)
    3b8e:	0785                	c.addi	a5,1
    3b90:	ffa7e8e3          	bltu	a5,s10,3b80 <__printf_impl+0x416>
    3b94:	4781                	c.li	a5,0
    3b96:	015d6463          	bltu	s10,s5,3b9e <__printf_impl+0x434>
    3b9a:	41aa87b3          	sub	a5,s5,s10
    3b9e:	99be                	c.add	s3,a5
    3ba0:	5782                	c.lwsp	a5,32(sp)
    3ba2:	0057f65b          	bbc	a5,5,3bae <__printf_impl+0x444>
    3ba6:	41b989b3          	sub	s3,s3,s11
    3baa:	01304b63          	blt	zero,s3,3bc0 <__printf_impl+0x456>
    3bae:	fb8482e3          	beq	s1,s8,3b52 <__printf_impl+0x3e8>
    3bb2:	000c4503          	lbu	a0,0(s8)
    3bb6:	0c05                	c.addi	s8,1
    3bb8:	00ace533          	or	a0,s9,a0
    3bbc:	9a02                	c.jalr	s4
    3bbe:	bfc5                	c.j	3bae <__printf_impl+0x444>
    3bc0:	03000513          	addi	a0,zero,48
    3bc4:	19fd                	c.addi	s3,-1
    3bc6:	9a02                	c.jalr	s4
    3bc8:	b7cd                	c.j	3baa <__printf_impl+0x440>

00003bca <__int_to_poly>:
    3bca:	87aa                	c.mv	a5,a0
    3bcc:	4501                	c.li	a0,0
    3bce:	00b7e733          	or	a4,a5,a1
    3bd2:	e311                	c.bnez	a4,3bd6 <__int_to_poly+0xc>
    3bd4:	8082                	c.jr	ra
    3bd6:	0aa6075b          	lea.h	a4,a2,a0
    3bda:	00f71023          	sh	a5,0(a4)
    3bde:	01059713          	slli	a4,a1,0x10
    3be2:	83c1                	c.srli	a5,0x10
    3be4:	8fd9                	c.or	a5,a4
    3be6:	81c1                	c.srli	a1,0x10
    3be8:	0505                	c.addi	a0,1
    3bea:	b7d5                	c.j	3bce <__int_to_poly+0x4>

00003bec <__print_integral_poly>:
    3bec:	5f0002ef          	jal	t0,41dc <__riscv_save_0>
    3bf0:	84ba                	c.mv	s1,a4
    3bf2:	fff80893          	addi	a7,a6,-1
    3bf6:	0b07875b          	lea.h	a4,a5,a6
    3bfa:	8346                	c.mv	t1,a7
    3bfc:	4401                	c.li	s0,0
    3bfe:	8e3a                	c.mv	t3,a4
    3c00:	1779                	c.addi	a4,-2
    3c02:	02035563          	bge	t1,zero,3c2c <__print_integral_poly+0x40>
    3c06:	03005f63          	bge	zero,a6,3c44 <__print_integral_poly+0x58>
    3c0a:	ffee5703          	lhu	a4,-2(t3)
    3c0e:	e701                	c.bnez	a4,3c16 <__print_integral_poly+0x2a>
    3c10:	03105a63          	bge	zero,a7,3c44 <__print_integral_poly+0x58>
    3c14:	8846                	c.mv	a6,a7
    3c16:	8726                	c.mv	a4,s1
    3c18:	16fd                	c.addi	a3,-1
    3c1a:	3fc9                	c.jal	3bec <__print_integral_poly>
    3c1c:	87aa                	c.mv	a5,a0
    3c1e:	0505                	c.addi	a0,1
    3c20:	00878023          	sb	s0,0(a5)
    3c24:	409c                	c.lw	a5,0(s1)
    3c26:	0785                	c.addi	a5,1
    3c28:	c09c                	c.sw	a5,0(s1)
    3c2a:	abd9                	c.j	4200 <__riscv_restore_0>
    3c2c:	00075e83          	lhu	t4,0(a4)
    3c30:	0442                	c.slli	s0,0x10
    3c32:	9476                	c.add	s0,t4
    3c34:	02b45eb3          	divu	t4,s0,a1
    3c38:	137d                	c.addi	t1,-1
    3c3a:	02b47433          	remu	s0,s0,a1
    3c3e:	01d71023          	sh	t4,0(a4)
    3c42:	bf7d                	c.j	3c00 <__print_integral_poly+0x14>
    3c44:	c011                	c.beqz	s0,3c48 <__print_integral_poly+0x5c>
    3c46:	16fd                	c.addi	a3,-1
    3c48:	00d04763          	blt	zero,a3,3c56 <__print_integral_poly+0x6a>
    3c4c:	0085ee5b          	bnec	a1,8,3c68 <__print_integral_poly+0x7c>
    3c50:	00467c5b          	bbc	a2,4,3c68 <__print_integral_poly+0x7c>
    3c54:	4685                	c.li	a3,1
    3c56:	4781                	c.li	a5,0
    3c58:	00f50733          	add	a4,a0,a5
    3c5c:	00070023          	sb	zero,0(a4)
    3c60:	0785                	c.addi	a5,1
    3c62:	fed7cbe3          	blt	a5,a3,3c58 <__print_integral_poly+0x6c>
    3c66:	9536                	c.add	a0,a3
    3c68:	dc55                	c.beqz	s0,3c24 <__print_integral_poly+0x38>
    3c6a:	00850023          	sb	s0,0(a0)
    3c6e:	0505                	c.addi	a0,1
    3c70:	bf55                	c.j	3c24 <__print_integral_poly+0x38>

00003c72 <__printf_float_impl>:
    3c72:	53a002ef          	jal	t0,41ac <__riscv_save_12>
    3c76:	7169                	c.addi16sp	sp,-304
    3c78:	0df6fd13          	andi	s10,a3,223
    3c7c:	a02a                	c.fsdsp	fa0,0(sp)
    3c7e:	8c2a                	c.mv	s8,a0
    3c80:	8a2e                	c.mv	s4,a1
    3c82:	84b2                	c.mv	s1,a2
    3c84:	8936                	c.mv	s2,a3
    3c86:	467d6d5b          	bnec	s10,71,3d00 <__printf_float_impl+0x8e>
    3c8a:	0005aa83          	lw	s5,0(a1) # 80000000 <start_address+0xfffffff4>
    3c8e:	010aca93          	xori	s5,s5,16
    3c92:	104aaadb          	bfoz	s5,s5,4,4
    3c96:	0604db63          	bge	s1,zero,3d0c <__printf_float_impl+0x9a>
    3c9a:	44b5                	c.li	s1,13
    3c9c:	401d535b          	beqc	s10,65,3ca2 <__printf_float_impl+0x30>
    3ca0:	4499                	c.li	s1,6
    3ca2:	4592                	c.lwsp	a1,4(sp)
    3ca4:	4982                	c.lwsp	s3,0(sp)
    3ca6:	7945a45b          	bfoz	s0,a1,30,20
    3caa:	4c05ab5b          	bfoz	s6,a1,19,0
    3cae:	0005d863          	bge	a1,zero,3cbe <__printf_float_impl+0x4c>
    3cb2:	000a2703          	lw	a4,0(s4)
    3cb6:	40076713          	ori	a4,a4,1024
    3cba:	00ea2023          	sw	a4,0(s4)
    3cbe:	401d6a5b          	bnec	s10,65,3cd2 <__printf_float_impl+0x60>
    3cc2:	000a2703          	lw	a4,0(s4)
    3cc6:	6685                	c.lui	a3,0x1
    3cc8:	80068693          	addi	a3,a3,-2048 # 800 <__sharedata_end_addr+0x490>
    3ccc:	8f55                	c.or	a4,a3
    3cce:	00ea2023          	sw	a4,0(s4)
    3cd2:	7ff00713          	addi	a4,zero,2047
    3cd6:	04e41663          	bne	s0,a4,3d22 <__printf_float_impl+0xb0>
    3cda:	000a2703          	lw	a4,0(s4)
    3cde:	4482                	c.lwsp	s1,0(sp)
    3ce0:	fdf77713          	andi	a4,a4,-33
    3ce4:	009b67b3          	or	a5,s6,s1
    3ce8:	00ea2023          	sw	a4,0(s4)
    3cec:	c795                	c.beqz	a5,3d18 <__printf_float_impl+0xa6>
    3cee:	000045b7          	lui	a1,0x4
    3cf2:	2d458593          	addi	a1,a1,724 # 42d4 <__digits+0x94>
    3cf6:	8562                	c.mv	a0,s8
    3cf8:	2eb5                	c.jal	4074 <strcpy>
    3cfa:	050d                	c.addi	a0,3
    3cfc:	6155                	c.addi16sp	sp,304
    3cfe:	a1ed                	c.j	41e8 <__riscv_restore_12>
    3d00:	4a81                	c.li	s5,0
    3d02:	f81d6a5b          	bnec	s10,65,3c96 <__printf_float_impl+0x24>
    3d06:	01f65a93          	srli	s5,a2,0x1f
    3d0a:	b771                	c.j	3c96 <__printf_float_impl+0x24>
    3d0c:	f8d9                	c.bnez	s1,3ca2 <__printf_float_impl+0x30>
    3d0e:	fb9d0493          	addi	s1,s10,-71
    3d12:	0014b493          	sltiu	s1,s1,1
    3d16:	b771                	c.j	3ca2 <__printf_float_impl+0x30>
    3d18:	000045b7          	lui	a1,0x4
    3d1c:	2d858593          	addi	a1,a1,728 # 42d8 <__digits+0x98>
    3d20:	bfd9                	c.j	3cf6 <__printf_float_impl+0x84>
    3d22:	e819                	c.bnez	s0,3d38 <__printf_float_impl+0xc6>
    3d24:	4602                	c.lwsp	a2,0(sp)
    3d26:	c0300413          	addi	s0,zero,-1021
    3d2a:	00cb6733          	or	a4,s6,a2
    3d2e:	18071463          	bne	a4,zero,3eb6 <__printf_float_impl+0x244>
    3d32:	03500413          	addi	s0,zero,53
    3d36:	a819                	c.j	3d4c <__printf_float_impl+0xda>
    3d38:	00100737          	lui	a4,0x100
    3d3c:	01676b33          	or	s6,a4,s6
    3d40:	c0240413          	addi	s0,s0,-1022
    3d44:	03400713          	addi	a4,zero,52
    3d48:	16875563          	bge	a4,s0,3eb2 <__printf_float_impl+0x240>
    3d4c:	fcb40413          	addi	s0,s0,-53
    3d50:	00445d93          	srli	s11,s0,0x4
    3d54:	001d9993          	slli	s3,s11,0x1
    3d58:	864e                	c.mv	a2,s3
    3d5a:	4581                	c.li	a1,0
    3d5c:	1008                	c.addi4spn	a0,sp,32
    3d5e:	269d                	c.jal	40c4 <memset>
    3d60:	4502                	c.lwsp	a0,0(sp)
    3d62:	883d                	c.andi	s0,15
    3d64:	1a0c                	c.addi4spn	a1,sp,304
    3d66:	99ae                	c.add	s3,a1
    3d68:	8622                	c.mv	a2,s0
    3d6a:	85da                	c.mv	a1,s6
    3d6c:	2901                	c.jal	417c <__ashldi3>
    3d6e:	0d85                	c.addi	s11,1
    3d70:	eea99823          	sh	a0,-272(s3)
    3d74:	100c                	c.addi4spn	a1,sp,32
    3d76:	4502                	c.lwsp	a0,0(sp)
    3d78:	4641                	c.li	a2,16
    3d7a:	0bb589db          	lea.h	s3,a1,s11
    3d7e:	8e01                	c.sub	a2,s0
    3d80:	85da                	c.mv	a1,s6
    3d82:	26e9                	c.jal	414c <__lshrdi3>
    3d84:	864e                	c.mv	a2,s3
    3d86:	3591                	c.jal	3bca <__int_to_poly>
    3d88:	4c81                	c.li	s9,0
    3d8a:	9daa                	c.add	s11,a0
    3d8c:	57fd                	c.li	a5,-1
    3d8e:	ce3e                	c.swsp	a5,28(sp)
    3d90:	4441                	c.li	s0,16
    3d92:	401d535b          	beqc	s10,65,3d98 <__printf_float_impl+0x126>
    3d96:	4429                	c.li	s0,10
    3d98:	886e                	c.mv	a6,s11
    3d9a:	101c                	c.addi4spn	a5,sp,32
    3d9c:	4601                	c.li	a2,0
    3d9e:	0878                	c.addi4spn	a4,sp,28
    3da0:	4685                	c.li	a3,1
    3da2:	85a2                	c.mv	a1,s0
    3da4:	8562                	c.mv	a0,s8
    3da6:	3599                	c.jal	3bec <__print_integral_poly>
    3da8:	02e00793          	addi	a5,zero,46
    3dac:	001dbd93          	sltiu	s11,s11,1
    3db0:	00f50023          	sb	a5,0(a0)
    3db4:	0db97b13          	andi	s6,s2,219
    3db8:	00150613          	addi	a2,a0,1
    3dbc:	87ee                	c.mv	a5,s11
    3dbe:	401b535b          	beqc	s6,65,3dc4 <__printf_float_impl+0x152>
    3dc2:	4781                	c.li	a5,0
    3dc4:	00148713          	addi	a4,s1,1
    3dc8:	973e                	c.add	a4,a5
    3dca:	fffc8313          	addi	t1,s9,-1
    3dce:	1134                	c.addi4spn	a3,sp,168
    3dd0:	001c9593          	slli	a1,s9,0x1
    3dd4:	0b9686db          	lea.h	a3,a3,s9
    3dd8:	881a                	c.mv	a6,t1
    3dda:	4781                	c.li	a5,0
    3ddc:	16f9                	c.addi	a3,-2
    3dde:	16085e63          	bge	a6,zero,3f5a <__printf_float_impl+0x2e8>
    3de2:	01905863          	bge	zero,s9,3df2 <__printf_float_impl+0x180>
    3de6:	1a14                	c.addi4spn	a3,sp,304
    3de8:	96ae                	c.add	a3,a1
    3dea:	f766d683          	lhu	a3,-138(a3)
    3dee:	e291                	c.bnez	a3,3df2 <__printf_float_impl+0x180>
    3df0:	8c9a                	c.mv	s9,t1
    3df2:	160d8e63          	beq	s11,zero,3f6e <__printf_float_impl+0x2fc>
    3df6:	46f2                	c.lwsp	a3,28(sp)
    3df8:	0017bd93          	sltiu	s11,a5,1
    3dfc:	16fd                	c.addi	a3,-1
    3dfe:	ce36                	c.swsp	a3,28(sp)
    3e00:	00f60023          	sb	a5,0(a2)
    3e04:	0605                	c.addi	a2,1
    3e06:	f371                	c.bnez	a4,3dca <__printf_float_impl+0x158>
    3e08:	567d665b          	bnec	s10,71,3f74 <__printf_float_impl+0x302>
    3e0c:	47f2                	c.lwsp	a5,28(sp)
    3e0e:	fff48713          	addi	a4,s1,-1
    3e12:	1897d363          	bge	a5,s1,3f98 <__printf_float_impl+0x326>
    3e16:	56f1                	c.li	a3,-4
    3e18:	18d7c063          	blt	a5,a3,3f98 <__printf_float_impl+0x326>
    3e1c:	40f704b3          	sub	s1,a4,a5
    3e20:	04600d13          	addi	s10,zero,70
    3e24:	0489                	c.addi	s1,2
    3e26:	9526                	c.add	a0,s1
    3e28:	fff54683          	lbu	a3,-1(a0)
    3e2c:	40145713          	srai	a4,s0,0x1
    3e30:	fff50793          	addi	a5,a0,-1
    3e34:	00e6a6b3          	slt	a3,a3,a4
    3e38:	0016c693          	xori	a3,a3,1
    3e3c:	863e                	c.mv	a2,a5
    3e3e:	1acc7863          	bgeu	s8,a2,3fee <__printf_float_impl+0x37c>
    3e42:	18069463          	bne	a3,zero,3fca <__printf_float_impl+0x358>
    3e46:	17fd                	c.addi	a5,-1
    3e48:	00178513          	addi	a0,a5,1
    3e4c:	00fc7763          	bgeu	s8,a5,3e5a <__printf_float_impl+0x1e8>
    3e50:	000a8563          	beq	s5,zero,3e5a <__printf_float_impl+0x1e8>
    3e54:	0007c703          	lbu	a4,0(a5)
    3e58:	d77d                	c.beqz	a4,3e46 <__printf_float_impl+0x1d4>
    3e5a:	fff54783          	lbu	a5,-1(a0)
    3e5e:	00e7e7db          	bnec	a5,46,3e6c <__printf_float_impl+0x1fa>
    3e62:	000a2783          	lw	a5,0(s4)
    3e66:	4047f35b          	bbs	a5,4,3e6c <__printf_float_impl+0x1fa>
    3e6a:	157d                	c.addi	a0,-1
    3e6c:	00004737          	lui	a4,0x4
    3e70:	46bd                	c.li	a3,15
    3e72:	24070713          	addi	a4,a4,576 # 4240 <__digits>
    3e76:	1aac6a63          	bltu	s8,a0,402a <__printf_float_impl+0x3b8>
    3e7a:	5c5d635b          	bnec	s10,69,4040 <__printf_float_impl+0x3ce>
    3e7e:	01a50023          	sb	s10,0(a0)
    3e82:	4772                	c.lwsp	a4,28(sp)
    3e84:	02b00793          	addi	a5,zero,43
    3e88:	00075463          	bge	a4,zero,3e90 <__printf_float_impl+0x21e>
    3e8c:	02d00793          	addi	a5,zero,45
    3e90:	00f500a3          	sb	a5,1(a0)
    3e94:	47f2                	c.lwsp	a5,28(sp)
    3e96:	4689                	c.li	a3,2
    3e98:	41f7d713          	srai	a4,a5,0x1f
    3e9c:	8fb9                	c.xor	a5,a4
    3e9e:	40e78733          	sub	a4,a5,a4
    3ea2:	41f75793          	srai	a5,a4,0x1f
    3ea6:	4601                	c.li	a2,0
    3ea8:	45a9                	c.li	a1,10
    3eaa:	0509                	c.addi	a0,2
    3eac:	873ff0ef          	jal	ra,371e <__print_integral>
    3eb0:	b5b1                	c.j	3cfc <__printf_float_impl+0x8a>
    3eb2:	06804063          	blt	zero,s0,3f12 <__printf_float_impl+0x2a0>
    3eb6:	40800433          	sub	s0,zero,s0
    3eba:	00445c93          	srli	s9,s0,0x4
    3ebe:	001c9b93          	slli	s7,s9,0x1
    3ec2:	865e                	c.mv	a2,s7
    3ec4:	4581                	c.li	a1,0
    3ec6:	1128                	c.addi4spn	a0,sp,168
    3ec8:	2af5                	c.jal	40c4 <memset>
    3eca:	112c                	c.addi4spn	a1,sp,168
    3ecc:	883d                	c.andi	s0,15
    3ece:	9bae                	c.add	s7,a1
    3ed0:	02540413          	addi	s0,s0,37
    3ed4:	885e                	c.mv	a6,s7
    3ed6:	4701                	c.li	a4,0
    3ed8:	8622                	c.mv	a2,s0
    3eda:	8dba                	c.mv	s11,a4
    3edc:	854e                	c.mv	a0,s3
    3ede:	0705                	c.addi	a4,1
    3ee0:	85da                	c.mv	a1,s6
    3ee2:	c642                	c.swsp	a6,12(sp)
    3ee4:	c43a                	c.swsp	a4,8(sp)
    3ee6:	249d                	c.jal	414c <__lshrdi3>
    3ee8:	4832                	c.lwsp	a6,12(sp)
    3eea:	1441                	c.addi	s0,-16
    3eec:	00a81023          	sh	a0,0(a6)
    3ef0:	4722                	c.lwsp	a4,8(sp)
    3ef2:	0809                	c.addi	a6,2
    3ef4:	fe0452e3          	bge	s0,zero,3ed8 <__printf_float_impl+0x266>
    3ef8:	4502                	c.lwsp	a0,0(sp)
    3efa:	0aeb89db          	lea.h	s3,s7,a4
    3efe:	0d89                	c.addi	s11,2
    3f00:	40800633          	sub	a2,zero,s0
    3f04:	85da                	c.mv	a1,s6
    3f06:	9cee                	c.add	s9,s11
    3f08:	2c95                	c.jal	417c <__ashldi3>
    3f0a:	4d81                	c.li	s11,0
    3f0c:	00a99023          	sh	a0,0(s3)
    3f10:	bdb5                	c.j	3d8c <__printf_float_impl+0x11a>
    3f12:	4502                	c.lwsp	a0,0(sp)
    3f14:	03500613          	addi	a2,zero,53
    3f18:	8e01                	c.sub	a2,s0
    3f1a:	85da                	c.mv	a1,s6
    3f1c:	2c05                	c.jal	414c <__lshrdi3>
    3f1e:	1010                	c.addi4spn	a2,sp,32
    3f20:	316d                	c.jal	3bca <__int_to_poly>
    3f22:	02500613          	addi	a2,zero,37
    3f26:	8daa                	c.mv	s11,a0
    3f28:	40860433          	sub	s0,a2,s0
    3f2c:	0a810b93          	addi	s7,sp,168
    3f30:	4c81                	c.li	s9,0
    3f32:	0c85                	c.addi	s9,1
    3f34:	00045a63          	bge	s0,zero,3f48 <__printf_float_impl+0x2d6>
    3f38:	4502                	c.lwsp	a0,0(sp)
    3f3a:	40800633          	sub	a2,zero,s0
    3f3e:	85da                	c.mv	a1,s6
    3f40:	2c35                	c.jal	417c <__ashldi3>
    3f42:	00ab9023          	sh	a0,0(s7)
    3f46:	b599                	c.j	3d8c <__printf_float_impl+0x11a>
    3f48:	8622                	c.mv	a2,s0
    3f4a:	854e                	c.mv	a0,s3
    3f4c:	85da                	c.mv	a1,s6
    3f4e:	2afd                	c.jal	414c <__lshrdi3>
    3f50:	1441                	c.addi	s0,-16
    3f52:	00ab9023          	sh	a0,0(s7)
    3f56:	0b89                	c.addi	s7,2
    3f58:	bfe9                	c.j	3f32 <__printf_float_impl+0x2c0>
    3f5a:	0006d883          	lhu	a7,0(a3)
    3f5e:	187d                	c.addi	a6,-1
    3f60:	028888b3          	mul	a7,a7,s0
    3f64:	97c6                	c.add	a5,a7
    3f66:	00f69023          	sh	a5,0(a3)
    3f6a:	83c1                	c.srli	a5,0x10
    3f6c:	bd85                	c.j	3ddc <__printf_float_impl+0x16a>
    3f6e:	177d                	c.addi	a4,-1
    3f70:	4d81                	c.li	s11,0
    3f72:	b579                	c.j	3e00 <__printf_float_impl+0x18e>
    3f74:	8726                	c.mv	a4,s1
    3f76:	ea6d575b          	beqc	s10,70,3e24 <__printf_float_impl+0x1b2>
    3f7a:	47f2                	c.lwsp	a5,28(sp)
    3f7c:	001c0693          	addi	a3,s8,1
    3f80:	02f04463          	blt	zero,a5,3fa8 <__printf_float_impl+0x336>
    3f84:	c785                	c.beqz	a5,3fac <__printf_float_impl+0x33a>
    3f86:	40f507b3          	sub	a5,a0,a5
    3f8a:	02c7e963          	bltu	a5,a2,3fbc <__printf_float_impl+0x34a>
    3f8e:	001c4783          	lbu	a5,1(s8)
    3f92:	00fc0023          	sb	a5,0(s8)
    3f96:	a819                	c.j	3fac <__printf_float_impl+0x33a>
    3f98:	04500d13          	addi	s10,zero,69
    3f9c:	bff9                	c.j	3f7a <__printf_float_impl+0x308>
    3f9e:	fff54783          	lbu	a5,-1(a0)
    3fa2:	157d                	c.addi	a0,-1
    3fa4:	00f500a3          	sb	a5,1(a0)
    3fa8:	fed51be3          	bne	a0,a3,3f9e <__printf_float_impl+0x32c>
    3fac:	02e00793          	addi	a5,zero,46
    3fb0:	001c0513          	addi	a0,s8,1
    3fb4:	84ba                	c.mv	s1,a4
    3fb6:	00fc00a3          	sb	a5,1(s8)
    3fba:	b5ad                	c.j	3e24 <__printf_float_impl+0x1b2>
    3fbc:	0007c683          	lbu	a3,0(a5)
    3fc0:	0785                	c.addi	a5,1
    3fc2:	0505                	c.addi	a0,1
    3fc4:	fed50fa3          	sb	a3,-1(a0)
    3fc8:	b7c9                	c.j	3f8a <__printf_float_impl+0x318>
    3fca:	167d                	c.addi	a2,-1
    3fcc:	00064703          	lbu	a4,0(a2)
    3fd0:	a6e757db          	beqc	a4,46,3e3e <__printf_float_impl+0x1cc>
    3fd4:	0705                	c.addi	a4,1
    3fd6:	0ff77713          	andi	a4,a4,255
    3fda:	00875663          	bge	a4,s0,3fe6 <__printf_float_impl+0x374>
    3fde:	4681                	c.li	a3,0
    3fe0:	00e60023          	sb	a4,0(a2)
    3fe4:	bda9                	c.j	3e3e <__printf_float_impl+0x1cc>
    3fe6:	8f01                	c.sub	a4,s0
    3fe8:	00e60023          	sb	a4,0(a2)
    3fec:	bd89                	c.j	3e3e <__printf_float_impl+0x1cc>
    3fee:	873e                	c.mv	a4,a5
    3ff0:	e4068be3          	beq	a3,zero,3e46 <__printf_float_impl+0x1d4>
    3ff4:	02ec6363          	bltu	s8,a4,401a <__printf_float_impl+0x3a8>
    3ff8:	4705                	c.li	a4,1
    3ffa:	00ec0023          	sb	a4,0(s8)
    3ffe:	4772                	c.lwsp	a4,28(sp)
    4000:	0705                	c.addi	a4,1
    4002:	ce3a                	c.swsp	a4,28(sp)
    4004:	426d515b          	beqc	s10,70,4026 <__printf_float_impl+0x3b4>
    4008:	001c4703          	lbu	a4,1(s8)
    400c:	00ec0123          	sb	a4,2(s8)
    4010:	02e00713          	addi	a4,zero,46
    4014:	00ec00a3          	sb	a4,1(s8)
    4018:	b53d                	c.j	3e46 <__printf_float_impl+0x1d4>
    401a:	fff74683          	lbu	a3,-1(a4)
    401e:	177d                	c.addi	a4,-1
    4020:	00d700a3          	sb	a3,1(a4)
    4024:	bfc1                	c.j	3ff4 <__printf_float_impl+0x382>
    4026:	87aa                	c.mv	a5,a0
    4028:	bd39                	c.j	3e46 <__printf_float_impl+0x1d4>
    402a:	000c4783          	lbu	a5,0(s8)
    402e:	00f6e763          	bltu	a3,a5,403c <__printf_float_impl+0x3ca>
    4032:	97ba                	c.add	a5,a4
    4034:	0007c783          	lbu	a5,0(a5)
    4038:	00fc0023          	sb	a5,0(s8)
    403c:	0c05                	c.addi	s8,1
    403e:	bd25                	c.j	3e76 <__printf_float_impl+0x204>
    4040:	ca1d6e5b          	bnec	s10,65,3cfc <__printf_float_impl+0x8a>
    4044:	05000793          	addi	a5,zero,80
    4048:	00f50023          	sb	a5,0(a0)
    404c:	4772                	c.lwsp	a4,28(sp)
    404e:	02b00793          	addi	a5,zero,43
    4052:	00075463          	bge	a4,zero,405a <__printf_float_impl+0x3e8>
    4056:	02d00793          	addi	a5,zero,45
    405a:	00f500a3          	sb	a5,1(a0)
    405e:	47f2                	c.lwsp	a5,28(sp)
    4060:	4685                	c.li	a3,1
    4062:	41f7d713          	srai	a4,a5,0x1f
    4066:	8fb9                	c.xor	a5,a4
    4068:	8f99                	c.sub	a5,a4
    406a:	00279713          	slli	a4,a5,0x2
    406e:	75d7b7db          	bfos	a5,a5,29,29
    4072:	bd15                	c.j	3ea6 <__printf_float_impl+0x234>

00004074 <strcpy>:
    4074:	832a                	c.mv	t1,a0
    4076:	00b566b3          	or	a3,a0,a1
    407a:	8a8d                	c.andi	a3,3
    407c:	ee91                	c.bnez	a3,4098 <strcpy+0x24>
    407e:	419c                	c.lw	a5,0(a1)
    4080:	2007875b          	ffb	a4,a5,zero
    4084:	00071a63          	bne	a4,zero,4098 <strcpy+0x24>
    4088:	0591                	c.addi	a1,4
    408a:	c11c                	c.sw	a5,0(a0)
    408c:	0511                	c.addi	a0,4
    408e:	419c                	c.lw	a5,0(a1)
    4090:	2007875b          	ffb	a4,a5,zero
    4094:	fe070ae3          	beq	a4,zero,4088 <strcpy+0x14>
    4098:	0005c683          	lbu	a3,0(a1)
    409c:	0585                	c.addi	a1,1
    409e:	00d50023          	sb	a3,0(a0)
    40a2:	0505                	c.addi	a0,1
    40a4:	faf5                	c.bnez	a3,4098 <strcpy+0x24>
    40a6:	851a                	c.mv	a0,t1
    40a8:	8082                	c.jr	ra

000040aa <strnlen>:
    40aa:	95aa                	c.add	a1,a0
    40ac:	87aa                	c.mv	a5,a0
    40ae:	00b78563          	beq	a5,a1,40b8 <strnlen+0xe>
    40b2:	0007c703          	lbu	a4,0(a5)
    40b6:	e701                	c.bnez	a4,40be <strnlen+0x14>
    40b8:	40a78533          	sub	a0,a5,a0
    40bc:	8082                	c.jr	ra
    40be:	0785                	c.addi	a5,1
    40c0:	b7fd                	c.j	40ae <strnlen+0x4>
	...

000040c4 <memset>:
    40c4:	832a                	c.mv	t1,a0
    40c6:	00c503b3          	add	t2,a0,a2
    40ca:	00357693          	andi	a3,a0,3
    40ce:	ce81                	c.beqz	a3,40e6 <memset+0x22>
    40d0:	ffc68693          	addi	a3,a3,-4
    40d4:	40d507b3          	sub	a5,a0,a3
    40d8:	06f3e463          	bltu	t2,a5,4140 <memset+0x7c>
    40dc:	00b50023          	sb	a1,0(a0)
    40e0:	0505                	c.addi	a0,1
    40e2:	fea79de3          	bne	a5,a0,40dc <memset+0x18>
    40e6:	04750d63          	beq	a0,t2,4140 <memset+0x7c>
    40ea:	05e2                	c.slli	a1,0x18
    40ec:	0085d793          	srli	a5,a1,0x8
    40f0:	95be                	c.add	a1,a5
    40f2:	0105d793          	srli	a5,a1,0x10
    40f6:	95be                	c.add	a1,a5
    40f8:	40a38633          	sub	a2,t2,a0
    40fc:	02000713          	addi	a4,zero,32
    4100:	fe067693          	andi	a3,a2,-32
    4104:	00a687b3          	add	a5,a3,a0
    4108:	e285                	c.bnez	a3,4128 <memset+0x64>
    410a:	ffc67693          	andi	a3,a2,-4
    410e:	ca8d                	c.beqz	a3,4140 <memset+0x7c>
    4110:	40d70633          	sub	a2,a4,a3
    4114:	00a687b3          	add	a5,a3,a0
    4118:	8736                	c.mv	a4,a3
    411a:	8205                	c.srli	a2,0x1
    411c:	00000697          	auipc	a3,0x0
    4120:	00c686b3          	add	a3,a3,a2
    4124:	00c68067          	jalr	zero,12(a3) # 4128 <memset+0x64>
    4128:	cd4c                	c.sw	a1,28(a0)
    412a:	cd0c                	c.sw	a1,24(a0)
    412c:	c94c                	c.sw	a1,20(a0)
    412e:	c90c                	c.sw	a1,16(a0)
    4130:	c54c                	c.sw	a1,12(a0)
    4132:	c50c                	c.sw	a1,8(a0)
    4134:	c14c                	c.sw	a1,4(a0)
    4136:	c10c                	c.sw	a1,0(a0)
    4138:	953a                	c.add	a0,a4
    413a:	fef517e3          	bne	a0,a5,4128 <memset+0x64>
    413e:	bf6d                	c.j	40f8 <memset+0x34>
    4140:	879e                	c.mv	a5,t2
    4142:	f8751de3          	bne	a0,t2,40dc <memset+0x18>
    4146:	851a                	c.mv	a0,t1
    4148:	8082                	c.jr	ra
	...

0000414c <__lshrdi3>:
    414c:	87ae                	c.mv	a5,a1
    414e:	c60d                	c.beqz	a2,4178 <__lshrdi3+0x2c>
    4150:	02000593          	addi	a1,zero,32
    4154:	8d91                	c.sub	a1,a2
    4156:	00b05b63          	bge	zero,a1,416c <__lshrdi3+0x20>
    415a:	00b79733          	sll	a4,a5,a1
    415e:	00c55533          	srl	a0,a0,a2
    4162:	00c7d5b3          	srl	a1,a5,a2
    4166:	8d59                	c.or	a0,a4
    4168:	00008067          	jalr	zero,0(ra)
    416c:	fe060513          	addi	a0,a2,-32
    4170:	4581                	c.li	a1,0
    4172:	00a7d533          	srl	a0,a5,a0
    4176:	8082                	c.jr	ra
    4178:	8082                	c.jr	ra
    417a:	0001                	c.addi	zero,0

0000417c <__ashldi3>:
    417c:	87aa                	c.mv	a5,a0
    417e:	c60d                	c.beqz	a2,41a8 <__ashldi3+0x2c>
    4180:	02000713          	addi	a4,zero,32
    4184:	8f11                	c.sub	a4,a2
    4186:	00e05b63          	bge	zero,a4,419c <__ashldi3+0x20>
    418a:	00e55733          	srl	a4,a0,a4
    418e:	00c595b3          	sll	a1,a1,a2
    4192:	00c51533          	sll	a0,a0,a2
    4196:	8dd9                	c.or	a1,a4
    4198:	00008067          	jalr	zero,0(ra)
    419c:	fe060593          	addi	a1,a2,-32
    41a0:	4501                	c.li	a0,0
    41a2:	00b795b3          	sll	a1,a5,a1
    41a6:	8082                	c.jr	ra
    41a8:	8082                	c.jr	ra
    41aa:	0001                	c.addi	zero,0

000041ac <__riscv_save_12>:
    41ac:	7139                	c.addi16sp	sp,-64
    41ae:	4301                	c.li	t1,0
    41b0:	c66e                	c.swsp	s11,12(sp)
    41b2:	a019                	c.j	41b8 <__riscv_save_10+0x4>

000041b4 <__riscv_save_10>:
    41b4:	7139                	c.addi16sp	sp,-64
    41b6:	5341                	c.li	t1,-16
    41b8:	c86a                	c.swsp	s10,16(sp)
    41ba:	ca66                	c.swsp	s9,20(sp)
    41bc:	cc62                	c.swsp	s8,24(sp)
    41be:	ce5e                	c.swsp	s7,28(sp)
    41c0:	a019                	c.j	41c6 <__riscv_save_4+0x4>

000041c2 <__riscv_save_4>:
    41c2:	7139                	c.addi16sp	sp,-64
    41c4:	5301                	c.li	t1,-32
    41c6:	d05a                	c.swsp	s6,32(sp)
    41c8:	d256                	c.swsp	s5,36(sp)
    41ca:	d452                	c.swsp	s4,40(sp)
    41cc:	d64e                	c.swsp	s3,44(sp)
    41ce:	d84a                	c.swsp	s2,48(sp)
    41d0:	da26                	c.swsp	s1,52(sp)
    41d2:	dc22                	c.swsp	s0,56(sp)
    41d4:	de06                	c.swsp	ra,60(sp)
    41d6:	40610133          	sub	sp,sp,t1
    41da:	8282                	c.jr	t0

000041dc <__riscv_save_0>:
    41dc:	1141                	c.addi	sp,-16
    41de:	c04a                	c.swsp	s2,0(sp)
    41e0:	c226                	c.swsp	s1,4(sp)
    41e2:	c422                	c.swsp	s0,8(sp)
    41e4:	c606                	c.swsp	ra,12(sp)
    41e6:	8282                	c.jr	t0

000041e8 <__riscv_restore_12>:
    41e8:	4db2                	c.lwsp	s11,12(sp)
    41ea:	0141                	c.addi	sp,16

000041ec <__riscv_restore_10>:
    41ec:	4d02                	c.lwsp	s10,0(sp)
    41ee:	4c92                	c.lwsp	s9,4(sp)
    41f0:	4c22                	c.lwsp	s8,8(sp)
    41f2:	4bb2                	c.lwsp	s7,12(sp)
    41f4:	0141                	c.addi	sp,16

000041f6 <__riscv_restore_4>:
    41f6:	4b02                	c.lwsp	s6,0(sp)
    41f8:	4a92                	c.lwsp	s5,4(sp)
    41fa:	4a22                	c.lwsp	s4,8(sp)
    41fc:	49b2                	c.lwsp	s3,12(sp)
    41fe:	0141                	c.addi	sp,16

00004200 <__riscv_restore_0>:
    4200:	4902                	c.lwsp	s2,0(sp)
    4202:	4492                	c.lwsp	s1,4(sp)
    4204:	4422                	c.lwsp	s0,8(sp)
    4206:	40b2                	c.lwsp	ra,12(sp)
    4208:	0141                	c.addi	sp,16
    420a:	8082                	c.jr	ra

Disassembly of section .loader:

80000000 <boot_loader>:
80000000:	00000297          	auipc	t0,0x0
80000004:	00c2a283          	lw	t0,12(t0) # 8000000c <start_address>
80000008:	00028067          	jalr	zero,0(t0)

8000000c <start_address>:
8000000c:	0080                	c.addi4spn	s0,sp,64
8000000e:	0000                	c.unimp
80000010:	0001                	c.addi	zero,0
	...

Contents of section .init:
 0000 00100000 f8100000 f8100000 f8100000  ................
 0010 f8100000 f8100000 f8100000 f8100000  ................
 0020 f8100000 f8100000 f8100000 f8100000  ................
 0030 f8100000 f8100000 f8100000 f8100000  ................
 0040 f8100000 f8100000 f8100000 f8100000  ................
 0050 f8100000 f8100000 f8100000 f8100000  ................
 0060 f8100000 f8100000 f8100000 f8100000  ................
 0070 f8100000 f8100000 f8100000 f8100000  ................
 0080 09a0f322 20346384 02006f20 30758140  ..." 4c...o 0u.@
 0090 01418141 01428142 01438143 01448144  .A.A.B.B.C.C.D.D
 00a0 01458145 01468146 01478147 01488148  .E.E.F.F.G.G.H.H
 00b0 01498149 014a814a 014b814b 014c814c  .I.I.J.J.K.K.L.L
 00c0 014d814d 014e814e 014f814f f3271030  .M.M.N.N.O.O.'.0
 00d0 9583858b c1c70967 73200730 530000f0  .......gs .0S...
 00e0 d30000f0 530100f0 d30100f0 530200f0  ....S.......S...
 00f0 d30200f0 530300f0 d30300f0 530400f0  ....S.......S...
 0100 d30400f0 530500f0 d30500f0 530600f0  ....S.......S...
 0110 d30600f0 530700f0 d30700f0 530800f0  ....S.......S...
 0120 d30800f0 530900f0 d30900f0 530a00f0  ....S.......S...
 0130 d30a00f0 530b00f0 d30b00f0 530c00f0  ....S.......S...
 0140 d30c00f0 530d00f0 d30d00f0 530e00f0  ....S.......S...
 0150 d30e00f0 530f00f0 d30f00f0 f3271030  ....S........'.0
 0160 d583858b d9cbf327 00301307 00207320  .......'.0... s 
 0170 07305777 00015730 005ed730 005e5731  .0Ww..W0.^.0.^W1
 0180 005ed731 005e5732 005ed732 005e5733  .^.1.^W2.^.2.^W3
 0190 005ed733 005e5734 005ed734 005e5735  .^.3.^W4.^.4.^W5
 01a0 005ed735 005e5736 005ed736 005e5737  .^.5.^W6.^.6.^W7
 01b0 005ed737 005e5738 005ed738 005e5739  .^.7.^W8.^.8.^W9
 01c0 005ed739 005e573a 005ed73a 005e573b  .^.9.^W:.^.:.^W;
 01d0 005ed73b 005e573c 005ed73c 005e573d  .^.;.^W<.^.<.^W=
 01e0 005ed73d 005e573e 005ed73e 005e573f  .^.=.^W>.^.>.^W?
 01f0 005ed73f 005e7390 07309701 000083a1  .^.?.^s..0......
 0200 61149702 000083a2 62147323 40f1a163  a.......b.s#@..c
 0210 63050300 9e927d13 e5bf1681 732320fc  c.....}.....s# .
 0220 1353b301 13731300 630f0300 97220000  .S...s..c...."..
 0230 938242dd 73907230 97120000 938282dc  ..B.s.r0........
 0240 93e23200 85a89712 00009382 a2e37323  ..2...........s#
 0250 10301353 23011373 13006307 03027323  .0.S#..s..c...s#
 0260 30309303 00203363 73007310 33307323  00... 3cs.s.30s#
 0270 007d1373 d3ff7310 037d7390 52109712  .}.s..s..}s.R...
 0280 00009382 22d83da0 97120000 938282d7  ....".=.........
 0290 732320fc 1353c300 13731300 630c0300  s# ..S...s..c...
 02a0 7323007d 13632300 7310037d 97020000  s#.}.c#.s..}....
 02b0 938242d5 73905230 bd427390 023afd52  ..B.s.R0.Bs..:.R
 02c0 7390023b ef201048 17450000 13058501  s..;. .H.E......
 02d0 97050000 83a50508 17060000 03260608  .............&..
 02e0 630cb500 63fac500 83220500 23a05500  c...c...."..#.U.
 02f0 11059105 e3eac5fe 17050000 03250506  .............%..
 0300 97050000 83a50506 6377b500 23200500  ........cw..# ..
 0310 1105e36d b5fe1705 00000325 25059705  ...m.......%%...
 0320 000083a5 25056377 b5002320 05001105  ....%.cw..# ....
 0330 e36db5fe ef201048 01a08280 13000000  .m... .H........
 0340 f8082000 00000000 00002800 00000000  .. .......(.....
 0350 00002000 00000000 f8002000 00000000  .. ....... .....
 0360 f0012000 00000000 00003000 00000000  .. .......0.....
 0370 04003000 00000000 01001300 0000      ..0...........  

Contents of section .rodata:
 420c 57726f6e 67206861 7274206e 756d6265  Wrong hart numbe
 421c 72000000 8c360000 fc350000 18360000  r....6...5...6..
 422c 28360000 38360000 48360000 58360000  (6..86..H6..X6..
 423c 68360000 30313233 34353637 38394142  h6..0123456789AB
 424c 43444546 803a0000 023b0000 023b0000  CDEF.:...;...;..
 425c 023b0000 023b0000 023b0000 023b0000  .;...;...;...;..
 426c 023b0000 023b0000 ea380000 023b0000  .;...;...8...;..
 427c 72390000 063a0000 ea380000 ea380000  r9...:...8...8..
 428c ea380000 023b0000 063a0000 023b0000  .8...;...:...;..
 429c 023b0000 023b0000 023b0000 ec3a0000  .;...;...;...:..
 42ac 843a0000 803a0000 023b0000 023b0000  .:...:...;...;..
 42bc 86390000 023b0000 5e390000 023b0000  .9...;..^9...;..
 42cc 023b0000 803a0000 4e414e00 494e4600  .;...:..NAN.INF.

Contents of section .eh_frame:
 200000 10000000 00000000 017a5200 017c0501  .........zR..|..
 200010 1b0d0200 48000000 18000000 9041e0ff  ....H........A..
 200020 30000000 00420e40 449b0d42 db420e40  0....B.@D..B.B.@
 200030 449a0c42 990b4298 0a429709 42d7d8d9  D..B..B..B..B...
 200040 dadb420e 40449608 42950742 94064293  ..B.@D..B..B..B.
 200050 05429204 42890342 88024281 01000000  .B..B..B..B.....
 200060 1c000000 64000000 7441e0ff 0c000000  ....d...tA......
 200070 00420e10 44890442 88024281 01000000  .B..D..B..B.....
 200080 2c000000 00000000 017a5200 017c0101  ,........zR..|..
 200090 1b0d020e 409b0d9a 0c990b98 0a970996  ....@...........
 2000a0 08950794 06930592 04890388 02810100  ................
 2000b0 44000000 34000000 3041e0ff 24000000  D...4...0A..$...
 2000c0 0042db42 db0e3042 da42d942 d842d742  .B.B..0B.B.B.B.B
 2000d0 d7d8d9da db0e2042 d642d542 d442d342  ...... B.B.B.B.B
 2000e0 d3d4d5d6 d8d9dadb 0e1042d2 42c942c8  ..........B.B.B.
 2000f0 42c1420e 00000000                    B.B.....        

Contents of section .sharedata:
 300000 00000000                             ....            

Contents of section .loader:
 80000000 97020000 83a2c200 67800200 80000000  ........g.......
 80000010 01000000                             ....            
