
a.out:     file format elf32-littleriscv


Disassembly of section .text.init:

00000000 <_RELAX_END_>:
	...

00000080 <_start>:
      80:	0340006f          	jal	zero,b4 <reset_vector>

00000084 <trap_vector>:
      84:	00000f17          	auipc	t5,0x0
      88:	f7cf0f13          	addi	t5,t5,-132 # 0 <_RELAX_END_>
      8c:	000f0363          	beq	t5,zero,92 <trap_vector+0xe>
      90:	8f02                	c.jr	t5
      92:	34202f73          	csrrs	t5,mcause,zero
      96:	000f5363          	bge	t5,zero,9c <handle_exception>
      9a:	a009                	c.j	9c <handle_exception>

0000009c <handle_exception>:
      9c:	5391e193          	ori	gp,gp,1337

000000a0 <fail_handler>:
      a0:	0ff0000f          	fence	iorw,iorw
      a4:	e00802b7          	lui	t0,0xe0080
      a8:	01234337          	lui	t1,0x1234
      ac:	56930313          	addi	t1,t1,1385 # 1234569 <__global_pointer$+0x1230f7f>
      b0:	0062a023          	sw	t1,0(t0) # e0080000 <__start_addr+0x6007fff0>

000000b4 <reset_vector>:
      b4:	f1402573          	csrrs	a0,mhartid,zero
      b8:	00051063          	bne	a0,zero,b8 <reset_vector+0x4>
      bc:	00000297          	auipc	t0,0x0
      c0:	01028293          	addi	t0,t0,16 # cc <reset_vector+0x18>
      c4:	30529073          	csrrw	zero,mtvec,t0
      c8:	18005073          	csrrwi	zero,satp,0
      cc:	00000297          	auipc	t0,0x0
      d0:	02028293          	addi	t0,t0,32 # ec <reset_vector+0x38>
      d4:	30529073          	csrrw	zero,mtvec,t0
      d8:	800002b7          	lui	t0,0x80000
      dc:	fff28293          	addi	t0,t0,-1 # 7fffffff <__start_addr+0xffffffef>
      e0:	3b029073          	csrrw	zero,pmpaddr0,t0
      e4:	01f00293          	addi	t0,zero,31
      e8:	3a029073          	csrrw	zero,pmpcfg0,t0
      ec:	00000297          	auipc	t0,0x0
      f0:	01828293          	addi	t0,t0,24 # 104 <reset_vector+0x50>
      f4:	30529073          	csrrw	zero,mtvec,t0
      f8:	30205073          	csrrwi	zero,medeleg,0
      fc:	30305073          	csrrwi	zero,mideleg,0
     100:	30405073          	csrrwi	zero,mie,0
     104:	4181                	c.li	gp,0
     106:	00000297          	auipc	t0,0x0
     10a:	f7e28293          	addi	t0,t0,-130 # 84 <trap_vector>
     10e:	30529073          	csrrw	zero,mtvec,t0
     112:	30102573          	csrrs	a0,misa,zero
     116:	00055c63          	bge	a0,zero,12e <reset_vector+0x7a>
     11a:	0ff0000f          	fence	iorw,iorw
     11e:	e00802b7          	lui	t0,0xe0080
     122:	01234337          	lui	t1,0x1234
     126:	56830313          	addi	t1,t1,1384 # 1234568 <__global_pointer$+0x1230f7e>
     12a:	0062a023          	sw	t1,0(t0) # e0080000 <__start_addr+0x6007fff0>
     12e:	00000297          	auipc	t0,0x0
     132:	ed228293          	addi	t0,t0,-302 # 0 <_RELAX_END_>
     136:	00028e63          	beq	t0,zero,152 <reset_vector+0x9e>
     13a:	10529073          	csrrw	zero,stvec,t0
     13e:	0000b2b7          	lui	t0,0xb
     142:	10928293          	addi	t0,t0,265 # b109 <__global_pointer$+0x7b1f>
     146:	30229073          	csrrw	zero,medeleg,t0
     14a:	30202373          	csrrs	t1,medeleg,zero
     14e:	f46297e3          	bne	t0,t1,9c <handle_exception>
     152:	30005073          	csrrwi	zero,mstatus,0
     156:	557d                	c.li	a0,-1
     158:	3b051073          	csrrw	zero,pmpaddr0,a0
     15c:	3a0fd073          	csrrwi	zero,pmpcfg0,31
     160:	00000297          	auipc	t0,0x0
     164:	01428293          	addi	t0,t0,20 # 174 <reset_vector+0xc0>
     168:	34129073          	csrrw	zero,mepc,t0
     16c:	f1402573          	csrrs	a0,mhartid,zero
     170:	30200073          	mret
     174:	00200193          	addi	gp,zero,2
     178:	29a00593          	addi	a1,zero,666

0000017c <test_2>:
     17c:	6830106f          	jal	zero,1ffe <data+0x1e7e>

00000180 <data>:
     180:	3210                	c.fld	fa2,32(a2)
     182:	7654                	c.flw	fa3,44(a2)
     184:	ba98                	c.fsd	fa4,48(a3)
     186:	fedc                	c.fsw	fa5,60(a3)
     188:	3210                	c.fld	fa2,32(a2)
     18a:	7654                	c.flw	fa3,44(a2)
     18c:	ba98                	c.fsd	fa4,48(a3)
     18e:	fedc                	c.fsw	fa5,60(a3)
     190:	00000013          	addi	zero,zero,0
     194:	00000013          	addi	zero,zero,0
     198:	00000013          	addi	zero,zero,0
     19c:	00000013          	addi	zero,zero,0
     1a0:	00000013          	addi	zero,zero,0
     1a4:	00000013          	addi	zero,zero,0
     1a8:	00000013          	addi	zero,zero,0
     1ac:	00000013          	addi	zero,zero,0
     1b0:	00000013          	addi	zero,zero,0
     1b4:	00000013          	addi	zero,zero,0
     1b8:	00000013          	addi	zero,zero,0
     1bc:	00000013          	addi	zero,zero,0
     1c0:	00000013          	addi	zero,zero,0
     1c4:	00000013          	addi	zero,zero,0
     1c8:	00000013          	addi	zero,zero,0
     1cc:	00000013          	addi	zero,zero,0
     1d0:	00000013          	addi	zero,zero,0
     1d4:	00000013          	addi	zero,zero,0
     1d8:	00000013          	addi	zero,zero,0
     1dc:	00000013          	addi	zero,zero,0
     1e0:	00000013          	addi	zero,zero,0
     1e4:	00000013          	addi	zero,zero,0
     1e8:	00000013          	addi	zero,zero,0
     1ec:	00000013          	addi	zero,zero,0
     1f0:	00000013          	addi	zero,zero,0
     1f4:	00000013          	addi	zero,zero,0
     1f8:	00000013          	addi	zero,zero,0
     1fc:	00000013          	addi	zero,zero,0
     200:	00000013          	addi	zero,zero,0
     204:	00000013          	addi	zero,zero,0
     208:	00000013          	addi	zero,zero,0
     20c:	00000013          	addi	zero,zero,0
     210:	00000013          	addi	zero,zero,0
     214:	00000013          	addi	zero,zero,0
     218:	00000013          	addi	zero,zero,0
     21c:	00000013          	addi	zero,zero,0
     220:	00000013          	addi	zero,zero,0
     224:	00000013          	addi	zero,zero,0
     228:	00000013          	addi	zero,zero,0
     22c:	00000013          	addi	zero,zero,0
     230:	00000013          	addi	zero,zero,0
     234:	00000013          	addi	zero,zero,0
     238:	00000013          	addi	zero,zero,0
     23c:	00000013          	addi	zero,zero,0
     240:	00000013          	addi	zero,zero,0
     244:	00000013          	addi	zero,zero,0
     248:	00000013          	addi	zero,zero,0
     24c:	00000013          	addi	zero,zero,0
     250:	00000013          	addi	zero,zero,0
     254:	00000013          	addi	zero,zero,0
     258:	00000013          	addi	zero,zero,0
     25c:	00000013          	addi	zero,zero,0
     260:	00000013          	addi	zero,zero,0
     264:	00000013          	addi	zero,zero,0
     268:	00000013          	addi	zero,zero,0
     26c:	00000013          	addi	zero,zero,0
     270:	00000013          	addi	zero,zero,0
     274:	00000013          	addi	zero,zero,0
     278:	00000013          	addi	zero,zero,0
     27c:	00000013          	addi	zero,zero,0
     280:	00000013          	addi	zero,zero,0
     284:	00000013          	addi	zero,zero,0
     288:	00000013          	addi	zero,zero,0
     28c:	00000013          	addi	zero,zero,0
     290:	00000013          	addi	zero,zero,0
     294:	00000013          	addi	zero,zero,0
     298:	00000013          	addi	zero,zero,0
     29c:	00000013          	addi	zero,zero,0
     2a0:	00000013          	addi	zero,zero,0
     2a4:	00000013          	addi	zero,zero,0
     2a8:	00000013          	addi	zero,zero,0
     2ac:	00000013          	addi	zero,zero,0
     2b0:	00000013          	addi	zero,zero,0
     2b4:	00000013          	addi	zero,zero,0
     2b8:	00000013          	addi	zero,zero,0
     2bc:	00000013          	addi	zero,zero,0
     2c0:	00000013          	addi	zero,zero,0
     2c4:	00000013          	addi	zero,zero,0
     2c8:	00000013          	addi	zero,zero,0
     2cc:	00000013          	addi	zero,zero,0
     2d0:	00000013          	addi	zero,zero,0
     2d4:	00000013          	addi	zero,zero,0
     2d8:	00000013          	addi	zero,zero,0
     2dc:	00000013          	addi	zero,zero,0
     2e0:	00000013          	addi	zero,zero,0
     2e4:	00000013          	addi	zero,zero,0
     2e8:	00000013          	addi	zero,zero,0
     2ec:	00000013          	addi	zero,zero,0
     2f0:	00000013          	addi	zero,zero,0
     2f4:	00000013          	addi	zero,zero,0
     2f8:	00000013          	addi	zero,zero,0
     2fc:	00000013          	addi	zero,zero,0
     300:	00000013          	addi	zero,zero,0
     304:	00000013          	addi	zero,zero,0
     308:	00000013          	addi	zero,zero,0
     30c:	00000013          	addi	zero,zero,0
     310:	00000013          	addi	zero,zero,0
     314:	00000013          	addi	zero,zero,0
     318:	00000013          	addi	zero,zero,0
     31c:	00000013          	addi	zero,zero,0
     320:	00000013          	addi	zero,zero,0
     324:	00000013          	addi	zero,zero,0
     328:	00000013          	addi	zero,zero,0
     32c:	00000013          	addi	zero,zero,0
     330:	00000013          	addi	zero,zero,0
     334:	00000013          	addi	zero,zero,0
     338:	00000013          	addi	zero,zero,0
     33c:	00000013          	addi	zero,zero,0
     340:	00000013          	addi	zero,zero,0
     344:	00000013          	addi	zero,zero,0
     348:	00000013          	addi	zero,zero,0
     34c:	00000013          	addi	zero,zero,0
     350:	00000013          	addi	zero,zero,0
     354:	00000013          	addi	zero,zero,0
     358:	00000013          	addi	zero,zero,0
     35c:	00000013          	addi	zero,zero,0
     360:	00000013          	addi	zero,zero,0
     364:	00000013          	addi	zero,zero,0
     368:	00000013          	addi	zero,zero,0
     36c:	00000013          	addi	zero,zero,0
     370:	00000013          	addi	zero,zero,0
     374:	00000013          	addi	zero,zero,0
     378:	00000013          	addi	zero,zero,0
     37c:	00000013          	addi	zero,zero,0
     380:	00000013          	addi	zero,zero,0
     384:	00000013          	addi	zero,zero,0
     388:	00000013          	addi	zero,zero,0
     38c:	00000013          	addi	zero,zero,0
     390:	00000013          	addi	zero,zero,0
     394:	00000013          	addi	zero,zero,0
     398:	00000013          	addi	zero,zero,0
     39c:	00000013          	addi	zero,zero,0
     3a0:	00000013          	addi	zero,zero,0
     3a4:	00000013          	addi	zero,zero,0
     3a8:	00000013          	addi	zero,zero,0
     3ac:	00000013          	addi	zero,zero,0
     3b0:	00000013          	addi	zero,zero,0
     3b4:	00000013          	addi	zero,zero,0
     3b8:	00000013          	addi	zero,zero,0
     3bc:	00000013          	addi	zero,zero,0
     3c0:	00000013          	addi	zero,zero,0
     3c4:	00000013          	addi	zero,zero,0
     3c8:	00000013          	addi	zero,zero,0
     3cc:	00000013          	addi	zero,zero,0
     3d0:	00000013          	addi	zero,zero,0
     3d4:	00000013          	addi	zero,zero,0
     3d8:	00000013          	addi	zero,zero,0
     3dc:	00000013          	addi	zero,zero,0
     3e0:	00000013          	addi	zero,zero,0
     3e4:	00000013          	addi	zero,zero,0
     3e8:	00000013          	addi	zero,zero,0
     3ec:	00000013          	addi	zero,zero,0
     3f0:	00000013          	addi	zero,zero,0
     3f4:	00000013          	addi	zero,zero,0
     3f8:	00000013          	addi	zero,zero,0
     3fc:	00000013          	addi	zero,zero,0
     400:	00000013          	addi	zero,zero,0
     404:	00000013          	addi	zero,zero,0
     408:	00000013          	addi	zero,zero,0
     40c:	00000013          	addi	zero,zero,0
     410:	00000013          	addi	zero,zero,0
     414:	00000013          	addi	zero,zero,0
     418:	00000013          	addi	zero,zero,0
     41c:	00000013          	addi	zero,zero,0
     420:	00000013          	addi	zero,zero,0
     424:	00000013          	addi	zero,zero,0
     428:	00000013          	addi	zero,zero,0
     42c:	00000013          	addi	zero,zero,0
     430:	00000013          	addi	zero,zero,0
     434:	00000013          	addi	zero,zero,0
     438:	00000013          	addi	zero,zero,0
     43c:	00000013          	addi	zero,zero,0
     440:	00000013          	addi	zero,zero,0
     444:	00000013          	addi	zero,zero,0
     448:	00000013          	addi	zero,zero,0
     44c:	00000013          	addi	zero,zero,0
     450:	00000013          	addi	zero,zero,0
     454:	00000013          	addi	zero,zero,0
     458:	00000013          	addi	zero,zero,0
     45c:	00000013          	addi	zero,zero,0
     460:	00000013          	addi	zero,zero,0
     464:	00000013          	addi	zero,zero,0
     468:	00000013          	addi	zero,zero,0
     46c:	00000013          	addi	zero,zero,0
     470:	00000013          	addi	zero,zero,0
     474:	00000013          	addi	zero,zero,0
     478:	00000013          	addi	zero,zero,0
     47c:	00000013          	addi	zero,zero,0
     480:	00000013          	addi	zero,zero,0
     484:	00000013          	addi	zero,zero,0
     488:	00000013          	addi	zero,zero,0
     48c:	00000013          	addi	zero,zero,0
     490:	00000013          	addi	zero,zero,0
     494:	00000013          	addi	zero,zero,0
     498:	00000013          	addi	zero,zero,0
     49c:	00000013          	addi	zero,zero,0
     4a0:	00000013          	addi	zero,zero,0
     4a4:	00000013          	addi	zero,zero,0
     4a8:	00000013          	addi	zero,zero,0
     4ac:	00000013          	addi	zero,zero,0
     4b0:	00000013          	addi	zero,zero,0
     4b4:	00000013          	addi	zero,zero,0
     4b8:	00000013          	addi	zero,zero,0
     4bc:	00000013          	addi	zero,zero,0
     4c0:	00000013          	addi	zero,zero,0
     4c4:	00000013          	addi	zero,zero,0
     4c8:	00000013          	addi	zero,zero,0
     4cc:	00000013          	addi	zero,zero,0
     4d0:	00000013          	addi	zero,zero,0
     4d4:	00000013          	addi	zero,zero,0
     4d8:	00000013          	addi	zero,zero,0
     4dc:	00000013          	addi	zero,zero,0
     4e0:	00000013          	addi	zero,zero,0
     4e4:	00000013          	addi	zero,zero,0
     4e8:	00000013          	addi	zero,zero,0
     4ec:	00000013          	addi	zero,zero,0
     4f0:	00000013          	addi	zero,zero,0
     4f4:	00000013          	addi	zero,zero,0
     4f8:	00000013          	addi	zero,zero,0
     4fc:	00000013          	addi	zero,zero,0
     500:	00000013          	addi	zero,zero,0
     504:	00000013          	addi	zero,zero,0
     508:	00000013          	addi	zero,zero,0
     50c:	00000013          	addi	zero,zero,0
     510:	00000013          	addi	zero,zero,0
     514:	00000013          	addi	zero,zero,0
     518:	00000013          	addi	zero,zero,0
     51c:	00000013          	addi	zero,zero,0
     520:	00000013          	addi	zero,zero,0
     524:	00000013          	addi	zero,zero,0
     528:	00000013          	addi	zero,zero,0
     52c:	00000013          	addi	zero,zero,0
     530:	00000013          	addi	zero,zero,0
     534:	00000013          	addi	zero,zero,0
     538:	00000013          	addi	zero,zero,0
     53c:	00000013          	addi	zero,zero,0
     540:	00000013          	addi	zero,zero,0
     544:	00000013          	addi	zero,zero,0
     548:	00000013          	addi	zero,zero,0
     54c:	00000013          	addi	zero,zero,0
     550:	00000013          	addi	zero,zero,0
     554:	00000013          	addi	zero,zero,0
     558:	00000013          	addi	zero,zero,0
     55c:	00000013          	addi	zero,zero,0
     560:	00000013          	addi	zero,zero,0
     564:	00000013          	addi	zero,zero,0
     568:	00000013          	addi	zero,zero,0
     56c:	00000013          	addi	zero,zero,0
     570:	00000013          	addi	zero,zero,0
     574:	00000013          	addi	zero,zero,0
     578:	00000013          	addi	zero,zero,0
     57c:	00000013          	addi	zero,zero,0
     580:	00000013          	addi	zero,zero,0
     584:	00000013          	addi	zero,zero,0
     588:	00000013          	addi	zero,zero,0
     58c:	00000013          	addi	zero,zero,0
     590:	00000013          	addi	zero,zero,0
     594:	00000013          	addi	zero,zero,0
     598:	00000013          	addi	zero,zero,0
     59c:	00000013          	addi	zero,zero,0
     5a0:	00000013          	addi	zero,zero,0
     5a4:	00000013          	addi	zero,zero,0
     5a8:	00000013          	addi	zero,zero,0
     5ac:	00000013          	addi	zero,zero,0
     5b0:	00000013          	addi	zero,zero,0
     5b4:	00000013          	addi	zero,zero,0
     5b8:	00000013          	addi	zero,zero,0
     5bc:	00000013          	addi	zero,zero,0
     5c0:	00000013          	addi	zero,zero,0
     5c4:	00000013          	addi	zero,zero,0
     5c8:	00000013          	addi	zero,zero,0
     5cc:	00000013          	addi	zero,zero,0
     5d0:	00000013          	addi	zero,zero,0
     5d4:	00000013          	addi	zero,zero,0
     5d8:	00000013          	addi	zero,zero,0
     5dc:	00000013          	addi	zero,zero,0
     5e0:	00000013          	addi	zero,zero,0
     5e4:	00000013          	addi	zero,zero,0
     5e8:	00000013          	addi	zero,zero,0
     5ec:	00000013          	addi	zero,zero,0
     5f0:	00000013          	addi	zero,zero,0
     5f4:	00000013          	addi	zero,zero,0
     5f8:	00000013          	addi	zero,zero,0
     5fc:	00000013          	addi	zero,zero,0
     600:	00000013          	addi	zero,zero,0
     604:	00000013          	addi	zero,zero,0
     608:	00000013          	addi	zero,zero,0
     60c:	00000013          	addi	zero,zero,0
     610:	00000013          	addi	zero,zero,0
     614:	00000013          	addi	zero,zero,0
     618:	00000013          	addi	zero,zero,0
     61c:	00000013          	addi	zero,zero,0
     620:	00000013          	addi	zero,zero,0
     624:	00000013          	addi	zero,zero,0
     628:	00000013          	addi	zero,zero,0
     62c:	00000013          	addi	zero,zero,0
     630:	00000013          	addi	zero,zero,0
     634:	00000013          	addi	zero,zero,0
     638:	00000013          	addi	zero,zero,0
     63c:	00000013          	addi	zero,zero,0
     640:	00000013          	addi	zero,zero,0
     644:	00000013          	addi	zero,zero,0
     648:	00000013          	addi	zero,zero,0
     64c:	00000013          	addi	zero,zero,0
     650:	00000013          	addi	zero,zero,0
     654:	00000013          	addi	zero,zero,0
     658:	00000013          	addi	zero,zero,0
     65c:	00000013          	addi	zero,zero,0
     660:	00000013          	addi	zero,zero,0
     664:	00000013          	addi	zero,zero,0
     668:	00000013          	addi	zero,zero,0
     66c:	00000013          	addi	zero,zero,0
     670:	00000013          	addi	zero,zero,0
     674:	00000013          	addi	zero,zero,0
     678:	00000013          	addi	zero,zero,0
     67c:	00000013          	addi	zero,zero,0
     680:	00000013          	addi	zero,zero,0
     684:	00000013          	addi	zero,zero,0
     688:	00000013          	addi	zero,zero,0
     68c:	00000013          	addi	zero,zero,0
     690:	00000013          	addi	zero,zero,0
     694:	00000013          	addi	zero,zero,0
     698:	00000013          	addi	zero,zero,0
     69c:	00000013          	addi	zero,zero,0
     6a0:	00000013          	addi	zero,zero,0
     6a4:	00000013          	addi	zero,zero,0
     6a8:	00000013          	addi	zero,zero,0
     6ac:	00000013          	addi	zero,zero,0
     6b0:	00000013          	addi	zero,zero,0
     6b4:	00000013          	addi	zero,zero,0
     6b8:	00000013          	addi	zero,zero,0
     6bc:	00000013          	addi	zero,zero,0
     6c0:	00000013          	addi	zero,zero,0
     6c4:	00000013          	addi	zero,zero,0
     6c8:	00000013          	addi	zero,zero,0
     6cc:	00000013          	addi	zero,zero,0
     6d0:	00000013          	addi	zero,zero,0
     6d4:	00000013          	addi	zero,zero,0
     6d8:	00000013          	addi	zero,zero,0
     6dc:	00000013          	addi	zero,zero,0
     6e0:	00000013          	addi	zero,zero,0
     6e4:	00000013          	addi	zero,zero,0
     6e8:	00000013          	addi	zero,zero,0
     6ec:	00000013          	addi	zero,zero,0
     6f0:	00000013          	addi	zero,zero,0
     6f4:	00000013          	addi	zero,zero,0
     6f8:	00000013          	addi	zero,zero,0
     6fc:	00000013          	addi	zero,zero,0
     700:	00000013          	addi	zero,zero,0
     704:	00000013          	addi	zero,zero,0
     708:	00000013          	addi	zero,zero,0
     70c:	00000013          	addi	zero,zero,0
     710:	00000013          	addi	zero,zero,0
     714:	00000013          	addi	zero,zero,0
     718:	00000013          	addi	zero,zero,0
     71c:	00000013          	addi	zero,zero,0
     720:	00000013          	addi	zero,zero,0
     724:	00000013          	addi	zero,zero,0
     728:	00000013          	addi	zero,zero,0
     72c:	00000013          	addi	zero,zero,0
     730:	00000013          	addi	zero,zero,0
     734:	00000013          	addi	zero,zero,0
     738:	00000013          	addi	zero,zero,0
     73c:	00000013          	addi	zero,zero,0
     740:	00000013          	addi	zero,zero,0
     744:	00000013          	addi	zero,zero,0
     748:	00000013          	addi	zero,zero,0
     74c:	00000013          	addi	zero,zero,0
     750:	00000013          	addi	zero,zero,0
     754:	00000013          	addi	zero,zero,0
     758:	00000013          	addi	zero,zero,0
     75c:	00000013          	addi	zero,zero,0
     760:	00000013          	addi	zero,zero,0
     764:	00000013          	addi	zero,zero,0
     768:	00000013          	addi	zero,zero,0
     76c:	00000013          	addi	zero,zero,0
     770:	00000013          	addi	zero,zero,0
     774:	00000013          	addi	zero,zero,0
     778:	00000013          	addi	zero,zero,0
     77c:	00000013          	addi	zero,zero,0
     780:	00000013          	addi	zero,zero,0
     784:	00000013          	addi	zero,zero,0
     788:	00000013          	addi	zero,zero,0
     78c:	00000013          	addi	zero,zero,0
     790:	00000013          	addi	zero,zero,0
     794:	00000013          	addi	zero,zero,0
     798:	00000013          	addi	zero,zero,0
     79c:	00000013          	addi	zero,zero,0
     7a0:	00000013          	addi	zero,zero,0
     7a4:	00000013          	addi	zero,zero,0
     7a8:	00000013          	addi	zero,zero,0
     7ac:	00000013          	addi	zero,zero,0
     7b0:	00000013          	addi	zero,zero,0
     7b4:	00000013          	addi	zero,zero,0
     7b8:	00000013          	addi	zero,zero,0
     7bc:	00000013          	addi	zero,zero,0
     7c0:	00000013          	addi	zero,zero,0
     7c4:	00000013          	addi	zero,zero,0
     7c8:	00000013          	addi	zero,zero,0
     7cc:	00000013          	addi	zero,zero,0
     7d0:	00000013          	addi	zero,zero,0
     7d4:	00000013          	addi	zero,zero,0
     7d8:	00000013          	addi	zero,zero,0
     7dc:	00000013          	addi	zero,zero,0
     7e0:	00000013          	addi	zero,zero,0
     7e4:	00000013          	addi	zero,zero,0
     7e8:	00000013          	addi	zero,zero,0
     7ec:	00000013          	addi	zero,zero,0
     7f0:	00000013          	addi	zero,zero,0
     7f4:	00000013          	addi	zero,zero,0
     7f8:	00000013          	addi	zero,zero,0
     7fc:	00000013          	addi	zero,zero,0
     800:	00000013          	addi	zero,zero,0
     804:	00000013          	addi	zero,zero,0
     808:	00000013          	addi	zero,zero,0
     80c:	00000013          	addi	zero,zero,0
     810:	00000013          	addi	zero,zero,0
     814:	00000013          	addi	zero,zero,0
     818:	00000013          	addi	zero,zero,0
     81c:	00000013          	addi	zero,zero,0
     820:	00000013          	addi	zero,zero,0
     824:	00000013          	addi	zero,zero,0
     828:	00000013          	addi	zero,zero,0
     82c:	00000013          	addi	zero,zero,0
     830:	00000013          	addi	zero,zero,0
     834:	00000013          	addi	zero,zero,0
     838:	00000013          	addi	zero,zero,0
     83c:	00000013          	addi	zero,zero,0
     840:	00000013          	addi	zero,zero,0
     844:	00000013          	addi	zero,zero,0
     848:	00000013          	addi	zero,zero,0
     84c:	00000013          	addi	zero,zero,0
     850:	00000013          	addi	zero,zero,0
     854:	00000013          	addi	zero,zero,0
     858:	00000013          	addi	zero,zero,0
     85c:	00000013          	addi	zero,zero,0
     860:	00000013          	addi	zero,zero,0
     864:	00000013          	addi	zero,zero,0
     868:	00000013          	addi	zero,zero,0
     86c:	00000013          	addi	zero,zero,0
     870:	00000013          	addi	zero,zero,0
     874:	00000013          	addi	zero,zero,0
     878:	00000013          	addi	zero,zero,0
     87c:	00000013          	addi	zero,zero,0
     880:	00000013          	addi	zero,zero,0
     884:	00000013          	addi	zero,zero,0
     888:	00000013          	addi	zero,zero,0
     88c:	00000013          	addi	zero,zero,0
     890:	00000013          	addi	zero,zero,0
     894:	00000013          	addi	zero,zero,0
     898:	00000013          	addi	zero,zero,0
     89c:	00000013          	addi	zero,zero,0
     8a0:	00000013          	addi	zero,zero,0
     8a4:	00000013          	addi	zero,zero,0
     8a8:	00000013          	addi	zero,zero,0
     8ac:	00000013          	addi	zero,zero,0
     8b0:	00000013          	addi	zero,zero,0
     8b4:	00000013          	addi	zero,zero,0
     8b8:	00000013          	addi	zero,zero,0
     8bc:	00000013          	addi	zero,zero,0
     8c0:	00000013          	addi	zero,zero,0
     8c4:	00000013          	addi	zero,zero,0
     8c8:	00000013          	addi	zero,zero,0
     8cc:	00000013          	addi	zero,zero,0
     8d0:	00000013          	addi	zero,zero,0
     8d4:	00000013          	addi	zero,zero,0
     8d8:	00000013          	addi	zero,zero,0
     8dc:	00000013          	addi	zero,zero,0
     8e0:	00000013          	addi	zero,zero,0
     8e4:	00000013          	addi	zero,zero,0
     8e8:	00000013          	addi	zero,zero,0
     8ec:	00000013          	addi	zero,zero,0
     8f0:	00000013          	addi	zero,zero,0
     8f4:	00000013          	addi	zero,zero,0
     8f8:	00000013          	addi	zero,zero,0
     8fc:	00000013          	addi	zero,zero,0
     900:	00000013          	addi	zero,zero,0
     904:	00000013          	addi	zero,zero,0
     908:	00000013          	addi	zero,zero,0
     90c:	00000013          	addi	zero,zero,0
     910:	00000013          	addi	zero,zero,0
     914:	00000013          	addi	zero,zero,0
     918:	00000013          	addi	zero,zero,0
     91c:	00000013          	addi	zero,zero,0
     920:	00000013          	addi	zero,zero,0
     924:	00000013          	addi	zero,zero,0
     928:	00000013          	addi	zero,zero,0
     92c:	00000013          	addi	zero,zero,0
     930:	00000013          	addi	zero,zero,0
     934:	00000013          	addi	zero,zero,0
     938:	00000013          	addi	zero,zero,0
     93c:	00000013          	addi	zero,zero,0
     940:	00000013          	addi	zero,zero,0
     944:	00000013          	addi	zero,zero,0
     948:	00000013          	addi	zero,zero,0
     94c:	00000013          	addi	zero,zero,0
     950:	00000013          	addi	zero,zero,0
     954:	00000013          	addi	zero,zero,0
     958:	00000013          	addi	zero,zero,0
     95c:	00000013          	addi	zero,zero,0
     960:	00000013          	addi	zero,zero,0
     964:	00000013          	addi	zero,zero,0
     968:	00000013          	addi	zero,zero,0
     96c:	00000013          	addi	zero,zero,0
     970:	00000013          	addi	zero,zero,0
     974:	00000013          	addi	zero,zero,0
     978:	00000013          	addi	zero,zero,0
     97c:	00000013          	addi	zero,zero,0
     980:	00000013          	addi	zero,zero,0
     984:	00000013          	addi	zero,zero,0
     988:	00000013          	addi	zero,zero,0
     98c:	00000013          	addi	zero,zero,0
     990:	00000013          	addi	zero,zero,0
     994:	00000013          	addi	zero,zero,0
     998:	00000013          	addi	zero,zero,0
     99c:	00000013          	addi	zero,zero,0
     9a0:	00000013          	addi	zero,zero,0
     9a4:	00000013          	addi	zero,zero,0
     9a8:	00000013          	addi	zero,zero,0
     9ac:	00000013          	addi	zero,zero,0
     9b0:	00000013          	addi	zero,zero,0
     9b4:	00000013          	addi	zero,zero,0
     9b8:	00000013          	addi	zero,zero,0
     9bc:	00000013          	addi	zero,zero,0
     9c0:	00000013          	addi	zero,zero,0
     9c4:	00000013          	addi	zero,zero,0
     9c8:	00000013          	addi	zero,zero,0
     9cc:	00000013          	addi	zero,zero,0
     9d0:	00000013          	addi	zero,zero,0
     9d4:	00000013          	addi	zero,zero,0
     9d8:	00000013          	addi	zero,zero,0
     9dc:	00000013          	addi	zero,zero,0
     9e0:	00000013          	addi	zero,zero,0
     9e4:	00000013          	addi	zero,zero,0
     9e8:	00000013          	addi	zero,zero,0
     9ec:	00000013          	addi	zero,zero,0
     9f0:	00000013          	addi	zero,zero,0
     9f4:	00000013          	addi	zero,zero,0
     9f8:	00000013          	addi	zero,zero,0
     9fc:	00000013          	addi	zero,zero,0
     a00:	00000013          	addi	zero,zero,0
     a04:	00000013          	addi	zero,zero,0
     a08:	00000013          	addi	zero,zero,0
     a0c:	00000013          	addi	zero,zero,0
     a10:	00000013          	addi	zero,zero,0
     a14:	00000013          	addi	zero,zero,0
     a18:	00000013          	addi	zero,zero,0
     a1c:	00000013          	addi	zero,zero,0
     a20:	00000013          	addi	zero,zero,0
     a24:	00000013          	addi	zero,zero,0
     a28:	00000013          	addi	zero,zero,0
     a2c:	00000013          	addi	zero,zero,0
     a30:	00000013          	addi	zero,zero,0
     a34:	00000013          	addi	zero,zero,0
     a38:	00000013          	addi	zero,zero,0
     a3c:	00000013          	addi	zero,zero,0
     a40:	00000013          	addi	zero,zero,0
     a44:	00000013          	addi	zero,zero,0
     a48:	00000013          	addi	zero,zero,0
     a4c:	00000013          	addi	zero,zero,0
     a50:	00000013          	addi	zero,zero,0
     a54:	00000013          	addi	zero,zero,0
     a58:	00000013          	addi	zero,zero,0
     a5c:	00000013          	addi	zero,zero,0
     a60:	00000013          	addi	zero,zero,0
     a64:	00000013          	addi	zero,zero,0
     a68:	00000013          	addi	zero,zero,0
     a6c:	00000013          	addi	zero,zero,0
     a70:	00000013          	addi	zero,zero,0
     a74:	00000013          	addi	zero,zero,0
     a78:	00000013          	addi	zero,zero,0
     a7c:	00000013          	addi	zero,zero,0
     a80:	00000013          	addi	zero,zero,0
     a84:	00000013          	addi	zero,zero,0
     a88:	00000013          	addi	zero,zero,0
     a8c:	00000013          	addi	zero,zero,0
     a90:	00000013          	addi	zero,zero,0
     a94:	00000013          	addi	zero,zero,0
     a98:	00000013          	addi	zero,zero,0
     a9c:	00000013          	addi	zero,zero,0
     aa0:	00000013          	addi	zero,zero,0
     aa4:	00000013          	addi	zero,zero,0
     aa8:	00000013          	addi	zero,zero,0
     aac:	00000013          	addi	zero,zero,0
     ab0:	00000013          	addi	zero,zero,0
     ab4:	00000013          	addi	zero,zero,0
     ab8:	00000013          	addi	zero,zero,0
     abc:	00000013          	addi	zero,zero,0
     ac0:	00000013          	addi	zero,zero,0
     ac4:	00000013          	addi	zero,zero,0
     ac8:	00000013          	addi	zero,zero,0
     acc:	00000013          	addi	zero,zero,0
     ad0:	00000013          	addi	zero,zero,0
     ad4:	00000013          	addi	zero,zero,0
     ad8:	00000013          	addi	zero,zero,0
     adc:	00000013          	addi	zero,zero,0
     ae0:	00000013          	addi	zero,zero,0
     ae4:	00000013          	addi	zero,zero,0
     ae8:	00000013          	addi	zero,zero,0
     aec:	00000013          	addi	zero,zero,0
     af0:	00000013          	addi	zero,zero,0
     af4:	00000013          	addi	zero,zero,0
     af8:	00000013          	addi	zero,zero,0
     afc:	00000013          	addi	zero,zero,0
     b00:	00000013          	addi	zero,zero,0
     b04:	00000013          	addi	zero,zero,0
     b08:	00000013          	addi	zero,zero,0
     b0c:	00000013          	addi	zero,zero,0
     b10:	00000013          	addi	zero,zero,0
     b14:	00000013          	addi	zero,zero,0
     b18:	00000013          	addi	zero,zero,0
     b1c:	00000013          	addi	zero,zero,0
     b20:	00000013          	addi	zero,zero,0
     b24:	00000013          	addi	zero,zero,0
     b28:	00000013          	addi	zero,zero,0
     b2c:	00000013          	addi	zero,zero,0
     b30:	00000013          	addi	zero,zero,0
     b34:	00000013          	addi	zero,zero,0
     b38:	00000013          	addi	zero,zero,0
     b3c:	00000013          	addi	zero,zero,0
     b40:	00000013          	addi	zero,zero,0
     b44:	00000013          	addi	zero,zero,0
     b48:	00000013          	addi	zero,zero,0
     b4c:	00000013          	addi	zero,zero,0
     b50:	00000013          	addi	zero,zero,0
     b54:	00000013          	addi	zero,zero,0
     b58:	00000013          	addi	zero,zero,0
     b5c:	00000013          	addi	zero,zero,0
     b60:	00000013          	addi	zero,zero,0
     b64:	00000013          	addi	zero,zero,0
     b68:	00000013          	addi	zero,zero,0
     b6c:	00000013          	addi	zero,zero,0
     b70:	00000013          	addi	zero,zero,0
     b74:	00000013          	addi	zero,zero,0
     b78:	00000013          	addi	zero,zero,0
     b7c:	00000013          	addi	zero,zero,0
     b80:	00000013          	addi	zero,zero,0
     b84:	00000013          	addi	zero,zero,0
     b88:	00000013          	addi	zero,zero,0
     b8c:	00000013          	addi	zero,zero,0
     b90:	00000013          	addi	zero,zero,0
     b94:	00000013          	addi	zero,zero,0
     b98:	00000013          	addi	zero,zero,0
     b9c:	00000013          	addi	zero,zero,0
     ba0:	00000013          	addi	zero,zero,0
     ba4:	00000013          	addi	zero,zero,0
     ba8:	00000013          	addi	zero,zero,0
     bac:	00000013          	addi	zero,zero,0
     bb0:	00000013          	addi	zero,zero,0
     bb4:	00000013          	addi	zero,zero,0
     bb8:	00000013          	addi	zero,zero,0
     bbc:	00000013          	addi	zero,zero,0
     bc0:	00000013          	addi	zero,zero,0
     bc4:	00000013          	addi	zero,zero,0
     bc8:	00000013          	addi	zero,zero,0
     bcc:	00000013          	addi	zero,zero,0
     bd0:	00000013          	addi	zero,zero,0
     bd4:	00000013          	addi	zero,zero,0
     bd8:	00000013          	addi	zero,zero,0
     bdc:	00000013          	addi	zero,zero,0
     be0:	00000013          	addi	zero,zero,0
     be4:	00000013          	addi	zero,zero,0
     be8:	00000013          	addi	zero,zero,0
     bec:	00000013          	addi	zero,zero,0
     bf0:	00000013          	addi	zero,zero,0
     bf4:	00000013          	addi	zero,zero,0
     bf8:	00000013          	addi	zero,zero,0
     bfc:	00000013          	addi	zero,zero,0
     c00:	00000013          	addi	zero,zero,0
     c04:	00000013          	addi	zero,zero,0
     c08:	00000013          	addi	zero,zero,0
     c0c:	00000013          	addi	zero,zero,0
     c10:	00000013          	addi	zero,zero,0
     c14:	00000013          	addi	zero,zero,0
     c18:	00000013          	addi	zero,zero,0
     c1c:	00000013          	addi	zero,zero,0
     c20:	00000013          	addi	zero,zero,0
     c24:	00000013          	addi	zero,zero,0
     c28:	00000013          	addi	zero,zero,0
     c2c:	00000013          	addi	zero,zero,0
     c30:	00000013          	addi	zero,zero,0
     c34:	00000013          	addi	zero,zero,0
     c38:	00000013          	addi	zero,zero,0
     c3c:	00000013          	addi	zero,zero,0
     c40:	00000013          	addi	zero,zero,0
     c44:	00000013          	addi	zero,zero,0
     c48:	00000013          	addi	zero,zero,0
     c4c:	00000013          	addi	zero,zero,0
     c50:	00000013          	addi	zero,zero,0
     c54:	00000013          	addi	zero,zero,0
     c58:	00000013          	addi	zero,zero,0
     c5c:	00000013          	addi	zero,zero,0
     c60:	00000013          	addi	zero,zero,0
     c64:	00000013          	addi	zero,zero,0
     c68:	00000013          	addi	zero,zero,0
     c6c:	00000013          	addi	zero,zero,0
     c70:	00000013          	addi	zero,zero,0
     c74:	00000013          	addi	zero,zero,0
     c78:	00000013          	addi	zero,zero,0
     c7c:	00000013          	addi	zero,zero,0
     c80:	00000013          	addi	zero,zero,0
     c84:	00000013          	addi	zero,zero,0
     c88:	00000013          	addi	zero,zero,0
     c8c:	00000013          	addi	zero,zero,0
     c90:	00000013          	addi	zero,zero,0
     c94:	00000013          	addi	zero,zero,0
     c98:	00000013          	addi	zero,zero,0
     c9c:	00000013          	addi	zero,zero,0
     ca0:	00000013          	addi	zero,zero,0
     ca4:	00000013          	addi	zero,zero,0
     ca8:	00000013          	addi	zero,zero,0
     cac:	00000013          	addi	zero,zero,0
     cb0:	00000013          	addi	zero,zero,0
     cb4:	00000013          	addi	zero,zero,0
     cb8:	00000013          	addi	zero,zero,0
     cbc:	00000013          	addi	zero,zero,0
     cc0:	00000013          	addi	zero,zero,0
     cc4:	00000013          	addi	zero,zero,0
     cc8:	00000013          	addi	zero,zero,0
     ccc:	00000013          	addi	zero,zero,0
     cd0:	00000013          	addi	zero,zero,0
     cd4:	00000013          	addi	zero,zero,0
     cd8:	00000013          	addi	zero,zero,0
     cdc:	00000013          	addi	zero,zero,0
     ce0:	00000013          	addi	zero,zero,0
     ce4:	00000013          	addi	zero,zero,0
     ce8:	00000013          	addi	zero,zero,0
     cec:	00000013          	addi	zero,zero,0
     cf0:	00000013          	addi	zero,zero,0
     cf4:	00000013          	addi	zero,zero,0
     cf8:	00000013          	addi	zero,zero,0
     cfc:	00000013          	addi	zero,zero,0
     d00:	00000013          	addi	zero,zero,0
     d04:	00000013          	addi	zero,zero,0
     d08:	00000013          	addi	zero,zero,0
     d0c:	00000013          	addi	zero,zero,0
     d10:	00000013          	addi	zero,zero,0
     d14:	00000013          	addi	zero,zero,0
     d18:	00000013          	addi	zero,zero,0
     d1c:	00000013          	addi	zero,zero,0
     d20:	00000013          	addi	zero,zero,0
     d24:	00000013          	addi	zero,zero,0
     d28:	00000013          	addi	zero,zero,0
     d2c:	00000013          	addi	zero,zero,0
     d30:	00000013          	addi	zero,zero,0
     d34:	00000013          	addi	zero,zero,0
     d38:	00000013          	addi	zero,zero,0
     d3c:	00000013          	addi	zero,zero,0
     d40:	00000013          	addi	zero,zero,0
     d44:	00000013          	addi	zero,zero,0
     d48:	00000013          	addi	zero,zero,0
     d4c:	00000013          	addi	zero,zero,0
     d50:	00000013          	addi	zero,zero,0
     d54:	00000013          	addi	zero,zero,0
     d58:	00000013          	addi	zero,zero,0
     d5c:	00000013          	addi	zero,zero,0
     d60:	00000013          	addi	zero,zero,0
     d64:	00000013          	addi	zero,zero,0
     d68:	00000013          	addi	zero,zero,0
     d6c:	00000013          	addi	zero,zero,0
     d70:	00000013          	addi	zero,zero,0
     d74:	00000013          	addi	zero,zero,0
     d78:	00000013          	addi	zero,zero,0
     d7c:	00000013          	addi	zero,zero,0
     d80:	00000013          	addi	zero,zero,0
     d84:	00000013          	addi	zero,zero,0
     d88:	00000013          	addi	zero,zero,0
     d8c:	00000013          	addi	zero,zero,0
     d90:	00000013          	addi	zero,zero,0
     d94:	00000013          	addi	zero,zero,0
     d98:	00000013          	addi	zero,zero,0
     d9c:	00000013          	addi	zero,zero,0
     da0:	00000013          	addi	zero,zero,0
     da4:	00000013          	addi	zero,zero,0
     da8:	00000013          	addi	zero,zero,0
     dac:	00000013          	addi	zero,zero,0
     db0:	00000013          	addi	zero,zero,0
     db4:	00000013          	addi	zero,zero,0
     db8:	00000013          	addi	zero,zero,0
     dbc:	00000013          	addi	zero,zero,0
     dc0:	00000013          	addi	zero,zero,0
     dc4:	00000013          	addi	zero,zero,0
     dc8:	00000013          	addi	zero,zero,0
     dcc:	00000013          	addi	zero,zero,0
     dd0:	00000013          	addi	zero,zero,0
     dd4:	00000013          	addi	zero,zero,0
     dd8:	00000013          	addi	zero,zero,0
     ddc:	00000013          	addi	zero,zero,0
     de0:	00000013          	addi	zero,zero,0
     de4:	00000013          	addi	zero,zero,0
     de8:	00000013          	addi	zero,zero,0
     dec:	00000013          	addi	zero,zero,0
     df0:	00000013          	addi	zero,zero,0
     df4:	00000013          	addi	zero,zero,0
     df8:	00000013          	addi	zero,zero,0
     dfc:	00000013          	addi	zero,zero,0
     e00:	00000013          	addi	zero,zero,0
     e04:	00000013          	addi	zero,zero,0
     e08:	00000013          	addi	zero,zero,0
     e0c:	00000013          	addi	zero,zero,0
     e10:	00000013          	addi	zero,zero,0
     e14:	00000013          	addi	zero,zero,0
     e18:	00000013          	addi	zero,zero,0
     e1c:	00000013          	addi	zero,zero,0
     e20:	00000013          	addi	zero,zero,0
     e24:	00000013          	addi	zero,zero,0
     e28:	00000013          	addi	zero,zero,0
     e2c:	00000013          	addi	zero,zero,0
     e30:	00000013          	addi	zero,zero,0
     e34:	00000013          	addi	zero,zero,0
     e38:	00000013          	addi	zero,zero,0
     e3c:	00000013          	addi	zero,zero,0
     e40:	00000013          	addi	zero,zero,0
     e44:	00000013          	addi	zero,zero,0
     e48:	00000013          	addi	zero,zero,0
     e4c:	00000013          	addi	zero,zero,0
     e50:	00000013          	addi	zero,zero,0
     e54:	00000013          	addi	zero,zero,0
     e58:	00000013          	addi	zero,zero,0
     e5c:	00000013          	addi	zero,zero,0
     e60:	00000013          	addi	zero,zero,0
     e64:	00000013          	addi	zero,zero,0
     e68:	00000013          	addi	zero,zero,0
     e6c:	00000013          	addi	zero,zero,0
     e70:	00000013          	addi	zero,zero,0
     e74:	00000013          	addi	zero,zero,0
     e78:	00000013          	addi	zero,zero,0
     e7c:	00000013          	addi	zero,zero,0
     e80:	00000013          	addi	zero,zero,0
     e84:	00000013          	addi	zero,zero,0
     e88:	00000013          	addi	zero,zero,0
     e8c:	00000013          	addi	zero,zero,0
     e90:	00000013          	addi	zero,zero,0
     e94:	00000013          	addi	zero,zero,0
     e98:	00000013          	addi	zero,zero,0
     e9c:	00000013          	addi	zero,zero,0
     ea0:	00000013          	addi	zero,zero,0
     ea4:	00000013          	addi	zero,zero,0
     ea8:	00000013          	addi	zero,zero,0
     eac:	00000013          	addi	zero,zero,0
     eb0:	00000013          	addi	zero,zero,0
     eb4:	00000013          	addi	zero,zero,0
     eb8:	00000013          	addi	zero,zero,0
     ebc:	00000013          	addi	zero,zero,0
     ec0:	00000013          	addi	zero,zero,0
     ec4:	00000013          	addi	zero,zero,0
     ec8:	00000013          	addi	zero,zero,0
     ecc:	00000013          	addi	zero,zero,0
     ed0:	00000013          	addi	zero,zero,0
     ed4:	00000013          	addi	zero,zero,0
     ed8:	00000013          	addi	zero,zero,0
     edc:	00000013          	addi	zero,zero,0
     ee0:	00000013          	addi	zero,zero,0
     ee4:	00000013          	addi	zero,zero,0
     ee8:	00000013          	addi	zero,zero,0
     eec:	00000013          	addi	zero,zero,0
     ef0:	00000013          	addi	zero,zero,0
     ef4:	00000013          	addi	zero,zero,0
     ef8:	00000013          	addi	zero,zero,0
     efc:	00000013          	addi	zero,zero,0
     f00:	00000013          	addi	zero,zero,0
     f04:	00000013          	addi	zero,zero,0
     f08:	00000013          	addi	zero,zero,0
     f0c:	00000013          	addi	zero,zero,0
     f10:	00000013          	addi	zero,zero,0
     f14:	00000013          	addi	zero,zero,0
     f18:	00000013          	addi	zero,zero,0
     f1c:	00000013          	addi	zero,zero,0
     f20:	00000013          	addi	zero,zero,0
     f24:	00000013          	addi	zero,zero,0
     f28:	00000013          	addi	zero,zero,0
     f2c:	00000013          	addi	zero,zero,0
     f30:	00000013          	addi	zero,zero,0
     f34:	00000013          	addi	zero,zero,0
     f38:	00000013          	addi	zero,zero,0
     f3c:	00000013          	addi	zero,zero,0
     f40:	00000013          	addi	zero,zero,0
     f44:	00000013          	addi	zero,zero,0
     f48:	00000013          	addi	zero,zero,0
     f4c:	00000013          	addi	zero,zero,0
     f50:	00000013          	addi	zero,zero,0
     f54:	00000013          	addi	zero,zero,0
     f58:	00000013          	addi	zero,zero,0
     f5c:	00000013          	addi	zero,zero,0
     f60:	00000013          	addi	zero,zero,0
     f64:	00000013          	addi	zero,zero,0
     f68:	00000013          	addi	zero,zero,0
     f6c:	00000013          	addi	zero,zero,0
     f70:	00000013          	addi	zero,zero,0
     f74:	00000013          	addi	zero,zero,0
     f78:	00000013          	addi	zero,zero,0
     f7c:	00000013          	addi	zero,zero,0
     f80:	00000013          	addi	zero,zero,0
     f84:	00000013          	addi	zero,zero,0
     f88:	00000013          	addi	zero,zero,0
     f8c:	00000013          	addi	zero,zero,0
     f90:	00000013          	addi	zero,zero,0
     f94:	00000013          	addi	zero,zero,0
     f98:	00000013          	addi	zero,zero,0
     f9c:	00000013          	addi	zero,zero,0
     fa0:	00000013          	addi	zero,zero,0
     fa4:	00000013          	addi	zero,zero,0
     fa8:	00000013          	addi	zero,zero,0
     fac:	00000013          	addi	zero,zero,0
     fb0:	00000013          	addi	zero,zero,0
     fb4:	00000013          	addi	zero,zero,0
     fb8:	00000013          	addi	zero,zero,0
     fbc:	00000013          	addi	zero,zero,0
     fc0:	00000013          	addi	zero,zero,0
     fc4:	00000013          	addi	zero,zero,0
     fc8:	00000013          	addi	zero,zero,0
     fcc:	00000013          	addi	zero,zero,0
     fd0:	00000013          	addi	zero,zero,0
     fd4:	00000013          	addi	zero,zero,0
     fd8:	00000013          	addi	zero,zero,0
     fdc:	00000013          	addi	zero,zero,0
     fe0:	00000013          	addi	zero,zero,0
     fe4:	00000013          	addi	zero,zero,0
     fe8:	00000013          	addi	zero,zero,0
     fec:	00000013          	addi	zero,zero,0
     ff0:	00000013          	addi	zero,zero,0
     ff4:	00000013          	addi	zero,zero,0
     ff8:	00000013          	addi	zero,zero,0
     ffc:	00000013          	addi	zero,zero,0
	...
    1ffc:	0000                	c.unimp
    1ffe:	00158593          	addi	a1,a1,1
    2002:	29b00e93          	addi	t4,zero,667
    2006:	00200193          	addi	gp,zero,2
    200a:	23d59f63          	bne	a1,t4,2248 <fail>
    200e:	00001137          	lui	sp,0x1
    2012:	23410113          	addi	sp,sp,564 # 1234 <data+0x10b4>

00002016 <test_3>:
    2016:	1fe8                	c.addi4spn	a0,sp,1020
    2018:	00001eb7          	lui	t4,0x1
    201c:	630e8e93          	addi	t4,t4,1584 # 1630 <data+0x14b0>
    2020:	00300193          	addi	gp,zero,3
    2024:	23d51263          	bne	a0,t4,2248 <fail>

00002028 <test_4>:
    2028:	1f010113          	addi	sp,sp,496
    202c:	00001eb7          	lui	t4,0x1
    2030:	424e8e93          	addi	t4,t4,1060 # 1424 <data+0x12a4>
    2034:	00400193          	addi	gp,zero,4
    2038:	21d11863          	bne	sp,t4,2248 <fail>

0000203c <test_5>:
    203c:	e0010113          	addi	sp,sp,-512
    2040:	00001eb7          	lui	t4,0x1
    2044:	224e8e93          	addi	t4,t4,548 # 1224 <data+0x10a4>
    2048:	00500193          	addi	gp,zero,5
    204c:	1fd11e63          	bne	sp,t4,2248 <fail>
    2050:	ffffe597          	auipc	a1,0xffffe
    2054:	13058593          	addi	a1,a1,304 # 180 <data>

00002058 <test_6>:
    2058:	41c8                	c.lw	a0,4(a1)
    205a:	0505                	c.addi	a0,1
    205c:	c1c8                	c.sw	a0,4(a1)
    205e:	41d0                	c.lw	a2,4(a1)
    2060:	fedcceb7          	lui	t4,0xfedcc
    2064:	a99e8e93          	addi	t4,t4,-1383 # fedcba99 <__start_addr+0x7edcba89>
    2068:	00600193          	addi	gp,zero,6
    206c:	1dd61e63          	bne	a2,t4,2248 <fail>

00002070 <test_8>:
    2070:	00106513          	ori	a0,zero,1
    2074:	ff050513          	addi	a0,a0,-16
    2078:	ff100e93          	addi	t4,zero,-15
    207c:	00800193          	addi	gp,zero,8
    2080:	1dd51463          	bne	a0,t4,2248 <fail>

00002084 <test_9>:
    2084:	00106793          	ori	a5,zero,1
    2088:	ff000793          	addi	a5,zero,-16
    208c:	ff000e93          	addi	t4,zero,-16
    2090:	00900193          	addi	gp,zero,9
    2094:	1bd79a63          	bne	a5,t4,2248 <fail>

00002098 <test_11>:
    2098:	7405                	c.lui	s0,0xfffe1
    209a:	8431                	c.srai	s0,0xc
    209c:	fe100e93          	addi	t4,zero,-31
    20a0:	00b00193          	addi	gp,zero,11
    20a4:	1bd41263          	bne	s0,t4,2248 <fail>

000020a8 <test_12>:
    20a8:	7405                	c.lui	s0,0xfffe1
    20aa:	8031                	c.srli	s0,0xc
    20ac:	00100eb7          	lui	t4,0x100
    20b0:	fe1e8e93          	addi	t4,t4,-31 # fffe1 <__global_pointer$+0xfc9f7>
    20b4:	00c00193          	addi	gp,zero,12
    20b8:	19d41863          	bne	s0,t4,2248 <fail>

000020bc <test_14>:
    20bc:	5479                	c.li	s0,-2
    20be:	983d                	c.andi	s0,-17
    20c0:	fee00e93          	addi	t4,zero,-18
    20c4:	00e00193          	addi	gp,zero,14
    20c8:	19d41063          	bne	s0,t4,2248 <fail>

000020cc <test_15>:
    20cc:	44d1                	c.li	s1,20
    20ce:	4519                	c.li	a0,6
    20d0:	40a484b3          	sub	s1,s1,a0
    20d4:	00e00e93          	addi	t4,zero,14
    20d8:	00f00193          	addi	gp,zero,15
    20dc:	17d49663          	bne	s1,t4,2248 <fail>

000020e0 <test_16>:
    20e0:	44d1                	c.li	s1,20
    20e2:	4519                	c.li	a0,6
    20e4:	00a4c4b3          	xor	s1,s1,a0
    20e8:	01200e93          	addi	t4,zero,18
    20ec:	01000193          	addi	gp,zero,16
    20f0:	15d49c63          	bne	s1,t4,2248 <fail>

000020f4 <test_17>:
    20f4:	44d1                	c.li	s1,20
    20f6:	4519                	c.li	a0,6
    20f8:	00a4e4b3          	or	s1,s1,a0
    20fc:	01600e93          	addi	t4,zero,22
    2100:	01100193          	addi	gp,zero,17
    2104:	15d49263          	bne	s1,t4,2248 <fail>

00002108 <test_18>:
    2108:	44d1                	c.li	s1,20
    210a:	4519                	c.li	a0,6
    210c:	00a4f4b3          	and	s1,s1,a0
    2110:	00400e93          	addi	t4,zero,4
    2114:	01200193          	addi	gp,zero,18
    2118:	13d49863          	bne	s1,t4,2248 <fail>

0000211c <test_21>:
    211c:	00001437          	lui	s0,0x1
    2120:	23440413          	addi	s0,s0,564 # 1234 <data+0x10b4>
    2124:	00441413          	slli	s0,s0,0x4
    2128:	00012eb7          	lui	t4,0x12
    212c:	340e8e93          	addi	t4,t4,832 # 12340 <__global_pointer$+0xed56>
    2130:	01500193          	addi	gp,zero,21
    2134:	11d41a63          	bne	s0,t4,2248 <fail>

00002138 <test_30>:
    2138:	4081                	c.li	ra,0
    213a:	a011                	c.j	213e <test_30+0x6>
    213c:	a011                	c.j	2140 <test_30+0x8>
    213e:	a019                	c.j	2144 <test_30+0xc>
    2140:	1080006f          	jal	zero,2248 <fail>
    2144:	00000e93          	addi	t4,zero,0
    2148:	01e00193          	addi	gp,zero,30
    214c:	0fd09e63          	bne	ra,t4,2248 <fail>

00002150 <test_31>:
    2150:	4501                	c.li	a0,0
    2152:	c111                	c.beqz	a0,2156 <test_31+0x6>
    2154:	a011                	c.j	2158 <test_31+0x8>
    2156:	a019                	c.j	215c <test_31+0xc>
    2158:	0f00006f          	jal	zero,2248 <fail>
    215c:	00000e93          	addi	t4,zero,0
    2160:	01f00193          	addi	gp,zero,31
    2164:	0fd01263          	bne	zero,t4,2248 <fail>

00002168 <test_32>:
    2168:	4505                	c.li	a0,1
    216a:	e111                	c.bnez	a0,216e <test_32+0x6>
    216c:	a011                	c.j	2170 <test_32+0x8>
    216e:	a019                	c.j	2174 <test_32+0xc>
    2170:	0d80006f          	jal	zero,2248 <fail>
    2174:	00000e93          	addi	t4,zero,0
    2178:	02000193          	addi	gp,zero,32
    217c:	0dd01663          	bne	zero,t4,2248 <fail>

00002180 <test_33>:
    2180:	4505                	c.li	a0,1
    2182:	c111                	c.beqz	a0,2186 <test_33+0x6>
    2184:	a011                	c.j	2188 <test_33+0x8>
    2186:	a0c9                	c.j	2248 <fail>
    2188:	00000e93          	addi	t4,zero,0
    218c:	02100193          	addi	gp,zero,33
    2190:	0bd01c63          	bne	zero,t4,2248 <fail>

00002194 <test_34>:
    2194:	4501                	c.li	a0,0
    2196:	e111                	c.bnez	a0,219a <test_34+0x6>
    2198:	a011                	c.j	219c <test_34+0x8>
    219a:	a07d                	c.j	2248 <fail>
    219c:	00000e93          	addi	t4,zero,0
    21a0:	02200193          	addi	gp,zero,34
    21a4:	0bd01263          	bne	zero,t4,2248 <fail>

000021a8 <test_35>:
    21a8:	00000297          	auipc	t0,0x0
    21ac:	00e28293          	addi	t0,t0,14 # 21b6 <test_35+0xe>
    21b0:	4081                	c.li	ra,0
    21b2:	8282                	c.jr	t0
    21b4:	a011                	c.j	21b8 <test_35+0x10>
    21b6:	a019                	c.j	21bc <test_35+0x14>
    21b8:	0900006f          	jal	zero,2248 <fail>
    21bc:	00000e93          	addi	t4,zero,0
    21c0:	02300193          	addi	gp,zero,35
    21c4:	09d09263          	bne	ra,t4,2248 <fail>

000021c8 <test_36>:
    21c8:	00000297          	auipc	t0,0x0
    21cc:	00e28293          	addi	t0,t0,14 # 21d6 <test_36+0xe>
    21d0:	4081                	c.li	ra,0
    21d2:	9282                	c.jalr	t0
    21d4:	a011                	c.j	21d8 <test_36+0x10>
    21d6:	a019                	c.j	21dc <test_36+0x14>
    21d8:	0700006f          	jal	zero,2248 <fail>
    21dc:	405080b3          	sub	ra,ra,t0
    21e0:	ffe00e93          	addi	t4,zero,-2
    21e4:	02400193          	addi	gp,zero,36
    21e8:	07d09063          	bne	ra,t4,2248 <fail>

000021ec <test_37>:
    21ec:	00000297          	auipc	t0,0x0
    21f0:	00e28293          	addi	t0,t0,14 # 21fa <test_37+0xe>
    21f4:	4081                	c.li	ra,0
    21f6:	2011                	c.jal	21fa <test_37+0xe>
    21f8:	a011                	c.j	21fc <test_37+0x10>
    21fa:	a019                	c.j	2200 <test_37+0x14>
    21fc:	04c0006f          	jal	zero,2248 <fail>
    2200:	405080b3          	sub	ra,ra,t0
    2204:	ffe00e93          	addi	t4,zero,-2
    2208:	02500193          	addi	gp,zero,37
    220c:	03d09e63          	bne	ra,t4,2248 <fail>
    2210:	ffffe117          	auipc	sp,0xffffe
    2214:	f7010113          	addi	sp,sp,-144 # 180 <data>

00002218 <test_40>:
    2218:	4532                	c.lwsp	a0,12(sp)
    221a:	0505                	c.addi	a0,1
    221c:	c62a                	c.swsp	a0,12(sp)
    221e:	4632                	c.lwsp	a2,12(sp)
    2220:	fedcceb7          	lui	t4,0xfedcc
    2224:	a99e8e93          	addi	t4,t4,-1383 # fedcba99 <__start_addr+0x7edcba89>
    2228:	02800193          	addi	gp,zero,40
    222c:	01d61e63          	bne	a2,t4,2248 <fail>

00002230 <test_42>:
    2230:	12300513          	addi	a0,zero,291
    2234:	82aa                	c.mv	t0,a0
    2236:	92aa                	c.add	t0,a0
    2238:	24600e93          	addi	t4,zero,582
    223c:	02a00193          	addi	gp,zero,42
    2240:	01d29463          	bne	t0,t4,2248 <fail>
    2244:	00301c63          	bne	zero,gp,225c <pass>

00002248 <fail>:
    2248:	0ff0000f          	fence	iorw,iorw
    224c:	e00802b7          	lui	t0,0xe0080
    2250:	01234337          	lui	t1,0x1234
    2254:	56930313          	addi	t1,t1,1385 # 1234569 <__global_pointer$+0x1230f7f>
    2258:	0062a023          	sw	t1,0(t0) # e0080000 <__start_addr+0x6007fff0>

0000225c <pass>:
    225c:	0ff0000f          	fence	iorw,iorw
    2260:	e00802b7          	lui	t0,0xe0080
    2264:	01234337          	lui	t1,0x1234
    2268:	56830313          	addi	t1,t1,1384 # 1234568 <__global_pointer$+0x1230f7e>
    226c:	0062a023          	sw	t1,0(t0) # e0080000 <__start_addr+0x6007fff0>
    2270:	0000                	c.unimp
    2272:	00000013          	addi	zero,zero,0
    2276:	00000013          	addi	zero,zero,0
    227a:	00000013          	addi	zero,zero,0
    227e:	00000013          	addi	zero,zero,0
    2282:	00000013          	addi	zero,zero,0
    2286:	00000013          	addi	zero,zero,0
    228a:	00000013          	addi	zero,zero,0
    228e:	00000013          	addi	zero,zero,0
    2292:	00000013          	addi	zero,zero,0
    2296:	00000013          	addi	zero,zero,0
    229a:	00000013          	addi	zero,zero,0
    229e:	00000013          	addi	zero,zero,0
    22a2:	00000013          	addi	zero,zero,0
    22a6:	00000013          	addi	zero,zero,0
    22aa:	00000013          	addi	zero,zero,0
    22ae:	00000013          	addi	zero,zero,0
    22b2:	00000013          	addi	zero,zero,0
    22b6:	00000013          	addi	zero,zero,0
    22ba:	00000013          	addi	zero,zero,0
    22be:	00000013          	addi	zero,zero,0
    22c2:	00000013          	addi	zero,zero,0
    22c6:	00000013          	addi	zero,zero,0
    22ca:	00000013          	addi	zero,zero,0
    22ce:	00000013          	addi	zero,zero,0
    22d2:	00000013          	addi	zero,zero,0
    22d6:	00000013          	addi	zero,zero,0
    22da:	00000013          	addi	zero,zero,0
    22de:	00000013          	addi	zero,zero,0
    22e2:	00000013          	addi	zero,zero,0
    22e6:	00000013          	addi	zero,zero,0
    22ea:	00000013          	addi	zero,zero,0
    22ee:	00000013          	addi	zero,zero,0
    22f2:	00000013          	addi	zero,zero,0
    22f6:	00000013          	addi	zero,zero,0
    22fa:	00000013          	addi	zero,zero,0
    22fe:	00000013          	addi	zero,zero,0
    2302:	00000013          	addi	zero,zero,0
    2306:	00000013          	addi	zero,zero,0
    230a:	00000013          	addi	zero,zero,0
    230e:	00000013          	addi	zero,zero,0
    2312:	00000013          	addi	zero,zero,0
    2316:	00000013          	addi	zero,zero,0
    231a:	00000013          	addi	zero,zero,0
    231e:	00000013          	addi	zero,zero,0
    2322:	00000013          	addi	zero,zero,0
    2326:	00000013          	addi	zero,zero,0
    232a:	00000013          	addi	zero,zero,0
    232e:	00000013          	addi	zero,zero,0
    2332:	00000013          	addi	zero,zero,0
    2336:	00000013          	addi	zero,zero,0
    233a:	00000013          	addi	zero,zero,0
    233e:	00000013          	addi	zero,zero,0
    2342:	00000013          	addi	zero,zero,0
    2346:	00000013          	addi	zero,zero,0
    234a:	00000013          	addi	zero,zero,0
    234e:	00000013          	addi	zero,zero,0
    2352:	00000013          	addi	zero,zero,0
    2356:	00000013          	addi	zero,zero,0
    235a:	00000013          	addi	zero,zero,0
    235e:	00000013          	addi	zero,zero,0
    2362:	00000013          	addi	zero,zero,0
    2366:	00000013          	addi	zero,zero,0
    236a:	00000013          	addi	zero,zero,0
    236e:	00000013          	addi	zero,zero,0
    2372:	00000013          	addi	zero,zero,0
    2376:	00000013          	addi	zero,zero,0
    237a:	00000013          	addi	zero,zero,0
    237e:	00000013          	addi	zero,zero,0
    2382:	00000013          	addi	zero,zero,0
    2386:	00000013          	addi	zero,zero,0
    238a:	00000013          	addi	zero,zero,0
    238e:	00000013          	addi	zero,zero,0
    2392:	00000013          	addi	zero,zero,0
    2396:	00000013          	addi	zero,zero,0
    239a:	00000013          	addi	zero,zero,0
    239e:	00000013          	addi	zero,zero,0
    23a2:	00000013          	addi	zero,zero,0
    23a6:	00000013          	addi	zero,zero,0
    23aa:	00000013          	addi	zero,zero,0
    23ae:	00000013          	addi	zero,zero,0
    23b2:	00000013          	addi	zero,zero,0
    23b6:	00000013          	addi	zero,zero,0
    23ba:	00000013          	addi	zero,zero,0
    23be:	00000013          	addi	zero,zero,0
    23c2:	00000013          	addi	zero,zero,0
    23c6:	00000013          	addi	zero,zero,0
    23ca:	00000013          	addi	zero,zero,0
    23ce:	00000013          	addi	zero,zero,0
    23d2:	00000013          	addi	zero,zero,0
    23d6:	00000013          	addi	zero,zero,0
    23da:	00000013          	addi	zero,zero,0
    23de:	00000013          	addi	zero,zero,0
    23e2:	00000013          	addi	zero,zero,0
    23e6:	00000013          	addi	zero,zero,0
    23ea:	00000013          	addi	zero,zero,0
    23ee:	00000013          	addi	zero,zero,0
    23f2:	00000013          	addi	zero,zero,0
    23f6:	00000013          	addi	zero,zero,0
    23fa:	00000013          	addi	zero,zero,0
    23fe:	00000013          	addi	zero,zero,0
    2402:	00000013          	addi	zero,zero,0
    2406:	00000013          	addi	zero,zero,0
    240a:	00000013          	addi	zero,zero,0
    240e:	00000013          	addi	zero,zero,0
    2412:	00000013          	addi	zero,zero,0
    2416:	00000013          	addi	zero,zero,0
    241a:	00000013          	addi	zero,zero,0
    241e:	00000013          	addi	zero,zero,0
    2422:	00000013          	addi	zero,zero,0
    2426:	00000013          	addi	zero,zero,0
    242a:	00000013          	addi	zero,zero,0
    242e:	00000013          	addi	zero,zero,0
    2432:	00000013          	addi	zero,zero,0
    2436:	00000013          	addi	zero,zero,0
    243a:	00000013          	addi	zero,zero,0
    243e:	00000013          	addi	zero,zero,0
    2442:	00000013          	addi	zero,zero,0
    2446:	00000013          	addi	zero,zero,0
    244a:	00000013          	addi	zero,zero,0
    244e:	00000013          	addi	zero,zero,0
    2452:	00000013          	addi	zero,zero,0
    2456:	00000013          	addi	zero,zero,0
    245a:	00000013          	addi	zero,zero,0
    245e:	00000013          	addi	zero,zero,0
    2462:	00000013          	addi	zero,zero,0
    2466:	00000013          	addi	zero,zero,0
    246a:	00000013          	addi	zero,zero,0
    246e:	00000013          	addi	zero,zero,0
    2472:	00000013          	addi	zero,zero,0
    2476:	00000013          	addi	zero,zero,0
    247a:	00000013          	addi	zero,zero,0
    247e:	00000013          	addi	zero,zero,0
    2482:	00000013          	addi	zero,zero,0
    2486:	00000013          	addi	zero,zero,0
    248a:	00000013          	addi	zero,zero,0
    248e:	00000013          	addi	zero,zero,0
    2492:	00000013          	addi	zero,zero,0
    2496:	00000013          	addi	zero,zero,0
    249a:	00000013          	addi	zero,zero,0
    249e:	00000013          	addi	zero,zero,0
    24a2:	00000013          	addi	zero,zero,0
    24a6:	00000013          	addi	zero,zero,0
    24aa:	00000013          	addi	zero,zero,0
    24ae:	00000013          	addi	zero,zero,0
    24b2:	00000013          	addi	zero,zero,0
    24b6:	00000013          	addi	zero,zero,0
    24ba:	00000013          	addi	zero,zero,0
    24be:	00000013          	addi	zero,zero,0
    24c2:	00000013          	addi	zero,zero,0
    24c6:	00000013          	addi	zero,zero,0
    24ca:	00000013          	addi	zero,zero,0
    24ce:	00000013          	addi	zero,zero,0
    24d2:	00000013          	addi	zero,zero,0
    24d6:	00000013          	addi	zero,zero,0
    24da:	00000013          	addi	zero,zero,0
    24de:	00000013          	addi	zero,zero,0
    24e2:	00000013          	addi	zero,zero,0
    24e6:	00000013          	addi	zero,zero,0
    24ea:	00000013          	addi	zero,zero,0
    24ee:	00000013          	addi	zero,zero,0
    24f2:	00000013          	addi	zero,zero,0
    24f6:	00000013          	addi	zero,zero,0
    24fa:	00000013          	addi	zero,zero,0
    24fe:	00000013          	addi	zero,zero,0
    2502:	00000013          	addi	zero,zero,0
    2506:	00000013          	addi	zero,zero,0
    250a:	00000013          	addi	zero,zero,0
    250e:	00000013          	addi	zero,zero,0
    2512:	00000013          	addi	zero,zero,0
    2516:	00000013          	addi	zero,zero,0
    251a:	00000013          	addi	zero,zero,0
    251e:	00000013          	addi	zero,zero,0
    2522:	00000013          	addi	zero,zero,0
    2526:	00000013          	addi	zero,zero,0
    252a:	00000013          	addi	zero,zero,0
    252e:	00000013          	addi	zero,zero,0
    2532:	00000013          	addi	zero,zero,0
    2536:	00000013          	addi	zero,zero,0
    253a:	00000013          	addi	zero,zero,0
    253e:	00000013          	addi	zero,zero,0
    2542:	00000013          	addi	zero,zero,0
    2546:	00000013          	addi	zero,zero,0
    254a:	00000013          	addi	zero,zero,0
    254e:	00000013          	addi	zero,zero,0
    2552:	00000013          	addi	zero,zero,0
    2556:	00000013          	addi	zero,zero,0
    255a:	00000013          	addi	zero,zero,0
    255e:	00000013          	addi	zero,zero,0
    2562:	00000013          	addi	zero,zero,0
    2566:	00000013          	addi	zero,zero,0
    256a:	00000013          	addi	zero,zero,0
    256e:	00000013          	addi	zero,zero,0
    2572:	00000013          	addi	zero,zero,0
    2576:	00000013          	addi	zero,zero,0
    257a:	00000013          	addi	zero,zero,0
    257e:	00000013          	addi	zero,zero,0
    2582:	00000013          	addi	zero,zero,0
    2586:	00000013          	addi	zero,zero,0
    258a:	00000013          	addi	zero,zero,0
    258e:	00000013          	addi	zero,zero,0
    2592:	00000013          	addi	zero,zero,0
    2596:	00000013          	addi	zero,zero,0
    259a:	00000013          	addi	zero,zero,0
    259e:	00000013          	addi	zero,zero,0
    25a2:	00000013          	addi	zero,zero,0
    25a6:	00000013          	addi	zero,zero,0
    25aa:	00000013          	addi	zero,zero,0
    25ae:	00000013          	addi	zero,zero,0
    25b2:	00000013          	addi	zero,zero,0
    25b6:	00000013          	addi	zero,zero,0
    25ba:	00000013          	addi	zero,zero,0
    25be:	00000013          	addi	zero,zero,0
    25c2:	00000013          	addi	zero,zero,0
    25c6:	00000013          	addi	zero,zero,0
    25ca:	00000013          	addi	zero,zero,0
    25ce:	00000013          	addi	zero,zero,0
    25d2:	00000013          	addi	zero,zero,0
    25d6:	00000013          	addi	zero,zero,0
    25da:	00000013          	addi	zero,zero,0
    25de:	00000013          	addi	zero,zero,0
    25e2:	00000013          	addi	zero,zero,0
    25e6:	00000013          	addi	zero,zero,0
    25ea:	00000013          	addi	zero,zero,0
    25ee:	00000013          	addi	zero,zero,0
    25f2:	00000013          	addi	zero,zero,0
    25f6:	00000013          	addi	zero,zero,0
    25fa:	00000013          	addi	zero,zero,0
    25fe:	00000013          	addi	zero,zero,0
    2602:	00000013          	addi	zero,zero,0
    2606:	00000013          	addi	zero,zero,0
    260a:	00000013          	addi	zero,zero,0
    260e:	00000013          	addi	zero,zero,0
    2612:	00000013          	addi	zero,zero,0
    2616:	00000013          	addi	zero,zero,0
    261a:	00000013          	addi	zero,zero,0
    261e:	00000013          	addi	zero,zero,0
    2622:	00000013          	addi	zero,zero,0
    2626:	00000013          	addi	zero,zero,0
    262a:	00000013          	addi	zero,zero,0
    262e:	00000013          	addi	zero,zero,0
    2632:	00000013          	addi	zero,zero,0
    2636:	00000013          	addi	zero,zero,0
    263a:	00000013          	addi	zero,zero,0
    263e:	00000013          	addi	zero,zero,0
    2642:	00000013          	addi	zero,zero,0
    2646:	00000013          	addi	zero,zero,0
    264a:	00000013          	addi	zero,zero,0
    264e:	00000013          	addi	zero,zero,0
    2652:	00000013          	addi	zero,zero,0
    2656:	00000013          	addi	zero,zero,0
    265a:	00000013          	addi	zero,zero,0
    265e:	00000013          	addi	zero,zero,0
    2662:	00000013          	addi	zero,zero,0
    2666:	00000013          	addi	zero,zero,0
    266a:	00000013          	addi	zero,zero,0
    266e:	00000013          	addi	zero,zero,0
    2672:	00000013          	addi	zero,zero,0
    2676:	00000013          	addi	zero,zero,0
    267a:	00000013          	addi	zero,zero,0
    267e:	00000013          	addi	zero,zero,0
    2682:	00000013          	addi	zero,zero,0
    2686:	00000013          	addi	zero,zero,0
    268a:	00000013          	addi	zero,zero,0
    268e:	00000013          	addi	zero,zero,0
    2692:	00000013          	addi	zero,zero,0
    2696:	00000013          	addi	zero,zero,0
    269a:	00000013          	addi	zero,zero,0
    269e:	00000013          	addi	zero,zero,0
    26a2:	00000013          	addi	zero,zero,0
    26a6:	00000013          	addi	zero,zero,0
    26aa:	00000013          	addi	zero,zero,0
    26ae:	00000013          	addi	zero,zero,0
    26b2:	00000013          	addi	zero,zero,0
    26b6:	00000013          	addi	zero,zero,0
    26ba:	00000013          	addi	zero,zero,0
    26be:	00000013          	addi	zero,zero,0
    26c2:	00000013          	addi	zero,zero,0
    26c6:	00000013          	addi	zero,zero,0
    26ca:	00000013          	addi	zero,zero,0
    26ce:	00000013          	addi	zero,zero,0
    26d2:	00000013          	addi	zero,zero,0
    26d6:	00000013          	addi	zero,zero,0
    26da:	00000013          	addi	zero,zero,0
    26de:	00000013          	addi	zero,zero,0
    26e2:	00000013          	addi	zero,zero,0
    26e6:	00000013          	addi	zero,zero,0
    26ea:	00000013          	addi	zero,zero,0
    26ee:	00000013          	addi	zero,zero,0
    26f2:	00000013          	addi	zero,zero,0
    26f6:	00000013          	addi	zero,zero,0
    26fa:	00000013          	addi	zero,zero,0
    26fe:	00000013          	addi	zero,zero,0
    2702:	00000013          	addi	zero,zero,0
    2706:	00000013          	addi	zero,zero,0
    270a:	00000013          	addi	zero,zero,0
    270e:	00000013          	addi	zero,zero,0
    2712:	00000013          	addi	zero,zero,0
    2716:	00000013          	addi	zero,zero,0
    271a:	00000013          	addi	zero,zero,0
    271e:	00000013          	addi	zero,zero,0
    2722:	00000013          	addi	zero,zero,0
    2726:	00000013          	addi	zero,zero,0
    272a:	00000013          	addi	zero,zero,0
    272e:	00000013          	addi	zero,zero,0
    2732:	00000013          	addi	zero,zero,0
    2736:	00000013          	addi	zero,zero,0
    273a:	00000013          	addi	zero,zero,0
    273e:	00000013          	addi	zero,zero,0
    2742:	00000013          	addi	zero,zero,0
    2746:	00000013          	addi	zero,zero,0
    274a:	00000013          	addi	zero,zero,0
    274e:	00000013          	addi	zero,zero,0
    2752:	00000013          	addi	zero,zero,0
    2756:	00000013          	addi	zero,zero,0
    275a:	00000013          	addi	zero,zero,0
    275e:	00000013          	addi	zero,zero,0
    2762:	00000013          	addi	zero,zero,0
    2766:	00000013          	addi	zero,zero,0
    276a:	00000013          	addi	zero,zero,0
    276e:	00000013          	addi	zero,zero,0
    2772:	00000013          	addi	zero,zero,0
    2776:	00000013          	addi	zero,zero,0
    277a:	00000013          	addi	zero,zero,0
    277e:	00000013          	addi	zero,zero,0
    2782:	00000013          	addi	zero,zero,0
    2786:	00000013          	addi	zero,zero,0
    278a:	00000013          	addi	zero,zero,0
    278e:	00000013          	addi	zero,zero,0
    2792:	00000013          	addi	zero,zero,0
    2796:	00000013          	addi	zero,zero,0
    279a:	00000013          	addi	zero,zero,0
    279e:	00000013          	addi	zero,zero,0
    27a2:	00000013          	addi	zero,zero,0
    27a6:	00000013          	addi	zero,zero,0
    27aa:	00000013          	addi	zero,zero,0
    27ae:	00000013          	addi	zero,zero,0
    27b2:	00000013          	addi	zero,zero,0
    27b6:	00000013          	addi	zero,zero,0
    27ba:	00000013          	addi	zero,zero,0
    27be:	00000013          	addi	zero,zero,0
    27c2:	00000013          	addi	zero,zero,0
    27c6:	00000013          	addi	zero,zero,0
    27ca:	00000013          	addi	zero,zero,0
    27ce:	00000013          	addi	zero,zero,0
    27d2:	00000013          	addi	zero,zero,0
    27d6:	00000013          	addi	zero,zero,0
    27da:	00000013          	addi	zero,zero,0
    27de:	00000013          	addi	zero,zero,0
    27e2:	00000013          	addi	zero,zero,0
    27e6:	00000013          	addi	zero,zero,0
    27ea:	00000013          	addi	zero,zero,0
    27ee:	00000013          	addi	zero,zero,0
    27f2:	00000013          	addi	zero,zero,0
    27f6:	00000013          	addi	zero,zero,0
    27fa:	00000013          	addi	zero,zero,0
    27fe:	00000013          	addi	zero,zero,0
    2802:	00000013          	addi	zero,zero,0
    2806:	00000013          	addi	zero,zero,0
    280a:	00000013          	addi	zero,zero,0
    280e:	00000013          	addi	zero,zero,0
    2812:	00000013          	addi	zero,zero,0
    2816:	00000013          	addi	zero,zero,0
    281a:	00000013          	addi	zero,zero,0
    281e:	00000013          	addi	zero,zero,0
    2822:	00000013          	addi	zero,zero,0
    2826:	00000013          	addi	zero,zero,0
    282a:	00000013          	addi	zero,zero,0
    282e:	00000013          	addi	zero,zero,0
    2832:	00000013          	addi	zero,zero,0
    2836:	00000013          	addi	zero,zero,0
    283a:	00000013          	addi	zero,zero,0
    283e:	00000013          	addi	zero,zero,0
    2842:	00000013          	addi	zero,zero,0
    2846:	00000013          	addi	zero,zero,0
    284a:	00000013          	addi	zero,zero,0
    284e:	00000013          	addi	zero,zero,0
    2852:	00000013          	addi	zero,zero,0
    2856:	00000013          	addi	zero,zero,0
    285a:	00000013          	addi	zero,zero,0
    285e:	00000013          	addi	zero,zero,0
    2862:	00000013          	addi	zero,zero,0
    2866:	00000013          	addi	zero,zero,0
    286a:	00000013          	addi	zero,zero,0
    286e:	00000013          	addi	zero,zero,0
    2872:	00000013          	addi	zero,zero,0
    2876:	00000013          	addi	zero,zero,0
    287a:	00000013          	addi	zero,zero,0
    287e:	00000013          	addi	zero,zero,0
    2882:	00000013          	addi	zero,zero,0
    2886:	00000013          	addi	zero,zero,0
    288a:	00000013          	addi	zero,zero,0
    288e:	00000013          	addi	zero,zero,0
    2892:	00000013          	addi	zero,zero,0
    2896:	00000013          	addi	zero,zero,0
    289a:	00000013          	addi	zero,zero,0
    289e:	00000013          	addi	zero,zero,0
    28a2:	00000013          	addi	zero,zero,0
    28a6:	00000013          	addi	zero,zero,0
    28aa:	00000013          	addi	zero,zero,0
    28ae:	00000013          	addi	zero,zero,0
    28b2:	00000013          	addi	zero,zero,0
    28b6:	00000013          	addi	zero,zero,0
    28ba:	00000013          	addi	zero,zero,0
    28be:	00000013          	addi	zero,zero,0
    28c2:	00000013          	addi	zero,zero,0
    28c6:	00000013          	addi	zero,zero,0
    28ca:	00000013          	addi	zero,zero,0
    28ce:	00000013          	addi	zero,zero,0
    28d2:	00000013          	addi	zero,zero,0
    28d6:	00000013          	addi	zero,zero,0
    28da:	00000013          	addi	zero,zero,0
    28de:	00000013          	addi	zero,zero,0
    28e2:	00000013          	addi	zero,zero,0
    28e6:	00000013          	addi	zero,zero,0
    28ea:	00000013          	addi	zero,zero,0
    28ee:	00000013          	addi	zero,zero,0
    28f2:	00000013          	addi	zero,zero,0
    28f6:	00000013          	addi	zero,zero,0
    28fa:	00000013          	addi	zero,zero,0
    28fe:	00000013          	addi	zero,zero,0
    2902:	00000013          	addi	zero,zero,0
    2906:	00000013          	addi	zero,zero,0
    290a:	00000013          	addi	zero,zero,0
    290e:	00000013          	addi	zero,zero,0
    2912:	00000013          	addi	zero,zero,0
    2916:	00000013          	addi	zero,zero,0
    291a:	00000013          	addi	zero,zero,0
    291e:	00000013          	addi	zero,zero,0
    2922:	00000013          	addi	zero,zero,0
    2926:	00000013          	addi	zero,zero,0
    292a:	00000013          	addi	zero,zero,0
    292e:	00000013          	addi	zero,zero,0
    2932:	00000013          	addi	zero,zero,0
    2936:	00000013          	addi	zero,zero,0
    293a:	00000013          	addi	zero,zero,0
    293e:	00000013          	addi	zero,zero,0
    2942:	00000013          	addi	zero,zero,0
    2946:	00000013          	addi	zero,zero,0
    294a:	00000013          	addi	zero,zero,0
    294e:	00000013          	addi	zero,zero,0
    2952:	00000013          	addi	zero,zero,0
    2956:	00000013          	addi	zero,zero,0
    295a:	00000013          	addi	zero,zero,0
    295e:	00000013          	addi	zero,zero,0
    2962:	00000013          	addi	zero,zero,0
    2966:	00000013          	addi	zero,zero,0
    296a:	00000013          	addi	zero,zero,0
    296e:	00000013          	addi	zero,zero,0
    2972:	00000013          	addi	zero,zero,0
    2976:	00000013          	addi	zero,zero,0
    297a:	00000013          	addi	zero,zero,0
    297e:	00000013          	addi	zero,zero,0
    2982:	00000013          	addi	zero,zero,0
    2986:	00000013          	addi	zero,zero,0
    298a:	00000013          	addi	zero,zero,0
    298e:	00000013          	addi	zero,zero,0
    2992:	00000013          	addi	zero,zero,0
    2996:	00000013          	addi	zero,zero,0
    299a:	00000013          	addi	zero,zero,0
    299e:	00000013          	addi	zero,zero,0
    29a2:	00000013          	addi	zero,zero,0
    29a6:	00000013          	addi	zero,zero,0
    29aa:	00000013          	addi	zero,zero,0
    29ae:	00000013          	addi	zero,zero,0
    29b2:	00000013          	addi	zero,zero,0
    29b6:	00000013          	addi	zero,zero,0
    29ba:	00000013          	addi	zero,zero,0
    29be:	00000013          	addi	zero,zero,0
    29c2:	00000013          	addi	zero,zero,0
    29c6:	00000013          	addi	zero,zero,0
    29ca:	00000013          	addi	zero,zero,0
    29ce:	00000013          	addi	zero,zero,0
    29d2:	00000013          	addi	zero,zero,0
    29d6:	00000013          	addi	zero,zero,0
    29da:	00000013          	addi	zero,zero,0
    29de:	00000013          	addi	zero,zero,0
    29e2:	00000013          	addi	zero,zero,0
    29e6:	00000013          	addi	zero,zero,0
    29ea:	00000013          	addi	zero,zero,0
    29ee:	00000013          	addi	zero,zero,0
    29f2:	00000013          	addi	zero,zero,0
    29f6:	00000013          	addi	zero,zero,0
    29fa:	00000013          	addi	zero,zero,0
    29fe:	00000013          	addi	zero,zero,0
    2a02:	00000013          	addi	zero,zero,0
    2a06:	00000013          	addi	zero,zero,0
    2a0a:	00000013          	addi	zero,zero,0
    2a0e:	00000013          	addi	zero,zero,0
    2a12:	00000013          	addi	zero,zero,0
    2a16:	00000013          	addi	zero,zero,0
    2a1a:	00000013          	addi	zero,zero,0
    2a1e:	00000013          	addi	zero,zero,0
    2a22:	00000013          	addi	zero,zero,0
    2a26:	00000013          	addi	zero,zero,0
    2a2a:	00000013          	addi	zero,zero,0
    2a2e:	00000013          	addi	zero,zero,0
    2a32:	00000013          	addi	zero,zero,0
    2a36:	00000013          	addi	zero,zero,0
    2a3a:	00000013          	addi	zero,zero,0
    2a3e:	00000013          	addi	zero,zero,0
    2a42:	00000013          	addi	zero,zero,0
    2a46:	00000013          	addi	zero,zero,0
    2a4a:	00000013          	addi	zero,zero,0
    2a4e:	00000013          	addi	zero,zero,0
    2a52:	00000013          	addi	zero,zero,0
    2a56:	00000013          	addi	zero,zero,0
    2a5a:	00000013          	addi	zero,zero,0
    2a5e:	00000013          	addi	zero,zero,0
    2a62:	00000013          	addi	zero,zero,0
    2a66:	00000013          	addi	zero,zero,0
    2a6a:	00000013          	addi	zero,zero,0
    2a6e:	00000013          	addi	zero,zero,0
    2a72:	00000013          	addi	zero,zero,0
    2a76:	00000013          	addi	zero,zero,0
    2a7a:	00000013          	addi	zero,zero,0
    2a7e:	00000013          	addi	zero,zero,0
    2a82:	00000013          	addi	zero,zero,0
    2a86:	00000013          	addi	zero,zero,0
    2a8a:	00000013          	addi	zero,zero,0
    2a8e:	00000013          	addi	zero,zero,0
    2a92:	00000013          	addi	zero,zero,0
    2a96:	00000013          	addi	zero,zero,0
    2a9a:	00000013          	addi	zero,zero,0
    2a9e:	00000013          	addi	zero,zero,0
    2aa2:	00000013          	addi	zero,zero,0
    2aa6:	00000013          	addi	zero,zero,0
    2aaa:	00000013          	addi	zero,zero,0
    2aae:	00000013          	addi	zero,zero,0
    2ab2:	00000013          	addi	zero,zero,0
    2ab6:	00000013          	addi	zero,zero,0
    2aba:	00000013          	addi	zero,zero,0
    2abe:	00000013          	addi	zero,zero,0
    2ac2:	00000013          	addi	zero,zero,0
    2ac6:	00000013          	addi	zero,zero,0
    2aca:	00000013          	addi	zero,zero,0
    2ace:	00000013          	addi	zero,zero,0
    2ad2:	00000013          	addi	zero,zero,0
    2ad6:	00000013          	addi	zero,zero,0
    2ada:	00000013          	addi	zero,zero,0
    2ade:	00000013          	addi	zero,zero,0
    2ae2:	00000013          	addi	zero,zero,0
    2ae6:	00000013          	addi	zero,zero,0
    2aea:	00000013          	addi	zero,zero,0
    2aee:	00000013          	addi	zero,zero,0
    2af2:	00000013          	addi	zero,zero,0
    2af6:	00000013          	addi	zero,zero,0
    2afa:	00000013          	addi	zero,zero,0
    2afe:	00000013          	addi	zero,zero,0
    2b02:	00000013          	addi	zero,zero,0
    2b06:	00000013          	addi	zero,zero,0
    2b0a:	00000013          	addi	zero,zero,0
    2b0e:	00000013          	addi	zero,zero,0
    2b12:	00000013          	addi	zero,zero,0
    2b16:	00000013          	addi	zero,zero,0
    2b1a:	00000013          	addi	zero,zero,0
    2b1e:	00000013          	addi	zero,zero,0
    2b22:	00000013          	addi	zero,zero,0
    2b26:	00000013          	addi	zero,zero,0
    2b2a:	00000013          	addi	zero,zero,0
    2b2e:	00000013          	addi	zero,zero,0
    2b32:	00000013          	addi	zero,zero,0
    2b36:	00000013          	addi	zero,zero,0
    2b3a:	00000013          	addi	zero,zero,0
    2b3e:	00000013          	addi	zero,zero,0
    2b42:	00000013          	addi	zero,zero,0
    2b46:	00000013          	addi	zero,zero,0
    2b4a:	00000013          	addi	zero,zero,0
    2b4e:	00000013          	addi	zero,zero,0
    2b52:	00000013          	addi	zero,zero,0
    2b56:	00000013          	addi	zero,zero,0
    2b5a:	00000013          	addi	zero,zero,0
    2b5e:	00000013          	addi	zero,zero,0
    2b62:	00000013          	addi	zero,zero,0
    2b66:	00000013          	addi	zero,zero,0
    2b6a:	00000013          	addi	zero,zero,0
    2b6e:	00000013          	addi	zero,zero,0
    2b72:	00000013          	addi	zero,zero,0
    2b76:	00000013          	addi	zero,zero,0
    2b7a:	00000013          	addi	zero,zero,0
    2b7e:	00000013          	addi	zero,zero,0
    2b82:	00000013          	addi	zero,zero,0
    2b86:	00000013          	addi	zero,zero,0
    2b8a:	00000013          	addi	zero,zero,0
    2b8e:	00000013          	addi	zero,zero,0
    2b92:	00000013          	addi	zero,zero,0
    2b96:	00000013          	addi	zero,zero,0
    2b9a:	00000013          	addi	zero,zero,0
    2b9e:	00000013          	addi	zero,zero,0
    2ba2:	00000013          	addi	zero,zero,0
    2ba6:	00000013          	addi	zero,zero,0
    2baa:	00000013          	addi	zero,zero,0
    2bae:	00000013          	addi	zero,zero,0
    2bb2:	00000013          	addi	zero,zero,0
    2bb6:	00000013          	addi	zero,zero,0
    2bba:	00000013          	addi	zero,zero,0
    2bbe:	00000013          	addi	zero,zero,0
    2bc2:	00000013          	addi	zero,zero,0
    2bc6:	00000013          	addi	zero,zero,0
    2bca:	00000013          	addi	zero,zero,0
    2bce:	00000013          	addi	zero,zero,0
    2bd2:	00000013          	addi	zero,zero,0
    2bd6:	00000013          	addi	zero,zero,0
    2bda:	00000013          	addi	zero,zero,0
    2bde:	00000013          	addi	zero,zero,0
    2be2:	00000013          	addi	zero,zero,0
    2be6:	00000013          	addi	zero,zero,0
    2bea:	00000013          	addi	zero,zero,0
    2bee:	00000013          	addi	zero,zero,0
    2bf2:	00000013          	addi	zero,zero,0
    2bf6:	00000013          	addi	zero,zero,0
    2bfa:	00000013          	addi	zero,zero,0
    2bfe:	00000013          	addi	zero,zero,0
    2c02:	00000013          	addi	zero,zero,0
    2c06:	00000013          	addi	zero,zero,0
    2c0a:	00000013          	addi	zero,zero,0
    2c0e:	00000013          	addi	zero,zero,0
    2c12:	00000013          	addi	zero,zero,0
    2c16:	00000013          	addi	zero,zero,0
    2c1a:	00000013          	addi	zero,zero,0
    2c1e:	00000013          	addi	zero,zero,0
    2c22:	00000013          	addi	zero,zero,0
    2c26:	00000013          	addi	zero,zero,0
    2c2a:	00000013          	addi	zero,zero,0
    2c2e:	00000013          	addi	zero,zero,0
    2c32:	00000013          	addi	zero,zero,0
    2c36:	00000013          	addi	zero,zero,0
    2c3a:	00000013          	addi	zero,zero,0
    2c3e:	00000013          	addi	zero,zero,0
    2c42:	00000013          	addi	zero,zero,0
    2c46:	00000013          	addi	zero,zero,0
    2c4a:	00000013          	addi	zero,zero,0
    2c4e:	00000013          	addi	zero,zero,0
    2c52:	00000013          	addi	zero,zero,0
    2c56:	00000013          	addi	zero,zero,0
    2c5a:	00000013          	addi	zero,zero,0
    2c5e:	00000013          	addi	zero,zero,0
    2c62:	00000013          	addi	zero,zero,0
    2c66:	00000013          	addi	zero,zero,0
    2c6a:	00000013          	addi	zero,zero,0
    2c6e:	00000013          	addi	zero,zero,0
    2c72:	00000013          	addi	zero,zero,0
    2c76:	00000013          	addi	zero,zero,0
    2c7a:	00000013          	addi	zero,zero,0
    2c7e:	00000013          	addi	zero,zero,0
    2c82:	00000013          	addi	zero,zero,0
    2c86:	00000013          	addi	zero,zero,0
    2c8a:	00000013          	addi	zero,zero,0
    2c8e:	00000013          	addi	zero,zero,0
    2c92:	00000013          	addi	zero,zero,0
    2c96:	00000013          	addi	zero,zero,0
    2c9a:	00000013          	addi	zero,zero,0
    2c9e:	00000013          	addi	zero,zero,0
    2ca2:	00000013          	addi	zero,zero,0
    2ca6:	00000013          	addi	zero,zero,0
    2caa:	00000013          	addi	zero,zero,0
    2cae:	00000013          	addi	zero,zero,0
    2cb2:	00000013          	addi	zero,zero,0
    2cb6:	00000013          	addi	zero,zero,0
    2cba:	00000013          	addi	zero,zero,0
    2cbe:	00000013          	addi	zero,zero,0
    2cc2:	00000013          	addi	zero,zero,0
    2cc6:	00000013          	addi	zero,zero,0
    2cca:	00000013          	addi	zero,zero,0
    2cce:	00000013          	addi	zero,zero,0
    2cd2:	00000013          	addi	zero,zero,0
    2cd6:	00000013          	addi	zero,zero,0
    2cda:	00000013          	addi	zero,zero,0
    2cde:	00000013          	addi	zero,zero,0
    2ce2:	00000013          	addi	zero,zero,0
    2ce6:	00000013          	addi	zero,zero,0
    2cea:	00000013          	addi	zero,zero,0
    2cee:	00000013          	addi	zero,zero,0
    2cf2:	00000013          	addi	zero,zero,0
    2cf6:	00000013          	addi	zero,zero,0
    2cfa:	00000013          	addi	zero,zero,0
    2cfe:	00000013          	addi	zero,zero,0
    2d02:	00000013          	addi	zero,zero,0
    2d06:	00000013          	addi	zero,zero,0
    2d0a:	00000013          	addi	zero,zero,0
    2d0e:	00000013          	addi	zero,zero,0
    2d12:	00000013          	addi	zero,zero,0
    2d16:	00000013          	addi	zero,zero,0
    2d1a:	00000013          	addi	zero,zero,0
    2d1e:	00000013          	addi	zero,zero,0
    2d22:	00000013          	addi	zero,zero,0
    2d26:	00000013          	addi	zero,zero,0
    2d2a:	00000013          	addi	zero,zero,0
    2d2e:	00000013          	addi	zero,zero,0
    2d32:	00000013          	addi	zero,zero,0
    2d36:	00000013          	addi	zero,zero,0
    2d3a:	00000013          	addi	zero,zero,0
    2d3e:	00000013          	addi	zero,zero,0
    2d42:	00000013          	addi	zero,zero,0
    2d46:	00000013          	addi	zero,zero,0
    2d4a:	00000013          	addi	zero,zero,0
    2d4e:	00000013          	addi	zero,zero,0
    2d52:	00000013          	addi	zero,zero,0
    2d56:	00000013          	addi	zero,zero,0
    2d5a:	00000013          	addi	zero,zero,0
    2d5e:	00000013          	addi	zero,zero,0
    2d62:	00000013          	addi	zero,zero,0
    2d66:	00000013          	addi	zero,zero,0
    2d6a:	00000013          	addi	zero,zero,0
    2d6e:	00000013          	addi	zero,zero,0
    2d72:	00000013          	addi	zero,zero,0
    2d76:	00000013          	addi	zero,zero,0
    2d7a:	00000013          	addi	zero,zero,0
    2d7e:	00000013          	addi	zero,zero,0
    2d82:	00000013          	addi	zero,zero,0
    2d86:	00000013          	addi	zero,zero,0
    2d8a:	00000013          	addi	zero,zero,0
    2d8e:	00000013          	addi	zero,zero,0
    2d92:	00000013          	addi	zero,zero,0
    2d96:	00000013          	addi	zero,zero,0
    2d9a:	00000013          	addi	zero,zero,0
    2d9e:	00000013          	addi	zero,zero,0
    2da2:	00000013          	addi	zero,zero,0
    2da6:	00000013          	addi	zero,zero,0
    2daa:	00000013          	addi	zero,zero,0
    2dae:	00000013          	addi	zero,zero,0
    2db2:	00000013          	addi	zero,zero,0
    2db6:	00000013          	addi	zero,zero,0
    2dba:	00000013          	addi	zero,zero,0
    2dbe:	00000013          	addi	zero,zero,0
    2dc2:	00000013          	addi	zero,zero,0
    2dc6:	00000013          	addi	zero,zero,0
    2dca:	00000013          	addi	zero,zero,0
    2dce:	00000013          	addi	zero,zero,0
    2dd2:	00000013          	addi	zero,zero,0
    2dd6:	00000013          	addi	zero,zero,0
    2dda:	00000013          	addi	zero,zero,0
    2dde:	00000013          	addi	zero,zero,0
    2de2:	00000013          	addi	zero,zero,0
    2de6:	00000013          	addi	zero,zero,0

Contents of section .loader:
 80000000 97020000 83a20201 82920000 00000000  ................
 80000010 80000000 00000000                    ........        
