
coremark.exe:     file format elf32-littleriscv


Disassembly of section .init:

00000000 <_RELAX_END_>:
   0:	1000                	c.addi4spn	s0,sp,32
   2:	0000                	c.unimp
   4:	10f8                	c.addi4spn	a4,sp,108
   6:	0000                	c.unimp
   8:	10f8                	c.addi4spn	a4,sp,108
   a:	0000                	c.unimp
   c:	10f8                	c.addi4spn	a4,sp,108
   e:	0000                	c.unimp
  10:	10f8                	c.addi4spn	a4,sp,108
  12:	0000                	c.unimp
  14:	10f8                	c.addi4spn	a4,sp,108
  16:	0000                	c.unimp
  18:	10f8                	c.addi4spn	a4,sp,108
  1a:	0000                	c.unimp
  1c:	10f8                	c.addi4spn	a4,sp,108
  1e:	0000                	c.unimp
  20:	10f8                	c.addi4spn	a4,sp,108
  22:	0000                	c.unimp
  24:	10f8                	c.addi4spn	a4,sp,108
  26:	0000                	c.unimp
  28:	10f8                	c.addi4spn	a4,sp,108
  2a:	0000                	c.unimp
  2c:	10f8                	c.addi4spn	a4,sp,108
  2e:	0000                	c.unimp
  30:	10f8                	c.addi4spn	a4,sp,108
  32:	0000                	c.unimp
  34:	10f8                	c.addi4spn	a4,sp,108
  36:	0000                	c.unimp
  38:	10f8                	c.addi4spn	a4,sp,108
  3a:	0000                	c.unimp
  3c:	10f8                	c.addi4spn	a4,sp,108
  3e:	0000                	c.unimp
  40:	10f8                	c.addi4spn	a4,sp,108
  42:	0000                	c.unimp
  44:	10f8                	c.addi4spn	a4,sp,108
  46:	0000                	c.unimp
  48:	10f8                	c.addi4spn	a4,sp,108
  4a:	0000                	c.unimp
  4c:	10f8                	c.addi4spn	a4,sp,108
  4e:	0000                	c.unimp
  50:	10f8                	c.addi4spn	a4,sp,108
  52:	0000                	c.unimp
  54:	10f8                	c.addi4spn	a4,sp,108
  56:	0000                	c.unimp
  58:	10f8                	c.addi4spn	a4,sp,108
  5a:	0000                	c.unimp
  5c:	10f8                	c.addi4spn	a4,sp,108
  5e:	0000                	c.unimp
  60:	10f8                	c.addi4spn	a4,sp,108
  62:	0000                	c.unimp
  64:	10f8                	c.addi4spn	a4,sp,108
  66:	0000                	c.unimp
  68:	10f8                	c.addi4spn	a4,sp,108
  6a:	0000                	c.unimp
  6c:	10f8                	c.addi4spn	a4,sp,108
  6e:	0000                	c.unimp
  70:	10f8                	c.addi4spn	a4,sp,108
  72:	0000                	c.unimp
  74:	10f8                	c.addi4spn	a4,sp,108
  76:	0000                	c.unimp
  78:	10f8                	c.addi4spn	a4,sp,108
  7a:	0000                	c.unimp
  7c:	10f8                	c.addi4spn	a4,sp,108
	...

00000080 <_start>:
  80:	a009                	c.j	82 <_reset_handler>

00000082 <_reset_handler>:
  82:	342022f3          	csrrs	t0,mcause,zero
  86:	00028463          	beq	t0,zero,8e <_reset_handler+0xc>
  8a:	06a0106f          	jal	zero,10f4 <nmi_handler>
  8e:	4081                	c.li	ra,0
  90:	4101                	c.li	sp,0
  92:	4181                	c.li	gp,0
  94:	4201                	c.li	tp,0
  96:	4281                	c.li	t0,0
  98:	4301                	c.li	t1,0
  9a:	4381                	c.li	t2,0
  9c:	4401                	c.li	s0,0
  9e:	4481                	c.li	s1,0
  a0:	4501                	c.li	a0,0
  a2:	4581                	c.li	a1,0
  a4:	4601                	c.li	a2,0
  a6:	4681                	c.li	a3,0
  a8:	4701                	c.li	a4,0
  aa:	4781                	c.li	a5,0
  ac:	4801                	c.li	a6,0
  ae:	4881                	c.li	a7,0
  b0:	4901                	c.li	s2,0
  b2:	4981                	c.li	s3,0
  b4:	4a01                	c.li	s4,0
  b6:	4a81                	c.li	s5,0
  b8:	4b01                	c.li	s6,0
  ba:	4b81                	c.li	s7,0
  bc:	4c01                	c.li	s8,0
  be:	4c81                	c.li	s9,0
  c0:	4d01                	c.li	s10,0
  c2:	4d81                	c.li	s11,0
  c4:	4e01                	c.li	t3,0
  c6:	4e81                	c.li	t4,0
  c8:	4f01                	c.li	t5,0
  ca:	4f81                	c.li	t6,0
  cc:	301027f3          	csrrs	a5,misa,zero
  d0:	8395                	c.srli	a5,0x5
  d2:	8b85                	c.andi	a5,1
  d4:	c7c1                	c.beqz	a5,15c <_reset_handler+0xda>
  d6:	6709                	c.lui	a4,0x2
  d8:	30072073          	csrrs	zero,mstatus,a4
  dc:	f0000053          	fmv.w.x	ft0,zero
  e0:	f00000d3          	fmv.w.x	ft1,zero
  e4:	f0000153          	fmv.w.x	ft2,zero
  e8:	f00001d3          	fmv.w.x	ft3,zero
  ec:	f0000253          	fmv.w.x	ft4,zero
  f0:	f00002d3          	fmv.w.x	ft5,zero
  f4:	f0000353          	fmv.w.x	ft6,zero
  f8:	f00003d3          	fmv.w.x	ft7,zero
  fc:	f0000453          	fmv.w.x	fs0,zero
 100:	f00004d3          	fmv.w.x	fs1,zero
 104:	f0000553          	fmv.w.x	fa0,zero
 108:	f00005d3          	fmv.w.x	fa1,zero
 10c:	f0000653          	fmv.w.x	fa2,zero
 110:	f00006d3          	fmv.w.x	fa3,zero
 114:	f0000753          	fmv.w.x	fa4,zero
 118:	f00007d3          	fmv.w.x	fa5,zero
 11c:	f0000853          	fmv.w.x	fa6,zero
 120:	f00008d3          	fmv.w.x	fa7,zero
 124:	f0000953          	fmv.w.x	fs2,zero
 128:	f00009d3          	fmv.w.x	fs3,zero
 12c:	f0000a53          	fmv.w.x	fs4,zero
 130:	f0000ad3          	fmv.w.x	fs5,zero
 134:	f0000b53          	fmv.w.x	fs6,zero
 138:	f0000bd3          	fmv.w.x	fs7,zero
 13c:	f0000c53          	fmv.w.x	fs8,zero
 140:	f0000cd3          	fmv.w.x	fs9,zero
 144:	f0000d53          	fmv.w.x	fs10,zero
 148:	f0000dd3          	fmv.w.x	fs11,zero
 14c:	f0000e53          	fmv.w.x	ft8,zero
 150:	f0000ed3          	fmv.w.x	ft9,zero
 154:	f0000f53          	fmv.w.x	ft10,zero
 158:	f0000fd3          	fmv.w.x	ft11,zero
 15c:	301027f3          	csrrs	a5,misa,zero
 160:	83d5                	c.srli	a5,0x15
 162:	8b85                	c.andi	a5,1
 164:	cbd9                	c.beqz	a5,1fa <_reset_handler+0x178>
 166:	300027f3          	csrrs	a5,mstatus,zero
 16a:	20000713          	addi	a4,zero,512
 16e:	30072073          	csrrs	zero,mstatus,a4
 172:	01007757          	vsetvli	a4,zero,e32,m1,tu,mu,d1
 176:	5e003057          	vmv.v.i	v0,0
 17a:	5e0030d7          	vmv.v.i	v1,0
 17e:	5e003157          	vmv.v.i	v2,0
 182:	5e0031d7          	vmv.v.i	v3,0
 186:	5e003257          	vmv.v.i	v4,0
 18a:	5e0032d7          	vmv.v.i	v5,0
 18e:	5e003357          	vmv.v.i	v6,0
 192:	5e0033d7          	vmv.v.i	v7,0
 196:	5e003457          	vmv.v.i	v8,0
 19a:	5e0034d7          	vmv.v.i	v9,0
 19e:	5e003557          	vmv.v.i	v10,0
 1a2:	5e0035d7          	vmv.v.i	v11,0
 1a6:	5e003657          	vmv.v.i	v12,0
 1aa:	5e0036d7          	vmv.v.i	v13,0
 1ae:	5e003757          	vmv.v.i	v14,0
 1b2:	5e0037d7          	vmv.v.i	v15,0
 1b6:	5e003857          	vmv.v.i	v16,0
 1ba:	5e0038d7          	vmv.v.i	v17,0
 1be:	5e003957          	vmv.v.i	v18,0
 1c2:	5e0039d7          	vmv.v.i	v19,0
 1c6:	5e003a57          	vmv.v.i	v20,0
 1ca:	5e003ad7          	vmv.v.i	v21,0
 1ce:	5e003b57          	vmv.v.i	v22,0
 1d2:	5e003bd7          	vmv.v.i	v23,0
 1d6:	5e003c57          	vmv.v.i	v24,0
 1da:	5e003cd7          	vmv.v.i	v25,0
 1de:	5e003d57          	vmv.v.i	v26,0
 1e2:	5e003dd7          	vmv.v.i	v27,0
 1e6:	5e003e57          	vmv.v.i	v28,0
 1ea:	5e003ed7          	vmv.v.i	v29,0
 1ee:	5e003f57          	vmv.v.i	v30,0
 1f2:	5e003fd7          	vmv.v.i	v31,0
 1f6:	30079073          	csrrw	zero,mstatus,a5
 1fa:	00000197          	auipc	gp,0x0
 1fe:	1461a183          	lw	gp,326(gp) # 340 <__global_pointer_addr>
 202:	00000297          	auipc	t0,0x0
 206:	1462a283          	lw	t0,326(t0) # 348 <_stack_addr>
 20a:	f1402373          	csrrs	t1,mhartid,zero
 20e:	63a1                	c.lui	t2,0x8
 210:	00030563          	beq	t1,zero,21a <_reset_handler+0x198>
 214:	929e                	c.add	t0,t2
 216:	137d                	c.addi	t1,-1
 218:	bfe5                	c.j	210 <_reset_handler+0x18e>
 21a:	8116                	c.mv	sp,t0
 21c:	fc202373          	csrrs	t1,mmsc_cfg,zero
 220:	01b35313          	srli	t1,t1,0x1b
 224:	00137313          	andi	t1,t1,1
 228:	00030f63          	beq	t1,zero,246 <_reset_handler+0x1c4>
 22c:	00002297          	auipc	t0,0x2
 230:	dd428293          	addi	t0,t0,-556 # 2000 <_trap_entry_vclic>
 234:	30729073          	csrrw	zero,mtvt,t0
 238:	00001297          	auipc	t0,0x1
 23c:	dc828293          	addi	t0,t0,-568 # 1000 <m_trap_entry>
 240:	0032e293          	ori	t0,t0,3
 244:	a885                	c.j	2b4 <_mtvec_set>
 246:	00001297          	auipc	t0,0x1
 24a:	e3a28293          	addi	t0,t0,-454 # 1080 <s_trap_entry>
 24e:	30102373          	csrrs	t1,misa,zero
 252:	01235313          	srli	t1,t1,0x12
 256:	00137313          	andi	t1,t1,1
 25a:	02030763          	beq	t1,zero,288 <_init_mtvec>
 25e:	30302373          	csrrs	t1,mideleg,zero
 262:	20000393          	addi	t2,zero,512
 266:	00736333          	or	t1,t1,t2
 26a:	30331073          	csrrw	zero,mideleg,t1
 26e:	7d002373          	csrrs	t1,mmisc_ctl,zero
 272:	ffd37313          	andi	t1,t1,-3
 276:	7d031073          	csrrw	zero,mmisc_ctl,t1
 27a:	10529073          	csrrw	zero,stvec,t0
 27e:	00001297          	auipc	t0,0x1
 282:	d8228293          	addi	t0,t0,-638 # 1000 <m_trap_entry>
 286:	a03d                	c.j	2b4 <_mtvec_set>

00000288 <_init_mtvec>:
 288:	00001297          	auipc	t0,0x1
 28c:	d7828293          	addi	t0,t0,-648 # 1000 <m_trap_entry>
 290:	fc202373          	csrrs	t1,mmsc_cfg,zero
 294:	00c35313          	srli	t1,t1,0xc
 298:	00137313          	andi	t1,t1,1
 29c:	00030c63          	beq	t1,zero,2b4 <_mtvec_set>
 2a0:	7d002373          	csrrs	t1,mmisc_ctl,zero
 2a4:	00236313          	ori	t1,t1,2
 2a8:	7d031073          	csrrw	zero,mmisc_ctl,t1
 2ac:	00000297          	auipc	t0,0x0
 2b0:	d5428293          	addi	t0,t0,-684 # 0 <_RELAX_END_>

000002b4 <_mtvec_set>:
 2b4:	30529073          	csrrw	zero,mtvec,t0
 2b8:	42bd                	c.li	t0,15
 2ba:	3a029073          	csrrw	zero,pmpcfg0,t0
 2be:	52fd                	c.li	t0,-1
 2c0:	3b029073          	csrrw	zero,pmpaddr0,t0
 2c4:	375020ef          	jal	ra,2e38 <__platform_init>
 2c8:	0000b517          	auipc	a0,0xb
 2cc:	d3850513          	addi	a0,a0,-712 # b000 <__data_lmastart>
 2d0:	00000597          	auipc	a1,0x0
 2d4:	0805a583          	lw	a1,128(a1) # 350 <__data_start_addr>
 2d8:	00000617          	auipc	a2,0x0
 2dc:	08062603          	lw	a2,128(a2) # 358 <_edata_addr>
 2e0:	00b50c63          	beq	a0,a1,2f8 <_mtvec_set+0x44>
 2e4:	00c5fa63          	bgeu	a1,a2,2f8 <_mtvec_set+0x44>
 2e8:	00052283          	lw	t0,0(a0)
 2ec:	0055a023          	sw	t0,0(a1)
 2f0:	0511                	c.addi	a0,4
 2f2:	0591                	c.addi	a1,4
 2f4:	fec5eae3          	bltu	a1,a2,2e8 <_mtvec_set+0x34>
 2f8:	00000517          	auipc	a0,0x0
 2fc:	06052503          	lw	a0,96(a0) # 358 <_edata_addr>
 300:	00000597          	auipc	a1,0x0
 304:	0605a583          	lw	a1,96(a1) # 360 <_end_addr>
 308:	00b57763          	bgeu	a0,a1,316 <_mtvec_set+0x62>
 30c:	00052023          	sw	zero,0(a0)
 310:	0511                	c.addi	a0,4
 312:	feb56de3          	bltu	a0,a1,30c <_mtvec_set+0x58>
 316:	00000517          	auipc	a0,0x0
 31a:	05252503          	lw	a0,82(a0) # 368 <__sharedata_start_addr>
 31e:	00000597          	auipc	a1,0x0
 322:	0525a583          	lw	a1,82(a1) # 370 <__sharedata_end_addr>
 326:	00b57763          	bgeu	a0,a1,334 <_mtvec_set+0x80>
 32a:	00052023          	sw	zero,0(a0)
 32e:	0511                	c.addi	a0,4
 330:	feb56de3          	bltu	a0,a1,32a <_mtvec_set+0x76>
 334:	3e1020ef          	jal	ra,2f14 <reset_handler>
 338:	a001                	c.j	338 <_mtvec_set+0x84>
 33a:	8082                	c.jr	ra
 33c:	00000013          	addi	zero,zero,0

00000340 <__global_pointer_addr>:
 340:	1810                	c.addi4spn	a2,sp,48
 342:	0020                	c.addi4spn	s0,sp,8
 344:	0000                	c.unimp
	...

00000348 <_stack_addr>:
 348:	0000                	c.unimp
 34a:	0028                	c.addi4spn	a0,sp,8
 34c:	0000                	c.unimp
	...

00000350 <__data_start_addr>:
 350:	1000                	c.addi4spn	s0,sp,32
 352:	0020                	c.addi4spn	s0,sp,8
 354:	0000                	c.unimp
	...

00000358 <_edata_addr>:
 358:	1020                	c.addi4spn	s0,sp,40
 35a:	0020                	c.addi4spn	s0,sp,8
 35c:	0000                	c.unimp
	...

00000360 <_end_addr>:
 360:	1040                	c.addi4spn	s0,sp,36
 362:	0020                	c.addi4spn	s0,sp,8
 364:	0000                	c.unimp
	...

00000368 <__sharedata_start_addr>:
 368:	0000                	c.unimp
 36a:	0030                	c.addi4spn	a2,sp,8
 36c:	0000                	c.unimp
	...

00000370 <__sharedata_end_addr>:
 370:	0000                	c.unimp
 372:	0030                	c.addi4spn	a2,sp,8
 374:	0000                	c.unimp
 376:	0000                	c.unimp
 378:	0001                	c.addi	zero,0
 37a:	00000013          	addi	zero,zero,0

Disassembly of section .text:

00001000 <m_trap_entry>:
    1000:	7119                	c.addi16sp	sp,-128
    1002:	c006                	c.swsp	ra,0(sp)
    1004:	c212                	c.swsp	tp,4(sp)
    1006:	c416                	c.swsp	t0,8(sp)
    1008:	c61a                	c.swsp	t1,12(sp)
    100a:	c81e                	c.swsp	t2,16(sp)
    100c:	ca2a                	c.swsp	a0,20(sp)
    100e:	cc2e                	c.swsp	a1,24(sp)
    1010:	ce32                	c.swsp	a2,28(sp)
    1012:	d036                	c.swsp	a3,32(sp)
    1014:	d23a                	c.swsp	a4,36(sp)
    1016:	d43e                	c.swsp	a5,40(sp)
    1018:	d642                	c.swsp	a6,44(sp)
    101a:	d846                	c.swsp	a7,48(sp)
    101c:	da72                	c.swsp	t3,52(sp)
    101e:	dc76                	c.swsp	t4,56(sp)
    1020:	de7a                	c.swsp	t5,60(sp)
    1022:	c0fe                	c.swsp	t6,64(sp)
    1024:	341022f3          	csrrs	t0,mepc,zero
    1028:	30002373          	csrrs	t1,mstatus,zero
    102c:	7c4023f3          	csrrs	t2,mxstatus,zero
    1030:	c296                	c.swsp	t0,68(sp)
    1032:	c49a                	c.swsp	t1,72(sp)
    1034:	c69e                	c.swsp	t2,76(sp)
    1036:	34202573          	csrrs	a0,mcause,zero
    103a:	858a                	c.mv	a1,sp
    103c:	69b010ef          	jal	ra,2ed6 <trap_handler>
    1040:	300477f3          	csrrci	a5,mstatus,8
    1044:	4296                	c.lwsp	t0,68(sp)
    1046:	4326                	c.lwsp	t1,72(sp)
    1048:	43b6                	c.lwsp	t2,76(sp)
    104a:	34129073          	csrrw	zero,mepc,t0
    104e:	30031073          	csrrw	zero,mstatus,t1
    1052:	7c439073          	csrrw	zero,mxstatus,t2
    1056:	4082                	c.lwsp	ra,0(sp)
    1058:	4212                	c.lwsp	tp,4(sp)
    105a:	42a2                	c.lwsp	t0,8(sp)
    105c:	4332                	c.lwsp	t1,12(sp)
    105e:	43c2                	c.lwsp	t2,16(sp)
    1060:	4552                	c.lwsp	a0,20(sp)
    1062:	45e2                	c.lwsp	a1,24(sp)
    1064:	4672                	c.lwsp	a2,28(sp)
    1066:	5682                	c.lwsp	a3,32(sp)
    1068:	5712                	c.lwsp	a4,36(sp)
    106a:	57a2                	c.lwsp	a5,40(sp)
    106c:	5832                	c.lwsp	a6,44(sp)
    106e:	58c2                	c.lwsp	a7,48(sp)
    1070:	5e52                	c.lwsp	t3,52(sp)
    1072:	5ee2                	c.lwsp	t4,56(sp)
    1074:	5f72                	c.lwsp	t5,60(sp)
    1076:	4f86                	c.lwsp	t6,64(sp)
    1078:	08010113          	addi	sp,sp,128
    107c:	30200073          	mret

00001080 <s_trap_entry>:
    1080:	7119                	c.addi16sp	sp,-128
    1082:	c006                	c.swsp	ra,0(sp)
    1084:	c212                	c.swsp	tp,4(sp)
    1086:	c416                	c.swsp	t0,8(sp)
    1088:	c61a                	c.swsp	t1,12(sp)
    108a:	c81e                	c.swsp	t2,16(sp)
    108c:	ca2a                	c.swsp	a0,20(sp)
    108e:	cc2e                	c.swsp	a1,24(sp)
    1090:	ce32                	c.swsp	a2,28(sp)
    1092:	d036                	c.swsp	a3,32(sp)
    1094:	d23a                	c.swsp	a4,36(sp)
    1096:	d43e                	c.swsp	a5,40(sp)
    1098:	d642                	c.swsp	a6,44(sp)
    109a:	d846                	c.swsp	a7,48(sp)
    109c:	da72                	c.swsp	t3,52(sp)
    109e:	dc76                	c.swsp	t4,56(sp)
    10a0:	de7a                	c.swsp	t5,60(sp)
    10a2:	c0fe                	c.swsp	t6,64(sp)
    10a4:	141022f3          	csrrs	t0,sepc,zero
    10a8:	10002373          	csrrs	t1,sstatus,zero
    10ac:	c296                	c.swsp	t0,68(sp)
    10ae:	c49a                	c.swsp	t1,72(sp)
    10b0:	14202573          	csrrs	a0,scause,zero
    10b4:	858a                	c.mv	a1,sp
    10b6:	621010ef          	jal	ra,2ed6 <trap_handler>
    10ba:	100177f3          	csrrci	a5,sstatus,2
    10be:	4296                	c.lwsp	t0,68(sp)
    10c0:	4326                	c.lwsp	t1,72(sp)
    10c2:	14129073          	csrrw	zero,sepc,t0
    10c6:	10031073          	csrrw	zero,sstatus,t1
    10ca:	4082                	c.lwsp	ra,0(sp)
    10cc:	4212                	c.lwsp	tp,4(sp)
    10ce:	42a2                	c.lwsp	t0,8(sp)
    10d0:	4332                	c.lwsp	t1,12(sp)
    10d2:	43c2                	c.lwsp	t2,16(sp)
    10d4:	4552                	c.lwsp	a0,20(sp)
    10d6:	45e2                	c.lwsp	a1,24(sp)
    10d8:	4672                	c.lwsp	a2,28(sp)
    10da:	5682                	c.lwsp	a3,32(sp)
    10dc:	5712                	c.lwsp	a4,36(sp)
    10de:	57a2                	c.lwsp	a5,40(sp)
    10e0:	5832                	c.lwsp	a6,44(sp)
    10e2:	58c2                	c.lwsp	a7,48(sp)
    10e4:	5e52                	c.lwsp	t3,52(sp)
    10e6:	5ee2                	c.lwsp	t4,56(sp)
    10e8:	5f72                	c.lwsp	t5,60(sp)
    10ea:	4f86                	c.lwsp	t6,64(sp)
    10ec:	6109                	c.addi16sp	sp,128
    10ee:	10200073          	sret
    10f2:	a001                	c.j	10f2 <s_trap_entry+0x72>

000010f4 <nmi_handler>:
    10f4:	a001                	c.j	10f4 <nmi_handler>

000010f6 <machine_ei_handler>:
    10f6:	a001                	c.j	10f6 <machine_ei_handler>

000010f8 <_EI_10_HANDLER_WRAPPER>:
    10f8:	7119                	c.addi16sp	sp,-128
    10fa:	c006                	c.swsp	ra,0(sp)
    10fc:	c212                	c.swsp	tp,4(sp)
    10fe:	c416                	c.swsp	t0,8(sp)
    1100:	c61a                	c.swsp	t1,12(sp)
    1102:	c81e                	c.swsp	t2,16(sp)
    1104:	ca2a                	c.swsp	a0,20(sp)
    1106:	cc2e                	c.swsp	a1,24(sp)
    1108:	ce32                	c.swsp	a2,28(sp)
    110a:	d036                	c.swsp	a3,32(sp)
    110c:	d23a                	c.swsp	a4,36(sp)
    110e:	d43e                	c.swsp	a5,40(sp)
    1110:	d642                	c.swsp	a6,44(sp)
    1112:	d846                	c.swsp	a7,48(sp)
    1114:	da72                	c.swsp	t3,52(sp)
    1116:	dc76                	c.swsp	t4,56(sp)
    1118:	de7a                	c.swsp	t5,60(sp)
    111a:	c0fe                	c.swsp	t6,64(sp)
    111c:	341022f3          	csrrs	t0,mepc,zero
    1120:	30002373          	csrrs	t1,mstatus,zero
    1124:	7c4023f3          	csrrs	t2,mxstatus,zero
    1128:	c296                	c.swsp	t0,68(sp)
    112a:	c49a                	c.swsp	t1,72(sp)
    112c:	c69e                	c.swsp	t2,76(sp)
    112e:	34202573          	csrrs	a0,mcause,zero
    1132:	305025f3          	csrrs	a1,mtvec,zero
    1136:	898d                	c.andi	a1,3
    1138:	c581                	c.beqz	a1,1140 <_EI_10_HANDLER_WRAPPER+0x48>
    113a:	3ff57513          	andi	a0,a0,1023
    113e:	1539                	c.addi	a0,-18
    1140:	3f5d                	c.jal	10f6 <machine_ei_handler>
    1142:	300477f3          	csrrci	a5,mstatus,8
    1146:	4296                	c.lwsp	t0,68(sp)
    1148:	4326                	c.lwsp	t1,72(sp)
    114a:	43b6                	c.lwsp	t2,76(sp)
    114c:	34129073          	csrrw	zero,mepc,t0
    1150:	30031073          	csrrw	zero,mstatus,t1
    1154:	7c439073          	csrrw	zero,mxstatus,t2
    1158:	4082                	c.lwsp	ra,0(sp)
    115a:	4212                	c.lwsp	tp,4(sp)
    115c:	42a2                	c.lwsp	t0,8(sp)
    115e:	4332                	c.lwsp	t1,12(sp)
    1160:	43c2                	c.lwsp	t2,16(sp)
    1162:	4552                	c.lwsp	a0,20(sp)
    1164:	45e2                	c.lwsp	a1,24(sp)
    1166:	4672                	c.lwsp	a2,28(sp)
    1168:	5682                	c.lwsp	a3,32(sp)
    116a:	5712                	c.lwsp	a4,36(sp)
    116c:	57a2                	c.lwsp	a5,40(sp)
    116e:	5832                	c.lwsp	a6,44(sp)
    1170:	58c2                	c.lwsp	a7,48(sp)
    1172:	5e52                	c.lwsp	t3,52(sp)
    1174:	5ee2                	c.lwsp	t4,56(sp)
    1176:	5f72                	c.lwsp	t5,60(sp)
    1178:	4f86                	c.lwsp	t6,64(sp)
    117a:	6109                	c.addi16sp	sp,128
    117c:	30200073          	mret
    1180:	00000013          	addi	zero,zero,0
    1184:	00000013          	addi	zero,zero,0
    1188:	00000013          	addi	zero,zero,0
    118c:	00000013          	addi	zero,zero,0
    1190:	00000013          	addi	zero,zero,0
    1194:	00000013          	addi	zero,zero,0
    1198:	00000013          	addi	zero,zero,0
    119c:	00000013          	addi	zero,zero,0
    11a0:	00000013          	addi	zero,zero,0
    11a4:	00000013          	addi	zero,zero,0
    11a8:	00000013          	addi	zero,zero,0
    11ac:	00000013          	addi	zero,zero,0
    11b0:	00000013          	addi	zero,zero,0
    11b4:	00000013          	addi	zero,zero,0
    11b8:	00000013          	addi	zero,zero,0
    11bc:	00000013          	addi	zero,zero,0
    11c0:	00000013          	addi	zero,zero,0
    11c4:	00000013          	addi	zero,zero,0
    11c8:	00000013          	addi	zero,zero,0
    11cc:	00000013          	addi	zero,zero,0
    11d0:	00000013          	addi	zero,zero,0
    11d4:	00000013          	addi	zero,zero,0
    11d8:	00000013          	addi	zero,zero,0
    11dc:	00000013          	addi	zero,zero,0
    11e0:	00000013          	addi	zero,zero,0
    11e4:	00000013          	addi	zero,zero,0
    11e8:	00000013          	addi	zero,zero,0
    11ec:	00000013          	addi	zero,zero,0
    11f0:	00000013          	addi	zero,zero,0
    11f4:	00000013          	addi	zero,zero,0
    11f8:	00000013          	addi	zero,zero,0
    11fc:	00000013          	addi	zero,zero,0
    1200:	00000013          	addi	zero,zero,0
    1204:	00000013          	addi	zero,zero,0
    1208:	00000013          	addi	zero,zero,0
    120c:	00000013          	addi	zero,zero,0
    1210:	00000013          	addi	zero,zero,0
    1214:	00000013          	addi	zero,zero,0
    1218:	00000013          	addi	zero,zero,0
    121c:	00000013          	addi	zero,zero,0
    1220:	00000013          	addi	zero,zero,0
    1224:	00000013          	addi	zero,zero,0
    1228:	00000013          	addi	zero,zero,0
    122c:	00000013          	addi	zero,zero,0
    1230:	00000013          	addi	zero,zero,0
    1234:	00000013          	addi	zero,zero,0
    1238:	00000013          	addi	zero,zero,0
    123c:	00000013          	addi	zero,zero,0
    1240:	00000013          	addi	zero,zero,0
    1244:	00000013          	addi	zero,zero,0
    1248:	00000013          	addi	zero,zero,0
    124c:	00000013          	addi	zero,zero,0
    1250:	00000013          	addi	zero,zero,0
    1254:	00000013          	addi	zero,zero,0
    1258:	00000013          	addi	zero,zero,0
    125c:	00000013          	addi	zero,zero,0
    1260:	00000013          	addi	zero,zero,0
    1264:	00000013          	addi	zero,zero,0
    1268:	00000013          	addi	zero,zero,0
    126c:	00000013          	addi	zero,zero,0
    1270:	00000013          	addi	zero,zero,0
    1274:	00000013          	addi	zero,zero,0
    1278:	00000013          	addi	zero,zero,0
    127c:	00000013          	addi	zero,zero,0
    1280:	00000013          	addi	zero,zero,0
    1284:	00000013          	addi	zero,zero,0
    1288:	00000013          	addi	zero,zero,0
    128c:	00000013          	addi	zero,zero,0
    1290:	00000013          	addi	zero,zero,0
    1294:	00000013          	addi	zero,zero,0
    1298:	00000013          	addi	zero,zero,0
    129c:	00000013          	addi	zero,zero,0
    12a0:	00000013          	addi	zero,zero,0
    12a4:	00000013          	addi	zero,zero,0
    12a8:	00000013          	addi	zero,zero,0
    12ac:	00000013          	addi	zero,zero,0
    12b0:	00000013          	addi	zero,zero,0
    12b4:	00000013          	addi	zero,zero,0
    12b8:	00000013          	addi	zero,zero,0
    12bc:	00000013          	addi	zero,zero,0
    12c0:	00000013          	addi	zero,zero,0
    12c4:	00000013          	addi	zero,zero,0
    12c8:	00000013          	addi	zero,zero,0
    12cc:	00000013          	addi	zero,zero,0
    12d0:	00000013          	addi	zero,zero,0
    12d4:	00000013          	addi	zero,zero,0
    12d8:	00000013          	addi	zero,zero,0
    12dc:	00000013          	addi	zero,zero,0
    12e0:	00000013          	addi	zero,zero,0
    12e4:	00000013          	addi	zero,zero,0
    12e8:	00000013          	addi	zero,zero,0
    12ec:	00000013          	addi	zero,zero,0
    12f0:	00000013          	addi	zero,zero,0
    12f4:	00000013          	addi	zero,zero,0
    12f8:	00000013          	addi	zero,zero,0
    12fc:	00000013          	addi	zero,zero,0
    1300:	00000013          	addi	zero,zero,0
    1304:	00000013          	addi	zero,zero,0
    1308:	00000013          	addi	zero,zero,0
    130c:	00000013          	addi	zero,zero,0
    1310:	00000013          	addi	zero,zero,0
    1314:	00000013          	addi	zero,zero,0
    1318:	00000013          	addi	zero,zero,0
    131c:	00000013          	addi	zero,zero,0
    1320:	00000013          	addi	zero,zero,0
    1324:	00000013          	addi	zero,zero,0
    1328:	00000013          	addi	zero,zero,0
    132c:	00000013          	addi	zero,zero,0
    1330:	00000013          	addi	zero,zero,0
    1334:	00000013          	addi	zero,zero,0
    1338:	00000013          	addi	zero,zero,0
    133c:	00000013          	addi	zero,zero,0
    1340:	00000013          	addi	zero,zero,0
    1344:	00000013          	addi	zero,zero,0
    1348:	00000013          	addi	zero,zero,0
    134c:	00000013          	addi	zero,zero,0
    1350:	00000013          	addi	zero,zero,0
    1354:	00000013          	addi	zero,zero,0
    1358:	00000013          	addi	zero,zero,0
    135c:	00000013          	addi	zero,zero,0
    1360:	00000013          	addi	zero,zero,0
    1364:	00000013          	addi	zero,zero,0
    1368:	00000013          	addi	zero,zero,0
    136c:	00000013          	addi	zero,zero,0
    1370:	00000013          	addi	zero,zero,0
    1374:	00000013          	addi	zero,zero,0
    1378:	00000013          	addi	zero,zero,0
    137c:	00000013          	addi	zero,zero,0
    1380:	00000013          	addi	zero,zero,0
    1384:	00000013          	addi	zero,zero,0
    1388:	00000013          	addi	zero,zero,0
    138c:	00000013          	addi	zero,zero,0
    1390:	00000013          	addi	zero,zero,0
    1394:	00000013          	addi	zero,zero,0
    1398:	00000013          	addi	zero,zero,0
    139c:	00000013          	addi	zero,zero,0
    13a0:	00000013          	addi	zero,zero,0
    13a4:	00000013          	addi	zero,zero,0
    13a8:	00000013          	addi	zero,zero,0
    13ac:	00000013          	addi	zero,zero,0
    13b0:	00000013          	addi	zero,zero,0
    13b4:	00000013          	addi	zero,zero,0
    13b8:	00000013          	addi	zero,zero,0
    13bc:	00000013          	addi	zero,zero,0
    13c0:	00000013          	addi	zero,zero,0
    13c4:	00000013          	addi	zero,zero,0
    13c8:	00000013          	addi	zero,zero,0
    13cc:	00000013          	addi	zero,zero,0
    13d0:	00000013          	addi	zero,zero,0
    13d4:	00000013          	addi	zero,zero,0
    13d8:	00000013          	addi	zero,zero,0
    13dc:	00000013          	addi	zero,zero,0
    13e0:	00000013          	addi	zero,zero,0
    13e4:	00000013          	addi	zero,zero,0
    13e8:	00000013          	addi	zero,zero,0
    13ec:	00000013          	addi	zero,zero,0
    13f0:	00000013          	addi	zero,zero,0
    13f4:	00000013          	addi	zero,zero,0
    13f8:	00000013          	addi	zero,zero,0
    13fc:	00000013          	addi	zero,zero,0
    1400:	00000013          	addi	zero,zero,0
    1404:	00000013          	addi	zero,zero,0
    1408:	00000013          	addi	zero,zero,0
    140c:	00000013          	addi	zero,zero,0
    1410:	00000013          	addi	zero,zero,0
    1414:	00000013          	addi	zero,zero,0
    1418:	00000013          	addi	zero,zero,0
    141c:	00000013          	addi	zero,zero,0
    1420:	00000013          	addi	zero,zero,0
    1424:	00000013          	addi	zero,zero,0
    1428:	00000013          	addi	zero,zero,0
    142c:	00000013          	addi	zero,zero,0
    1430:	00000013          	addi	zero,zero,0
    1434:	00000013          	addi	zero,zero,0
    1438:	00000013          	addi	zero,zero,0
    143c:	00000013          	addi	zero,zero,0
    1440:	00000013          	addi	zero,zero,0
    1444:	00000013          	addi	zero,zero,0
    1448:	00000013          	addi	zero,zero,0
    144c:	00000013          	addi	zero,zero,0
    1450:	00000013          	addi	zero,zero,0
    1454:	00000013          	addi	zero,zero,0
    1458:	00000013          	addi	zero,zero,0
    145c:	00000013          	addi	zero,zero,0
    1460:	00000013          	addi	zero,zero,0
    1464:	00000013          	addi	zero,zero,0
    1468:	00000013          	addi	zero,zero,0
    146c:	00000013          	addi	zero,zero,0
    1470:	00000013          	addi	zero,zero,0
    1474:	00000013          	addi	zero,zero,0
    1478:	00000013          	addi	zero,zero,0
    147c:	00000013          	addi	zero,zero,0
    1480:	00000013          	addi	zero,zero,0
    1484:	00000013          	addi	zero,zero,0
    1488:	00000013          	addi	zero,zero,0
    148c:	00000013          	addi	zero,zero,0
    1490:	00000013          	addi	zero,zero,0
    1494:	00000013          	addi	zero,zero,0
    1498:	00000013          	addi	zero,zero,0
    149c:	00000013          	addi	zero,zero,0
    14a0:	00000013          	addi	zero,zero,0
    14a4:	00000013          	addi	zero,zero,0
    14a8:	00000013          	addi	zero,zero,0
    14ac:	00000013          	addi	zero,zero,0
    14b0:	00000013          	addi	zero,zero,0
    14b4:	00000013          	addi	zero,zero,0
    14b8:	00000013          	addi	zero,zero,0
    14bc:	00000013          	addi	zero,zero,0
    14c0:	00000013          	addi	zero,zero,0
    14c4:	00000013          	addi	zero,zero,0
    14c8:	00000013          	addi	zero,zero,0
    14cc:	00000013          	addi	zero,zero,0
    14d0:	00000013          	addi	zero,zero,0
    14d4:	00000013          	addi	zero,zero,0
    14d8:	00000013          	addi	zero,zero,0
    14dc:	00000013          	addi	zero,zero,0
    14e0:	00000013          	addi	zero,zero,0
    14e4:	00000013          	addi	zero,zero,0
    14e8:	00000013          	addi	zero,zero,0
    14ec:	00000013          	addi	zero,zero,0
    14f0:	00000013          	addi	zero,zero,0
    14f4:	00000013          	addi	zero,zero,0
    14f8:	00000013          	addi	zero,zero,0
    14fc:	00000013          	addi	zero,zero,0
    1500:	00000013          	addi	zero,zero,0
    1504:	00000013          	addi	zero,zero,0
    1508:	00000013          	addi	zero,zero,0
    150c:	00000013          	addi	zero,zero,0
    1510:	00000013          	addi	zero,zero,0
    1514:	00000013          	addi	zero,zero,0
    1518:	00000013          	addi	zero,zero,0
    151c:	00000013          	addi	zero,zero,0
    1520:	00000013          	addi	zero,zero,0
    1524:	00000013          	addi	zero,zero,0
    1528:	00000013          	addi	zero,zero,0
    152c:	00000013          	addi	zero,zero,0
    1530:	00000013          	addi	zero,zero,0
    1534:	00000013          	addi	zero,zero,0
    1538:	00000013          	addi	zero,zero,0
    153c:	00000013          	addi	zero,zero,0
    1540:	00000013          	addi	zero,zero,0
    1544:	00000013          	addi	zero,zero,0
    1548:	00000013          	addi	zero,zero,0
    154c:	00000013          	addi	zero,zero,0
    1550:	00000013          	addi	zero,zero,0
    1554:	00000013          	addi	zero,zero,0
    1558:	00000013          	addi	zero,zero,0
    155c:	00000013          	addi	zero,zero,0
    1560:	00000013          	addi	zero,zero,0
    1564:	00000013          	addi	zero,zero,0
    1568:	00000013          	addi	zero,zero,0
    156c:	00000013          	addi	zero,zero,0
    1570:	00000013          	addi	zero,zero,0
    1574:	00000013          	addi	zero,zero,0
    1578:	00000013          	addi	zero,zero,0
    157c:	00000013          	addi	zero,zero,0
    1580:	00000013          	addi	zero,zero,0
    1584:	00000013          	addi	zero,zero,0
    1588:	00000013          	addi	zero,zero,0
    158c:	00000013          	addi	zero,zero,0
    1590:	00000013          	addi	zero,zero,0
    1594:	00000013          	addi	zero,zero,0
    1598:	00000013          	addi	zero,zero,0
    159c:	00000013          	addi	zero,zero,0
    15a0:	00000013          	addi	zero,zero,0
    15a4:	00000013          	addi	zero,zero,0
    15a8:	00000013          	addi	zero,zero,0
    15ac:	00000013          	addi	zero,zero,0
    15b0:	00000013          	addi	zero,zero,0
    15b4:	00000013          	addi	zero,zero,0
    15b8:	00000013          	addi	zero,zero,0
    15bc:	00000013          	addi	zero,zero,0
    15c0:	00000013          	addi	zero,zero,0
    15c4:	00000013          	addi	zero,zero,0
    15c8:	00000013          	addi	zero,zero,0
    15cc:	00000013          	addi	zero,zero,0
    15d0:	00000013          	addi	zero,zero,0
    15d4:	00000013          	addi	zero,zero,0
    15d8:	00000013          	addi	zero,zero,0
    15dc:	00000013          	addi	zero,zero,0
    15e0:	00000013          	addi	zero,zero,0
    15e4:	00000013          	addi	zero,zero,0
    15e8:	00000013          	addi	zero,zero,0
    15ec:	00000013          	addi	zero,zero,0
    15f0:	00000013          	addi	zero,zero,0
    15f4:	00000013          	addi	zero,zero,0
    15f8:	00000013          	addi	zero,zero,0
    15fc:	00000013          	addi	zero,zero,0
    1600:	00000013          	addi	zero,zero,0
    1604:	00000013          	addi	zero,zero,0
    1608:	00000013          	addi	zero,zero,0
    160c:	00000013          	addi	zero,zero,0
    1610:	00000013          	addi	zero,zero,0
    1614:	00000013          	addi	zero,zero,0
    1618:	00000013          	addi	zero,zero,0
    161c:	00000013          	addi	zero,zero,0
    1620:	00000013          	addi	zero,zero,0
    1624:	00000013          	addi	zero,zero,0
    1628:	00000013          	addi	zero,zero,0
    162c:	00000013          	addi	zero,zero,0
    1630:	00000013          	addi	zero,zero,0
    1634:	00000013          	addi	zero,zero,0
    1638:	00000013          	addi	zero,zero,0
    163c:	00000013          	addi	zero,zero,0
    1640:	00000013          	addi	zero,zero,0
    1644:	00000013          	addi	zero,zero,0
    1648:	00000013          	addi	zero,zero,0
    164c:	00000013          	addi	zero,zero,0
    1650:	00000013          	addi	zero,zero,0
    1654:	00000013          	addi	zero,zero,0
    1658:	00000013          	addi	zero,zero,0
    165c:	00000013          	addi	zero,zero,0
    1660:	00000013          	addi	zero,zero,0
    1664:	00000013          	addi	zero,zero,0
    1668:	00000013          	addi	zero,zero,0
    166c:	00000013          	addi	zero,zero,0
    1670:	00000013          	addi	zero,zero,0
    1674:	00000013          	addi	zero,zero,0
    1678:	00000013          	addi	zero,zero,0
    167c:	00000013          	addi	zero,zero,0
    1680:	00000013          	addi	zero,zero,0
    1684:	00000013          	addi	zero,zero,0
    1688:	00000013          	addi	zero,zero,0
    168c:	00000013          	addi	zero,zero,0
    1690:	00000013          	addi	zero,zero,0
    1694:	00000013          	addi	zero,zero,0
    1698:	00000013          	addi	zero,zero,0
    169c:	00000013          	addi	zero,zero,0
    16a0:	00000013          	addi	zero,zero,0
    16a4:	00000013          	addi	zero,zero,0
    16a8:	00000013          	addi	zero,zero,0
    16ac:	00000013          	addi	zero,zero,0
    16b0:	00000013          	addi	zero,zero,0
    16b4:	00000013          	addi	zero,zero,0
    16b8:	00000013          	addi	zero,zero,0
    16bc:	00000013          	addi	zero,zero,0
    16c0:	00000013          	addi	zero,zero,0
    16c4:	00000013          	addi	zero,zero,0
    16c8:	00000013          	addi	zero,zero,0
    16cc:	00000013          	addi	zero,zero,0
    16d0:	00000013          	addi	zero,zero,0
    16d4:	00000013          	addi	zero,zero,0
    16d8:	00000013          	addi	zero,zero,0
    16dc:	00000013          	addi	zero,zero,0
    16e0:	00000013          	addi	zero,zero,0
    16e4:	00000013          	addi	zero,zero,0
    16e8:	00000013          	addi	zero,zero,0
    16ec:	00000013          	addi	zero,zero,0
    16f0:	00000013          	addi	zero,zero,0
    16f4:	00000013          	addi	zero,zero,0
    16f8:	00000013          	addi	zero,zero,0
    16fc:	00000013          	addi	zero,zero,0
    1700:	00000013          	addi	zero,zero,0
    1704:	00000013          	addi	zero,zero,0
    1708:	00000013          	addi	zero,zero,0
    170c:	00000013          	addi	zero,zero,0
    1710:	00000013          	addi	zero,zero,0
    1714:	00000013          	addi	zero,zero,0
    1718:	00000013          	addi	zero,zero,0
    171c:	00000013          	addi	zero,zero,0
    1720:	00000013          	addi	zero,zero,0
    1724:	00000013          	addi	zero,zero,0
    1728:	00000013          	addi	zero,zero,0
    172c:	00000013          	addi	zero,zero,0
    1730:	00000013          	addi	zero,zero,0
    1734:	00000013          	addi	zero,zero,0
    1738:	00000013          	addi	zero,zero,0
    173c:	00000013          	addi	zero,zero,0
    1740:	00000013          	addi	zero,zero,0
    1744:	00000013          	addi	zero,zero,0
    1748:	00000013          	addi	zero,zero,0
    174c:	00000013          	addi	zero,zero,0
    1750:	00000013          	addi	zero,zero,0
    1754:	00000013          	addi	zero,zero,0
    1758:	00000013          	addi	zero,zero,0
    175c:	00000013          	addi	zero,zero,0
    1760:	00000013          	addi	zero,zero,0
    1764:	00000013          	addi	zero,zero,0
    1768:	00000013          	addi	zero,zero,0
    176c:	00000013          	addi	zero,zero,0
    1770:	00000013          	addi	zero,zero,0
    1774:	00000013          	addi	zero,zero,0
    1778:	00000013          	addi	zero,zero,0
    177c:	00000013          	addi	zero,zero,0
    1780:	00000013          	addi	zero,zero,0
    1784:	00000013          	addi	zero,zero,0
    1788:	00000013          	addi	zero,zero,0
    178c:	00000013          	addi	zero,zero,0
    1790:	00000013          	addi	zero,zero,0
    1794:	00000013          	addi	zero,zero,0
    1798:	00000013          	addi	zero,zero,0
    179c:	00000013          	addi	zero,zero,0
    17a0:	00000013          	addi	zero,zero,0
    17a4:	00000013          	addi	zero,zero,0
    17a8:	00000013          	addi	zero,zero,0
    17ac:	00000013          	addi	zero,zero,0
    17b0:	00000013          	addi	zero,zero,0
    17b4:	00000013          	addi	zero,zero,0
    17b8:	00000013          	addi	zero,zero,0
    17bc:	00000013          	addi	zero,zero,0
    17c0:	00000013          	addi	zero,zero,0
    17c4:	00000013          	addi	zero,zero,0
    17c8:	00000013          	addi	zero,zero,0
    17cc:	00000013          	addi	zero,zero,0
    17d0:	00000013          	addi	zero,zero,0
    17d4:	00000013          	addi	zero,zero,0
    17d8:	00000013          	addi	zero,zero,0
    17dc:	00000013          	addi	zero,zero,0
    17e0:	00000013          	addi	zero,zero,0
    17e4:	00000013          	addi	zero,zero,0
    17e8:	00000013          	addi	zero,zero,0
    17ec:	00000013          	addi	zero,zero,0
    17f0:	00000013          	addi	zero,zero,0
    17f4:	00000013          	addi	zero,zero,0
    17f8:	00000013          	addi	zero,zero,0
    17fc:	00000013          	addi	zero,zero,0
    1800:	00000013          	addi	zero,zero,0
    1804:	00000013          	addi	zero,zero,0
    1808:	00000013          	addi	zero,zero,0
    180c:	00000013          	addi	zero,zero,0
    1810:	00000013          	addi	zero,zero,0
    1814:	00000013          	addi	zero,zero,0
    1818:	00000013          	addi	zero,zero,0
    181c:	00000013          	addi	zero,zero,0
    1820:	00000013          	addi	zero,zero,0
    1824:	00000013          	addi	zero,zero,0
    1828:	00000013          	addi	zero,zero,0
    182c:	00000013          	addi	zero,zero,0
    1830:	00000013          	addi	zero,zero,0
    1834:	00000013          	addi	zero,zero,0
    1838:	00000013          	addi	zero,zero,0
    183c:	00000013          	addi	zero,zero,0
    1840:	00000013          	addi	zero,zero,0
    1844:	00000013          	addi	zero,zero,0
    1848:	00000013          	addi	zero,zero,0
    184c:	00000013          	addi	zero,zero,0
    1850:	00000013          	addi	zero,zero,0
    1854:	00000013          	addi	zero,zero,0
    1858:	00000013          	addi	zero,zero,0
    185c:	00000013          	addi	zero,zero,0
    1860:	00000013          	addi	zero,zero,0
    1864:	00000013          	addi	zero,zero,0
    1868:	00000013          	addi	zero,zero,0
    186c:	00000013          	addi	zero,zero,0
    1870:	00000013          	addi	zero,zero,0
    1874:	00000013          	addi	zero,zero,0
    1878:	00000013          	addi	zero,zero,0
    187c:	00000013          	addi	zero,zero,0
    1880:	00000013          	addi	zero,zero,0
    1884:	00000013          	addi	zero,zero,0
    1888:	00000013          	addi	zero,zero,0
    188c:	00000013          	addi	zero,zero,0
    1890:	00000013          	addi	zero,zero,0
    1894:	00000013          	addi	zero,zero,0
    1898:	00000013          	addi	zero,zero,0
    189c:	00000013          	addi	zero,zero,0
    18a0:	00000013          	addi	zero,zero,0
    18a4:	00000013          	addi	zero,zero,0
    18a8:	00000013          	addi	zero,zero,0
    18ac:	00000013          	addi	zero,zero,0
    18b0:	00000013          	addi	zero,zero,0
    18b4:	00000013          	addi	zero,zero,0
    18b8:	00000013          	addi	zero,zero,0
    18bc:	00000013          	addi	zero,zero,0
    18c0:	00000013          	addi	zero,zero,0
    18c4:	00000013          	addi	zero,zero,0
    18c8:	00000013          	addi	zero,zero,0
    18cc:	00000013          	addi	zero,zero,0
    18d0:	00000013          	addi	zero,zero,0
    18d4:	00000013          	addi	zero,zero,0
    18d8:	00000013          	addi	zero,zero,0
    18dc:	00000013          	addi	zero,zero,0
    18e0:	00000013          	addi	zero,zero,0
    18e4:	00000013          	addi	zero,zero,0
    18e8:	00000013          	addi	zero,zero,0
    18ec:	00000013          	addi	zero,zero,0
    18f0:	00000013          	addi	zero,zero,0
    18f4:	00000013          	addi	zero,zero,0
    18f8:	00000013          	addi	zero,zero,0
    18fc:	00000013          	addi	zero,zero,0
    1900:	00000013          	addi	zero,zero,0
    1904:	00000013          	addi	zero,zero,0
    1908:	00000013          	addi	zero,zero,0
    190c:	00000013          	addi	zero,zero,0
    1910:	00000013          	addi	zero,zero,0
    1914:	00000013          	addi	zero,zero,0
    1918:	00000013          	addi	zero,zero,0
    191c:	00000013          	addi	zero,zero,0
    1920:	00000013          	addi	zero,zero,0
    1924:	00000013          	addi	zero,zero,0
    1928:	00000013          	addi	zero,zero,0
    192c:	00000013          	addi	zero,zero,0
    1930:	00000013          	addi	zero,zero,0
    1934:	00000013          	addi	zero,zero,0
    1938:	00000013          	addi	zero,zero,0
    193c:	00000013          	addi	zero,zero,0
    1940:	00000013          	addi	zero,zero,0
    1944:	00000013          	addi	zero,zero,0
    1948:	00000013          	addi	zero,zero,0
    194c:	00000013          	addi	zero,zero,0
    1950:	00000013          	addi	zero,zero,0
    1954:	00000013          	addi	zero,zero,0
    1958:	00000013          	addi	zero,zero,0
    195c:	00000013          	addi	zero,zero,0
    1960:	00000013          	addi	zero,zero,0
    1964:	00000013          	addi	zero,zero,0
    1968:	00000013          	addi	zero,zero,0
    196c:	00000013          	addi	zero,zero,0
    1970:	00000013          	addi	zero,zero,0
    1974:	00000013          	addi	zero,zero,0
    1978:	00000013          	addi	zero,zero,0
    197c:	00000013          	addi	zero,zero,0
    1980:	00000013          	addi	zero,zero,0
    1984:	00000013          	addi	zero,zero,0
    1988:	00000013          	addi	zero,zero,0
    198c:	00000013          	addi	zero,zero,0
    1990:	00000013          	addi	zero,zero,0
    1994:	00000013          	addi	zero,zero,0
    1998:	00000013          	addi	zero,zero,0
    199c:	00000013          	addi	zero,zero,0
    19a0:	00000013          	addi	zero,zero,0
    19a4:	00000013          	addi	zero,zero,0
    19a8:	00000013          	addi	zero,zero,0
    19ac:	00000013          	addi	zero,zero,0
    19b0:	00000013          	addi	zero,zero,0
    19b4:	00000013          	addi	zero,zero,0
    19b8:	00000013          	addi	zero,zero,0
    19bc:	00000013          	addi	zero,zero,0
    19c0:	00000013          	addi	zero,zero,0
    19c4:	00000013          	addi	zero,zero,0
    19c8:	00000013          	addi	zero,zero,0
    19cc:	00000013          	addi	zero,zero,0
    19d0:	00000013          	addi	zero,zero,0
    19d4:	00000013          	addi	zero,zero,0
    19d8:	00000013          	addi	zero,zero,0
    19dc:	00000013          	addi	zero,zero,0
    19e0:	00000013          	addi	zero,zero,0
    19e4:	00000013          	addi	zero,zero,0
    19e8:	00000013          	addi	zero,zero,0
    19ec:	00000013          	addi	zero,zero,0
    19f0:	00000013          	addi	zero,zero,0
    19f4:	00000013          	addi	zero,zero,0
    19f8:	00000013          	addi	zero,zero,0
    19fc:	00000013          	addi	zero,zero,0
    1a00:	00000013          	addi	zero,zero,0
    1a04:	00000013          	addi	zero,zero,0
    1a08:	00000013          	addi	zero,zero,0
    1a0c:	00000013          	addi	zero,zero,0
    1a10:	00000013          	addi	zero,zero,0
    1a14:	00000013          	addi	zero,zero,0
    1a18:	00000013          	addi	zero,zero,0
    1a1c:	00000013          	addi	zero,zero,0
    1a20:	00000013          	addi	zero,zero,0
    1a24:	00000013          	addi	zero,zero,0
    1a28:	00000013          	addi	zero,zero,0
    1a2c:	00000013          	addi	zero,zero,0
    1a30:	00000013          	addi	zero,zero,0
    1a34:	00000013          	addi	zero,zero,0
    1a38:	00000013          	addi	zero,zero,0
    1a3c:	00000013          	addi	zero,zero,0
    1a40:	00000013          	addi	zero,zero,0
    1a44:	00000013          	addi	zero,zero,0
    1a48:	00000013          	addi	zero,zero,0
    1a4c:	00000013          	addi	zero,zero,0
    1a50:	00000013          	addi	zero,zero,0
    1a54:	00000013          	addi	zero,zero,0
    1a58:	00000013          	addi	zero,zero,0
    1a5c:	00000013          	addi	zero,zero,0
    1a60:	00000013          	addi	zero,zero,0
    1a64:	00000013          	addi	zero,zero,0
    1a68:	00000013          	addi	zero,zero,0
    1a6c:	00000013          	addi	zero,zero,0
    1a70:	00000013          	addi	zero,zero,0
    1a74:	00000013          	addi	zero,zero,0
    1a78:	00000013          	addi	zero,zero,0
    1a7c:	00000013          	addi	zero,zero,0
    1a80:	00000013          	addi	zero,zero,0
    1a84:	00000013          	addi	zero,zero,0
    1a88:	00000013          	addi	zero,zero,0
    1a8c:	00000013          	addi	zero,zero,0
    1a90:	00000013          	addi	zero,zero,0
    1a94:	00000013          	addi	zero,zero,0
    1a98:	00000013          	addi	zero,zero,0
    1a9c:	00000013          	addi	zero,zero,0
    1aa0:	00000013          	addi	zero,zero,0
    1aa4:	00000013          	addi	zero,zero,0
    1aa8:	00000013          	addi	zero,zero,0
    1aac:	00000013          	addi	zero,zero,0
    1ab0:	00000013          	addi	zero,zero,0
    1ab4:	00000013          	addi	zero,zero,0
    1ab8:	00000013          	addi	zero,zero,0
    1abc:	00000013          	addi	zero,zero,0
    1ac0:	00000013          	addi	zero,zero,0
    1ac4:	00000013          	addi	zero,zero,0
    1ac8:	00000013          	addi	zero,zero,0
    1acc:	00000013          	addi	zero,zero,0
    1ad0:	00000013          	addi	zero,zero,0
    1ad4:	00000013          	addi	zero,zero,0
    1ad8:	00000013          	addi	zero,zero,0
    1adc:	00000013          	addi	zero,zero,0
    1ae0:	00000013          	addi	zero,zero,0
    1ae4:	00000013          	addi	zero,zero,0
    1ae8:	00000013          	addi	zero,zero,0
    1aec:	00000013          	addi	zero,zero,0
    1af0:	00000013          	addi	zero,zero,0
    1af4:	00000013          	addi	zero,zero,0
    1af8:	00000013          	addi	zero,zero,0
    1afc:	00000013          	addi	zero,zero,0
    1b00:	00000013          	addi	zero,zero,0
    1b04:	00000013          	addi	zero,zero,0
    1b08:	00000013          	addi	zero,zero,0
    1b0c:	00000013          	addi	zero,zero,0
    1b10:	00000013          	addi	zero,zero,0
    1b14:	00000013          	addi	zero,zero,0
    1b18:	00000013          	addi	zero,zero,0
    1b1c:	00000013          	addi	zero,zero,0
    1b20:	00000013          	addi	zero,zero,0
    1b24:	00000013          	addi	zero,zero,0
    1b28:	00000013          	addi	zero,zero,0
    1b2c:	00000013          	addi	zero,zero,0
    1b30:	00000013          	addi	zero,zero,0
    1b34:	00000013          	addi	zero,zero,0
    1b38:	00000013          	addi	zero,zero,0
    1b3c:	00000013          	addi	zero,zero,0
    1b40:	00000013          	addi	zero,zero,0
    1b44:	00000013          	addi	zero,zero,0
    1b48:	00000013          	addi	zero,zero,0
    1b4c:	00000013          	addi	zero,zero,0
    1b50:	00000013          	addi	zero,zero,0
    1b54:	00000013          	addi	zero,zero,0
    1b58:	00000013          	addi	zero,zero,0
    1b5c:	00000013          	addi	zero,zero,0
    1b60:	00000013          	addi	zero,zero,0
    1b64:	00000013          	addi	zero,zero,0
    1b68:	00000013          	addi	zero,zero,0
    1b6c:	00000013          	addi	zero,zero,0
    1b70:	00000013          	addi	zero,zero,0
    1b74:	00000013          	addi	zero,zero,0
    1b78:	00000013          	addi	zero,zero,0
    1b7c:	00000013          	addi	zero,zero,0
    1b80:	00000013          	addi	zero,zero,0
    1b84:	00000013          	addi	zero,zero,0
    1b88:	00000013          	addi	zero,zero,0
    1b8c:	00000013          	addi	zero,zero,0
    1b90:	00000013          	addi	zero,zero,0
    1b94:	00000013          	addi	zero,zero,0
    1b98:	00000013          	addi	zero,zero,0
    1b9c:	00000013          	addi	zero,zero,0
    1ba0:	00000013          	addi	zero,zero,0
    1ba4:	00000013          	addi	zero,zero,0
    1ba8:	00000013          	addi	zero,zero,0
    1bac:	00000013          	addi	zero,zero,0
    1bb0:	00000013          	addi	zero,zero,0
    1bb4:	00000013          	addi	zero,zero,0
    1bb8:	00000013          	addi	zero,zero,0
    1bbc:	00000013          	addi	zero,zero,0
    1bc0:	00000013          	addi	zero,zero,0
    1bc4:	00000013          	addi	zero,zero,0
    1bc8:	00000013          	addi	zero,zero,0
    1bcc:	00000013          	addi	zero,zero,0
    1bd0:	00000013          	addi	zero,zero,0
    1bd4:	00000013          	addi	zero,zero,0
    1bd8:	00000013          	addi	zero,zero,0
    1bdc:	00000013          	addi	zero,zero,0
    1be0:	00000013          	addi	zero,zero,0
    1be4:	00000013          	addi	zero,zero,0
    1be8:	00000013          	addi	zero,zero,0
    1bec:	00000013          	addi	zero,zero,0
    1bf0:	00000013          	addi	zero,zero,0
    1bf4:	00000013          	addi	zero,zero,0
    1bf8:	00000013          	addi	zero,zero,0
    1bfc:	00000013          	addi	zero,zero,0
    1c00:	00000013          	addi	zero,zero,0
    1c04:	00000013          	addi	zero,zero,0
    1c08:	00000013          	addi	zero,zero,0
    1c0c:	00000013          	addi	zero,zero,0
    1c10:	00000013          	addi	zero,zero,0
    1c14:	00000013          	addi	zero,zero,0
    1c18:	00000013          	addi	zero,zero,0
    1c1c:	00000013          	addi	zero,zero,0
    1c20:	00000013          	addi	zero,zero,0
    1c24:	00000013          	addi	zero,zero,0
    1c28:	00000013          	addi	zero,zero,0
    1c2c:	00000013          	addi	zero,zero,0
    1c30:	00000013          	addi	zero,zero,0
    1c34:	00000013          	addi	zero,zero,0
    1c38:	00000013          	addi	zero,zero,0
    1c3c:	00000013          	addi	zero,zero,0
    1c40:	00000013          	addi	zero,zero,0
    1c44:	00000013          	addi	zero,zero,0
    1c48:	00000013          	addi	zero,zero,0
    1c4c:	00000013          	addi	zero,zero,0
    1c50:	00000013          	addi	zero,zero,0
    1c54:	00000013          	addi	zero,zero,0
    1c58:	00000013          	addi	zero,zero,0
    1c5c:	00000013          	addi	zero,zero,0
    1c60:	00000013          	addi	zero,zero,0
    1c64:	00000013          	addi	zero,zero,0
    1c68:	00000013          	addi	zero,zero,0
    1c6c:	00000013          	addi	zero,zero,0
    1c70:	00000013          	addi	zero,zero,0
    1c74:	00000013          	addi	zero,zero,0
    1c78:	00000013          	addi	zero,zero,0
    1c7c:	00000013          	addi	zero,zero,0
    1c80:	00000013          	addi	zero,zero,0
    1c84:	00000013          	addi	zero,zero,0
    1c88:	00000013          	addi	zero,zero,0
    1c8c:	00000013          	addi	zero,zero,0
    1c90:	00000013          	addi	zero,zero,0
    1c94:	00000013          	addi	zero,zero,0
    1c98:	00000013          	addi	zero,zero,0
    1c9c:	00000013          	addi	zero,zero,0
    1ca0:	00000013          	addi	zero,zero,0
    1ca4:	00000013          	addi	zero,zero,0
    1ca8:	00000013          	addi	zero,zero,0
    1cac:	00000013          	addi	zero,zero,0
    1cb0:	00000013          	addi	zero,zero,0
    1cb4:	00000013          	addi	zero,zero,0
    1cb8:	00000013          	addi	zero,zero,0
    1cbc:	00000013          	addi	zero,zero,0
    1cc0:	00000013          	addi	zero,zero,0
    1cc4:	00000013          	addi	zero,zero,0
    1cc8:	00000013          	addi	zero,zero,0
    1ccc:	00000013          	addi	zero,zero,0
    1cd0:	00000013          	addi	zero,zero,0
    1cd4:	00000013          	addi	zero,zero,0
    1cd8:	00000013          	addi	zero,zero,0
    1cdc:	00000013          	addi	zero,zero,0
    1ce0:	00000013          	addi	zero,zero,0
    1ce4:	00000013          	addi	zero,zero,0
    1ce8:	00000013          	addi	zero,zero,0
    1cec:	00000013          	addi	zero,zero,0
    1cf0:	00000013          	addi	zero,zero,0
    1cf4:	00000013          	addi	zero,zero,0
    1cf8:	00000013          	addi	zero,zero,0
    1cfc:	00000013          	addi	zero,zero,0
    1d00:	00000013          	addi	zero,zero,0
    1d04:	00000013          	addi	zero,zero,0
    1d08:	00000013          	addi	zero,zero,0
    1d0c:	00000013          	addi	zero,zero,0
    1d10:	00000013          	addi	zero,zero,0
    1d14:	00000013          	addi	zero,zero,0
    1d18:	00000013          	addi	zero,zero,0
    1d1c:	00000013          	addi	zero,zero,0
    1d20:	00000013          	addi	zero,zero,0
    1d24:	00000013          	addi	zero,zero,0
    1d28:	00000013          	addi	zero,zero,0
    1d2c:	00000013          	addi	zero,zero,0
    1d30:	00000013          	addi	zero,zero,0
    1d34:	00000013          	addi	zero,zero,0
    1d38:	00000013          	addi	zero,zero,0
    1d3c:	00000013          	addi	zero,zero,0
    1d40:	00000013          	addi	zero,zero,0
    1d44:	00000013          	addi	zero,zero,0
    1d48:	00000013          	addi	zero,zero,0
    1d4c:	00000013          	addi	zero,zero,0
    1d50:	00000013          	addi	zero,zero,0
    1d54:	00000013          	addi	zero,zero,0
    1d58:	00000013          	addi	zero,zero,0
    1d5c:	00000013          	addi	zero,zero,0
    1d60:	00000013          	addi	zero,zero,0
    1d64:	00000013          	addi	zero,zero,0
    1d68:	00000013          	addi	zero,zero,0
    1d6c:	00000013          	addi	zero,zero,0
    1d70:	00000013          	addi	zero,zero,0
    1d74:	00000013          	addi	zero,zero,0
    1d78:	00000013          	addi	zero,zero,0
    1d7c:	00000013          	addi	zero,zero,0
    1d80:	00000013          	addi	zero,zero,0
    1d84:	00000013          	addi	zero,zero,0
    1d88:	00000013          	addi	zero,zero,0
    1d8c:	00000013          	addi	zero,zero,0
    1d90:	00000013          	addi	zero,zero,0
    1d94:	00000013          	addi	zero,zero,0
    1d98:	00000013          	addi	zero,zero,0
    1d9c:	00000013          	addi	zero,zero,0
    1da0:	00000013          	addi	zero,zero,0
    1da4:	00000013          	addi	zero,zero,0
    1da8:	00000013          	addi	zero,zero,0
    1dac:	00000013          	addi	zero,zero,0
    1db0:	00000013          	addi	zero,zero,0
    1db4:	00000013          	addi	zero,zero,0
    1db8:	00000013          	addi	zero,zero,0
    1dbc:	00000013          	addi	zero,zero,0
    1dc0:	00000013          	addi	zero,zero,0
    1dc4:	00000013          	addi	zero,zero,0
    1dc8:	00000013          	addi	zero,zero,0
    1dcc:	00000013          	addi	zero,zero,0
    1dd0:	00000013          	addi	zero,zero,0
    1dd4:	00000013          	addi	zero,zero,0
    1dd8:	00000013          	addi	zero,zero,0
    1ddc:	00000013          	addi	zero,zero,0
    1de0:	00000013          	addi	zero,zero,0
    1de4:	00000013          	addi	zero,zero,0
    1de8:	00000013          	addi	zero,zero,0
    1dec:	00000013          	addi	zero,zero,0
    1df0:	00000013          	addi	zero,zero,0
    1df4:	00000013          	addi	zero,zero,0
    1df8:	00000013          	addi	zero,zero,0
    1dfc:	00000013          	addi	zero,zero,0
    1e00:	00000013          	addi	zero,zero,0
    1e04:	00000013          	addi	zero,zero,0
    1e08:	00000013          	addi	zero,zero,0
    1e0c:	00000013          	addi	zero,zero,0
    1e10:	00000013          	addi	zero,zero,0
    1e14:	00000013          	addi	zero,zero,0
    1e18:	00000013          	addi	zero,zero,0
    1e1c:	00000013          	addi	zero,zero,0
    1e20:	00000013          	addi	zero,zero,0
    1e24:	00000013          	addi	zero,zero,0
    1e28:	00000013          	addi	zero,zero,0
    1e2c:	00000013          	addi	zero,zero,0
    1e30:	00000013          	addi	zero,zero,0
    1e34:	00000013          	addi	zero,zero,0
    1e38:	00000013          	addi	zero,zero,0
    1e3c:	00000013          	addi	zero,zero,0
    1e40:	00000013          	addi	zero,zero,0
    1e44:	00000013          	addi	zero,zero,0
    1e48:	00000013          	addi	zero,zero,0
    1e4c:	00000013          	addi	zero,zero,0
    1e50:	00000013          	addi	zero,zero,0
    1e54:	00000013          	addi	zero,zero,0
    1e58:	00000013          	addi	zero,zero,0
    1e5c:	00000013          	addi	zero,zero,0
    1e60:	00000013          	addi	zero,zero,0
    1e64:	00000013          	addi	zero,zero,0
    1e68:	00000013          	addi	zero,zero,0
    1e6c:	00000013          	addi	zero,zero,0
    1e70:	00000013          	addi	zero,zero,0
    1e74:	00000013          	addi	zero,zero,0
    1e78:	00000013          	addi	zero,zero,0
    1e7c:	00000013          	addi	zero,zero,0
    1e80:	00000013          	addi	zero,zero,0
    1e84:	00000013          	addi	zero,zero,0
    1e88:	00000013          	addi	zero,zero,0
    1e8c:	00000013          	addi	zero,zero,0
    1e90:	00000013          	addi	zero,zero,0
    1e94:	00000013          	addi	zero,zero,0
    1e98:	00000013          	addi	zero,zero,0
    1e9c:	00000013          	addi	zero,zero,0
    1ea0:	00000013          	addi	zero,zero,0
    1ea4:	00000013          	addi	zero,zero,0
    1ea8:	00000013          	addi	zero,zero,0
    1eac:	00000013          	addi	zero,zero,0
    1eb0:	00000013          	addi	zero,zero,0
    1eb4:	00000013          	addi	zero,zero,0
    1eb8:	00000013          	addi	zero,zero,0
    1ebc:	00000013          	addi	zero,zero,0
    1ec0:	00000013          	addi	zero,zero,0
    1ec4:	00000013          	addi	zero,zero,0
    1ec8:	00000013          	addi	zero,zero,0
    1ecc:	00000013          	addi	zero,zero,0
    1ed0:	00000013          	addi	zero,zero,0
    1ed4:	00000013          	addi	zero,zero,0
    1ed8:	00000013          	addi	zero,zero,0
    1edc:	00000013          	addi	zero,zero,0
    1ee0:	00000013          	addi	zero,zero,0
    1ee4:	00000013          	addi	zero,zero,0
    1ee8:	00000013          	addi	zero,zero,0
    1eec:	00000013          	addi	zero,zero,0
    1ef0:	00000013          	addi	zero,zero,0
    1ef4:	00000013          	addi	zero,zero,0
    1ef8:	00000013          	addi	zero,zero,0
    1efc:	00000013          	addi	zero,zero,0
    1f00:	00000013          	addi	zero,zero,0
    1f04:	00000013          	addi	zero,zero,0
    1f08:	00000013          	addi	zero,zero,0
    1f0c:	00000013          	addi	zero,zero,0
    1f10:	00000013          	addi	zero,zero,0
    1f14:	00000013          	addi	zero,zero,0
    1f18:	00000013          	addi	zero,zero,0
    1f1c:	00000013          	addi	zero,zero,0
    1f20:	00000013          	addi	zero,zero,0
    1f24:	00000013          	addi	zero,zero,0
    1f28:	00000013          	addi	zero,zero,0
    1f2c:	00000013          	addi	zero,zero,0
    1f30:	00000013          	addi	zero,zero,0
    1f34:	00000013          	addi	zero,zero,0
    1f38:	00000013          	addi	zero,zero,0
    1f3c:	00000013          	addi	zero,zero,0
    1f40:	00000013          	addi	zero,zero,0
    1f44:	00000013          	addi	zero,zero,0
    1f48:	00000013          	addi	zero,zero,0
    1f4c:	00000013          	addi	zero,zero,0
    1f50:	00000013          	addi	zero,zero,0
    1f54:	00000013          	addi	zero,zero,0
    1f58:	00000013          	addi	zero,zero,0
    1f5c:	00000013          	addi	zero,zero,0
    1f60:	00000013          	addi	zero,zero,0
    1f64:	00000013          	addi	zero,zero,0
    1f68:	00000013          	addi	zero,zero,0
    1f6c:	00000013          	addi	zero,zero,0
    1f70:	00000013          	addi	zero,zero,0
    1f74:	00000013          	addi	zero,zero,0
    1f78:	00000013          	addi	zero,zero,0
    1f7c:	00000013          	addi	zero,zero,0
    1f80:	00000013          	addi	zero,zero,0
    1f84:	00000013          	addi	zero,zero,0
    1f88:	00000013          	addi	zero,zero,0
    1f8c:	00000013          	addi	zero,zero,0
    1f90:	00000013          	addi	zero,zero,0
    1f94:	00000013          	addi	zero,zero,0
    1f98:	00000013          	addi	zero,zero,0
    1f9c:	00000013          	addi	zero,zero,0
    1fa0:	00000013          	addi	zero,zero,0
    1fa4:	00000013          	addi	zero,zero,0
    1fa8:	00000013          	addi	zero,zero,0
    1fac:	00000013          	addi	zero,zero,0
    1fb0:	00000013          	addi	zero,zero,0
    1fb4:	00000013          	addi	zero,zero,0
    1fb8:	00000013          	addi	zero,zero,0
    1fbc:	00000013          	addi	zero,zero,0
    1fc0:	00000013          	addi	zero,zero,0
    1fc4:	00000013          	addi	zero,zero,0
    1fc8:	00000013          	addi	zero,zero,0
    1fcc:	00000013          	addi	zero,zero,0
    1fd0:	00000013          	addi	zero,zero,0
    1fd4:	00000013          	addi	zero,zero,0
    1fd8:	00000013          	addi	zero,zero,0
    1fdc:	00000013          	addi	zero,zero,0
    1fe0:	00000013          	addi	zero,zero,0
    1fe4:	00000013          	addi	zero,zero,0
    1fe8:	00000013          	addi	zero,zero,0
    1fec:	00000013          	addi	zero,zero,0
    1ff0:	00000013          	addi	zero,zero,0
    1ff4:	00000013          	addi	zero,zero,0
    1ff8:	00000013          	addi	zero,zero,0
    1ffc:	00000013          	addi	zero,zero,0

00002000 <_trap_entry_vclic>:
    2000:	1000                	c.addi4spn	s0,sp,32
    2002:	0000                	c.unimp
    2004:	1000                	c.addi4spn	s0,sp,32
    2006:	0000                	c.unimp
    2008:	1000                	c.addi4spn	s0,sp,32
    200a:	0000                	c.unimp
    200c:	1000                	c.addi4spn	s0,sp,32
    200e:	0000                	c.unimp
    2010:	1000                	c.addi4spn	s0,sp,32
    2012:	0000                	c.unimp
    2014:	1000                	c.addi4spn	s0,sp,32
    2016:	0000                	c.unimp
    2018:	1000                	c.addi4spn	s0,sp,32
    201a:	0000                	c.unimp
    201c:	1000                	c.addi4spn	s0,sp,32
    201e:	0000                	c.unimp
    2020:	1000                	c.addi4spn	s0,sp,32
    2022:	0000                	c.unimp
    2024:	1000                	c.addi4spn	s0,sp,32
    2026:	0000                	c.unimp
    2028:	1000                	c.addi4spn	s0,sp,32
    202a:	0000                	c.unimp
    202c:	1000                	c.addi4spn	s0,sp,32
    202e:	0000                	c.unimp
    2030:	1000                	c.addi4spn	s0,sp,32
    2032:	0000                	c.unimp
    2034:	1000                	c.addi4spn	s0,sp,32
    2036:	0000                	c.unimp
    2038:	1000                	c.addi4spn	s0,sp,32
    203a:	0000                	c.unimp
    203c:	1000                	c.addi4spn	s0,sp,32
    203e:	0000                	c.unimp
    2040:	1000                	c.addi4spn	s0,sp,32
    2042:	0000                	c.unimp
    2044:	1000                	c.addi4spn	s0,sp,32
    2046:	0000                	c.unimp
    2048:	1000                	c.addi4spn	s0,sp,32
    204a:	0000                	c.unimp
    204c:	10f8                	c.addi4spn	a4,sp,108
    204e:	0000                	c.unimp
    2050:	10f8                	c.addi4spn	a4,sp,108
    2052:	0000                	c.unimp
    2054:	10f8                	c.addi4spn	a4,sp,108
    2056:	0000                	c.unimp
    2058:	10f8                	c.addi4spn	a4,sp,108
    205a:	0000                	c.unimp
    205c:	10f8                	c.addi4spn	a4,sp,108
    205e:	0000                	c.unimp
    2060:	10f8                	c.addi4spn	a4,sp,108
    2062:	0000                	c.unimp
    2064:	10f8                	c.addi4spn	a4,sp,108
    2066:	0000                	c.unimp
    2068:	10f8                	c.addi4spn	a4,sp,108
    206a:	0000                	c.unimp
    206c:	10f8                	c.addi4spn	a4,sp,108
    206e:	0000                	c.unimp
    2070:	10f8                	c.addi4spn	a4,sp,108
    2072:	0000                	c.unimp
    2074:	10f8                	c.addi4spn	a4,sp,108
    2076:	0000                	c.unimp
    2078:	10f8                	c.addi4spn	a4,sp,108
    207a:	0000                	c.unimp
    207c:	10f8                	c.addi4spn	a4,sp,108
    207e:	0000                	c.unimp
    2080:	10f8                	c.addi4spn	a4,sp,108
    2082:	0000                	c.unimp
    2084:	10f8                	c.addi4spn	a4,sp,108
    2086:	0000                	c.unimp
    2088:	10f8                	c.addi4spn	a4,sp,108
    208a:	0000                	c.unimp
    208c:	10f8                	c.addi4spn	a4,sp,108
    208e:	0000                	c.unimp
    2090:	10f8                	c.addi4spn	a4,sp,108
    2092:	0000                	c.unimp
    2094:	10f8                	c.addi4spn	a4,sp,108
    2096:	0000                	c.unimp
    2098:	10f8                	c.addi4spn	a4,sp,108
    209a:	0000                	c.unimp
    209c:	10f8                	c.addi4spn	a4,sp,108
    209e:	0000                	c.unimp
    20a0:	10f8                	c.addi4spn	a4,sp,108
    20a2:	0000                	c.unimp
    20a4:	10f8                	c.addi4spn	a4,sp,108
    20a6:	0000                	c.unimp
    20a8:	10f8                	c.addi4spn	a4,sp,108
    20aa:	0000                	c.unimp
    20ac:	10f8                	c.addi4spn	a4,sp,108
    20ae:	0000                	c.unimp
    20b0:	10f8                	c.addi4spn	a4,sp,108
    20b2:	0000                	c.unimp
    20b4:	10f8                	c.addi4spn	a4,sp,108
    20b6:	0000                	c.unimp
    20b8:	10f8                	c.addi4spn	a4,sp,108
    20ba:	0000                	c.unimp
    20bc:	10f8                	c.addi4spn	a4,sp,108
    20be:	0000                	c.unimp
    20c0:	10f8                	c.addi4spn	a4,sp,108
    20c2:	0000                	c.unimp
    20c4:	10f8                	c.addi4spn	a4,sp,108
    20c6:	0000                	c.unimp
    20c8:	0001                	c.addi	zero,0
    20ca:	00000013          	addi	zero,zero,0
    20ce:	00000013          	addi	zero,zero,0
    20d2:	00000013          	addi	zero,zero,0
    20d6:	00000013          	addi	zero,zero,0
    20da:	00000013          	addi	zero,zero,0
    20de:	00000013          	addi	zero,zero,0
    20e2:	00000013          	addi	zero,zero,0
    20e6:	00000013          	addi	zero,zero,0
    20ea:	00000013          	addi	zero,zero,0
    20ee:	00000013          	addi	zero,zero,0
    20f2:	00000013          	addi	zero,zero,0
    20f6:	00000013          	addi	zero,zero,0
    20fa:	00000013          	addi	zero,zero,0
    20fe:	00000013          	addi	zero,zero,0
    2102:	00000013          	addi	zero,zero,0
    2106:	00000013          	addi	zero,zero,0
    210a:	00000013          	addi	zero,zero,0
    210e:	00000013          	addi	zero,zero,0
    2112:	00000013          	addi	zero,zero,0
    2116:	00000013          	addi	zero,zero,0
    211a:	00000013          	addi	zero,zero,0
    211e:	00000013          	addi	zero,zero,0
    2122:	00000013          	addi	zero,zero,0
    2126:	00000013          	addi	zero,zero,0
    212a:	00000013          	addi	zero,zero,0
    212e:	00000013          	addi	zero,zero,0
    2132:	00000013          	addi	zero,zero,0
    2136:	00000013          	addi	zero,zero,0
    213a:	00000013          	addi	zero,zero,0
    213e:	00000013          	addi	zero,zero,0
    2142:	00000013          	addi	zero,zero,0
    2146:	00000013          	addi	zero,zero,0
    214a:	00000013          	addi	zero,zero,0
    214e:	00000013          	addi	zero,zero,0
    2152:	00000013          	addi	zero,zero,0
    2156:	00000013          	addi	zero,zero,0
    215a:	00000013          	addi	zero,zero,0
    215e:	00000013          	addi	zero,zero,0
    2162:	00000013          	addi	zero,zero,0
    2166:	00000013          	addi	zero,zero,0
    216a:	00000013          	addi	zero,zero,0
    216e:	00000013          	addi	zero,zero,0
    2172:	00000013          	addi	zero,zero,0
    2176:	00000013          	addi	zero,zero,0
    217a:	00000013          	addi	zero,zero,0
    217e:	00000013          	addi	zero,zero,0
    2182:	00000013          	addi	zero,zero,0
    2186:	00000013          	addi	zero,zero,0
    218a:	00000013          	addi	zero,zero,0
    218e:	00000013          	addi	zero,zero,0
    2192:	00000013          	addi	zero,zero,0
    2196:	00000013          	addi	zero,zero,0
    219a:	00000013          	addi	zero,zero,0
    219e:	00000013          	addi	zero,zero,0
    21a2:	00000013          	addi	zero,zero,0
    21a6:	00000013          	addi	zero,zero,0
    21aa:	00000013          	addi	zero,zero,0
    21ae:	00000013          	addi	zero,zero,0
    21b2:	00000013          	addi	zero,zero,0
    21b6:	00000013          	addi	zero,zero,0
    21ba:	00000013          	addi	zero,zero,0
    21be:	00000013          	addi	zero,zero,0
    21c2:	00000013          	addi	zero,zero,0
    21c6:	00000013          	addi	zero,zero,0
    21ca:	00000013          	addi	zero,zero,0
    21ce:	00000013          	addi	zero,zero,0
    21d2:	00000013          	addi	zero,zero,0
    21d6:	00000013          	addi	zero,zero,0
    21da:	00000013          	addi	zero,zero,0
    21de:	00000013          	addi	zero,zero,0
    21e2:	00000013          	addi	zero,zero,0
    21e6:	00000013          	addi	zero,zero,0
    21ea:	00000013          	addi	zero,zero,0
    21ee:	00000013          	addi	zero,zero,0
    21f2:	00000013          	addi	zero,zero,0
    21f6:	00000013          	addi	zero,zero,0
    21fa:	00000013          	addi	zero,zero,0
    21fe:	00000013          	addi	zero,zero,0
    2202:	00000013          	addi	zero,zero,0
    2206:	00000013          	addi	zero,zero,0
    220a:	00000013          	addi	zero,zero,0
    220e:	00000013          	addi	zero,zero,0
    2212:	00000013          	addi	zero,zero,0
    2216:	00000013          	addi	zero,zero,0
    221a:	00000013          	addi	zero,zero,0
    221e:	00000013          	addi	zero,zero,0
    2222:	00000013          	addi	zero,zero,0
    2226:	00000013          	addi	zero,zero,0
    222a:	00000013          	addi	zero,zero,0
    222e:	00000013          	addi	zero,zero,0
    2232:	00000013          	addi	zero,zero,0
    2236:	00000013          	addi	zero,zero,0
    223a:	00000013          	addi	zero,zero,0
    223e:	00000013          	addi	zero,zero,0
    2242:	00000013          	addi	zero,zero,0
    2246:	00000013          	addi	zero,zero,0
    224a:	00000013          	addi	zero,zero,0
    224e:	00000013          	addi	zero,zero,0
    2252:	00000013          	addi	zero,zero,0
    2256:	00000013          	addi	zero,zero,0
    225a:	00000013          	addi	zero,zero,0
    225e:	00000013          	addi	zero,zero,0
    2262:	00000013          	addi	zero,zero,0
    2266:	00000013          	addi	zero,zero,0
    226a:	00000013          	addi	zero,zero,0
    226e:	00000013          	addi	zero,zero,0
    2272:	00000013          	addi	zero,zero,0
    2276:	00000013          	addi	zero,zero,0
    227a:	00000013          	addi	zero,zero,0
    227e:	00000013          	addi	zero,zero,0
    2282:	00000013          	addi	zero,zero,0
    2286:	00000013          	addi	zero,zero,0
    228a:	00000013          	addi	zero,zero,0
    228e:	00000013          	addi	zero,zero,0
    2292:	00000013          	addi	zero,zero,0
    2296:	00000013          	addi	zero,zero,0
    229a:	00000013          	addi	zero,zero,0
    229e:	00000013          	addi	zero,zero,0
    22a2:	00000013          	addi	zero,zero,0
    22a6:	00000013          	addi	zero,zero,0
    22aa:	00000013          	addi	zero,zero,0
    22ae:	00000013          	addi	zero,zero,0
    22b2:	00000013          	addi	zero,zero,0
    22b6:	00000013          	addi	zero,zero,0
    22ba:	00000013          	addi	zero,zero,0
    22be:	00000013          	addi	zero,zero,0
    22c2:	00000013          	addi	zero,zero,0
    22c6:	00000013          	addi	zero,zero,0
    22ca:	00000013          	addi	zero,zero,0
    22ce:	00000013          	addi	zero,zero,0
    22d2:	00000013          	addi	zero,zero,0
    22d6:	00000013          	addi	zero,zero,0
    22da:	00000013          	addi	zero,zero,0
    22de:	00000013          	addi	zero,zero,0
    22e2:	00000013          	addi	zero,zero,0
    22e6:	00000013          	addi	zero,zero,0
    22ea:	00000013          	addi	zero,zero,0
    22ee:	00000013          	addi	zero,zero,0
    22f2:	00000013          	addi	zero,zero,0
    22f6:	00000013          	addi	zero,zero,0
    22fa:	00000013          	addi	zero,zero,0
    22fe:	00000013          	addi	zero,zero,0
    2302:	00000013          	addi	zero,zero,0
    2306:	00000013          	addi	zero,zero,0
    230a:	00000013          	addi	zero,zero,0
    230e:	00000013          	addi	zero,zero,0
    2312:	00000013          	addi	zero,zero,0
    2316:	00000013          	addi	zero,zero,0
    231a:	00000013          	addi	zero,zero,0
    231e:	00000013          	addi	zero,zero,0
    2322:	00000013          	addi	zero,zero,0
    2326:	00000013          	addi	zero,zero,0
    232a:	00000013          	addi	zero,zero,0
    232e:	00000013          	addi	zero,zero,0
    2332:	00000013          	addi	zero,zero,0
    2336:	00000013          	addi	zero,zero,0
    233a:	00000013          	addi	zero,zero,0
    233e:	00000013          	addi	zero,zero,0
    2342:	00000013          	addi	zero,zero,0
    2346:	00000013          	addi	zero,zero,0
    234a:	00000013          	addi	zero,zero,0
    234e:	00000013          	addi	zero,zero,0
    2352:	00000013          	addi	zero,zero,0
    2356:	00000013          	addi	zero,zero,0
    235a:	00000013          	addi	zero,zero,0
    235e:	00000013          	addi	zero,zero,0
    2362:	00000013          	addi	zero,zero,0
    2366:	00000013          	addi	zero,zero,0
    236a:	00000013          	addi	zero,zero,0
    236e:	00000013          	addi	zero,zero,0
    2372:	00000013          	addi	zero,zero,0
    2376:	00000013          	addi	zero,zero,0
    237a:	00000013          	addi	zero,zero,0
    237e:	00000013          	addi	zero,zero,0
    2382:	00000013          	addi	zero,zero,0
    2386:	00000013          	addi	zero,zero,0
    238a:	00000013          	addi	zero,zero,0
    238e:	00000013          	addi	zero,zero,0
    2392:	00000013          	addi	zero,zero,0
    2396:	00000013          	addi	zero,zero,0
    239a:	00000013          	addi	zero,zero,0
    239e:	00000013          	addi	zero,zero,0
    23a2:	00000013          	addi	zero,zero,0
    23a6:	00000013          	addi	zero,zero,0
    23aa:	00000013          	addi	zero,zero,0
    23ae:	00000013          	addi	zero,zero,0
    23b2:	00000013          	addi	zero,zero,0
    23b6:	00000013          	addi	zero,zero,0
    23ba:	00000013          	addi	zero,zero,0
    23be:	00000013          	addi	zero,zero,0
    23c2:	00000013          	addi	zero,zero,0
    23c6:	00000013          	addi	zero,zero,0
    23ca:	00000013          	addi	zero,zero,0
    23ce:	00000013          	addi	zero,zero,0
    23d2:	00000013          	addi	zero,zero,0
    23d6:	00000013          	addi	zero,zero,0
    23da:	00000013          	addi	zero,zero,0
    23de:	00000013          	addi	zero,zero,0
    23e2:	00000013          	addi	zero,zero,0
    23e6:	00000013          	addi	zero,zero,0
    23ea:	00000013          	addi	zero,zero,0
    23ee:	00000013          	addi	zero,zero,0
    23f2:	00000013          	addi	zero,zero,0
    23f6:	00000013          	addi	zero,zero,0
    23fa:	00000013          	addi	zero,zero,0
    23fe:	00000013          	addi	zero,zero,0
    2402:	00000013          	addi	zero,zero,0
    2406:	00000013          	addi	zero,zero,0
    240a:	00000013          	addi	zero,zero,0
    240e:	00000013          	addi	zero,zero,0
    2412:	00000013          	addi	zero,zero,0
    2416:	00000013          	addi	zero,zero,0
    241a:	00000013          	addi	zero,zero,0
    241e:	00000013          	addi	zero,zero,0
    2422:	00000013          	addi	zero,zero,0
    2426:	00000013          	addi	zero,zero,0
    242a:	00000013          	addi	zero,zero,0
    242e:	00000013          	addi	zero,zero,0
    2432:	00000013          	addi	zero,zero,0
    2436:	00000013          	addi	zero,zero,0
    243a:	00000013          	addi	zero,zero,0
    243e:	00000013          	addi	zero,zero,0
    2442:	00000013          	addi	zero,zero,0
    2446:	00000013          	addi	zero,zero,0
    244a:	00000013          	addi	zero,zero,0
    244e:	00000013          	addi	zero,zero,0
    2452:	00000013          	addi	zero,zero,0
    2456:	00000013          	addi	zero,zero,0
    245a:	00000013          	addi	zero,zero,0
    245e:	00000013          	addi	zero,zero,0
    2462:	00000013          	addi	zero,zero,0
    2466:	00000013          	addi	zero,zero,0
    246a:	00000013          	addi	zero,zero,0
    246e:	00000013          	addi	zero,zero,0
    2472:	00000013          	addi	zero,zero,0
    2476:	00000013          	addi	zero,zero,0
    247a:	00000013          	addi	zero,zero,0
    247e:	00000013          	addi	zero,zero,0
    2482:	00000013          	addi	zero,zero,0
    2486:	00000013          	addi	zero,zero,0
    248a:	00000013          	addi	zero,zero,0
    248e:	00000013          	addi	zero,zero,0
    2492:	00000013          	addi	zero,zero,0
    2496:	00000013          	addi	zero,zero,0
    249a:	00000013          	addi	zero,zero,0
    249e:	00000013          	addi	zero,zero,0
    24a2:	00000013          	addi	zero,zero,0
    24a6:	00000013          	addi	zero,zero,0
    24aa:	00000013          	addi	zero,zero,0
    24ae:	00000013          	addi	zero,zero,0
    24b2:	00000013          	addi	zero,zero,0
    24b6:	00000013          	addi	zero,zero,0
    24ba:	00000013          	addi	zero,zero,0
    24be:	00000013          	addi	zero,zero,0
    24c2:	00000013          	addi	zero,zero,0
    24c6:	00000013          	addi	zero,zero,0
    24ca:	00000013          	addi	zero,zero,0
    24ce:	00000013          	addi	zero,zero,0
    24d2:	00000013          	addi	zero,zero,0
    24d6:	00000013          	addi	zero,zero,0
    24da:	00000013          	addi	zero,zero,0
    24de:	00000013          	addi	zero,zero,0
    24e2:	00000013          	addi	zero,zero,0
    24e6:	00000013          	addi	zero,zero,0
    24ea:	00000013          	addi	zero,zero,0
    24ee:	00000013          	addi	zero,zero,0
    24f2:	00000013          	addi	zero,zero,0
    24f6:	00000013          	addi	zero,zero,0
    24fa:	00000013          	addi	zero,zero,0
    24fe:	00000013          	addi	zero,zero,0
    2502:	00000013          	addi	zero,zero,0
    2506:	00000013          	addi	zero,zero,0
    250a:	00000013          	addi	zero,zero,0
    250e:	00000013          	addi	zero,zero,0
    2512:	00000013          	addi	zero,zero,0
    2516:	00000013          	addi	zero,zero,0
    251a:	00000013          	addi	zero,zero,0
    251e:	00000013          	addi	zero,zero,0
    2522:	00000013          	addi	zero,zero,0
    2526:	00000013          	addi	zero,zero,0
    252a:	00000013          	addi	zero,zero,0
    252e:	00000013          	addi	zero,zero,0
    2532:	00000013          	addi	zero,zero,0
    2536:	00000013          	addi	zero,zero,0
    253a:	00000013          	addi	zero,zero,0
    253e:	00000013          	addi	zero,zero,0
    2542:	00000013          	addi	zero,zero,0
    2546:	00000013          	addi	zero,zero,0
    254a:	00000013          	addi	zero,zero,0
    254e:	00000013          	addi	zero,zero,0
    2552:	00000013          	addi	zero,zero,0
    2556:	00000013          	addi	zero,zero,0
    255a:	00000013          	addi	zero,zero,0
    255e:	00000013          	addi	zero,zero,0
    2562:	00000013          	addi	zero,zero,0
    2566:	00000013          	addi	zero,zero,0
    256a:	00000013          	addi	zero,zero,0
    256e:	00000013          	addi	zero,zero,0
    2572:	00000013          	addi	zero,zero,0
    2576:	00000013          	addi	zero,zero,0
    257a:	00000013          	addi	zero,zero,0
    257e:	00000013          	addi	zero,zero,0
    2582:	00000013          	addi	zero,zero,0
    2586:	00000013          	addi	zero,zero,0
    258a:	00000013          	addi	zero,zero,0
    258e:	00000013          	addi	zero,zero,0
    2592:	00000013          	addi	zero,zero,0
    2596:	00000013          	addi	zero,zero,0
    259a:	00000013          	addi	zero,zero,0
    259e:	00000013          	addi	zero,zero,0
    25a2:	00000013          	addi	zero,zero,0
    25a6:	00000013          	addi	zero,zero,0
    25aa:	00000013          	addi	zero,zero,0
    25ae:	00000013          	addi	zero,zero,0
    25b2:	00000013          	addi	zero,zero,0
    25b6:	00000013          	addi	zero,zero,0
    25ba:	00000013          	addi	zero,zero,0
    25be:	00000013          	addi	zero,zero,0
    25c2:	00000013          	addi	zero,zero,0
    25c6:	00000013          	addi	zero,zero,0
    25ca:	00000013          	addi	zero,zero,0
    25ce:	00000013          	addi	zero,zero,0
    25d2:	00000013          	addi	zero,zero,0
    25d6:	00000013          	addi	zero,zero,0
    25da:	00000013          	addi	zero,zero,0
    25de:	00000013          	addi	zero,zero,0
    25e2:	00000013          	addi	zero,zero,0
    25e6:	00000013          	addi	zero,zero,0
    25ea:	00000013          	addi	zero,zero,0
    25ee:	00000013          	addi	zero,zero,0
    25f2:	00000013          	addi	zero,zero,0
    25f6:	00000013          	addi	zero,zero,0
    25fa:	00000013          	addi	zero,zero,0
    25fe:	00000013          	addi	zero,zero,0
    2602:	00000013          	addi	zero,zero,0
    2606:	00000013          	addi	zero,zero,0
    260a:	00000013          	addi	zero,zero,0
    260e:	00000013          	addi	zero,zero,0
    2612:	00000013          	addi	zero,zero,0
    2616:	00000013          	addi	zero,zero,0
    261a:	00000013          	addi	zero,zero,0
    261e:	00000013          	addi	zero,zero,0
    2622:	00000013          	addi	zero,zero,0
    2626:	00000013          	addi	zero,zero,0
    262a:	00000013          	addi	zero,zero,0
    262e:	00000013          	addi	zero,zero,0
    2632:	00000013          	addi	zero,zero,0
    2636:	00000013          	addi	zero,zero,0
    263a:	00000013          	addi	zero,zero,0
    263e:	00000013          	addi	zero,zero,0
    2642:	00000013          	addi	zero,zero,0
    2646:	00000013          	addi	zero,zero,0
    264a:	00000013          	addi	zero,zero,0
    264e:	00000013          	addi	zero,zero,0
    2652:	00000013          	addi	zero,zero,0
    2656:	00000013          	addi	zero,zero,0
    265a:	00000013          	addi	zero,zero,0
    265e:	00000013          	addi	zero,zero,0
    2662:	00000013          	addi	zero,zero,0
    2666:	00000013          	addi	zero,zero,0
    266a:	00000013          	addi	zero,zero,0
    266e:	00000013          	addi	zero,zero,0
    2672:	00000013          	addi	zero,zero,0
    2676:	00000013          	addi	zero,zero,0
    267a:	00000013          	addi	zero,zero,0
    267e:	00000013          	addi	zero,zero,0
    2682:	00000013          	addi	zero,zero,0
    2686:	00000013          	addi	zero,zero,0
    268a:	00000013          	addi	zero,zero,0
    268e:	00000013          	addi	zero,zero,0
    2692:	00000013          	addi	zero,zero,0
    2696:	00000013          	addi	zero,zero,0
    269a:	00000013          	addi	zero,zero,0
    269e:	00000013          	addi	zero,zero,0
    26a2:	00000013          	addi	zero,zero,0
    26a6:	00000013          	addi	zero,zero,0
    26aa:	00000013          	addi	zero,zero,0
    26ae:	00000013          	addi	zero,zero,0
    26b2:	00000013          	addi	zero,zero,0
    26b6:	00000013          	addi	zero,zero,0
    26ba:	00000013          	addi	zero,zero,0
    26be:	00000013          	addi	zero,zero,0
    26c2:	00000013          	addi	zero,zero,0
    26c6:	00000013          	addi	zero,zero,0
    26ca:	00000013          	addi	zero,zero,0
    26ce:	00000013          	addi	zero,zero,0
    26d2:	00000013          	addi	zero,zero,0
    26d6:	00000013          	addi	zero,zero,0
    26da:	00000013          	addi	zero,zero,0
    26de:	00000013          	addi	zero,zero,0
    26e2:	00000013          	addi	zero,zero,0
    26e6:	00000013          	addi	zero,zero,0
    26ea:	00000013          	addi	zero,zero,0
    26ee:	00000013          	addi	zero,zero,0
    26f2:	00000013          	addi	zero,zero,0
    26f6:	00000013          	addi	zero,zero,0
    26fa:	00000013          	addi	zero,zero,0
    26fe:	00000013          	addi	zero,zero,0
    2702:	00000013          	addi	zero,zero,0
    2706:	00000013          	addi	zero,zero,0
    270a:	00000013          	addi	zero,zero,0
    270e:	00000013          	addi	zero,zero,0
    2712:	00000013          	addi	zero,zero,0
    2716:	00000013          	addi	zero,zero,0
    271a:	00000013          	addi	zero,zero,0
    271e:	00000013          	addi	zero,zero,0
    2722:	00000013          	addi	zero,zero,0
    2726:	00000013          	addi	zero,zero,0
    272a:	00000013          	addi	zero,zero,0
    272e:	00000013          	addi	zero,zero,0
    2732:	00000013          	addi	zero,zero,0
    2736:	00000013          	addi	zero,zero,0
    273a:	00000013          	addi	zero,zero,0
    273e:	00000013          	addi	zero,zero,0
    2742:	00000013          	addi	zero,zero,0
    2746:	00000013          	addi	zero,zero,0
    274a:	00000013          	addi	zero,zero,0
    274e:	00000013          	addi	zero,zero,0
    2752:	00000013          	addi	zero,zero,0
    2756:	00000013          	addi	zero,zero,0
    275a:	00000013          	addi	zero,zero,0
    275e:	00000013          	addi	zero,zero,0
    2762:	00000013          	addi	zero,zero,0
    2766:	00000013          	addi	zero,zero,0
    276a:	00000013          	addi	zero,zero,0
    276e:	00000013          	addi	zero,zero,0
    2772:	00000013          	addi	zero,zero,0
    2776:	00000013          	addi	zero,zero,0
    277a:	00000013          	addi	zero,zero,0
    277e:	00000013          	addi	zero,zero,0
    2782:	00000013          	addi	zero,zero,0
    2786:	00000013          	addi	zero,zero,0
    278a:	00000013          	addi	zero,zero,0
    278e:	00000013          	addi	zero,zero,0
    2792:	00000013          	addi	zero,zero,0
    2796:	00000013          	addi	zero,zero,0
    279a:	00000013          	addi	zero,zero,0
    279e:	00000013          	addi	zero,zero,0
    27a2:	00000013          	addi	zero,zero,0
    27a6:	00000013          	addi	zero,zero,0
    27aa:	00000013          	addi	zero,zero,0
    27ae:	00000013          	addi	zero,zero,0
    27b2:	00000013          	addi	zero,zero,0
    27b6:	00000013          	addi	zero,zero,0
    27ba:	00000013          	addi	zero,zero,0
    27be:	00000013          	addi	zero,zero,0
    27c2:	00000013          	addi	zero,zero,0
    27c6:	00000013          	addi	zero,zero,0
    27ca:	00000013          	addi	zero,zero,0
    27ce:	00000013          	addi	zero,zero,0
    27d2:	00000013          	addi	zero,zero,0
    27d6:	00000013          	addi	zero,zero,0
    27da:	00000013          	addi	zero,zero,0
    27de:	00000013          	addi	zero,zero,0
    27e2:	00000013          	addi	zero,zero,0
    27e6:	00000013          	addi	zero,zero,0
    27ea:	00000013          	addi	zero,zero,0
    27ee:	00000013          	addi	zero,zero,0
    27f2:	00000013          	addi	zero,zero,0
    27f6:	00000013          	addi	zero,zero,0
    27fa:	00000013          	addi	zero,zero,0
    27fe:	00000013          	addi	zero,zero,0
    2802:	00000013          	addi	zero,zero,0
    2806:	00000013          	addi	zero,zero,0
    280a:	00000013          	addi	zero,zero,0
    280e:	00000013          	addi	zero,zero,0
    2812:	00000013          	addi	zero,zero,0
    2816:	00000013          	addi	zero,zero,0
    281a:	00000013          	addi	zero,zero,0
    281e:	00000013          	addi	zero,zero,0
    2822:	00000013          	addi	zero,zero,0
    2826:	00000013          	addi	zero,zero,0
    282a:	00000013          	addi	zero,zero,0
    282e:	00000013          	addi	zero,zero,0
    2832:	00000013          	addi	zero,zero,0
    2836:	00000013          	addi	zero,zero,0
    283a:	00000013          	addi	zero,zero,0
    283e:	00000013          	addi	zero,zero,0
    2842:	00000013          	addi	zero,zero,0
    2846:	00000013          	addi	zero,zero,0
    284a:	00000013          	addi	zero,zero,0
    284e:	00000013          	addi	zero,zero,0
    2852:	00000013          	addi	zero,zero,0
    2856:	00000013          	addi	zero,zero,0
    285a:	00000013          	addi	zero,zero,0
    285e:	00000013          	addi	zero,zero,0
    2862:	00000013          	addi	zero,zero,0
    2866:	00000013          	addi	zero,zero,0
    286a:	00000013          	addi	zero,zero,0
    286e:	00000013          	addi	zero,zero,0
    2872:	00000013          	addi	zero,zero,0
    2876:	00000013          	addi	zero,zero,0
    287a:	00000013          	addi	zero,zero,0
    287e:	00000013          	addi	zero,zero,0
    2882:	00000013          	addi	zero,zero,0
    2886:	00000013          	addi	zero,zero,0
    288a:	00000013          	addi	zero,zero,0
    288e:	00000013          	addi	zero,zero,0
    2892:	00000013          	addi	zero,zero,0
    2896:	00000013          	addi	zero,zero,0
    289a:	00000013          	addi	zero,zero,0
    289e:	00000013          	addi	zero,zero,0
    28a2:	00000013          	addi	zero,zero,0
    28a6:	00000013          	addi	zero,zero,0
    28aa:	00000013          	addi	zero,zero,0
    28ae:	00000013          	addi	zero,zero,0
    28b2:	00000013          	addi	zero,zero,0
    28b6:	00000013          	addi	zero,zero,0
    28ba:	00000013          	addi	zero,zero,0
    28be:	00000013          	addi	zero,zero,0
    28c2:	00000013          	addi	zero,zero,0
    28c6:	00000013          	addi	zero,zero,0
    28ca:	00000013          	addi	zero,zero,0
    28ce:	00000013          	addi	zero,zero,0
    28d2:	00000013          	addi	zero,zero,0
    28d6:	00000013          	addi	zero,zero,0
    28da:	00000013          	addi	zero,zero,0
    28de:	00000013          	addi	zero,zero,0
    28e2:	00000013          	addi	zero,zero,0
    28e6:	00000013          	addi	zero,zero,0
    28ea:	00000013          	addi	zero,zero,0
    28ee:	00000013          	addi	zero,zero,0
    28f2:	00000013          	addi	zero,zero,0
    28f6:	00000013          	addi	zero,zero,0
    28fa:	00000013          	addi	zero,zero,0
    28fe:	00000013          	addi	zero,zero,0
    2902:	00000013          	addi	zero,zero,0
    2906:	00000013          	addi	zero,zero,0
    290a:	00000013          	addi	zero,zero,0
    290e:	00000013          	addi	zero,zero,0
    2912:	00000013          	addi	zero,zero,0
    2916:	00000013          	addi	zero,zero,0
    291a:	00000013          	addi	zero,zero,0
    291e:	00000013          	addi	zero,zero,0
    2922:	00000013          	addi	zero,zero,0
    2926:	00000013          	addi	zero,zero,0
    292a:	00000013          	addi	zero,zero,0
    292e:	00000013          	addi	zero,zero,0
    2932:	00000013          	addi	zero,zero,0
    2936:	00000013          	addi	zero,zero,0
    293a:	00000013          	addi	zero,zero,0
    293e:	00000013          	addi	zero,zero,0
    2942:	00000013          	addi	zero,zero,0
    2946:	00000013          	addi	zero,zero,0
    294a:	00000013          	addi	zero,zero,0
    294e:	00000013          	addi	zero,zero,0
    2952:	00000013          	addi	zero,zero,0
    2956:	00000013          	addi	zero,zero,0
    295a:	00000013          	addi	zero,zero,0
    295e:	00000013          	addi	zero,zero,0
    2962:	00000013          	addi	zero,zero,0
    2966:	00000013          	addi	zero,zero,0
    296a:	00000013          	addi	zero,zero,0
    296e:	00000013          	addi	zero,zero,0
    2972:	00000013          	addi	zero,zero,0
    2976:	00000013          	addi	zero,zero,0
    297a:	00000013          	addi	zero,zero,0
    297e:	00000013          	addi	zero,zero,0
    2982:	00000013          	addi	zero,zero,0
    2986:	00000013          	addi	zero,zero,0
    298a:	00000013          	addi	zero,zero,0
    298e:	00000013          	addi	zero,zero,0
    2992:	00000013          	addi	zero,zero,0
    2996:	00000013          	addi	zero,zero,0
    299a:	00000013          	addi	zero,zero,0
    299e:	00000013          	addi	zero,zero,0
    29a2:	00000013          	addi	zero,zero,0
    29a6:	00000013          	addi	zero,zero,0
    29aa:	00000013          	addi	zero,zero,0
    29ae:	00000013          	addi	zero,zero,0
    29b2:	00000013          	addi	zero,zero,0
    29b6:	00000013          	addi	zero,zero,0
    29ba:	00000013          	addi	zero,zero,0
    29be:	00000013          	addi	zero,zero,0
    29c2:	00000013          	addi	zero,zero,0
    29c6:	00000013          	addi	zero,zero,0
    29ca:	00000013          	addi	zero,zero,0
    29ce:	00000013          	addi	zero,zero,0
    29d2:	00000013          	addi	zero,zero,0
    29d6:	00000013          	addi	zero,zero,0
    29da:	00000013          	addi	zero,zero,0
    29de:	00000013          	addi	zero,zero,0
    29e2:	00000013          	addi	zero,zero,0
    29e6:	00000013          	addi	zero,zero,0
    29ea:	00000013          	addi	zero,zero,0
    29ee:	00000013          	addi	zero,zero,0
    29f2:	00000013          	addi	zero,zero,0
    29f6:	00000013          	addi	zero,zero,0
    29fa:	00000013          	addi	zero,zero,0
    29fe:	00000013          	addi	zero,zero,0
    2a02:	00000013          	addi	zero,zero,0
    2a06:	00000013          	addi	zero,zero,0
    2a0a:	00000013          	addi	zero,zero,0
    2a0e:	00000013          	addi	zero,zero,0
    2a12:	00000013          	addi	zero,zero,0
    2a16:	00000013          	addi	zero,zero,0
    2a1a:	00000013          	addi	zero,zero,0
    2a1e:	00000013          	addi	zero,zero,0
    2a22:	00000013          	addi	zero,zero,0
    2a26:	00000013          	addi	zero,zero,0
    2a2a:	00000013          	addi	zero,zero,0
    2a2e:	00000013          	addi	zero,zero,0
    2a32:	00000013          	addi	zero,zero,0
    2a36:	00000013          	addi	zero,zero,0
    2a3a:	00000013          	addi	zero,zero,0
    2a3e:	00000013          	addi	zero,zero,0
    2a42:	00000013          	addi	zero,zero,0
    2a46:	00000013          	addi	zero,zero,0
    2a4a:	00000013          	addi	zero,zero,0
    2a4e:	00000013          	addi	zero,zero,0
    2a52:	00000013          	addi	zero,zero,0
    2a56:	00000013          	addi	zero,zero,0
    2a5a:	00000013          	addi	zero,zero,0
    2a5e:	00000013          	addi	zero,zero,0
    2a62:	00000013          	addi	zero,zero,0
    2a66:	00000013          	addi	zero,zero,0
    2a6a:	00000013          	addi	zero,zero,0
    2a6e:	00000013          	addi	zero,zero,0
    2a72:	00000013          	addi	zero,zero,0
    2a76:	00000013          	addi	zero,zero,0
    2a7a:	00000013          	addi	zero,zero,0
    2a7e:	00000013          	addi	zero,zero,0
    2a82:	00000013          	addi	zero,zero,0
    2a86:	00000013          	addi	zero,zero,0
    2a8a:	00000013          	addi	zero,zero,0
    2a8e:	00000013          	addi	zero,zero,0
    2a92:	00000013          	addi	zero,zero,0
    2a96:	00000013          	addi	zero,zero,0
    2a9a:	00000013          	addi	zero,zero,0
    2a9e:	00000013          	addi	zero,zero,0
    2aa2:	00000013          	addi	zero,zero,0
    2aa6:	00000013          	addi	zero,zero,0
    2aaa:	00000013          	addi	zero,zero,0
    2aae:	00000013          	addi	zero,zero,0
    2ab2:	00000013          	addi	zero,zero,0
    2ab6:	00000013          	addi	zero,zero,0
    2aba:	00000013          	addi	zero,zero,0
    2abe:	00000013          	addi	zero,zero,0
    2ac2:	00000013          	addi	zero,zero,0
    2ac6:	00000013          	addi	zero,zero,0
    2aca:	00000013          	addi	zero,zero,0
    2ace:	00000013          	addi	zero,zero,0
    2ad2:	00000013          	addi	zero,zero,0
    2ad6:	00000013          	addi	zero,zero,0
    2ada:	00000013          	addi	zero,zero,0
    2ade:	00000013          	addi	zero,zero,0
    2ae2:	00000013          	addi	zero,zero,0
    2ae6:	00000013          	addi	zero,zero,0
    2aea:	00000013          	addi	zero,zero,0
    2aee:	00000013          	addi	zero,zero,0
    2af2:	00000013          	addi	zero,zero,0
    2af6:	00000013          	addi	zero,zero,0
    2afa:	00000013          	addi	zero,zero,0
    2afe:	00000013          	addi	zero,zero,0
    2b02:	00000013          	addi	zero,zero,0
    2b06:	00000013          	addi	zero,zero,0
    2b0a:	00000013          	addi	zero,zero,0
    2b0e:	00000013          	addi	zero,zero,0
    2b12:	00000013          	addi	zero,zero,0
    2b16:	00000013          	addi	zero,zero,0
    2b1a:	00000013          	addi	zero,zero,0
    2b1e:	00000013          	addi	zero,zero,0
    2b22:	00000013          	addi	zero,zero,0
    2b26:	00000013          	addi	zero,zero,0
    2b2a:	00000013          	addi	zero,zero,0
    2b2e:	00000013          	addi	zero,zero,0
    2b32:	00000013          	addi	zero,zero,0
    2b36:	00000013          	addi	zero,zero,0
    2b3a:	00000013          	addi	zero,zero,0
    2b3e:	00000013          	addi	zero,zero,0
    2b42:	00000013          	addi	zero,zero,0
    2b46:	00000013          	addi	zero,zero,0
    2b4a:	00000013          	addi	zero,zero,0
    2b4e:	00000013          	addi	zero,zero,0
    2b52:	00000013          	addi	zero,zero,0
    2b56:	00000013          	addi	zero,zero,0
    2b5a:	00000013          	addi	zero,zero,0
    2b5e:	00000013          	addi	zero,zero,0
    2b62:	00000013          	addi	zero,zero,0
    2b66:	00000013          	addi	zero,zero,0
    2b6a:	00000013          	addi	zero,zero,0
    2b6e:	00000013          	addi	zero,zero,0
    2b72:	00000013          	addi	zero,zero,0
    2b76:	00000013          	addi	zero,zero,0
    2b7a:	00000013          	addi	zero,zero,0
    2b7e:	00000013          	addi	zero,zero,0
    2b82:	00000013          	addi	zero,zero,0
    2b86:	00000013          	addi	zero,zero,0
    2b8a:	00000013          	addi	zero,zero,0
    2b8e:	00000013          	addi	zero,zero,0
    2b92:	00000013          	addi	zero,zero,0
    2b96:	00000013          	addi	zero,zero,0
    2b9a:	00000013          	addi	zero,zero,0
    2b9e:	00000013          	addi	zero,zero,0
    2ba2:	00000013          	addi	zero,zero,0
    2ba6:	00000013          	addi	zero,zero,0
    2baa:	00000013          	addi	zero,zero,0
    2bae:	00000013          	addi	zero,zero,0
    2bb2:	00000013          	addi	zero,zero,0
    2bb6:	00000013          	addi	zero,zero,0
    2bba:	00000013          	addi	zero,zero,0
    2bbe:	00000013          	addi	zero,zero,0
    2bc2:	00000013          	addi	zero,zero,0
    2bc6:	00000013          	addi	zero,zero,0
    2bca:	00000013          	addi	zero,zero,0
    2bce:	00000013          	addi	zero,zero,0
    2bd2:	00000013          	addi	zero,zero,0
    2bd6:	00000013          	addi	zero,zero,0
    2bda:	00000013          	addi	zero,zero,0
    2bde:	00000013          	addi	zero,zero,0
    2be2:	00000013          	addi	zero,zero,0
    2be6:	00000013          	addi	zero,zero,0
    2bea:	00000013          	addi	zero,zero,0
    2bee:	00000013          	addi	zero,zero,0
    2bf2:	00000013          	addi	zero,zero,0
    2bf6:	00000013          	addi	zero,zero,0
    2bfa:	00000013          	addi	zero,zero,0
    2bfe:	00000013          	addi	zero,zero,0
    2c02:	00000013          	addi	zero,zero,0
    2c06:	00000013          	addi	zero,zero,0
    2c0a:	00000013          	addi	zero,zero,0
    2c0e:	00000013          	addi	zero,zero,0
    2c12:	00000013          	addi	zero,zero,0
    2c16:	00000013          	addi	zero,zero,0
    2c1a:	00000013          	addi	zero,zero,0
    2c1e:	00000013          	addi	zero,zero,0
    2c22:	00000013          	addi	zero,zero,0
    2c26:	00000013          	addi	zero,zero,0
    2c2a:	00000013          	addi	zero,zero,0
    2c2e:	00000013          	addi	zero,zero,0
    2c32:	00000013          	addi	zero,zero,0
    2c36:	00000013          	addi	zero,zero,0
    2c3a:	00000013          	addi	zero,zero,0
    2c3e:	00000013          	addi	zero,zero,0
    2c42:	00000013          	addi	zero,zero,0
    2c46:	00000013          	addi	zero,zero,0
    2c4a:	00000013          	addi	zero,zero,0
    2c4e:	00000013          	addi	zero,zero,0
    2c52:	00000013          	addi	zero,zero,0
    2c56:	00000013          	addi	zero,zero,0
    2c5a:	00000013          	addi	zero,zero,0
    2c5e:	00000013          	addi	zero,zero,0
    2c62:	00000013          	addi	zero,zero,0
    2c66:	00000013          	addi	zero,zero,0
    2c6a:	00000013          	addi	zero,zero,0
    2c6e:	00000013          	addi	zero,zero,0
    2c72:	00000013          	addi	zero,zero,0
    2c76:	00000013          	addi	zero,zero,0
    2c7a:	00000013          	addi	zero,zero,0
    2c7e:	00000013          	addi	zero,zero,0
    2c82:	00000013          	addi	zero,zero,0
    2c86:	00000013          	addi	zero,zero,0
    2c8a:	00000013          	addi	zero,zero,0
    2c8e:	00000013          	addi	zero,zero,0
    2c92:	00000013          	addi	zero,zero,0
    2c96:	00000013          	addi	zero,zero,0
    2c9a:	00000013          	addi	zero,zero,0
    2c9e:	00000013          	addi	zero,zero,0
    2ca2:	00000013          	addi	zero,zero,0
    2ca6:	00000013          	addi	zero,zero,0
    2caa:	00000013          	addi	zero,zero,0
    2cae:	00000013          	addi	zero,zero,0
    2cb2:	00000013          	addi	zero,zero,0
    2cb6:	00000013          	addi	zero,zero,0
    2cba:	00000013          	addi	zero,zero,0
    2cbe:	00000013          	addi	zero,zero,0
    2cc2:	00000013          	addi	zero,zero,0
    2cc6:	00000013          	addi	zero,zero,0
    2cca:	00000013          	addi	zero,zero,0
    2cce:	00000013          	addi	zero,zero,0
    2cd2:	00000013          	addi	zero,zero,0
    2cd6:	00000013          	addi	zero,zero,0
    2cda:	00000013          	addi	zero,zero,0
    2cde:	00000013          	addi	zero,zero,0
    2ce2:	00000013          	addi	zero,zero,0
    2ce6:	00000013          	addi	zero,zero,0
    2cea:	00000013          	addi	zero,zero,0
    2cee:	00000013          	addi	zero,zero,0
    2cf2:	00000013          	addi	zero,zero,0
    2cf6:	00000013          	addi	zero,zero,0
    2cfa:	00000013          	addi	zero,zero,0
    2cfe:	00000013          	addi	zero,zero,0
    2d02:	00000013          	addi	zero,zero,0
    2d06:	00000013          	addi	zero,zero,0
    2d0a:	00000013          	addi	zero,zero,0
    2d0e:	00000013          	addi	zero,zero,0
    2d12:	00000013          	addi	zero,zero,0
    2d16:	00000013          	addi	zero,zero,0
    2d1a:	00000013          	addi	zero,zero,0
    2d1e:	00000013          	addi	zero,zero,0
    2d22:	00000013          	addi	zero,zero,0
    2d26:	00000013          	addi	zero,zero,0
    2d2a:	00000013          	addi	zero,zero,0
    2d2e:	00000013          	addi	zero,zero,0
    2d32:	00000013          	addi	zero,zero,0
    2d36:	00000013          	addi	zero,zero,0
    2d3a:	00000013          	addi	zero,zero,0
    2d3e:	00000013          	addi	zero,zero,0
    2d42:	00000013          	addi	zero,zero,0
    2d46:	00000013          	addi	zero,zero,0
    2d4a:	00000013          	addi	zero,zero,0
    2d4e:	00000013          	addi	zero,zero,0
    2d52:	00000013          	addi	zero,zero,0
    2d56:	00000013          	addi	zero,zero,0
    2d5a:	00000013          	addi	zero,zero,0
    2d5e:	00000013          	addi	zero,zero,0
    2d62:	00000013          	addi	zero,zero,0
    2d66:	00000013          	addi	zero,zero,0
    2d6a:	00000013          	addi	zero,zero,0
    2d6e:	00000013          	addi	zero,zero,0
    2d72:	00000013          	addi	zero,zero,0
    2d76:	00000013          	addi	zero,zero,0
    2d7a:	00000013          	addi	zero,zero,0
    2d7e:	00000013          	addi	zero,zero,0
    2d82:	00000013          	addi	zero,zero,0
    2d86:	00000013          	addi	zero,zero,0
    2d8a:	00000013          	addi	zero,zero,0
    2d8e:	00000013          	addi	zero,zero,0
    2d92:	00000013          	addi	zero,zero,0
    2d96:	00000013          	addi	zero,zero,0
    2d9a:	00000013          	addi	zero,zero,0
    2d9e:	00000013          	addi	zero,zero,0
    2da2:	00000013          	addi	zero,zero,0
    2da6:	00000013          	addi	zero,zero,0
    2daa:	00000013          	addi	zero,zero,0
    2dae:	00000013          	addi	zero,zero,0
    2db2:	00000013          	addi	zero,zero,0
    2db6:	00000013          	addi	zero,zero,0
    2dba:	00000013          	addi	zero,zero,0
    2dbe:	00000013          	addi	zero,zero,0
    2dc2:	00000013          	addi	zero,zero,0
    2dc6:	00000013          	addi	zero,zero,0
    2dca:	00000013          	addi	zero,zero,0
    2dce:	00000013          	addi	zero,zero,0
    2dd2:	00000013          	addi	zero,zero,0
    2dd6:	00000013          	addi	zero,zero,0
    2dda:	00000013          	addi	zero,zero,0
    2dde:	00000013          	addi	zero,zero,0
    2de2:	00000013          	addi	zero,zero,0
    2de6:	00000013          	addi	zero,zero,0
    2dea:	00000013          	addi	zero,zero,0
    2dee:	00000013          	addi	zero,zero,0
    2df2:	00000013          	addi	zero,zero,0
    2df6:	00000013          	addi	zero,zero,0
    2dfa:	00000013          	addi	zero,zero,0
    2dfe:	00000013          	addi	zero,zero,0
    2e02:	00000013          	addi	zero,zero,0
    2e06:	00000013          	addi	zero,zero,0
    2e0a:	00000013          	addi	zero,zero,0
    2e0e:	00000013          	addi	zero,zero,0
    2e12:	00000013          	addi	zero,zero,0
    2e16:	00000013          	addi	zero,zero,0
    2e1a:	00000013          	addi	zero,zero,0
    2e1e:	00000013          	addi	zero,zero,0
    2e22:	00000013          	addi	zero,zero,0
    2e26:	00000013          	addi	zero,zero,0
    2e2a:	00000013          	addi	zero,zero,0
    2e2e:	00000013          	addi	zero,zero,0
    2e32:	00000013          	addi	zero,zero,0
	...

00002e38 <__platform_init>:
    2e38:	f14022f3          	csrrs	t0,mhartid,zero
    2e3c:	00028c63          	beq	t0,zero,2e54 <ilm_check>
    2e40:	e00802b7          	lui	t0,0xe0080
    2e44:	01234337          	lui	t1,0x1234
    2e48:	56830313          	addi	t1,t1,1384 # 1234568 <VPE_PASS>
    2e4c:	0062a023          	sw	t1,0(t0) # e0080000 <__start_addr+0x6007fff0>
    2e50:	10500073          	wfi

00002e54 <ilm_check>:
    2e54:	fc0022f3          	csrrs	t0,micm_cfg,zero
    2e58:	00f2d293          	srli	t0,t0,0xf
    2e5c:	03f2f293          	andi	t0,t0,63
    2e60:	00028463          	beq	t0,zero,2e68 <dlm_check>

00002e64 <ilm_tunon>:
    2e64:	7c00e073          	csrrsi	zero,milmb,1

00002e68 <dlm_check>:
    2e68:	fc1022f3          	csrrs	t0,mdcm_cfg,zero
    2e6c:	00f2d293          	srli	t0,t0,0xf
    2e70:	03f2f293          	andi	t0,t0,63
    2e74:	00028463          	beq	t0,zero,2e7c <init_rodata>

00002e78 <dlm_tunon>:
    2e78:	7c10e073          	csrrsi	zero,mdlmb,1

00002e7c <init_rodata>:
    2e7c:	ff0d928b          	addigp	t0,-6160 # 200000 <__DATA_BASE>
    2e80:	00007317          	auipc	t1,0x7
    2e84:	9c830313          	addi	t1,t1,-1592 # 9848 <rodata_lma>
    2e88:	d71d950b          	addigp	a0,-4752 # 200580 <rodata_end>
    2e8c:	00032403          	lw	s0,0(t1)
    2e90:	0082a023          	sw	s0,0(t0)
    2e94:	0311                	c.addi	t1,4
    2e96:	0291                	c.addi	t0,4
    2e98:	fea2cae3          	blt	t0,a0,2e8c <init_rodata+0x10>

00002e9c <ic_check>:
    2e9c:	fc0022f3          	csrrs	t0,micm_cfg,zero
    2ea0:	0062d293          	srli	t0,t0,0x6
    2ea4:	0072f293          	andi	t0,t0,7
    2ea8:	00028863          	beq	t0,zero,2eb8 <dc_check>

00002eac <ic_turnon>:
    2eac:	7ca022f3          	csrrs	t0,mcache_ctl,zero
    2eb0:	0012e293          	ori	t0,t0,1
    2eb4:	7ca29073          	csrrw	zero,mcache_ctl,t0

00002eb8 <dc_check>:
    2eb8:	fc1022f3          	csrrs	t0,mdcm_cfg,zero
    2ebc:	0062d293          	srli	t0,t0,0x6
    2ec0:	0072f293          	andi	t0,t0,7
    2ec4:	00028863          	beq	t0,zero,2ed4 <end_of_cacheset>

00002ec8 <dc_turnon>:
    2ec8:	7ca022f3          	csrrs	t0,mcache_ctl,zero
    2ecc:	0022e293          	ori	t0,t0,2
    2ed0:	7ca29073          	csrrw	zero,mcache_ctl,t0

00002ed4 <end_of_cacheset>:
    2ed4:	8082                	c.jr	ra

00002ed6 <trap_handler>:
    2ed6:	e00802b7          	lui	t0,0xe0080
    2eda:	01234337          	lui	t1,0x1234
    2ede:	56930313          	addi	t1,t1,1385 # 1234569 <VPE_FAIL>
    2ee2:	0062a023          	sw	t1,0(t0) # e0080000 <__start_addr+0x6007fff0>
    2ee6:	a001                	c.j	2ee6 <trap_handler+0x10>

00002ee8 <printf>:
    2ee8:	00008067          	jalr	zero,0(ra)

00002eec <iprintf>:
    2eec:	00008067          	jalr	zero,0(ra)

00002ef0 <puts>:
    2ef0:	00008067          	jalr	zero,0(ra)

00002ef4 <putchar>:
    2ef4:	00008067          	jalr	zero,0(ra)

00002ef8 <scanf>:
    2ef8:	06400513          	addi	a0,zero,100
    2efc:	c188                	c.sw	a0,0(a1)
    2efe:	8082                	c.jr	ra

00002f00 <time>:
    2f00:	00008067          	jalr	zero,0(ra)

00002f04 <malloc>:
    2f04:	ff0f958b          	addigp	a1,-2064 # 201000 <__data_start>
    2f08:	4188                	c.lw	a0,0(a1)
    2f0a:	10050613          	addi	a2,a0,256
    2f0e:	c190                	c.sw	a2,0(a1)
    2f10:	00008067          	jalr	zero,0(ra)

00002f14 <reset_handler>:
    2f14:	7f00158b          	addigp	a1,2032 # 202000 <__global_pointer$+0x7f0>
    2f18:	fc058593          	addi	a1,a1,-64
    2f1c:	4501                	c.li	a0,0
    2f1e:	812e                	c.mv	sp,a1
    2f20:	420010ef          	jal	ra,4340 <main>
    2f24:	e00802b7          	lui	t0,0xe0080
    2f28:	01234337          	lui	t1,0x1234
    2f2c:	56830313          	addi	t1,t1,1384 # 1234568 <VPE_PASS>
    2f30:	0062a023          	sw	t1,0(t0) # e0080000 <__start_addr+0x6007fff0>
    2f34:	a001                	c.j	2f34 <reset_handler+0x20>
    2f36:	0001                	c.addi	zero,0

00002f38 <portable_malloc>:
    2f38:	4501                	c.li	a0,0
    2f3a:	8082                	c.jr	ra

00002f3c <portable_free>:
    2f3c:	00008067          	jalr	zero,0(ra)

00002f40 <start_time>:
    2f40:	1141                	c.addi	sp,-16
    2f42:	4501                	c.li	a0,0
    2f44:	c606                	c.swsp	ra,12(sp)
    2f46:	3f6d                	c.jal	2f00 <time>
    2f48:	40b2                	c.lwsp	ra,12(sp)
    2f4a:	819f928b          	addigp	t0,-2024 # 201028 <start_time_val>
    2f4e:	41f55713          	srai	a4,a0,0x1f
    2f52:	00a2a023          	sw	a0,0(t0)
    2f56:	00e2a223          	sw	a4,4(t0)
    2f5a:	0141                	c.addi	sp,16
    2f5c:	00008067          	jalr	zero,0(ra)

00002f60 <stop_time>:
    2f60:	1141                	c.addi	sp,-16
    2f62:	4501                	c.li	a0,0
    2f64:	c606                	c.swsp	ra,12(sp)
    2f66:	3f69                	c.jal	2f00 <time>
    2f68:	40b2                	c.lwsp	ra,12(sp)
    2f6a:	811f928b          	addigp	t0,-2032 # 201020 <__bss_start>
    2f6e:	41f55713          	srai	a4,a0,0x1f
    2f72:	00a2a023          	sw	a0,0(t0)
    2f76:	00e2a223          	sw	a4,4(t0)
    2f7a:	0141                	c.addi	sp,16
    2f7c:	00008067          	jalr	zero,0(ra)

00002f80 <get_time>:
    2f80:	813fa52b          	lwgp	a0,-2032 # 201020 <__bss_start>
    2f84:	81bfa32b          	lwgp	t1,-2024 # 201028 <start_time_val>
    2f88:	40650533          	sub	a0,a0,t1
    2f8c:	00008067          	jalr	zero,0(ra)

00002f90 <time_in_secs>:
    2f90:	106257b7          	lui	a5,0x10625
    2f94:	dd378293          	addi	t0,a5,-557 # 10624dd3 <VPE_FAIL+0xf3f086a>
    2f98:	02553733          	mulhu	a4,a0,t0
    2f9c:	857d                	c.srai	a0,0x1f
    2f9e:	00557333          	and	t1,a0,t0
    2fa2:	406703b3          	sub	t2,a4,t1
    2fa6:	4063d593          	srai	a1,t2,0x6
    2faa:	40a58533          	sub	a0,a1,a0
    2fae:	8082                	c.jr	ra

00002fb0 <portable_init>:
    2fb0:	4785                	c.li	a5,1
    2fb2:	00f50023          	sb	a5,0(a0)
    2fb6:	8082                	c.jr	ra

00002fb8 <portable_fini>:
    2fb8:	00050023          	sb	zero,0(a0)
    2fbc:	8082                	c.jr	ra
    2fbe:	0001                	c.addi	zero,0

00002fc0 <calc_func>:
    2fc0:	1101                	c.addi	sp,-32
    2fc2:	cc22                	c.swsp	s0,24(sp)
    2fc4:	00051403          	lh	s0,0(a0)
    2fc8:	ce06                	c.swsp	ra,28(sp)
    2fca:	ca26                	c.swsp	s1,20(sp)
    2fcc:	c84a                	c.swsp	s2,16(sp)
    2fce:	c64e                	c.swsp	s3,12(sp)
    2fd0:	00747c5b          	bbc	s0,7,2fe8 <calc_func+0x28>
    2fd4:	40f2                	c.lwsp	ra,28(sp)
    2fd6:	07f47513          	andi	a0,s0,127
    2fda:	4462                	c.lwsp	s0,24(sp)
    2fdc:	44d2                	c.lwsp	s1,20(sp)
    2fde:	4942                	c.lwsp	s2,16(sp)
    2fe0:	49b2                	c.lwsp	s3,12(sp)
    2fe2:	6105                	c.addi16sp	sp,32
    2fe4:	00008067          	jalr	zero,0(ra)
    2fe8:	1834285b          	bfoz	a6,s0,6,3
    2fec:	00481793          	slli	a5,a6,0x4
    2ff0:	00747713          	andi	a4,s0,7
    2ff4:	892a                	c.mv	s2,a0
    2ff6:	84ae                	c.mv	s1,a1
    2ff8:	0107e0b3          	or	ra,a5,a6
    2ffc:	cf15                	c.beqz	a4,3038 <calc_func+0x78>
    2ffe:	06175b5b          	beqc	a4,1,3074 <calc_func+0xb4>
    3002:	89a2                	c.mv	s3,s0
    3004:	3c04255b          	bfoz	a0,s0,15,0
    3008:	0384d583          	lhu	a1,56(s1)
    300c:	18c060ef          	jal	ra,9198 <crcu16>
    3010:	f0047613          	andi	a2,s0,-256
    3014:	85aa                	c.mv	a1,a0
    3016:	07f9f513          	andi	a0,s3,127
    301a:	00c566b3          	or	a3,a0,a2
    301e:	02b49c23          	sh	a1,56(s1)
    3022:	40f2                	c.lwsp	ra,28(sp)
    3024:	4462                	c.lwsp	s0,24(sp)
    3026:	0806ee13          	ori	t3,a3,128
    302a:	01c91023          	sh	t3,0(s2)
    302e:	44d2                	c.lwsp	s1,20(sp)
    3030:	4942                	c.lwsp	s2,16(sp)
    3032:	49b2                	c.lwsp	s3,12(sp)
    3034:	6105                	c.addi16sp	sp,32
    3036:	8082                	c.jr	ra
    3038:	00259683          	lh	a3,2(a1)
    303c:	00059603          	lh	a2,0(a1)
    3040:	02200893          	addi	a7,zero,34
    3044:	00008293          	addi	t0,ra,0
    3048:	0385d783          	lhu	a5,56(a1)
    304c:	0110d463          	bge	ra,a7,3054 <calc_func+0x94>
    3050:	02200293          	addi	t0,zero,34
    3054:	49cc                	c.lw	a1,20(a1)
    3056:	4c88                	c.lw	a0,24(s1)
    3058:	3c02b75b          	bfos	a4,t0,15,0
    305c:	704050ef          	jal	ra,8760 <core_bench_state>
    3060:	03e4d303          	lhu	t1,62(s1)
    3064:	3c0539db          	bfos	s3,a0,15,0
    3068:	fa0310e3          	bne	t1,zero,3008 <calc_func+0x48>
    306c:	02a49f23          	sh	a0,62(s1)
    3070:	f99ff06f          	jal	zero,3008 <calc_func+0x48>
    3074:	0385d603          	lhu	a2,56(a1)
    3078:	02848513          	addi	a0,s1,40
    307c:	00008593          	addi	a1,ra,0
    3080:	1e1010ef          	jal	ra,4a60 <core_bench_matrix>
    3084:	03c4d383          	lhu	t2,60(s1)
    3088:	3c0539db          	bfos	s3,a0,15,0
    308c:	f6039ee3          	bne	t2,zero,3008 <calc_func+0x48>
    3090:	02a49e23          	sh	a0,60(s1)
    3094:	f75ff06f          	jal	zero,3008 <calc_func+0x48>

00003098 <cmp_complex>:
    3098:	1101                	c.addi	sp,-32
    309a:	ca26                	c.swsp	s1,20(sp)
    309c:	00051483          	lh	s1,0(a0)
    30a0:	cc22                	c.swsp	s0,24(sp)
    30a2:	c84a                	c.swsp	s2,16(sp)
    30a4:	ce06                	c.swsp	ra,28(sp)
    30a6:	c64e                	c.swsp	s3,12(sp)
    30a8:	c452                	c.swsp	s4,8(sp)
    30aa:	892e                	c.mv	s2,a1
    30ac:	00060413          	addi	s0,a2,0
    30b0:	0874fa5b          	bbc	s1,7,3144 <cmp_complex+0xac>
    30b4:	07f4fa13          	andi	s4,s1,127
    30b8:	00091483          	lh	s1,0(s2)
    30bc:	0074fe5b          	bbc	s1,7,30d8 <cmp_complex+0x40>
    30c0:	40f2                	c.lwsp	ra,28(sp)
    30c2:	4462                	c.lwsp	s0,24(sp)
    30c4:	07f4f713          	andi	a4,s1,127
    30c8:	4942                	c.lwsp	s2,16(sp)
    30ca:	44d2                	c.lwsp	s1,20(sp)
    30cc:	49b2                	c.lwsp	s3,12(sp)
    30ce:	40ea0533          	sub	a0,s4,a4
    30d2:	4a22                	c.lwsp	s4,8(sp)
    30d4:	6105                	c.addi16sp	sp,32
    30d6:	8082                	c.jr	ra
    30d8:	1834a6db          	bfoz	a3,s1,6,3
    30dc:	00469e13          	slli	t3,a3,0x4
    30e0:	0074fe93          	andi	t4,s1,7
    30e4:	01c6ef33          	or	t5,a3,t3
    30e8:	0a0e8463          	beq	t4,zero,3190 <cmp_complex+0xf8>
    30ec:	081eee5b          	bnec	t4,1,3188 <cmp_complex+0xf0>
    30f0:	03845603          	lhu	a2,56(s0)
    30f4:	000f0593          	addi	a1,t5,0
    30f8:	02840513          	addi	a0,s0,40
    30fc:	165010ef          	jal	ra,4a60 <core_bench_matrix>
    3100:	03c45803          	lhu	a6,60(s0)
    3104:	3c0539db          	bfos	s3,a0,15,0
    3108:	00081463          	bne	a6,zero,3110 <cmp_complex+0x78>
    310c:	02a41e23          	sh	a0,60(s0)
    3110:	03845583          	lhu	a1,56(s0)
    3114:	084060ef          	jal	ra,9198 <crcu16>
    3118:	07f9f713          	andi	a4,s3,127
    311c:	f004f893          	andi	a7,s1,-256
    3120:	011762b3          	or	t0,a4,a7
    3124:	02a41c23          	sh	a0,56(s0)
    3128:	0802e413          	ori	s0,t0,128
    312c:	00891023          	sh	s0,0(s2)
    3130:	40f2                	c.lwsp	ra,28(sp)
    3132:	4462                	c.lwsp	s0,24(sp)
    3134:	44d2                	c.lwsp	s1,20(sp)
    3136:	4942                	c.lwsp	s2,16(sp)
    3138:	49b2                	c.lwsp	s3,12(sp)
    313a:	40ea0533          	sub	a0,s4,a4
    313e:	4a22                	c.lwsp	s4,8(sp)
    3140:	6105                	c.addi16sp	sp,32
    3142:	8082                	c.jr	ra
    3144:	1834a7db          	bfoz	a5,s1,6,3
    3148:	00479813          	slli	a6,a5,0x4
    314c:	0074f713          	andi	a4,s1,7
    3150:	89aa                	c.mv	s3,a0
    3152:	0107e0b3          	or	ra,a5,a6
    3156:	cb59                	c.beqz	a4,31ec <cmp_complex+0x154>
    3158:	0617585b          	beqc	a4,1,31c8 <cmp_complex+0x130>
    315c:	00048a13          	addi	s4,s1,0
    3160:	3c04a55b          	bfoz	a0,s1,15,0
    3164:	03845583          	lhu	a1,56(s0)
    3168:	07fa7a13          	andi	s4,s4,127
    316c:	02c060ef          	jal	ra,9198 <crcu16>
    3170:	f004f593          	andi	a1,s1,-256
    3174:	00ba6633          	or	a2,s4,a1
    3178:	02a41c23          	sh	a0,56(s0)
    317c:	08066513          	ori	a0,a2,128
    3180:	00a99023          	sh	a0,0(s3)
    3184:	f35ff06f          	jal	zero,30b8 <cmp_complex+0x20>
    3188:	89a6                	c.mv	s3,s1
    318a:	3c04a55b          	bfoz	a0,s1,15,0
    318e:	b749                	c.j	3110 <cmp_complex+0x78>
    3190:	02200f93          	addi	t6,zero,34
    3194:	000f0993          	addi	s3,t5,0
    3198:	00241683          	lh	a3,2(s0)
    319c:	00041603          	lh	a2,0(s0)
    31a0:	01ff5463          	bge	t5,t6,31a8 <cmp_complex+0x110>
    31a4:	02200993          	addi	s3,zero,34
    31a8:	03845783          	lhu	a5,56(s0)
    31ac:	484c                	c.lw	a1,20(s0)
    31ae:	4c08                	c.lw	a0,24(s0)
    31b0:	3c09b75b          	bfos	a4,s3,15,0
    31b4:	5ac050ef          	jal	ra,8760 <core_bench_state>
    31b8:	03e45783          	lhu	a5,62(s0)
    31bc:	3c0539db          	bfos	s3,a0,15,0
    31c0:	fba1                	c.bnez	a5,3110 <cmp_complex+0x78>
    31c2:	02a41f23          	sh	a0,62(s0)
    31c6:	b7a9                	c.j	3110 <cmp_complex+0x78>
    31c8:	03865603          	lhu	a2,56(a2)
    31cc:	00008593          	addi	a1,ra,0
    31d0:	02840513          	addi	a0,s0,40
    31d4:	08d010ef          	jal	ra,4a60 <core_bench_matrix>
    31d8:	03c45383          	lhu	t2,60(s0)
    31dc:	3c053a5b          	bfos	s4,a0,15,0
    31e0:	f80392e3          	bne	t2,zero,3164 <cmp_complex+0xcc>
    31e4:	02a41e23          	sh	a0,60(s0)
    31e8:	f7dff06f          	jal	zero,3164 <cmp_complex+0xcc>
    31ec:	00261683          	lh	a3,2(a2)
    31f0:	02200893          	addi	a7,zero,34
    31f4:	00008293          	addi	t0,ra,0
    31f8:	00061603          	lh	a2,0(a2)
    31fc:	0110d463          	bge	ra,a7,3204 <cmp_complex+0x16c>
    3200:	02200293          	addi	t0,zero,34
    3204:	03845783          	lhu	a5,56(s0)
    3208:	484c                	c.lw	a1,20(s0)
    320a:	4c08                	c.lw	a0,24(s0)
    320c:	3c02b75b          	bfos	a4,t0,15,0
    3210:	550050ef          	jal	ra,8760 <core_bench_state>
    3214:	03e45303          	lhu	t1,62(s0)
    3218:	3c053a5b          	bfos	s4,a0,15,0
    321c:	f40314e3          	bne	t1,zero,3164 <cmp_complex+0xcc>
    3220:	02a41f23          	sh	a0,62(s0)
    3224:	f41ff06f          	jal	zero,3164 <cmp_complex+0xcc>

00003228 <cmp_idx>:
    3228:	ca01                	c.beqz	a2,3238 <cmp_idx+0x10>
    322a:	00251503          	lh	a0,2(a0)
    322e:	00259583          	lh	a1,2(a1)
    3232:	8d0d                	c.sub	a0,a1
    3234:	00008067          	jalr	zero,0(ra)
    3238:	00051783          	lh	a5,0(a0)
    323c:	f007f713          	andi	a4,a5,-256
    3240:	3c87a2db          	bfoz	t0,a5,15,8
    3244:	00576333          	or	t1,a4,t0
    3248:	00651023          	sh	t1,0(a0)
    324c:	00059383          	lh	t2,0(a1)
    3250:	00251503          	lh	a0,2(a0)
    3254:	f003f613          	andi	a2,t2,-256
    3258:	3c83a6db          	bfoz	a3,t2,15,8
    325c:	00d66833          	or	a6,a2,a3
    3260:	01059023          	sh	a6,0(a1)
    3264:	00259583          	lh	a1,2(a1)
    3268:	8d0d                	c.sub	a0,a1
    326a:	8082                	c.jr	ra

0000326c <copy_info>:
    326c:	00059703          	lh	a4,0(a1)
    3270:	00259783          	lh	a5,2(a1)
    3274:	00e51023          	sh	a4,0(a0)
    3278:	00f51123          	sh	a5,2(a0)
    327c:	00008067          	jalr	zero,0(ra)

00003280 <core_bench_list>:
    3280:	00451303          	lh	t1,4(a0)
    3284:	711d                	c.addi16sp	sp,-96
    3286:	cca2                	c.swsp	s0,88(sp)
    3288:	d86a                	c.swsp	s10,48(sp)
    328a:	ce86                	c.swsp	ra,92(sp)
    328c:	caa6                	c.swsp	s1,84(sp)
    328e:	c8ca                	c.swsp	s2,80(sp)
    3290:	c6ce                	c.swsp	s3,76(sp)
    3292:	c4d2                	c.swsp	s4,72(sp)
    3294:	c2d6                	c.swsp	s5,68(sp)
    3296:	c0da                	c.swsp	s6,64(sp)
    3298:	de5e                	c.swsp	s7,60(sp)
    329a:	dc62                	c.swsp	s8,56(sp)
    329c:	da66                	c.swsp	s9,52(sp)
    329e:	d66e                	c.swsp	s11,44(sp)
    32a0:	c602                	c.swsp	zero,12(sp)
    32a2:	c82e                	c.swsp	a1,16(sp)
    32a4:	5140                	c.lw	s0,36(a0)
    32a6:	8d2a                	c.mv	s10,a0
    32a8:	8e2e                	c.mv	t3,a1
    32aa:	106053e3          	bge	zero,t1,3bb0 <core_bench_list+0x930>
    32ae:	4f01                	c.li	t5,0
    32b0:	4501                	c.li	a0,0
    32b2:	4681                	c.li	a3,0
    32b4:	00000893          	addi	a7,zero,0
    32b8:	0ff6f593          	andi	a1,a3,255
    32bc:	40c2                	c.lwsp	ra,16(sp)
    32be:	c62e                	c.swsp	a1,12(sp)
    32c0:	87a2                	c.mv	a5,s0
    32c2:	5000cf63          	blt	ra,zero,37e0 <core_bench_list+0x560>
    32c6:	e409                	c.bnez	s0,32d0 <core_bench_list+0x50>
    32c8:	5340006f          	jal	zero,37fc <core_bench_list+0x57c>
    32cc:	439c                	c.lw	a5,0(a5)
    32ce:	cb89                	c.beqz	a5,32e0 <core_bench_list+0x60>
    32d0:	0047a383          	lw	t2,4(a5)
    32d4:	01012803          	lw	a6,16(sp)
    32d8:	00239603          	lh	a2,2(t2) # 8002 <matrix_add_const+0x162>
    32dc:	ff0618e3          	bne	a2,a6,32cc <core_bench_list+0x4c>
    32e0:	00042903          	lw	s2,0(s0)
    32e4:	00000813          	addi	a6,zero,0
    32e8:	01042023          	sw	a6,0(s0)
    32ec:	08090263          	beq	s2,zero,3370 <core_bench_list+0xf0>
    32f0:	8822                	c.mv	a6,s0
    32f2:	00092983          	lw	s3,0(s2)
    32f6:	01092023          	sw	a6,0(s2)
    32fa:	844a                	c.mv	s0,s2
    32fc:	06098a63          	beq	s3,zero,3370 <core_bench_list+0xf0>
    3300:	0009aa03          	lw	s4,0(s3)
    3304:	0129a023          	sw	s2,0(s3)
    3308:	884a                	c.mv	a6,s2
    330a:	844e                	c.mv	s0,s3
    330c:	060a0263          	beq	s4,zero,3370 <core_bench_list+0xf0>
    3310:	000a2a83          	lw	s5,0(s4)
    3314:	013a2023          	sw	s3,0(s4)
    3318:	884e                	c.mv	a6,s3
    331a:	8452                	c.mv	s0,s4
    331c:	040a8a63          	beq	s5,zero,3370 <core_bench_list+0xf0>
    3320:	000aab03          	lw	s6,0(s5)
    3324:	014aa023          	sw	s4,0(s5)
    3328:	8852                	c.mv	a6,s4
    332a:	8456                	c.mv	s0,s5
    332c:	040b0263          	beq	s6,zero,3370 <core_bench_list+0xf0>
    3330:	000b2b83          	lw	s7,0(s6)
    3334:	015b2023          	sw	s5,0(s6)
    3338:	8856                	c.mv	a6,s5
    333a:	845a                	c.mv	s0,s6
    333c:	020b8a63          	beq	s7,zero,3370 <core_bench_list+0xf0>
    3340:	000bac03          	lw	s8,0(s7)
    3344:	016ba023          	sw	s6,0(s7)
    3348:	885a                	c.mv	a6,s6
    334a:	845e                	c.mv	s0,s7
    334c:	020c0263          	beq	s8,zero,3370 <core_bench_list+0xf0>
    3350:	000c2c83          	lw	s9,0(s8)
    3354:	017c2023          	sw	s7,0(s8)
    3358:	885e                	c.mv	a6,s7
    335a:	8462                	c.mv	s0,s8
    335c:	000c8a63          	beq	s9,zero,3370 <core_bench_list+0xf0>
    3360:	8466                	c.mv	s0,s9
    3362:	00042903          	lw	s2,0(s0)
    3366:	8862                	c.mv	a6,s8
    3368:	01042023          	sw	a6,0(s0)
    336c:	f80912e3          	bne	s2,zero,32f0 <core_bench_list+0x70>
    3370:	48078a63          	beq	a5,zero,3804 <core_bench_list+0x584>
    3374:	0047ad83          	lw	s11,4(a5)
    3378:	0007af83          	lw	t6,0(a5)
    337c:	000d9e83          	lh	t4,0(s11)
    3380:	00150513          	addi	a0,a0,1
    3384:	3c05255b          	bfoz	a0,a0,15,0
    3388:	249ea5db          	bfoz	a1,t4,9,9
    338c:	00b880b3          	add	ra,a7,a1
    3390:	000ef45b          	bbc	t4,0,3398 <core_bench_list+0x118>
    3394:	3c00a8db          	bfoz	a7,ra,15,0
    3398:	000f8c63          	beq	t6,zero,33b0 <core_bench_list+0x130>
    339c:	000fa703          	lw	a4,0(t6)
    33a0:	00e7a023          	sw	a4,0(a5)
    33a4:	00042283          	lw	t0,0(s0)
    33a8:	005fa023          	sw	t0,0(t6)
    33ac:	01f42023          	sw	t6,0(s0)
    33b0:	4942                	c.lwsp	s2,16(sp)
    33b2:	2e094d63          	blt	s2,zero,36ac <core_bench_list+0x42c>
    33b6:	00190b93          	addi	s7,s2,1
    33ba:	00168c13          	addi	s8,a3,1
    33be:	3c0bbcdb          	bfos	s9,s7,15,0
    33c2:	3c0c36db          	bfos	a3,s8,15,0
    33c6:	c866                	c.swsp	s9,16(sp)
    33c8:	eed318e3          	bne	t1,a3,32b8 <core_bench_list+0x38>
    33cc:	0ca8835b          	lea.w	t1,a7,a0
    33d0:	41e30db3          	sub	s11,t1,t5
    33d4:	3c0daedb          	bfoz	t4,s11,15,0
    33d8:	01d12e23          	sw	t4,28(sp)
    33dc:	53c04063          	blt	zero,t3,38fc <core_bench_list+0x67c>
    33e0:	00042f03          	lw	t5,0(s0)
    33e4:	4bc2                	c.lwsp	s7,16(sp)
    33e6:	000f2903          	lw	s2,0(t5)
    33ea:	004f2a83          	lw	s5,4(t5)
    33ee:	00492883          	lw	a7,4(s2)
    33f2:	00092b03          	lw	s6,0(s2)
    33f6:	011f2223          	sw	a7,4(t5)
    33fa:	01592223          	sw	s5,4(s2)
    33fe:	016f2023          	sw	s6,0(t5)
    3402:	00092023          	sw	zero,0(s2)
    3406:	8aa2                	c.mv	s5,s0
    3408:	7a0bca63          	blt	s7,zero,3bbc <core_bench_list+0x93c>
    340c:	e411                	c.bnez	s0,3418 <core_bench_list+0x198>
    340e:	a1cd                	c.j	38f0 <core_bench_list+0x670>
    3410:	000aaa83          	lw	s5,0(s5)
    3414:	4c0a8e63          	beq	s5,zero,38f0 <core_bench_list+0x670>
    3418:	004aa303          	lw	t1,4(s5)
    341c:	01012e83          	lw	t4,16(sp)
    3420:	00231d83          	lh	s11,2(t1)
    3424:	ffdd96e3          	bne	s11,t4,3410 <core_bench_list+0x190>
    3428:	00442e03          	lw	t3,4(s0)
    342c:	01c12583          	lw	a1,28(sp)
    3430:	000e1503          	lh	a0,0(t3)
    3434:	1fc060ef          	jal	ra,9630 <crc16>
    3438:	000aad03          	lw	s10,0(s5)
    343c:	ce2a                	c.swsp	a0,28(sp)
    343e:	85aa                	c.mv	a1,a0
    3440:	0a0d0663          	beq	s10,zero,34ec <core_bench_list+0x26c>
    3444:	00442f83          	lw	t6,4(s0)
    3448:	000f9503          	lh	a0,0(t6)
    344c:	1e4060ef          	jal	ra,9630 <crc16>
    3450:	000d2a03          	lw	s4,0(s10)
    3454:	ce2a                	c.swsp	a0,28(sp)
    3456:	85aa                	c.mv	a1,a0
    3458:	080a0a63          	beq	s4,zero,34ec <core_bench_list+0x26c>
    345c:	00442083          	lw	ra,4(s0)
    3460:	00009503          	lh	a0,0(ra)
    3464:	1cc060ef          	jal	ra,9630 <crc16>
    3468:	000a2483          	lw	s1,0(s4)
    346c:	ce2a                	c.swsp	a0,28(sp)
    346e:	85aa                	c.mv	a1,a0
    3470:	06048e63          	beq	s1,zero,34ec <core_bench_list+0x26c>
    3474:	00442283          	lw	t0,4(s0)
    3478:	00029503          	lh	a0,0(t0)
    347c:	1b4060ef          	jal	ra,9630 <crc16>
    3480:	0004a983          	lw	s3,0(s1)
    3484:	ce2a                	c.swsp	a0,28(sp)
    3486:	85aa                	c.mv	a1,a0
    3488:	06098263          	beq	s3,zero,34ec <core_bench_list+0x26c>
    348c:	00442703          	lw	a4,4(s0)
    3490:	00071503          	lh	a0,0(a4) # 2000 <_trap_entry_vclic>
    3494:	19c060ef          	jal	ra,9630 <crc16>
    3498:	0009aa83          	lw	s5,0(s3)
    349c:	ce2a                	c.swsp	a0,28(sp)
    349e:	85aa                	c.mv	a1,a0
    34a0:	040a8663          	beq	s5,zero,34ec <core_bench_list+0x26c>
    34a4:	00442383          	lw	t2,4(s0)
    34a8:	00039503          	lh	a0,0(t2)
    34ac:	184060ef          	jal	ra,9630 <crc16>
    34b0:	000aab03          	lw	s6,0(s5)
    34b4:	ce2a                	c.swsp	a0,28(sp)
    34b6:	85aa                	c.mv	a1,a0
    34b8:	020b0a63          	beq	s6,zero,34ec <core_bench_list+0x26c>
    34bc:	00442503          	lw	a0,4(s0)
    34c0:	00051503          	lh	a0,0(a0)
    34c4:	16c060ef          	jal	ra,9630 <crc16>
    34c8:	000b2b83          	lw	s7,0(s6)
    34cc:	ce2a                	c.swsp	a0,28(sp)
    34ce:	85aa                	c.mv	a1,a0
    34d0:	000b8e63          	beq	s7,zero,34ec <core_bench_list+0x26c>
    34d4:	00442c83          	lw	s9,4(s0)
    34d8:	000c9503          	lh	a0,0(s9)
    34dc:	154060ef          	jal	ra,9630 <crc16>
    34e0:	000baa83          	lw	s5,0(s7)
    34e4:	00a12e23          	sw	a0,28(sp)
    34e8:	f40a90e3          	bne	s5,zero,3428 <core_bench_list+0x1a8>
    34ec:	400c                	c.lw	a1,0(s0)
    34ee:	00492783          	lw	a5,4(s2)
    34f2:	41d0                	c.lw	a2,4(a1)
    34f4:	0005a803          	lw	a6,0(a1)
    34f8:	00c92223          	sw	a2,4(s2)
    34fc:	c1dc                	c.sw	a5,4(a1)
    34fe:	01092023          	sw	a6,0(s2)
    3502:	0125a023          	sw	s2,0(a1)
    3506:	4685                	c.li	a3,1
    3508:	16040263          	beq	s0,zero,366c <core_bench_list+0x3ec>
    350c:	4581                	c.li	a1,0
    350e:	4981                	c.li	s3,0
    3510:	00000493          	addi	s1,zero,0
    3514:	0076f913          	andi	s2,a3,7
    3518:	8c22                	c.mv	s8,s0
    351a:	0585                	c.addi	a1,1
    351c:	4c81                	c.li	s9,0
    351e:	06090963          	beq	s2,zero,3590 <core_bench_list+0x310>
    3522:	04195f5b          	beqc	s2,1,3580 <core_bench_list+0x300>
    3526:	0429575b          	beqc	s2,2,3574 <core_bench_list+0x2f4>
    352a:	02395f5b          	beqc	s2,3,3568 <core_bench_list+0x2e8>
    352e:	0249575b          	beqc	s2,4,355c <core_bench_list+0x2dc>
    3532:	00595f5b          	beqc	s2,5,3550 <core_bench_list+0x2d0>
    3536:	0069575b          	beqc	s2,6,3544 <core_bench_list+0x2c4>
    353a:	00042c03          	lw	s8,0(s0)
    353e:	4c85                	c.li	s9,1
    3540:	0a0c0863          	beq	s8,zero,35f0 <core_bench_list+0x370>
    3544:	000c2c03          	lw	s8,0(s8)
    3548:	001c8c93          	addi	s9,s9,1
    354c:	0a0c0263          	beq	s8,zero,35f0 <core_bench_list+0x370>
    3550:	000c2c03          	lw	s8,0(s8)
    3554:	001c8c93          	addi	s9,s9,1
    3558:	080c0c63          	beq	s8,zero,35f0 <core_bench_list+0x370>
    355c:	000c2c03          	lw	s8,0(s8)
    3560:	001c8c93          	addi	s9,s9,1
    3564:	080c0663          	beq	s8,zero,35f0 <core_bench_list+0x370>
    3568:	000c2c03          	lw	s8,0(s8)
    356c:	001c8c93          	addi	s9,s9,1
    3570:	080c0063          	beq	s8,zero,35f0 <core_bench_list+0x370>
    3574:	000c2c03          	lw	s8,0(s8)
    3578:	001c8c93          	addi	s9,s9,1
    357c:	060c0a63          	beq	s8,zero,35f0 <core_bench_list+0x370>
    3580:	000c2c03          	lw	s8,0(s8)
    3584:	001c8c93          	addi	s9,s9,1
    3588:	060c0463          	beq	s8,zero,35f0 <core_bench_list+0x370>
    358c:	06dc8263          	beq	s9,a3,35f0 <core_bench_list+0x370>
    3590:	000c2c03          	lw	s8,0(s8)
    3594:	0c85                	c.addi	s9,1
    3596:	88e6                	c.mv	a7,s9
    3598:	040c0c63          	beq	s8,zero,35f0 <core_bench_list+0x370>
    359c:	000c2c03          	lw	s8,0(s8)
    35a0:	001c8c93          	addi	s9,s9,1
    35a4:	040c0663          	beq	s8,zero,35f0 <core_bench_list+0x370>
    35a8:	000c2c03          	lw	s8,0(s8)
    35ac:	00288c93          	addi	s9,a7,2
    35b0:	040c0063          	beq	s8,zero,35f0 <core_bench_list+0x370>
    35b4:	000c2c03          	lw	s8,0(s8)
    35b8:	00388c93          	addi	s9,a7,3
    35bc:	020c0a63          	beq	s8,zero,35f0 <core_bench_list+0x370>
    35c0:	000c2c03          	lw	s8,0(s8)
    35c4:	00488c93          	addi	s9,a7,4
    35c8:	020c0463          	beq	s8,zero,35f0 <core_bench_list+0x370>
    35cc:	000c2c03          	lw	s8,0(s8)
    35d0:	00588c93          	addi	s9,a7,5
    35d4:	000c0e63          	beq	s8,zero,35f0 <core_bench_list+0x370>
    35d8:	000c2c03          	lw	s8,0(s8)
    35dc:	00688c93          	addi	s9,a7,6
    35e0:	000c0863          	beq	s8,zero,35f0 <core_bench_list+0x370>
    35e4:	000c2c03          	lw	s8,0(s8)
    35e8:	00788c93          	addi	s9,a7,7
    35ec:	fa0c10e3          	bne	s8,zero,358c <core_bench_list+0x30c>
    35f0:	83a2                	c.mv	t2,s0
    35f2:	8636                	c.mv	a2,a3
    35f4:	000c0413          	addi	s0,s8,0
    35f8:	060c8063          	beq	s9,zero,3658 <core_bench_list+0x3d8>
    35fc:	ca51                	c.beqz	a2,3690 <core_bench_list+0x410>
    35fe:	c849                	c.beqz	s0,3690 <core_bench_list+0x410>
    3600:	0043a903          	lw	s2,4(t2)
    3604:	00442803          	lw	a6,4(s0)
    3608:	00091783          	lh	a5,0(s2)
    360c:	00281883          	lh	a7,2(a6)
    3610:	00291503          	lh	a0,2(s2)
    3614:	f007fc13          	andi	s8,a5,-256
    3618:	3c87af5b          	bfoz	t5,a5,15,8
    361c:	01ec6333          	or	t1,s8,t5
    3620:	00691023          	sh	t1,0(s2)
    3624:	00081d83          	lh	s11,0(a6)
    3628:	41150eb3          	sub	t4,a0,a7
    362c:	f00dfd13          	andi	s10,s11,-256
    3630:	3c8dae5b          	bfoz	t3,s11,15,8
    3634:	01cd6a33          	or	s4,s10,t3
    3638:	01481023          	sh	s4,0(a6)
    363c:	05d05a63          	bge	zero,t4,3690 <core_bench_list+0x410>
    3640:	8fa2                	c.mv	t6,s0
    3642:	167d                	c.addi	a2,-1
    3644:	00042403          	lw	s0,0(s0)
    3648:	04098a63          	beq	s3,zero,369c <core_bench_list+0x41c>
    364c:	01f9a023          	sw	t6,0(s3)
    3650:	000f8993          	addi	s3,t6,0
    3654:	fa0c94e3          	bne	s9,zero,35fc <core_bench_list+0x37c>
    3658:	c631                	c.beqz	a2,36a4 <core_bench_list+0x424>
    365a:	f07d                	c.bnez	s0,3640 <core_bench_list+0x3c0>
    365c:	0009a023          	sw	zero,0(s3)
    3660:	1c15d25b          	beqc	a1,1,3824 <core_bench_list+0x5a4>
    3664:	8426                	c.mv	s0,s1
    3666:	0686                	c.slli	a3,0x1
    3668:	ea0412e3          	bne	s0,zero,350c <core_bench_list+0x28c>
    366c:	00002023          	sw	zero,0(zero) # 0 <__TEXT_BASE>
    3670:	40f6                	c.lwsp	ra,92(sp)
    3672:	4466                	c.lwsp	s0,88(sp)
    3674:	4572                	c.lwsp	a0,28(sp)
    3676:	44d6                	c.lwsp	s1,84(sp)
    3678:	4946                	c.lwsp	s2,80(sp)
    367a:	49b6                	c.lwsp	s3,76(sp)
    367c:	4a26                	c.lwsp	s4,72(sp)
    367e:	4a96                	c.lwsp	s5,68(sp)
    3680:	4b06                	c.lwsp	s6,64(sp)
    3682:	5bf2                	c.lwsp	s7,60(sp)
    3684:	5c62                	c.lwsp	s8,56(sp)
    3686:	5cd2                	c.lwsp	s9,52(sp)
    3688:	5d42                	c.lwsp	s10,48(sp)
    368a:	5db2                	c.lwsp	s11,44(sp)
    368c:	6125                	c.addi16sp	sp,96
    368e:	8082                	c.jr	ra
    3690:	8f9e                	c.mv	t6,t2
    3692:	1cfd                	c.addi	s9,-1
    3694:	0003a383          	lw	t2,0(t2)
    3698:	fa099ae3          	bne	s3,zero,364c <core_bench_list+0x3cc>
    369c:	84fe                	c.mv	s1,t6
    369e:	89fe                	c.mv	s3,t6
    36a0:	fb5ff06f          	jal	zero,3654 <core_bench_list+0x3d4>
    36a4:	e60418e3          	bne	s0,zero,3514 <core_bench_list+0x294>
    36a8:	fb5ff06f          	jal	zero,365c <core_bench_list+0x3dc>
    36ac:	0685                	c.addi	a3,1
    36ae:	3c06b6db          	bfos	a3,a3,15,0
    36b2:	d0d30de3          	beq	t1,a3,33cc <core_bench_list+0x14c>
    36b6:	0ff6f993          	andi	s3,a3,255
    36ba:	c64e                	c.swsp	s3,12(sp)
    36bc:	10040263          	beq	s0,zero,37c0 <core_bench_list+0x540>
    36c0:	8ba2                	c.mv	s7,s0
    36c2:	a029                	c.j	36cc <core_bench_list+0x44c>
    36c4:	000bab83          	lw	s7,0(s7)
    36c8:	000b8a63          	beq	s7,zero,36dc <core_bench_list+0x45c>
    36cc:	004baa03          	lw	s4,4(s7)
    36d0:	00c12b03          	lw	s6,12(sp)
    36d4:	000a4a83          	lbu	s5,0(s4)
    36d8:	ff6a96e3          	bne	s5,s6,36c4 <core_bench_list+0x444>
    36dc:	00042c03          	lw	s8,0(s0)
    36e0:	00000b13          	addi	s6,zero,0
    36e4:	01642023          	sw	s6,0(s0)
    36e8:	080c0263          	beq	s8,zero,376c <core_bench_list+0x4ec>
    36ec:	8b22                	c.mv	s6,s0
    36ee:	000c2c83          	lw	s9,0(s8)
    36f2:	016c2023          	sw	s6,0(s8)
    36f6:	8462                	c.mv	s0,s8
    36f8:	060c8a63          	beq	s9,zero,376c <core_bench_list+0x4ec>
    36fc:	000cad83          	lw	s11,0(s9)
    3700:	018ca023          	sw	s8,0(s9)
    3704:	8b62                	c.mv	s6,s8
    3706:	8466                	c.mv	s0,s9
    3708:	060d8263          	beq	s11,zero,376c <core_bench_list+0x4ec>
    370c:	000dae83          	lw	t4,0(s11)
    3710:	019da023          	sw	s9,0(s11)
    3714:	8b66                	c.mv	s6,s9
    3716:	846e                	c.mv	s0,s11
    3718:	040e8a63          	beq	t4,zero,376c <core_bench_list+0x4ec>
    371c:	000eaf83          	lw	t6,0(t4)
    3720:	01bea023          	sw	s11,0(t4)
    3724:	8b6e                	c.mv	s6,s11
    3726:	8476                	c.mv	s0,t4
    3728:	040f8263          	beq	t6,zero,376c <core_bench_list+0x4ec>
    372c:	000fa083          	lw	ra,0(t6)
    3730:	01dfa023          	sw	t4,0(t6)
    3734:	8b76                	c.mv	s6,t4
    3736:	847e                	c.mv	s0,t6
    3738:	02008a63          	beq	ra,zero,376c <core_bench_list+0x4ec>
    373c:	0000a283          	lw	t0,0(ra)
    3740:	01f0a023          	sw	t6,0(ra)
    3744:	8b7e                	c.mv	s6,t6
    3746:	8406                	c.mv	s0,ra
    3748:	02028263          	beq	t0,zero,376c <core_bench_list+0x4ec>
    374c:	0002a583          	lw	a1,0(t0)
    3750:	0012a023          	sw	ra,0(t0)
    3754:	8b06                	c.mv	s6,ra
    3756:	8416                	c.mv	s0,t0
    3758:	c991                	c.beqz	a1,376c <core_bench_list+0x4ec>
    375a:	842e                	c.mv	s0,a1
    375c:	00042c03          	lw	s8,0(s0)
    3760:	00028b13          	addi	s6,t0,0
    3764:	01642023          	sw	s6,0(s0)
    3768:	f80c12e3          	bne	s8,zero,36ec <core_bench_list+0x46c>
    376c:	040b8c63          	beq	s7,zero,37c4 <core_bench_list+0x544>
    3770:	004ba703          	lw	a4,4(s7)
    3774:	000ba383          	lw	t2,0(s7)
    3778:	00071483          	lh	s1,0(a4)
    377c:	00150513          	addi	a0,a0,1
    3780:	3c05255b          	bfoz	a0,a0,15,0
    3784:	2494a7db          	bfoz	a5,s1,9,9
    3788:	00f88633          	add	a2,a7,a5
    378c:	0004f45b          	bbc	s1,0,3794 <core_bench_list+0x514>
    3790:	3c0628db          	bfoz	a7,a2,15,0
    3794:	00038c63          	beq	t2,zero,37ac <core_bench_list+0x52c>
    3798:	0003a803          	lw	a6,0(t2)
    379c:	010ba023          	sw	a6,0(s7)
    37a0:	00042903          	lw	s2,0(s0)
    37a4:	0123a023          	sw	s2,0(t2)
    37a8:	00742023          	sw	t2,0(s0)
    37ac:	0685                	c.addi	a3,1
    37ae:	3c06b6db          	bfos	a3,a3,15,0
    37b2:	c066dde3          	bge	a3,t1,33cc <core_bench_list+0x14c>
    37b6:	0ff6f993          	andi	s3,a3,255
    37ba:	c64e                	c.swsp	s3,12(sp)
    37bc:	f00412e3          	bne	s0,zero,36c0 <core_bench_list+0x440>
    37c0:	00002b03          	lw	s6,0(zero) # 0 <__TEXT_BASE>
    37c4:	004b2983          	lw	s3,4(s6)
    37c8:	0f05                	c.addi	t5,1
    37ca:	00198a03          	lb	s4,1(s3)
    37ce:	3c0f2f5b          	bfoz	t5,t5,15,0
    37d2:	001a7a93          	andi	s5,s4,1
    37d6:	98d6                	c.add	a7,s5
    37d8:	3c08a8db          	bfoz	a7,a7,15,0
    37dc:	fd1ff06f          	jal	zero,37ac <core_bench_list+0x52c>
    37e0:	e411                	c.bnez	s0,37ec <core_bench_list+0x56c>
    37e2:	a829                	c.j	37fc <core_bench_list+0x57c>
    37e4:	0007a783          	lw	a5,0(a5)
    37e8:	ae078ce3          	beq	a5,zero,32e0 <core_bench_list+0x60>
    37ec:	43d8                	c.lw	a4,4(a5)
    37ee:	44b2                	c.lwsp	s1,12(sp)
    37f0:	00074283          	lbu	t0,0(a4)
    37f4:	fe9298e3          	bne	t0,s1,37e4 <core_bench_list+0x564>
    37f8:	ae9ff06f          	jal	zero,32e0 <core_bench_list+0x60>
    37fc:	00002803          	lw	a6,0(zero) # 0 <__TEXT_BASE>
    3800:	00000413          	addi	s0,zero,0
    3804:	00482483          	lw	s1,4(a6)
    3808:	001f0393          	addi	t2,t5,1
    380c:	00148783          	lb	a5,1(s1)
    3810:	3c03af5b          	bfoz	t5,t2,15,0
    3814:	0017f613          	andi	a2,a5,1
    3818:	00c88833          	add	a6,a7,a2
    381c:	3c0828db          	bfoz	a7,a6,15,0
    3820:	b91ff06f          	jal	zero,33b0 <core_bench_list+0x130>
    3824:	0004ab83          	lw	s7,0(s1)
    3828:	e40b84e3          	beq	s7,zero,3670 <core_bench_list+0x3f0>
    382c:	0044af03          	lw	t5,4(s1)
    3830:	01c12583          	lw	a1,28(sp)
    3834:	000f1503          	lh	a0,0(t5)
    3838:	5f9050ef          	jal	ra,9630 <crc16>
    383c:	000ba403          	lw	s0,0(s7)
    3840:	ce2a                	c.swsp	a0,28(sp)
    3842:	85aa                	c.mv	a1,a0
    3844:	e20406e3          	beq	s0,zero,3670 <core_bench_list+0x3f0>
    3848:	0044a303          	lw	t1,4(s1)
    384c:	00031503          	lh	a0,0(t1)
    3850:	5e1050ef          	jal	ra,9630 <crc16>
    3854:	00042d83          	lw	s11,0(s0)
    3858:	ce2a                	c.swsp	a0,28(sp)
    385a:	85aa                	c.mv	a1,a0
    385c:	e00d8ae3          	beq	s11,zero,3670 <core_bench_list+0x3f0>
    3860:	0044ae83          	lw	t4,4(s1)
    3864:	000e9503          	lh	a0,0(t4)
    3868:	5c9050ef          	jal	ra,9630 <crc16>
    386c:	000dad03          	lw	s10,0(s11)
    3870:	ce2a                	c.swsp	a0,28(sp)
    3872:	85aa                	c.mv	a1,a0
    3874:	de0d0ee3          	beq	s10,zero,3670 <core_bench_list+0x3f0>
    3878:	0044ae03          	lw	t3,4(s1)
    387c:	000e1503          	lh	a0,0(t3)
    3880:	5b1050ef          	jal	ra,9630 <crc16>
    3884:	000d2a03          	lw	s4,0(s10)
    3888:	ce2a                	c.swsp	a0,28(sp)
    388a:	85aa                	c.mv	a1,a0
    388c:	de0a02e3          	beq	s4,zero,3670 <core_bench_list+0x3f0>
    3890:	0044af83          	lw	t6,4(s1)
    3894:	000f9503          	lh	a0,0(t6)
    3898:	599050ef          	jal	ra,9630 <crc16>
    389c:	000a2983          	lw	s3,0(s4)
    38a0:	ce2a                	c.swsp	a0,28(sp)
    38a2:	85aa                	c.mv	a1,a0
    38a4:	dc0986e3          	beq	s3,zero,3670 <core_bench_list+0x3f0>
    38a8:	0044a083          	lw	ra,4(s1)
    38ac:	00009503          	lh	a0,0(ra)
    38b0:	581050ef          	jal	ra,9630 <crc16>
    38b4:	0009aa83          	lw	s5,0(s3)
    38b8:	ce2a                	c.swsp	a0,28(sp)
    38ba:	85aa                	c.mv	a1,a0
    38bc:	da0a8ae3          	beq	s5,zero,3670 <core_bench_list+0x3f0>
    38c0:	0044a283          	lw	t0,4(s1)
    38c4:	00029503          	lh	a0,0(t0)
    38c8:	569050ef          	jal	ra,9630 <crc16>
    38cc:	000aab03          	lw	s6,0(s5)
    38d0:	ce2a                	c.swsp	a0,28(sp)
    38d2:	85aa                	c.mv	a1,a0
    38d4:	d80b0ee3          	beq	s6,zero,3670 <core_bench_list+0x3f0>
    38d8:	0044a703          	lw	a4,4(s1)
    38dc:	00071503          	lh	a0,0(a4)
    38e0:	551050ef          	jal	ra,9630 <crc16>
    38e4:	000b2b83          	lw	s7,0(s6)
    38e8:	ce2a                	c.swsp	a0,28(sp)
    38ea:	f40b91e3          	bne	s7,zero,382c <core_bench_list+0x5ac>
    38ee:	b349                	c.j	3670 <core_bench_list+0x3f0>
    38f0:	00042a83          	lw	s5,0(s0)
    38f4:	b20a9ae3          	bne	s5,zero,3428 <core_bench_list+0x1a8>
    38f8:	bf5ff06f          	jal	zero,34ec <core_bench_list+0x26c>
    38fc:	028d0e13          	addi	t3,s10,40
    3900:	4f85                	c.li	t6,1
    3902:	cc72                	c.swsp	t3,24(sp)
    3904:	01f12423          	sw	t6,8(sp)
    3908:	12040663          	beq	s0,zero,3a34 <core_bench_list+0x7b4>
    390c:	4481                	c.li	s1,0
    390e:	4981                	c.li	s3,0
    3910:	00012a23          	sw	zero,20(sp)
    3914:	40d2                	c.lwsp	ra,20(sp)
    3916:	45a2                	c.lwsp	a1,8(sp)
    3918:	00108293          	addi	t0,ra,1
    391c:	0075f713          	andi	a4,a1,7
    3920:	ca16                	c.swsp	t0,20(sp)
    3922:	87a2                	c.mv	a5,s0
    3924:	4a01                	c.li	s4,0
    3926:	cb39                	c.beqz	a4,397c <core_bench_list+0x6fc>
    3928:	0417545b          	beqc	a4,1,3970 <core_bench_list+0x6f0>
    392c:	02275e5b          	beqc	a4,2,3968 <core_bench_list+0x6e8>
    3930:	0237585b          	beqc	a4,3,3960 <core_bench_list+0x6e0>
    3934:	0247525b          	beqc	a4,4,3958 <core_bench_list+0x6d8>
    3938:	00575c5b          	beqc	a4,5,3950 <core_bench_list+0x6d0>
    393c:	0067565b          	beqc	a4,6,3948 <core_bench_list+0x6c8>
    3940:	401c                	c.lw	a5,0(s0)
    3942:	4a05                	c.li	s4,1
    3944:	06078e63          	beq	a5,zero,39c0 <core_bench_list+0x740>
    3948:	439c                	c.lw	a5,0(a5)
    394a:	0a05                	c.addi	s4,1
    394c:	06078a63          	beq	a5,zero,39c0 <core_bench_list+0x740>
    3950:	439c                	c.lw	a5,0(a5)
    3952:	0a05                	c.addi	s4,1
    3954:	06078663          	beq	a5,zero,39c0 <core_bench_list+0x740>
    3958:	439c                	c.lw	a5,0(a5)
    395a:	0a05                	c.addi	s4,1
    395c:	06078263          	beq	a5,zero,39c0 <core_bench_list+0x740>
    3960:	439c                	c.lw	a5,0(a5)
    3962:	0a05                	c.addi	s4,1
    3964:	04078e63          	beq	a5,zero,39c0 <core_bench_list+0x740>
    3968:	439c                	c.lw	a5,0(a5)
    396a:	0a05                	c.addi	s4,1
    396c:	04078a63          	beq	a5,zero,39c0 <core_bench_list+0x740>
    3970:	439c                	c.lw	a5,0(a5)
    3972:	0a05                	c.addi	s4,1
    3974:	c7b1                	c.beqz	a5,39c0 <core_bench_list+0x740>
    3976:	43a2                	c.lwsp	t2,8(sp)
    3978:	047a0463          	beq	s4,t2,39c0 <core_bench_list+0x740>
    397c:	439c                	c.lw	a5,0(a5)
    397e:	0a05                	c.addi	s4,1
    3980:	8552                	c.mv	a0,s4
    3982:	cf9d                	c.beqz	a5,39c0 <core_bench_list+0x740>
    3984:	439c                	c.lw	a5,0(a5)
    3986:	0a05                	c.addi	s4,1
    3988:	cf85                	c.beqz	a5,39c0 <core_bench_list+0x740>
    398a:	439c                	c.lw	a5,0(a5)
    398c:	00250a13          	addi	s4,a0,2
    3990:	cb85                	c.beqz	a5,39c0 <core_bench_list+0x740>
    3992:	439c                	c.lw	a5,0(a5)
    3994:	00350a13          	addi	s4,a0,3
    3998:	c785                	c.beqz	a5,39c0 <core_bench_list+0x740>
    399a:	439c                	c.lw	a5,0(a5)
    399c:	00450a13          	addi	s4,a0,4
    39a0:	c385                	c.beqz	a5,39c0 <core_bench_list+0x740>
    39a2:	439c                	c.lw	a5,0(a5)
    39a4:	00550a13          	addi	s4,a0,5
    39a8:	cf81                	c.beqz	a5,39c0 <core_bench_list+0x740>
    39aa:	439c                	c.lw	a5,0(a5)
    39ac:	00650a13          	addi	s4,a0,6
    39b0:	cb81                	c.beqz	a5,39c0 <core_bench_list+0x740>
    39b2:	439c                	c.lw	a5,0(a5)
    39b4:	00750a13          	addi	s4,a0,7
    39b8:	c781                	c.beqz	a5,39c0 <core_bench_list+0x740>
    39ba:	4622                	c.lwsp	a2,8(sp)
    39bc:	fcca10e3          	bne	s4,a2,397c <core_bench_list+0x6fc>
    39c0:	8ca2                	c.mv	s9,s0
    39c2:	4c22                	c.lwsp	s8,8(sp)
    39c4:	00078413          	addi	s0,a5,0
    39c8:	040a0463          	beq	s4,zero,3a10 <core_bench_list+0x790>
    39cc:	080c0263          	beq	s8,zero,3a50 <core_bench_list+0x7d0>
    39d0:	08040063          	beq	s0,zero,3a50 <core_bench_list+0x7d0>
    39d4:	004cab03          	lw	s6,4(s9)
    39d8:	00442d83          	lw	s11,4(s0)
    39dc:	000b1903          	lh	s2,0(s6)
    39e0:	0879725b          	bbc	s2,7,3a64 <core_bench_list+0x7e4>
    39e4:	000d9b03          	lh	s6,0(s11)
    39e8:	07f97b93          	andi	s7,s2,127
    39ec:	0c7b705b          	bbc	s6,7,3aac <core_bench_list+0x82c>
    39f0:	07fb7293          	andi	t0,s6,127
    39f4:	405b8db3          	sub	s11,s7,t0
    39f8:	05b05c63          	bge	zero,s11,3a50 <core_bench_list+0x7d0>
    39fc:	80a2                	c.mv	ra,s0
    39fe:	1c7d                	c.addi	s8,-1
    3a00:	4000                	c.lw	s0,0(s0)
    3a02:	cca9                	c.beqz	s1,3a5c <core_bench_list+0x7dc>
    3a04:	0014a023          	sw	ra,0(s1)
    3a08:	00008493          	addi	s1,ra,0
    3a0c:	fc0a10e3          	bne	s4,zero,39cc <core_bench_list+0x74c>
    3a10:	0e0c0063          	beq	s8,zero,3af0 <core_bench_list+0x870>
    3a14:	fe0414e3          	bne	s0,zero,39fc <core_bench_list+0x77c>
    3a18:	0004a023          	sw	zero,0(s1)
    3a1c:	844e                	c.mv	s0,s3
    3a1e:	44d2                	c.lwsp	s1,20(sp)
    3a20:	0014e45b          	bnec	s1,1,3a28 <core_bench_list+0x7a8>
    3a24:	9bdff06f          	jal	zero,33e0 <core_bench_list+0x160>
    3a28:	4822                	c.lwsp	a6,8(sp)
    3a2a:	00181993          	slli	s3,a6,0x1
    3a2e:	c44e                	c.swsp	s3,8(sp)
    3a30:	ec041ee3          	bne	s0,zero,390c <core_bench_list+0x68c>
    3a34:	01012d03          	lw	s10,16(sp)
    3a38:	00002023          	sw	zero,0(zero) # 0 <__TEXT_BASE>
    3a3c:	160d5e63          	bge	s10,zero,3bb8 <core_bench_list+0x938>
    3a40:	00002a83          	lw	s5,0(zero) # 0 <__TEXT_BASE>
    3a44:	8922                	c.mv	s2,s0
    3a46:	4401                	c.li	s0,0
    3a48:	9e0a90e3          	bne	s5,zero,3428 <core_bench_list+0x1a8>
    3a4c:	aa1ff06f          	jal	zero,34ec <core_bench_list+0x26c>
    3a50:	80e6                	c.mv	ra,s9
    3a52:	1a7d                	c.addi	s4,-1
    3a54:	000cac83          	lw	s9,0(s9)
    3a58:	fa0496e3          	bne	s1,zero,3a04 <core_bench_list+0x784>
    3a5c:	8986                	c.mv	s3,ra
    3a5e:	8486                	c.mv	s1,ra
    3a60:	fadff06f          	jal	zero,3a0c <core_bench_list+0x78c>
    3a64:	183926db          	bfoz	a3,s2,6,3
    3a68:	00469093          	slli	ra,a3,0x4
    3a6c:	00797293          	andi	t0,s2,7
    3a70:	0016ebb3          	or	s7,a3,ra
    3a74:	0a028263          	beq	t0,zero,3b18 <core_bench_list+0x898>
    3a78:	0812d05b          	beqc	t0,1,3af8 <core_bench_list+0x878>
    3a7c:	00090a93          	addi	s5,s2,0
    3a80:	3c09255b          	bfoz	a0,s2,15,0
    3a84:	038d5583          	lhu	a1,56(s10)
    3a88:	07fafb93          	andi	s7,s5,127
    3a8c:	70c050ef          	jal	ra,9198 <crcu16>
    3a90:	f0097793          	andi	a5,s2,-256
    3a94:	00fbe8b3          	or	a7,s7,a5
    3a98:	02ad1c23          	sh	a0,56(s10)
    3a9c:	0808e513          	ori	a0,a7,128
    3aa0:	00ab1023          	sh	a0,0(s6)
    3aa4:	000d9b03          	lh	s6,0(s11)
    3aa8:	f47b745b          	bbs	s6,7,39f0 <core_bench_list+0x770>
    3aac:	183b2f5b          	bfoz	t5,s6,6,3
    3ab0:	004f1313          	slli	t1,t5,0x4
    3ab4:	007b7e93          	andi	t4,s6,7
    3ab8:	006f6e33          	or	t3,t5,t1
    3abc:	0a0e8a63          	beq	t4,zero,3b70 <core_bench_list+0x8f0>
    3ac0:	081eda5b          	beqc	t4,1,3b54 <core_bench_list+0x8d4>
    3ac4:	000b0a93          	addi	s5,s6,0
    3ac8:	3c0b255b          	bfoz	a0,s6,15,0
    3acc:	038d5583          	lhu	a1,56(s10)
    3ad0:	6c8050ef          	jal	ra,9198 <crcu16>
    3ad4:	07faf293          	andi	t0,s5,127
    3ad8:	f00b7713          	andi	a4,s6,-256
    3adc:	00e2e3b3          	or	t2,t0,a4
    3ae0:	0803e593          	ori	a1,t2,128
    3ae4:	02ad1c23          	sh	a0,56(s10)
    3ae8:	00bd9023          	sh	a1,0(s11)
    3aec:	f09ff06f          	jal	zero,39f4 <core_bench_list+0x774>
    3af0:	e20412e3          	bne	s0,zero,3914 <core_bench_list+0x694>
    3af4:	f25ff06f          	jal	zero,3a18 <core_bench_list+0x798>
    3af8:	038d5603          	lhu	a2,56(s10)
    3afc:	4562                	c.lwsp	a0,24(sp)
    3afe:	85de                	c.mv	a1,s7
    3b00:	761000ef          	jal	ra,4a60 <core_bench_matrix>
    3b04:	03cd5803          	lhu	a6,60(s10)
    3b08:	3c053adb          	bfos	s5,a0,15,0
    3b0c:	f6081ce3          	bne	a6,zero,3a84 <core_bench_list+0x804>
    3b10:	02ad1e23          	sh	a0,60(s10)
    3b14:	f71ff06f          	jal	zero,3a84 <core_bench_list+0x804>
    3b18:	02200393          	addi	t2,zero,34
    3b1c:	002d1683          	lh	a3,2(s10)
    3b20:	000d1603          	lh	a2,0(s10)
    3b24:	000b8713          	addi	a4,s7,0
    3b28:	014d2583          	lw	a1,20(s10)
    3b2c:	007bd463          	bge	s7,t2,3b34 <core_bench_list+0x8b4>
    3b30:	02200713          	addi	a4,zero,34
    3b34:	038d5783          	lhu	a5,56(s10)
    3b38:	018d2503          	lw	a0,24(s10)
    3b3c:	3c07375b          	bfos	a4,a4,15,0
    3b40:	421040ef          	jal	ra,8760 <core_bench_state>
    3b44:	03ed5583          	lhu	a1,62(s10)
    3b48:	3c053adb          	bfos	s5,a0,15,0
    3b4c:	fd85                	c.bnez	a1,3a84 <core_bench_list+0x804>
    3b4e:	02ad1f23          	sh	a0,62(s10)
    3b52:	bf0d                	c.j	3a84 <core_bench_list+0x804>
    3b54:	038d5603          	lhu	a2,56(s10)
    3b58:	4562                	c.lwsp	a0,24(sp)
    3b5a:	85f2                	c.mv	a1,t3
    3b5c:	705000ef          	jal	ra,4a60 <core_bench_matrix>
    3b60:	03cd5683          	lhu	a3,60(s10)
    3b64:	3c053adb          	bfos	s5,a0,15,0
    3b68:	f2b5                	c.bnez	a3,3acc <core_bench_list+0x84c>
    3b6a:	02ad1e23          	sh	a0,60(s10)
    3b6e:	bfb9                	c.j	3acc <core_bench_list+0x84c>
    3b70:	000d1603          	lh	a2,0(s10)
    3b74:	000e0f93          	addi	t6,t3,0
    3b78:	002d1683          	lh	a3,2(s10)
    3b7c:	02200913          	addi	s2,zero,34
    3b80:	012e5463          	bge	t3,s2,3b88 <core_bench_list+0x908>
    3b84:	02200f93          	addi	t6,zero,34
    3b88:	038d5783          	lhu	a5,56(s10)
    3b8c:	014d2583          	lw	a1,20(s10)
    3b90:	018d2503          	lw	a0,24(s10)
    3b94:	3c0fb75b          	bfos	a4,t6,15,0
    3b98:	3c9040ef          	jal	ra,8760 <core_bench_state>
    3b9c:	03ed5603          	lhu	a2,62(s10)
    3ba0:	3c053adb          	bfos	s5,a0,15,0
    3ba4:	f20614e3          	bne	a2,zero,3acc <core_bench_list+0x84c>
    3ba8:	02ad1f23          	sh	a0,62(s10)
    3bac:	f21ff06f          	jal	zero,3acc <core_bench_list+0x84c>
    3bb0:	00012e23          	sw	zero,28(sp)
    3bb4:	829ff06f          	jal	zero,33dc <core_bench_list+0x15c>
    3bb8:	4901                	c.li	s2,0
    3bba:	ba0d                	c.j	34ec <core_bench_list+0x26c>
    3bbc:	e411                	c.bnez	s0,3bc8 <core_bench_list+0x948>
    3bbe:	a839                	c.j	3bdc <core_bench_list+0x95c>
    3bc0:	000aaa83          	lw	s5,0(s5)
    3bc4:	d20a86e3          	beq	s5,zero,38f0 <core_bench_list+0x670>
    3bc8:	004aac03          	lw	s8,4(s5)
    3bcc:	00c12683          	lw	a3,12(sp)
    3bd0:	000c4c83          	lbu	s9,0(s8)
    3bd4:	fedc96e3          	bne	s9,a3,3bc0 <core_bench_list+0x940>
    3bd8:	851ff06f          	jal	zero,3428 <core_bench_list+0x1a8>
    3bdc:	844a                	c.mv	s0,s2
    3bde:	b58d                	c.j	3a40 <core_bench_list+0x7c0>

00003be0 <core_list_init>:
    3be0:	66666e37          	lui	t3,0x66666
    3be4:	667e0e13          	addi	t3,t3,1639 # 66666667 <VPE_FAIL+0x654320fe>
    3be8:	03c53733          	mulhu	a4,a0,t3
    3bec:	41f55293          	srai	t0,a0,0x1f
    3bf0:	01c2f6b3          	and	a3,t0,t3
    3bf4:	40d70333          	sub	t1,a4,a3
    3bf8:	40335393          	srai	t2,t1,0x3
    3bfc:	40538533          	sub	a0,t2,t0
    3c00:	87ae                	c.mv	a5,a1
    3c02:	ffe50593          	addi	a1,a0,-2
    3c06:	0eb7885b          	lea.d	a6,a5,a1
    3c0a:	88b2                	c.mv	a7,a2
    3c0c:	6621                	c.lui	a2,0x8
    3c0e:	08060f13          	addi	t5,a2,128 # 8080 <matrix_add_const+0x1e0>
    3c12:	0007a023          	sw	zero,0(a5)
    3c16:	0107a223          	sw	a6,4(a5)
    3c1a:	01078713          	addi	a4,a5,16
    3c1e:	01e82023          	sw	t5,0(a6)
    3c22:	0cb80edb          	lea.w	t4,a6,a1
    3c26:	00878613          	addi	a2,a5,8
    3c2a:	00480f93          	addi	t6,a6,4
    3c2e:	3f077f63          	bgeu	a4,a6,402c <core_list_init+0x44c>
    3c32:	00880693          	addi	a3,a6,8
    3c36:	3fd6fb63          	bgeu	a3,t4,402c <core_list_init+0x44c>
    3c3a:	800002b7          	lui	t0,0x80000
    3c3e:	fff2c313          	xori	t1,t0,-1
    3c42:	0007a423          	sw	zero,8(a5)
    3c46:	c390                	c.sw	a2,0(a5)
    3c48:	01f7a623          	sw	t6,12(a5)
    3c4c:	00682223          	sw	t1,4(a6)
    3c50:	1eb05863          	bge	zero,a1,3e40 <core_list_init+0x260>
    3c54:	73e1                	c.lui	t2,0xffff8
    3c56:	0035ff13          	andi	t5,a1,3
    3c5a:	fff3c313          	xori	t1,t2,-1
    3c5e:	4501                	c.li	a0,0
    3c60:	0c0f0663          	beq	t5,zero,3d2c <core_list_init+0x14c>
    3c64:	081f505b          	beqc	t5,1,3ce4 <core_list_init+0x104>
    3c68:	022f5c5b          	beqc	t5,2,3ca0 <core_list_init+0xc0>
    3c6c:	00870293          	addi	t0,a4,8
    3c70:	1d02f863          	bgeu	t0,a6,3e40 <core_list_init+0x260>
    3c74:	00468f93          	addi	t6,a3,4
    3c78:	03dff263          	bgeu	t6,t4,3c9c <core_list_init+0xbc>
    3c7c:	c310                	c.sw	a2,0(a4)
    3c7e:	c398                	c.sw	a4,0(a5)
    3c80:	0c68a65b          	bfoz	a2,a7,3,6
    3c84:	2ce8a55b          	bfoz	a0,a7,11,14
    3c88:	c354                	c.sw	a3,4(a4)
    3c8a:	00a663b3          	or	t2,a2,a0
    3c8e:	00769023          	sh	t2,0(a3)
    3c92:	863a                	c.mv	a2,a4
    3c94:	00669123          	sh	t1,2(a3)
    3c98:	8716                	c.mv	a4,t0
    3c9a:	86fe                	c.mv	a3,t6
    3c9c:	00100513          	addi	a0,zero,1
    3ca0:	00870293          	addi	t0,a4,8
    3ca4:	1902fe63          	bgeu	t0,a6,3e40 <core_list_init+0x260>
    3ca8:	00468393          	addi	t2,a3,4
    3cac:	03d3fa63          	bgeu	t2,t4,3ce0 <core_list_init+0x100>
    3cb0:	3c053fdb          	bfos	t6,a0,15,0
    3cb4:	011fcf33          	xor	t5,t6,a7
    3cb8:	0c6f2f5b          	bfoz	t5,t5,3,6
    3cbc:	007fff93          	andi	t6,t6,7
    3cc0:	c310                	c.sw	a2,0(a4)
    3cc2:	01ff6f33          	or	t5,t5,t6
    3cc6:	c398                	c.sw	a4,0(a5)
    3cc8:	008f1613          	slli	a2,t5,0x8
    3ccc:	c354                	c.sw	a3,4(a4)
    3cce:	00cf6fb3          	or	t6,t5,a2
    3cd2:	01f69023          	sh	t6,0(a3)
    3cd6:	863a                	c.mv	a2,a4
    3cd8:	00669123          	sh	t1,2(a3)
    3cdc:	8716                	c.mv	a4,t0
    3cde:	869e                	c.mv	a3,t2
    3ce0:	00150513          	addi	a0,a0,1
    3ce4:	00870293          	addi	t0,a4,8
    3ce8:	1502fc63          	bgeu	t0,a6,3e40 <core_list_init+0x260>
    3cec:	00468393          	addi	t2,a3,4
    3cf0:	03d3fa63          	bgeu	t2,t4,3d24 <core_list_init+0x144>
    3cf4:	3c053fdb          	bfos	t6,a0,15,0
    3cf8:	011fcf33          	xor	t5,t6,a7
    3cfc:	0c6f2f5b          	bfoz	t5,t5,3,6
    3d00:	007fff93          	andi	t6,t6,7
    3d04:	c310                	c.sw	a2,0(a4)
    3d06:	01ff6f33          	or	t5,t5,t6
    3d0a:	c398                	c.sw	a4,0(a5)
    3d0c:	008f1613          	slli	a2,t5,0x8
    3d10:	c354                	c.sw	a3,4(a4)
    3d12:	00cf6fb3          	or	t6,t5,a2
    3d16:	01f69023          	sh	t6,0(a3)
    3d1a:	863a                	c.mv	a2,a4
    3d1c:	00669123          	sh	t1,2(a3)
    3d20:	8716                	c.mv	a4,t0
    3d22:	869e                	c.mv	a3,t2
    3d24:	00150513          	addi	a0,a0,1
    3d28:	10a58c63          	beq	a1,a0,3e40 <core_list_init+0x260>
    3d2c:	00870393          	addi	t2,a4,8
    3d30:	1103f863          	bgeu	t2,a6,3e40 <core_list_init+0x260>
    3d34:	00468293          	addi	t0,a3,4
    3d38:	03d2fa63          	bgeu	t0,t4,3d6c <core_list_init+0x18c>
    3d3c:	3c053fdb          	bfos	t6,a0,15,0
    3d40:	011fcf33          	xor	t5,t6,a7
    3d44:	0c6f2f5b          	bfoz	t5,t5,3,6
    3d48:	007fff93          	andi	t6,t6,7
    3d4c:	c310                	c.sw	a2,0(a4)
    3d4e:	01ff6f33          	or	t5,t5,t6
    3d52:	c398                	c.sw	a4,0(a5)
    3d54:	008f1613          	slli	a2,t5,0x8
    3d58:	c354                	c.sw	a3,4(a4)
    3d5a:	00cf6fb3          	or	t6,t5,a2
    3d5e:	01f69023          	sh	t6,0(a3)
    3d62:	863a                	c.mv	a2,a4
    3d64:	00669123          	sh	t1,2(a3)
    3d68:	871e                	c.mv	a4,t2
    3d6a:	8696                	c.mv	a3,t0
    3d6c:	00870293          	addi	t0,a4,8
    3d70:	0505                	c.addi	a0,1
    3d72:	0d02f763          	bgeu	t0,a6,3e40 <core_list_init+0x260>
    3d76:	00468393          	addi	t2,a3,4
    3d7a:	03d3fb63          	bgeu	t2,t4,3db0 <core_list_init+0x1d0>
    3d7e:	3c053fdb          	bfos	t6,a0,15,0
    3d82:	011fcf33          	xor	t5,t6,a7
    3d86:	0c6f2f5b          	bfoz	t5,t5,3,6
    3d8a:	007fff93          	andi	t6,t6,7
    3d8e:	c310                	c.sw	a2,0(a4)
    3d90:	01ff6f33          	or	t5,t5,t6
    3d94:	c398                	c.sw	a4,0(a5)
    3d96:	008f1613          	slli	a2,t5,0x8
    3d9a:	c354                	c.sw	a3,4(a4)
    3d9c:	00cf6fb3          	or	t6,t5,a2
    3da0:	01f69023          	sh	t6,0(a3)
    3da4:	863a                	c.mv	a2,a4
    3da6:	00669123          	sh	t1,2(a3)
    3daa:	8716                	c.mv	a4,t0
    3dac:	00038693          	addi	a3,t2,0 # ffff8000 <__start_addr+0x7fff7ff0>
    3db0:	00870293          	addi	t0,a4,8
    3db4:	00150f13          	addi	t5,a0,1
    3db8:	0902f463          	bgeu	t0,a6,3e40 <core_list_init+0x260>
    3dbc:	00468393          	addi	t2,a3,4
    3dc0:	03d3fa63          	bgeu	t2,t4,3df4 <core_list_init+0x214>
    3dc4:	3c0f3fdb          	bfos	t6,t5,15,0
    3dc8:	011fcf33          	xor	t5,t6,a7
    3dcc:	0c6f2f5b          	bfoz	t5,t5,3,6
    3dd0:	007fff93          	andi	t6,t6,7
    3dd4:	c310                	c.sw	a2,0(a4)
    3dd6:	01ff6f33          	or	t5,t5,t6
    3dda:	c398                	c.sw	a4,0(a5)
    3ddc:	008f1613          	slli	a2,t5,0x8
    3de0:	c354                	c.sw	a3,4(a4)
    3de2:	00cf6fb3          	or	t6,t5,a2
    3de6:	01f69023          	sh	t6,0(a3)
    3dea:	863a                	c.mv	a2,a4
    3dec:	00669123          	sh	t1,2(a3)
    3df0:	8716                	c.mv	a4,t0
    3df2:	869e                	c.mv	a3,t2
    3df4:	00870293          	addi	t0,a4,8
    3df8:	00250f13          	addi	t5,a0,2
    3dfc:	0502f263          	bgeu	t0,a6,3e40 <core_list_init+0x260>
    3e00:	00468393          	addi	t2,a3,4
    3e04:	03d3fa63          	bgeu	t2,t4,3e38 <core_list_init+0x258>
    3e08:	3c0f3fdb          	bfos	t6,t5,15,0
    3e0c:	011fcf33          	xor	t5,t6,a7
    3e10:	0c6f2f5b          	bfoz	t5,t5,3,6
    3e14:	007fff93          	andi	t6,t6,7
    3e18:	c310                	c.sw	a2,0(a4)
    3e1a:	01ff6f33          	or	t5,t5,t6
    3e1e:	c398                	c.sw	a4,0(a5)
    3e20:	008f1613          	slli	a2,t5,0x8
    3e24:	c354                	c.sw	a3,4(a4)
    3e26:	00cf6fb3          	or	t6,t5,a2
    3e2a:	01f69023          	sh	t6,0(a3)
    3e2e:	863a                	c.mv	a2,a4
    3e30:	00669123          	sh	t1,2(a3)
    3e34:	8716                	c.mv	a4,t0
    3e36:	869e                	c.mv	a3,t2
    3e38:	00350513          	addi	a0,a0,3
    3e3c:	eea598e3          	bne	a1,a0,3d2c <core_list_init+0x14c>
    3e40:	4214                	c.lw	a3,0(a2)
    3e42:	ceb9                	c.beqz	a3,3ea0 <core_list_init+0x2c0>
    3e44:	03c5b833          	mulhu	a6,a1,t3
    3e48:	85fd                	c.srai	a1,0x1f
    3e4a:	01c5fe33          	and	t3,a1,t3
    3e4e:	41c80eb3          	sub	t4,a6,t3
    3e52:	401ed313          	srai	t1,t4,0x1
    3e56:	6391                	c.lui	t2,0x4
    3e58:	40b302b3          	sub	t0,t1,a1
    3e5c:	4705                	c.li	a4,1
    3e5e:	4809                	c.li	a6,2
    3e60:	fff38f13          	addi	t5,t2,-1 # 3fff <core_list_init+0x41f>
    3e64:	00575e63          	bge	a4,t0,3e80 <core_list_init+0x2a0>
    3e68:	00462303          	lw	t1,4(a2)
    3e6c:	428c                	c.lw	a1,0(a3)
    3e6e:	00e31123          	sh	a4,2(t1)
    3e72:	0805                	c.addi	a6,1
    3e74:	0705                	c.addi	a4,1
    3e76:	c58d                	c.beqz	a1,3ea0 <core_list_init+0x2c0>
    3e78:	8636                	c.mv	a2,a3
    3e7a:	86ae                	c.mv	a3,a1
    3e7c:	fe5746e3          	blt	a4,t0,3e68 <core_list_init+0x288>
    3e80:	20a82fdb          	bfoz	t6,a6,8,10
    3e84:	00e8c533          	xor	a0,a7,a4
    3e88:	00462e03          	lw	t3,4(a2)
    3e8c:	00afe633          	or	a2,t6,a0
    3e90:	428c                	c.lw	a1,0(a3)
    3e92:	01e67eb3          	and	t4,a2,t5
    3e96:	01de1123          	sh	t4,2(t3)
    3e9a:	0705                	c.addi	a4,1
    3e9c:	0805                	c.addi	a6,1
    3e9e:	fde9                	c.bnez	a1,3e78 <core_list_init+0x298>
    3ea0:	00100f93          	addi	t6,zero,1
    3ea4:	18078063          	beq	a5,zero,4024 <core_list_init+0x444>
    3ea8:	4281                	c.li	t0,0
    3eaa:	4801                	c.li	a6,0
    3eac:	00000513          	addi	a0,zero,0
    3eb0:	007ff893          	andi	a7,t6,7
    3eb4:	83be                	c.mv	t2,a5
    3eb6:	0285                	c.addi	t0,1
    3eb8:	4601                	c.li	a2,0
    3eba:	06088963          	beq	a7,zero,3f2c <core_list_init+0x34c>
    3ebe:	0418df5b          	beqc	a7,1,3f1c <core_list_init+0x33c>
    3ec2:	0428d75b          	beqc	a7,2,3f10 <core_list_init+0x330>
    3ec6:	0238df5b          	beqc	a7,3,3f04 <core_list_init+0x324>
    3eca:	0248d75b          	beqc	a7,4,3ef8 <core_list_init+0x318>
    3ece:	0058df5b          	beqc	a7,5,3eec <core_list_init+0x30c>
    3ed2:	0068d75b          	beqc	a7,6,3ee0 <core_list_init+0x300>
    3ed6:	0007a383          	lw	t2,0(a5)
    3eda:	4605                	c.li	a2,1
    3edc:	0a038863          	beq	t2,zero,3f8c <core_list_init+0x3ac>
    3ee0:	0003a383          	lw	t2,0(t2)
    3ee4:	00160613          	addi	a2,a2,1
    3ee8:	0a038263          	beq	t2,zero,3f8c <core_list_init+0x3ac>
    3eec:	0003a383          	lw	t2,0(t2)
    3ef0:	00160613          	addi	a2,a2,1
    3ef4:	08038c63          	beq	t2,zero,3f8c <core_list_init+0x3ac>
    3ef8:	0003a383          	lw	t2,0(t2)
    3efc:	00160613          	addi	a2,a2,1
    3f00:	08038663          	beq	t2,zero,3f8c <core_list_init+0x3ac>
    3f04:	0003a383          	lw	t2,0(t2)
    3f08:	00160613          	addi	a2,a2,1
    3f0c:	08038063          	beq	t2,zero,3f8c <core_list_init+0x3ac>
    3f10:	0003a383          	lw	t2,0(t2)
    3f14:	00160613          	addi	a2,a2,1
    3f18:	06038a63          	beq	t2,zero,3f8c <core_list_init+0x3ac>
    3f1c:	0003a383          	lw	t2,0(t2)
    3f20:	00160613          	addi	a2,a2,1
    3f24:	06038463          	beq	t2,zero,3f8c <core_list_init+0x3ac>
    3f28:	07f60263          	beq	a2,t6,3f8c <core_list_init+0x3ac>
    3f2c:	0003a383          	lw	t2,0(t2)
    3f30:	0605                	c.addi	a2,1
    3f32:	86b2                	c.mv	a3,a2
    3f34:	04038c63          	beq	t2,zero,3f8c <core_list_init+0x3ac>
    3f38:	0003a383          	lw	t2,0(t2)
    3f3c:	00160613          	addi	a2,a2,1
    3f40:	04038663          	beq	t2,zero,3f8c <core_list_init+0x3ac>
    3f44:	0003a383          	lw	t2,0(t2)
    3f48:	00268613          	addi	a2,a3,2
    3f4c:	04038063          	beq	t2,zero,3f8c <core_list_init+0x3ac>
    3f50:	0003a383          	lw	t2,0(t2)
    3f54:	00368613          	addi	a2,a3,3
    3f58:	02038a63          	beq	t2,zero,3f8c <core_list_init+0x3ac>
    3f5c:	0003a383          	lw	t2,0(t2)
    3f60:	00468613          	addi	a2,a3,4
    3f64:	02038463          	beq	t2,zero,3f8c <core_list_init+0x3ac>
    3f68:	0003a383          	lw	t2,0(t2)
    3f6c:	00568613          	addi	a2,a3,5
    3f70:	00038e63          	beq	t2,zero,3f8c <core_list_init+0x3ac>
    3f74:	0003a383          	lw	t2,0(t2)
    3f78:	00668613          	addi	a2,a3,6
    3f7c:	00038863          	beq	t2,zero,3f8c <core_list_init+0x3ac>
    3f80:	0003a383          	lw	t2,0(t2)
    3f84:	00768613          	addi	a2,a3,7
    3f88:	fa0390e3          	bne	t2,zero,3f28 <core_list_init+0x348>
    3f8c:	85be                	c.mv	a1,a5
    3f8e:	86fe                	c.mv	a3,t6
    3f90:	879e                	c.mv	a5,t2
    3f92:	ce39                	c.beqz	a2,3ff0 <core_list_init+0x410>
    3f94:	caa5                	c.beqz	a3,4004 <core_list_init+0x424>
    3f96:	c7bd                	c.beqz	a5,4004 <core_list_init+0x424>
    3f98:	0045ae03          	lw	t3,4(a1)
    3f9c:	0047a303          	lw	t1,4(a5)
    3fa0:	000e1703          	lh	a4,0(t3)
    3fa4:	002e1883          	lh	a7,2(t3)
    3fa8:	00231f03          	lh	t5,2(t1)
    3fac:	f0077e93          	andi	t4,a4,-256
    3fb0:	3c8723db          	bfoz	t2,a4,15,8
    3fb4:	007ee733          	or	a4,t4,t2
    3fb8:	00ee1023          	sh	a4,0(t3)
    3fbc:	00031e83          	lh	t4,0(t1)
    3fc0:	41e888b3          	sub	a7,a7,t5
    3fc4:	f00efe13          	andi	t3,t4,-256
    3fc8:	3c8eaf5b          	bfoz	t5,t4,15,8
    3fcc:	01ee63b3          	or	t2,t3,t5
    3fd0:	00731023          	sh	t2,0(t1)
    3fd4:	03105863          	bge	zero,a7,4004 <core_list_init+0x424>
    3fd8:	833e                	c.mv	t1,a5
    3fda:	16fd                	c.addi	a3,-1
    3fdc:	0007a783          	lw	a5,0(a5)
    3fe0:	02080863          	beq	a6,zero,4010 <core_list_init+0x430>
    3fe4:	00682023          	sw	t1,0(a6)
    3fe8:	00030813          	addi	a6,t1,0
    3fec:	fa0614e3          	bne	a2,zero,3f94 <core_list_init+0x3b4>
    3ff0:	c685                	c.beqz	a3,4018 <core_list_init+0x438>
    3ff2:	f3fd                	c.bnez	a5,3fd8 <core_list_init+0x3f8>
    3ff4:	00082023          	sw	zero,0(a6)
    3ff8:	0212d45b          	beqc	t0,1,4020 <core_list_init+0x440>
    3ffc:	87aa                	c.mv	a5,a0
    3ffe:	0f86                	c.slli	t6,0x1
    4000:	ea5ff06f          	jal	zero,3ea4 <core_list_init+0x2c4>
    4004:	832e                	c.mv	t1,a1
    4006:	167d                	c.addi	a2,-1
    4008:	0005a583          	lw	a1,0(a1)
    400c:	fc081ce3          	bne	a6,zero,3fe4 <core_list_init+0x404>
    4010:	851a                	c.mv	a0,t1
    4012:	881a                	c.mv	a6,t1
    4014:	fd9ff06f          	jal	zero,3fec <core_list_init+0x40c>
    4018:	e8079ce3          	bne	a5,zero,3eb0 <core_list_init+0x2d0>
    401c:	fd9ff06f          	jal	zero,3ff4 <core_list_init+0x414>
    4020:	00008067          	jalr	zero,0(ra)
    4024:	4501                	c.li	a0,0
    4026:	00002023          	sw	zero,0(zero) # 0 <__TEXT_BASE>
    402a:	8082                	c.jr	ra
    402c:	8732                	c.mv	a4,a2
    402e:	86fe                	c.mv	a3,t6
    4030:	4601                	c.li	a2,0
    4032:	b939                	c.j	3c50 <core_list_init+0x70>

00004034 <core_list_insert_new>:
    4034:	00062803          	lw	a6,0(a2)
    4038:	00880893          	addi	a7,a6,8
    403c:	04e8f263          	bgeu	a7,a4,4080 <core_list_insert_new+0x4c>
    4040:	4298                	c.lw	a4,0(a3)
    4042:	00470313          	addi	t1,a4,4
    4046:	02f37d63          	bgeu	t1,a5,4080 <core_list_insert_new+0x4c>
    404a:	01162023          	sw	a7,0(a2)
    404e:	411c                	c.lw	a5,0(a0)
    4050:	00059603          	lh	a2,0(a1)
    4054:	00f82023          	sw	a5,0(a6)
    4058:	01052023          	sw	a6,0(a0)
    405c:	00e82223          	sw	a4,4(a6)
    4060:	0006a283          	lw	t0,0(a3)
    4064:	00259383          	lh	t2,2(a1)
    4068:	00428513          	addi	a0,t0,4 # 80000004 <__start_addr+0xfffffff4>
    406c:	c288                	c.sw	a0,0(a3)
    406e:	00482583          	lw	a1,4(a6)
    4072:	8542                	c.mv	a0,a6
    4074:	00c59023          	sh	a2,0(a1)
    4078:	00759123          	sh	t2,2(a1)
    407c:	00008067          	jalr	zero,0(ra)
    4080:	4801                	c.li	a6,0
    4082:	8542                	c.mv	a0,a6
    4084:	00008067          	jalr	zero,0(ra)

00004088 <core_list_remove>:
    4088:	87aa                	c.mv	a5,a0
    408a:	4108                	c.lw	a0,0(a0)
    408c:	43d4                	c.lw	a3,4(a5)
    408e:	4150                	c.lw	a2,4(a0)
    4090:	4118                	c.lw	a4,0(a0)
    4092:	c3d0                	c.sw	a2,4(a5)
    4094:	c154                	c.sw	a3,4(a0)
    4096:	c398                	c.sw	a4,0(a5)
    4098:	00052023          	sw	zero,0(a0)
    409c:	00008067          	jalr	zero,0(ra)

000040a0 <core_list_undo_remove>:
    40a0:	41d8                	c.lw	a4,4(a1)
    40a2:	4154                	c.lw	a3,4(a0)
    40a4:	0005a283          	lw	t0,0(a1)
    40a8:	c158                	c.sw	a4,4(a0)
    40aa:	c1d4                	c.sw	a3,4(a1)
    40ac:	00552023          	sw	t0,0(a0)
    40b0:	c188                	c.sw	a0,0(a1)
    40b2:	8082                	c.jr	ra

000040b4 <core_list_find>:
    40b4:	00259603          	lh	a2,2(a1)
    40b8:	00064e63          	blt	a2,zero,40d4 <core_list_find+0x20>
    40bc:	e501                	c.bnez	a0,40c4 <core_list_find+0x10>
    40be:	a81d                	c.j	40f4 <core_list_find+0x40>
    40c0:	4108                	c.lw	a0,0(a0)
    40c2:	c50d                	c.beqz	a0,40ec <core_list_find+0x38>
    40c4:	00452303          	lw	t1,4(a0)
    40c8:	00231383          	lh	t2,2(t1)
    40cc:	fec39ae3          	bne	t2,a2,40c0 <core_list_find+0xc>
    40d0:	00008067          	jalr	zero,0(ra)
    40d4:	cd01                	c.beqz	a0,40ec <core_list_find+0x38>
    40d6:	00059703          	lh	a4,0(a1)
    40da:	a019                	c.j	40e0 <core_list_find+0x2c>
    40dc:	4108                	c.lw	a0,0(a0)
    40de:	c909                	c.beqz	a0,40f0 <core_list_find+0x3c>
    40e0:	415c                	c.lw	a5,4(a0)
    40e2:	0007c283          	lbu	t0,0(a5)
    40e6:	fee29be3          	bne	t0,a4,40dc <core_list_find+0x28>
    40ea:	8082                	c.jr	ra
    40ec:	00000513          	addi	a0,zero,0
    40f0:	00008067          	jalr	zero,0(ra)
    40f4:	00008067          	jalr	zero,0(ra)

000040f8 <core_list_reverse>:
    40f8:	c925                	c.beqz	a0,4168 <core_list_reverse+0x70>
    40fa:	411c                	c.lw	a5,0(a0)
    40fc:	4881                	c.li	a7,0
    40fe:	01152023          	sw	a7,0(a0)
    4102:	86aa                	c.mv	a3,a0
    4104:	06078263          	beq	a5,zero,4168 <core_list_reverse+0x70>
    4108:	4398                	c.lw	a4,0(a5)
    410a:	c394                	c.sw	a3,0(a5)
    410c:	853e                	c.mv	a0,a5
    410e:	cf39                	c.beqz	a4,416c <core_list_reverse+0x74>
    4110:	00072283          	lw	t0,0(a4)
    4114:	c31c                	c.sw	a5,0(a4)
    4116:	853a                	c.mv	a0,a4
    4118:	04028863          	beq	t0,zero,4168 <core_list_reverse+0x70>
    411c:	0002a303          	lw	t1,0(t0)
    4120:	00e2a023          	sw	a4,0(t0)
    4124:	8516                	c.mv	a0,t0
    4126:	04030163          	beq	t1,zero,4168 <core_list_reverse+0x70>
    412a:	00032383          	lw	t2,0(t1)
    412e:	00532023          	sw	t0,0(t1)
    4132:	851a                	c.mv	a0,t1
    4134:	02038a63          	beq	t2,zero,4168 <core_list_reverse+0x70>
    4138:	0003a583          	lw	a1,0(t2)
    413c:	0063a023          	sw	t1,0(t2)
    4140:	851e                	c.mv	a0,t2
    4142:	c19d                	c.beqz	a1,4168 <core_list_reverse+0x70>
    4144:	4190                	c.lw	a2,0(a1)
    4146:	0075a023          	sw	t2,0(a1)
    414a:	852e                	c.mv	a0,a1
    414c:	ce11                	c.beqz	a2,4168 <core_list_reverse+0x70>
    414e:	00062803          	lw	a6,0(a2)
    4152:	c20c                	c.sw	a1,0(a2)
    4154:	8532                	c.mv	a0,a2
    4156:	88b2                	c.mv	a7,a2
    4158:	00080863          	beq	a6,zero,4168 <core_list_reverse+0x70>
    415c:	8542                	c.mv	a0,a6
    415e:	411c                	c.lw	a5,0(a0)
    4160:	01152023          	sw	a7,0(a0)
    4164:	86aa                	c.mv	a3,a0
    4166:	f3cd                	c.bnez	a5,4108 <core_list_reverse+0x10>
    4168:	00008067          	jalr	zero,0(ra)
    416c:	00008067          	jalr	zero,0(ra)

00004170 <core_list_mergesort>:
    4170:	7179                	c.addi16sp	sp,-48
    4172:	d422                	c.swsp	s0,40(sp)
    4174:	c85a                	c.swsp	s6,16(sp)
    4176:	c65e                	c.swsp	s7,12(sp)
    4178:	c266                	c.swsp	s9,4(sp)
    417a:	842a                	c.mv	s0,a0
    417c:	8b2e                	c.mv	s6,a1
    417e:	8cb2                	c.mv	s9,a2
    4180:	4b85                	c.li	s7,1
    4182:	d606                	c.swsp	ra,44(sp)
    4184:	d226                	c.swsp	s1,36(sp)
    4186:	d04a                	c.swsp	s2,32(sp)
    4188:	ce4e                	c.swsp	s3,28(sp)
    418a:	cc52                	c.swsp	s4,24(sp)
    418c:	ca56                	c.swsp	s5,20(sp)
    418e:	c462                	c.swsp	s8,8(sp)
    4190:	10040a63          	beq	s0,zero,42a4 <core_list_mergesort+0x134>
    4194:	4c01                	c.li	s8,0
    4196:	4481                	c.li	s1,0
    4198:	00000a93          	addi	s5,zero,0
    419c:	007bf713          	andi	a4,s7,7
    41a0:	87a2                	c.mv	a5,s0
    41a2:	0c05                	c.addi	s8,1
    41a4:	4901                	c.li	s2,0
    41a6:	cb39                	c.beqz	a4,41fc <core_list_mergesort+0x8c>
    41a8:	0417545b          	beqc	a4,1,41f0 <core_list_mergesort+0x80>
    41ac:	02275e5b          	beqc	a4,2,41e8 <core_list_mergesort+0x78>
    41b0:	0237585b          	beqc	a4,3,41e0 <core_list_mergesort+0x70>
    41b4:	0247525b          	beqc	a4,4,41d8 <core_list_mergesort+0x68>
    41b8:	00575c5b          	beqc	a4,5,41d0 <core_list_mergesort+0x60>
    41bc:	0067565b          	beqc	a4,6,41c8 <core_list_mergesort+0x58>
    41c0:	401c                	c.lw	a5,0(s0)
    41c2:	4905                	c.li	s2,1
    41c4:	06078c63          	beq	a5,zero,423c <core_list_mergesort+0xcc>
    41c8:	439c                	c.lw	a5,0(a5)
    41ca:	0905                	c.addi	s2,1
    41cc:	06078863          	beq	a5,zero,423c <core_list_mergesort+0xcc>
    41d0:	439c                	c.lw	a5,0(a5)
    41d2:	0905                	c.addi	s2,1
    41d4:	06078463          	beq	a5,zero,423c <core_list_mergesort+0xcc>
    41d8:	439c                	c.lw	a5,0(a5)
    41da:	0905                	c.addi	s2,1
    41dc:	06078063          	beq	a5,zero,423c <core_list_mergesort+0xcc>
    41e0:	439c                	c.lw	a5,0(a5)
    41e2:	0905                	c.addi	s2,1
    41e4:	04078c63          	beq	a5,zero,423c <core_list_mergesort+0xcc>
    41e8:	439c                	c.lw	a5,0(a5)
    41ea:	0905                	c.addi	s2,1
    41ec:	04078863          	beq	a5,zero,423c <core_list_mergesort+0xcc>
    41f0:	439c                	c.lw	a5,0(a5)
    41f2:	0905                	c.addi	s2,1
    41f4:	04078463          	beq	a5,zero,423c <core_list_mergesort+0xcc>
    41f8:	052b8263          	beq	s7,s2,423c <core_list_mergesort+0xcc>
    41fc:	439c                	c.lw	a5,0(a5)
    41fe:	0905                	c.addi	s2,1
    4200:	80ca                	c.mv	ra,s2
    4202:	cf8d                	c.beqz	a5,423c <core_list_mergesort+0xcc>
    4204:	439c                	c.lw	a5,0(a5)
    4206:	0905                	c.addi	s2,1
    4208:	cb95                	c.beqz	a5,423c <core_list_mergesort+0xcc>
    420a:	439c                	c.lw	a5,0(a5)
    420c:	00208913          	addi	s2,ra,2
    4210:	c795                	c.beqz	a5,423c <core_list_mergesort+0xcc>
    4212:	439c                	c.lw	a5,0(a5)
    4214:	00308913          	addi	s2,ra,3
    4218:	c395                	c.beqz	a5,423c <core_list_mergesort+0xcc>
    421a:	439c                	c.lw	a5,0(a5)
    421c:	00408913          	addi	s2,ra,4
    4220:	cf91                	c.beqz	a5,423c <core_list_mergesort+0xcc>
    4222:	439c                	c.lw	a5,0(a5)
    4224:	00508913          	addi	s2,ra,5
    4228:	cb91                	c.beqz	a5,423c <core_list_mergesort+0xcc>
    422a:	439c                	c.lw	a5,0(a5)
    422c:	00608913          	addi	s2,ra,6
    4230:	c791                	c.beqz	a5,423c <core_list_mergesort+0xcc>
    4232:	439c                	c.lw	a5,0(a5)
    4234:	00708913          	addi	s2,ra,7
    4238:	fc0790e3          	bne	a5,zero,41f8 <core_list_mergesort+0x88>
    423c:	8a22                	c.mv	s4,s0
    423e:	89de                	c.mv	s3,s7
    4240:	00078413          	addi	s0,a5,0
    4244:	02090663          	beq	s2,zero,4270 <core_list_mergesort+0x100>
    4248:	04098063          	beq	s3,zero,4288 <core_list_mergesort+0x118>
    424c:	cc15                	c.beqz	s0,4288 <core_list_mergesort+0x118>
    424e:	404c                	c.lw	a1,4(s0)
    4250:	004a2503          	lw	a0,4(s4)
    4254:	8666                	c.mv	a2,s9
    4256:	9b02                	c.jalr	s6
    4258:	02a05863          	bge	zero,a0,4288 <core_list_mergesort+0x118>
    425c:	82a2                	c.mv	t0,s0
    425e:	19fd                	c.addi	s3,-1
    4260:	4000                	c.lw	s0,0(s0)
    4262:	c88d                	c.beqz	s1,4294 <core_list_mergesort+0x124>
    4264:	0054a023          	sw	t0,0(s1)
    4268:	00028493          	addi	s1,t0,0
    426c:	fc091ee3          	bne	s2,zero,4248 <core_list_mergesort+0xd8>
    4270:	02098663          	beq	s3,zero,429c <core_list_mergesort+0x12c>
    4274:	fe0414e3          	bne	s0,zero,425c <core_list_mergesort+0xec>
    4278:	0004a023          	sw	zero,0(s1)
    427c:	021c585b          	beqc	s8,1,42ac <core_list_mergesort+0x13c>
    4280:	8456                	c.mv	s0,s5
    4282:	0b86                	c.slli	s7,0x1
    4284:	f0dff06f          	jal	zero,4190 <core_list_mergesort+0x20>
    4288:	82d2                	c.mv	t0,s4
    428a:	197d                	c.addi	s2,-1
    428c:	000a2a03          	lw	s4,0(s4)
    4290:	fc049ae3          	bne	s1,zero,4264 <core_list_mergesort+0xf4>
    4294:	8a96                	c.mv	s5,t0
    4296:	8496                	c.mv	s1,t0
    4298:	fd5ff06f          	jal	zero,426c <core_list_mergesort+0xfc>
    429c:	f00410e3          	bne	s0,zero,419c <core_list_mergesort+0x2c>
    42a0:	fd9ff06f          	jal	zero,4278 <core_list_mergesort+0x108>
    42a4:	00000a93          	addi	s5,zero,0
    42a8:	00002023          	sw	zero,0(zero) # 0 <__TEXT_BASE>
    42ac:	50b2                	c.lwsp	ra,44(sp)
    42ae:	5422                	c.lwsp	s0,40(sp)
    42b0:	5492                	c.lwsp	s1,36(sp)
    42b2:	5902                	c.lwsp	s2,32(sp)
    42b4:	49f2                	c.lwsp	s3,28(sp)
    42b6:	4a62                	c.lwsp	s4,24(sp)
    42b8:	4b42                	c.lwsp	s6,16(sp)
    42ba:	4bb2                	c.lwsp	s7,12(sp)
    42bc:	4c22                	c.lwsp	s8,8(sp)
    42be:	4c92                	c.lwsp	s9,4(sp)
    42c0:	8556                	c.mv	a0,s5
    42c2:	4ad2                	c.lwsp	s5,20(sp)
    42c4:	6145                	c.addi16sp	sp,48
    42c6:	8082                	c.jr	ra
    42c8:	0001                	c.addi	zero,0
	...

000042cc <iterate>:
    42cc:	1141                	c.addi	sp,-16
    42ce:	c04a                	c.swsp	s2,0(sp)
    42d0:	c606                	c.swsp	ra,12(sp)
    42d2:	c422                	c.swsp	s0,8(sp)
    42d4:	c226                	c.swsp	s1,4(sp)
    42d6:	01c52903          	lw	s2,28(a0)
    42da:	02052c23          	sw	zero,56(a0)
    42de:	02052e23          	sw	zero,60(a0)
    42e2:	03205f63          	bge	zero,s2,4320 <iterate+0x54>
    42e6:	842a                	c.mv	s0,a0
    42e8:	00000493          	addi	s1,zero,0
    42ec:	4585                	c.li	a1,1
    42ee:	8522                	c.mv	a0,s0
    42f0:	f91fe0ef          	jal	ra,3280 <core_bench_list>
    42f4:	03845583          	lhu	a1,56(s0)
    42f8:	6a1040ef          	jal	ra,9198 <crcu16>
    42fc:	55fd                	c.li	a1,-1
    42fe:	87aa                	c.mv	a5,a0
    4300:	00040513          	addi	a0,s0,0
    4304:	02f41c23          	sh	a5,56(s0)
    4308:	f79fe0ef          	jal	ra,3280 <core_bench_list>
    430c:	03845583          	lhu	a1,56(s0)
    4310:	689040ef          	jal	ra,9198 <crcu16>
    4314:	02a41c23          	sh	a0,56(s0)
    4318:	cc81                	c.beqz	s1,4330 <iterate+0x64>
    431a:	0485                	c.addi	s1,1
    431c:	fc9918e3          	bne	s2,s1,42ec <iterate+0x20>
    4320:	40b2                	c.lwsp	ra,12(sp)
    4322:	4422                	c.lwsp	s0,8(sp)
    4324:	4492                	c.lwsp	s1,4(sp)
    4326:	4902                	c.lwsp	s2,0(sp)
    4328:	4501                	c.li	a0,0
    432a:	0141                	c.addi	sp,16
    432c:	00008067          	jalr	zero,0(ra)
    4330:	02a41d23          	sh	a0,58(s0)
    4334:	be19565b          	beqc	s2,1,4320 <iterate+0x54>
    4338:	4485                	c.li	s1,1
    433a:	bf4d                	c.j	42ec <iterate+0x20>
    433c:	0001                	c.addi	zero,0
	...

00004340 <main>:
    4340:	7119                	c.addi16sp	sp,-128
    4342:	6685                	c.lui	a3,0x1
    4344:	de86                	c.swsp	ra,124(sp)
    4346:	daa6                	c.swsp	s1,116(sp)
    4348:	dca2                	c.swsp	s0,120(sp)
    434a:	83068493          	addi	s1,a3,-2000 # 830 <__sharedata_end_addr+0x4c0>
    434e:	d8ca                	c.swsp	s2,112(sp)
    4350:	d6ce                	c.swsp	s3,108(sp)
    4352:	d4d2                	c.swsp	s4,104(sp)
    4354:	d2d6                	c.swsp	s5,100(sp)
    4356:	d0da                	c.swsp	s6,96(sp)
    4358:	cede                	c.swsp	s7,92(sp)
    435a:	cce2                	c.swsp	s8,88(sp)
    435c:	cae6                	c.swsp	s9,84(sp)
    435e:	c8ea                	c.swsp	s10,80(sp)
    4360:	c6ee                	c.swsp	s11,76(sp)
    4362:	77fd                	c.lui	a5,0xfffff
    4364:	81010113          	addi	sp,sp,-2032
    4368:	7dc78793          	addi	a5,a5,2012 # fffff7dc <__start_addr+0x7ffff7cc>
    436c:	948a                	c.add	s1,sp
    436e:	862e                	c.mv	a2,a1
    4370:	00a12623          	sw	a0,12(sp)
    4374:	00f485b3          	add	a1,s1,a5
    4378:	05e10513          	addi	a0,sp,94
    437c:	c35fe0ef          	jal	ra,2fb0 <portable_init>
    4380:	00100513          	addi	a0,zero,1
    4384:	511040ef          	jal	ra,9094 <get_seed_32>
    4388:	87aa                	c.mv	a5,a0
    438a:	4509                	c.li	a0,2
    438c:	00f11e23          	sh	a5,28(sp)
    4390:	505040ef          	jal	ra,9094 <get_seed_32>
    4394:	87aa                	c.mv	a5,a0
    4396:	450d                	c.li	a0,3
    4398:	00f11f23          	sh	a5,30(sp)
    439c:	4f9040ef          	jal	ra,9094 <get_seed_32>
    43a0:	87aa                	c.mv	a5,a0
    43a2:	4511                	c.li	a0,4
    43a4:	02f11023          	sh	a5,32(sp)
    43a8:	4ed040ef          	jal	ra,9094 <get_seed_32>
    43ac:	87aa                	c.mv	a5,a0
    43ae:	4515                	c.li	a0,5
    43b0:	02f12c23          	sw	a5,56(sp)
    43b4:	4e1040ef          	jal	ra,9094 <get_seed_32>
    43b8:	01c12783          	lw	a5,28(sp)
    43bc:	00051463          	bne	a0,zero,43c4 <main+0x84>
    43c0:	00700513          	addi	a0,zero,7
    43c4:	de2a                	c.swsp	a0,60(sp)
    43c6:	58079d63          	bne	a5,zero,4960 <main+0x620>
    43ca:	02011783          	lh	a5,32(sp)
    43ce:	e789                	c.bnez	a5,43d8 <main+0x98>
    43d0:	06600793          	addi	a5,zero,102
    43d4:	02f11023          	sh	a5,32(sp)
    43d8:	6685                	c.lui	a3,0x1
    43da:	83068693          	addi	a3,a3,-2000 # 830 <__sharedata_end_addr+0x4c0>
    43de:	777d                	c.lui	a4,0xfffff
    43e0:	968a                	c.add	a3,sp
    43e2:	57f2                	c.lwsp	a5,60(sp)
    43e4:	00e684b3          	add	s1,a3,a4
    43e8:	8626                	c.mv	a2,s1
    43ea:	c226                	c.swsp	s1,4(sp)
    43ec:	1084                	c.addi4spn	s1,sp,96
    43ee:	7e962a23          	sw	s1,2036(a2)
    43f2:	0017f613          	andi	a2,a5,1
    43f6:	00160713          	addi	a4,a2,1
    43fa:	8532                	c.mv	a0,a2
    43fc:	0017f45b          	bbc	a5,1,4404 <main+0xc4>
    4400:	00070513          	addi	a0,a4,0 # fffff000 <__start_addr+0x7fffeff0>
    4404:	00150713          	addi	a4,a0,1
    4408:	0027f45b          	bbc	a5,2,4410 <main+0xd0>
    440c:	00070513          	addi	a0,a4,0
    4410:	7d000713          	addi	a4,zero,2000
    4414:	02a74533          	div	a0,a4,a0
    4418:	04011e23          	sh	zero,92(sp)
    441c:	4681                	c.li	a3,0
    441e:	0027f713          	andi	a4,a5,2
    4422:	0047f593          	andi	a1,a5,4
    4426:	da2a                	c.swsp	a0,52(sp)
    4428:	0007f45b          	bbc	a5,0,4430 <main+0xf0>
    442c:	5500006f          	jal	zero,497c <main+0x63c>
    4430:	56071663          	bne	a4,zero,499c <main+0x65c>
    4434:	54059c63          	bne	a1,zero,498c <main+0x64c>
    4438:	48061463          	bne	a2,zero,48c0 <main+0x580>
    443c:	44071863          	bne	a4,zero,488c <main+0x54c>
    4440:	0227f05b          	bbc	a5,2,4460 <main+0x120>
    4444:	6485                	c.lui	s1,0x1
    4446:	83048693          	addi	a3,s1,-2000 # 830 <__sharedata_end_addr+0x4c0>
    444a:	77fd                	c.lui	a5,0xfffff
    444c:	968a                	c.add	a3,sp
    444e:	00f68633          	add	a2,a3,a5
    4452:	7ec61583          	lh	a1,2028(a2)
    4456:	c232                	c.swsp	a2,4(sp)
    4458:	5552                	c.lwsp	a0,52(sp)
    445a:	5642                	c.lwsp	a2,48(sp)
    445c:	065040ef          	jal	ra,8cc0 <core_init_state>
    4460:	57e2                	c.lwsp	a5,56(sp)
    4462:	e7d9                	c.bnez	a5,44f0 <main+0x1b0>
    4464:	6685                	c.lui	a3,0x1
    4466:	74fd                	c.lui	s1,0xfffff
    4468:	83068613          	addi	a2,a3,-2000 # 830 <__sharedata_end_addr+0x4c0>
    446c:	7ec48493          	addi	s1,s1,2028 # fffff7ec <__start_addr+0x7ffff7dc>
    4470:	960a                	c.add	a2,sp
    4472:	4785                	c.li	a5,1
    4474:	49a9                	c.li	s3,10
    4476:	94b2                	c.add	s1,a2
    4478:	02f12c23          	sw	a5,56(sp)
    447c:	57e2                	c.lwsp	a5,56(sp)
    447e:	4401                	c.li	s0,0
    4480:	033787b3          	mul	a5,a5,s3
    4484:	02f12c23          	sw	a5,56(sp)
    4488:	ab9fe0ef          	jal	ra,2f40 <start_time>
    448c:	5962                	c.lwsp	s2,56(sp)
    448e:	ca82                	c.swsp	zero,84(sp)
    4490:	04012c23          	sw	zero,88(sp)
    4494:	03205e63          	bge	zero,s2,44d0 <main+0x190>
    4498:	4585                	c.li	a1,1
    449a:	8526                	c.mv	a0,s1
    449c:	de5fe0ef          	jal	ra,3280 <core_bench_list>
    44a0:	05415583          	lhu	a1,84(sp)
    44a4:	4f5040ef          	jal	ra,9198 <crcu16>
    44a8:	55fd                	c.li	a1,-1
    44aa:	87aa                	c.mv	a5,a0
    44ac:	00048513          	addi	a0,s1,0
    44b0:	04f11a23          	sh	a5,84(sp)
    44b4:	dcdfe0ef          	jal	ra,3280 <core_bench_list>
    44b8:	05415583          	lhu	a1,84(sp)
    44bc:	4dd040ef          	jal	ra,9198 <crcu16>
    44c0:	04a11a23          	sh	a0,84(sp)
    44c4:	42040463          	beq	s0,zero,48ec <main+0x5ac>
    44c8:	00140413          	addi	s0,s0,1
    44cc:	fc8916e3          	bne	s2,s0,4498 <main+0x158>
    44d0:	a91fe0ef          	jal	ra,2f60 <stop_time>
    44d4:	aadfe0ef          	jal	ra,2f80 <get_time>
    44d8:	ab9fe0ef          	jal	ra,2f90 <time_in_secs>
    44dc:	faa050e3          	bge	zero,a0,447c <main+0x13c>
    44e0:	47a9                	c.li	a5,10
    44e2:	02a7c7b3          	div	a5,a5,a0
    44e6:	5762                	c.lwsp	a4,56(sp)
    44e8:	0785                	c.addi	a5,1
    44ea:	02e787b3          	mul	a5,a5,a4
    44ee:	dc3e                	c.swsp	a5,56(sp)
    44f0:	00001b37          	lui	s6,0x1
    44f4:	a4dfe0ef          	jal	ra,2f40 <start_time>
    44f8:	747d                	c.lui	s0,0xfffff
    44fa:	830b0493          	addi	s1,s6,-2000 # 830 <__sharedata_end_addr+0x4c0>
    44fe:	948a                	c.add	s1,sp
    4500:	7ec40513          	addi	a0,s0,2028 # fffff7ec <__start_addr+0x7ffff7dc>
    4504:	9526                	c.add	a0,s1
    4506:	33d9                	c.jal	42cc <iterate>
    4508:	a59fe0ef          	jal	ra,2f60 <stop_time>
    450c:	830b0493          	addi	s1,s6,-2000
    4510:	a71fe0ef          	jal	ra,2f80 <get_time>
    4514:	948a                	c.add	s1,sp
    4516:	00848633          	add	a2,s1,s0
    451a:	89aa                	c.mv	s3,a0
    451c:	7ec61503          	lh	a0,2028(a2)
    4520:	4581                	c.li	a1,0
    4522:	c232                	c.swsp	a2,4(sp)
    4524:	10c050ef          	jal	ra,9630 <crc16>
    4528:	4692                	c.lwsp	a3,4(sp)
    452a:	85aa                	c.mv	a1,a0
    452c:	7ee69503          	lh	a0,2030(a3)
    4530:	100050ef          	jal	ra,9630 <crc16>
    4534:	4612                	c.lwsp	a2,4(sp)
    4536:	85aa                	c.mv	a1,a0
    4538:	7f061503          	lh	a0,2032(a2)
    453c:	0f4050ef          	jal	ra,9630 <crc16>
    4540:	00050593          	addi	a1,a0,0
    4544:	03411503          	lh	a0,52(sp)
    4548:	0e8050ef          	jal	ra,9630 <crc16>
    454c:	67a1                	c.lui	a5,0x8
    454e:	b0578793          	addi	a5,a5,-1275 # 7b05 <matrix_sum+0x9d>
    4552:	84aa                	c.mv	s1,a0
    4554:	48f50c63          	beq	a0,a5,49ec <main+0x6ac>
    4558:	3ca7ec63          	bltu	a5,a0,4930 <main+0x5f0>
    455c:	6789                	c.lui	a5,0x2
    455e:	8f278793          	addi	a5,a5,-1806 # 18f2 <_EI_10_HANDLER_WRAPPER+0x7fa>
    4562:	4af50563          	beq	a0,a5,4a0c <main+0x6cc>
    4566:	6a95                	c.lui	s5,0x5
    4568:	eafa8793          	addi	a5,s5,-337 # 4eaf <core_bench_matrix+0x44f>
    456c:	4ef51663          	bne	a0,a5,4a58 <main+0x718>
    4570:	6939                	c.lui	s2,0xe
    4572:	6a1d                	c.lui	s4,0x7
    4574:	849d950b          	addigp	a0,-6072 # 200058 <__DATA_BASE+0x58>
    4578:	608a8b13          	addi	s6,s5,1544
    457c:	5a490913          	addi	s2,s2,1444 # e5a4 <__data_lmastart+0x35a4>
    4580:	a79a0a13          	addi	s4,s4,-1415 # 6a79 <matrix_test+0x9ed>
    4584:	01612423          	sw	s6,8(sp)
    4588:	969fe0ef          	jal	ra,2ef0 <puts>
    458c:	803fa7ab          	lwgp	a5,-2048 # 201010 <default_num_contexts>
    4590:	4c81                	c.li	s9,0
    4592:	4a81                	c.li	s5,0
    4594:	4d01                	c.li	s10,0
    4596:	4af05b63          	bge	zero,a5,4a4c <main+0x70c>
    459a:	6685                	c.lui	a3,0x1
    459c:	83068613          	addi	a2,a3,-2000 # 830 <__sharedata_end_addr+0x4c0>
    45a0:	77fd                	c.lui	a5,0xfffff
    45a2:	960a                	c.add	a2,sp
    45a4:	963e                	c.add	a2,a5
    45a6:	04400c13          	addi	s8,zero,68
    45aa:	6b85                	c.lui	s7,0x1
    45ac:	00c12223          	sw	a2,4(sp)
    45b0:	038d0433          	mul	s0,s10,s8
    45b4:	4692                	c.lwsp	a3,4(sp)
    45b6:	9436                	c.add	s0,a3
    45b8:	945e                	c.add	s0,s7
    45ba:	80c42783          	lw	a5,-2036(s0)
    45be:	82041623          	sh	zero,-2004(s0)
    45c2:	0207f35b          	bbc	a5,0,45e8 <main+0x2a8>
    45c6:	82645603          	lhu	a2,-2010(s0)
    45ca:	01460f63          	beq	a2,s4,45e8 <main+0x2a8>
    45ce:	86d2                	c.mv	a3,s4
    45d0:	000d0593          	addi	a1,s10,0
    45d4:	8d1d950b          	addigp	a0,-5936 # 2000e0 <__DATA_BASE+0xe0>
    45d8:	915fe0ef          	jal	ra,2eec <iprintf>
    45dc:	82c45783          	lhu	a5,-2004(s0)
    45e0:	00178793          	addi	a5,a5,1 # fffff001 <__start_addr+0x7fffeff1>
    45e4:	82f41623          	sh	a5,-2004(s0)
    45e8:	038d0433          	mul	s0,s10,s8
    45ec:	4612                	c.lwsp	a2,4(sp)
    45ee:	9432                	c.add	s0,a2
    45f0:	945e                	c.add	s0,s7
    45f2:	80c42783          	lw	a5,-2036(s0)
    45f6:	0217f55b          	bbc	a5,1,4620 <main+0x2e0>
    45fa:	82845603          	lhu	a2,-2008(s0)
    45fe:	03660163          	beq	a2,s6,4620 <main+0x2e0>
    4602:	46a2                	c.lwsp	a3,8(sp)
    4604:	000d0593          	addi	a1,s10,0
    4608:	901d950b          	addigp	a0,-5888 # 200110 <__DATA_BASE+0x110>
    460c:	8e1fe0ef          	jal	ra,2eec <iprintf>
    4610:	82c45683          	lhu	a3,-2004(s0)
    4614:	80c42783          	lw	a5,-2036(s0)
    4618:	00168693          	addi	a3,a3,1
    461c:	82d41623          	sh	a3,-2004(s0)
    4620:	6c27fe5b          	bbs	a5,2,48fc <main+0x5bc>
    4624:	038d0d33          	mul	s10,s10,s8
    4628:	4612                	c.lwsp	a2,4(sp)
    462a:	9d32                	c.add	s10,a2
    462c:	017d0d33          	add	s10,s10,s7
    4630:	82cd5783          	lhu	a5,-2004(s10)
    4634:	001a8713          	addi	a4,s5,1
    4638:	803fa6ab          	lwgp	a3,-2048 # 201010 <default_num_contexts>
    463c:	97e6                	c.add	a5,s9
    463e:	3c072adb          	bfoz	s5,a4,15,0
    4642:	3c07a45b          	bfoz	s0,a5,15,0
    4646:	3c07bcdb          	bfos	s9,a5,15,0
    464a:	8d56                	c.mv	s10,s5
    464c:	f6dac2e3          	blt	s5,a3,45b0 <main+0x270>
    4650:	168050ef          	jal	ra,97b8 <check_data_types>
    4654:	03412583          	lw	a1,52(sp)
    4658:	00a40933          	add	s2,s0,a0
    465c:	965d950b          	addigp	a0,-5788 # 200174 <__DATA_BASE+0x174>
    4660:	88dfe0ef          	jal	ra,2eec <iprintf>
    4664:	00098593          	addi	a1,s3,0
    4668:	97dd950b          	addigp	a0,-5764 # 20018c <__DATA_BASE+0x18c>
    466c:	881fe0ef          	jal	ra,2eec <iprintf>
    4670:	00098513          	addi	a0,s3,0
    4674:	91dfe0ef          	jal	ra,2f90 <time_in_secs>
    4678:	00050593          	addi	a1,a0,0
    467c:	995d950b          	addigp	a0,-5740 # 2001a4 <__DATA_BASE+0x1a4>
    4680:	86dfe0ef          	jal	ra,2eec <iprintf>
    4684:	00098513          	addi	a0,s3,0
    4688:	3c09295b          	bfoz	s2,s2,15,0
    468c:	905fe0ef          	jal	ra,2f90 <time_in_secs>
    4690:	02a05063          	bge	zero,a0,46b0 <main+0x370>
    4694:	803fa7ab          	lwgp	a5,-2048 # 201010 <default_num_contexts>
    4698:	5462                	c.lwsp	s0,56(sp)
    469a:	854e                	c.mv	a0,s3
    469c:	02f40433          	mul	s0,s0,a5
    46a0:	8f1fe0ef          	jal	ra,2f90 <time_in_secs>
    46a4:	02a445b3          	div	a1,s0,a0
    46a8:	9add950b          	addigp	a0,-5716 # 2001bc <__DATA_BASE+0x1bc>
    46ac:	841fe0ef          	jal	ra,2eec <iprintf>
    46b0:	00098513          	addi	a0,s3,0
    46b4:	8ddfe0ef          	jal	ra,2f90 <time_in_secs>
    46b8:	00900793          	addi	a5,zero,9
    46bc:	30a7da63          	bge	a5,a0,49d0 <main+0x690>
    46c0:	803fa7ab          	lwgp	a5,-2048 # 201010 <default_num_contexts>
    46c4:	03812583          	lw	a1,56(sp)
    46c8:	02f585b3          	mul	a1,a1,a5
    46cc:	a05d950b          	addigp	a0,-5628 # 200214 <__DATA_BASE+0x214>
    46d0:	3c09395b          	bfos	s2,s2,15,0
    46d4:	819fe0ef          	jal	ra,2eec <iprintf>
    46d8:	a1dd958b          	addigp	a1,-5604 # 20022c <__DATA_BASE+0x22c>
    46dc:	a29d950b          	addigp	a0,-5592 # 200238 <__DATA_BASE+0x238>
    46e0:	80dfe0ef          	jal	ra,2eec <iprintf>
    46e4:	a41d958b          	addigp	a1,-5568 # 200250 <__DATA_BASE+0x250>
    46e8:	a6dd950b          	addigp	a0,-5524 # 20027c <__DATA_BASE+0x27c>
    46ec:	801fe0ef          	jal	ra,2eec <iprintf>
    46f0:	a85d958b          	addigp	a1,-5500 # 200294 <__DATA_BASE+0x294>
    46f4:	ad5d950b          	addigp	a0,-5420 # 2002e4 <__DATA_BASE+0x2e4>
    46f8:	ff4fe0ef          	jal	ra,2eec <iprintf>
    46fc:	00048593          	addi	a1,s1,0
    4700:	aedd950b          	addigp	a0,-5396 # 2002fc <__DATA_BASE+0x2fc>
    4704:	fe8fe0ef          	jal	ra,2eec <iprintf>
    4708:	57f2                	c.lwsp	a5,60(sp)
    470a:	0407f95b          	bbc	a5,0,475c <main+0x41c>
    470e:	803fa72b          	lwgp	a4,-2048 # 201010 <default_num_contexts>
    4712:	04e05563          	bge	zero,a4,475c <main+0x41c>
    4716:	6485                	c.lui	s1,0x1
    4718:	83048493          	addi	s1,s1,-2000 # 830 <__sharedata_end_addr+0x4c0>
    471c:	948a                	c.add	s1,sp
    471e:	777d                	c.lui	a4,0xfffff
    4720:	00e486b3          	add	a3,s1,a4
    4724:	4781                	c.li	a5,0
    4726:	4581                	c.li	a1,0
    4728:	04400a13          	addi	s4,zero,68
    472c:	6985                	c.lui	s3,0x1
    472e:	c236                	c.swsp	a3,4(sp)
    4730:	03458733          	mul	a4,a1,s4
    4734:	4692                	c.lwsp	a3,4(sp)
    4736:	b09d950b          	addigp	a0,-5368 # 200318 <__DATA_BASE+0x318>
    473a:	9736                	c.add	a4,a3
    473c:	01370733          	add	a4,a4,s3
    4740:	82675603          	lhu	a2,-2010(a4) # ffffe826 <__start_addr+0x7fffe816>
    4744:	00178413          	addi	s0,a5,1
    4748:	fa4fe0ef          	jal	ra,2eec <iprintf>
    474c:	803fa72b          	lwgp	a4,-2048 # 201010 <default_num_contexts>
    4750:	3c0427db          	bfoz	a5,s0,15,0
    4754:	85be                	c.mv	a1,a5
    4756:	fce7cde3          	blt	a5,a4,4730 <main+0x3f0>
    475a:	57f2                	c.lwsp	a5,60(sp)
    475c:	0417fa5b          	bbc	a5,1,47b0 <main+0x470>
    4760:	803fa72b          	lwgp	a4,-2048 # 201010 <default_num_contexts>
    4764:	2ee05663          	bge	zero,a4,4a50 <main+0x710>
    4768:	6685                	c.lui	a3,0x1
    476a:	83068493          	addi	s1,a3,-2000 # 830 <__sharedata_end_addr+0x4c0>
    476e:	948a                	c.add	s1,sp
    4770:	777d                	c.lui	a4,0xfffff
    4772:	00e48633          	add	a2,s1,a4
    4776:	4781                	c.li	a5,0
    4778:	4581                	c.li	a1,0
    477a:	04400a13          	addi	s4,zero,68
    477e:	6985                	c.lui	s3,0x1
    4780:	00c12223          	sw	a2,4(sp)
    4784:	03458733          	mul	a4,a1,s4
    4788:	4612                	c.lwsp	a2,4(sp)
    478a:	b25d950b          	addigp	a0,-5340 # 200334 <__DATA_BASE+0x334>
    478e:	9732                	c.add	a4,a2
    4790:	01370733          	add	a4,a4,s3
    4794:	82875603          	lhu	a2,-2008(a4) # ffffe828 <__start_addr+0x7fffe818>
    4798:	00178413          	addi	s0,a5,1
    479c:	f50fe0ef          	jal	ra,2eec <iprintf>
    47a0:	803fa72b          	lwgp	a4,-2048 # 201010 <default_num_contexts>
    47a4:	3c0427db          	bfoz	a5,s0,15,0
    47a8:	85be                	c.mv	a1,a5
    47aa:	fce7cde3          	blt	a5,a4,4784 <main+0x444>
    47ae:	57f2                	c.lwsp	a5,60(sp)
    47b0:	0427fa5b          	bbc	a5,2,4804 <main+0x4c4>
    47b4:	803fa7ab          	lwgp	a5,-2048 # 201010 <default_num_contexts>
    47b8:	08f05c63          	bge	zero,a5,4850 <main+0x510>
    47bc:	6605                	c.lui	a2,0x1
    47be:	83060693          	addi	a3,a2,-2000 # 830 <__sharedata_end_addr+0x4c0>
    47c2:	777d                	c.lui	a4,0xfffff
    47c4:	968a                	c.add	a3,sp
    47c6:	00e684b3          	add	s1,a3,a4
    47ca:	c226                	c.swsp	s1,4(sp)
    47cc:	4781                	c.li	a5,0
    47ce:	4581                	c.li	a1,0
    47d0:	04400a13          	addi	s4,zero,68
    47d4:	000019b7          	lui	s3,0x1
    47d8:	03458733          	mul	a4,a1,s4
    47dc:	4692                	c.lwsp	a3,4(sp)
    47de:	b41d950b          	addigp	a0,-5312 # 200350 <__DATA_BASE+0x350>
    47e2:	9736                	c.add	a4,a3
    47e4:	01370733          	add	a4,a4,s3
    47e8:	82a75603          	lhu	a2,-2006(a4) # ffffe82a <__start_addr+0x7fffe81a>
    47ec:	00178413          	addi	s0,a5,1
    47f0:	efcfe0ef          	jal	ra,2eec <iprintf>
    47f4:	803fa72b          	lwgp	a4,-2048 # 201010 <default_num_contexts>
    47f8:	3c0427db          	bfoz	a5,s0,15,0
    47fc:	00078593          	addi	a1,a5,0
    4800:	fce7cce3          	blt	a5,a4,47d8 <main+0x498>
    4804:	803fa7ab          	lwgp	a5,-2048 # 201010 <default_num_contexts>
    4808:	04f05463          	bge	zero,a5,4850 <main+0x510>
    480c:	6685                	c.lui	a3,0x1
    480e:	83068493          	addi	s1,a3,-2000 # 830 <__sharedata_end_addr+0x4c0>
    4812:	777d                	c.lui	a4,0xfffff
    4814:	948a                	c.add	s1,sp
    4816:	94ba                	c.add	s1,a4
    4818:	c226                	c.swsp	s1,4(sp)
    481a:	4781                	c.li	a5,0
    481c:	4581                	c.li	a1,0
    481e:	04400a13          	addi	s4,zero,68
    4822:	6985                	c.lui	s3,0x1
    4824:	03458733          	mul	a4,a1,s4
    4828:	4612                	c.lwsp	a2,4(sp)
    482a:	b5dd950b          	addigp	a0,-5284 # 20036c <__DATA_BASE+0x36c>
    482e:	9732                	c.add	a4,a2
    4830:	01370733          	add	a4,a4,s3
    4834:	82475603          	lhu	a2,-2012(a4) # ffffe824 <__start_addr+0x7fffe814>
    4838:	00178413          	addi	s0,a5,1
    483c:	eb0fe0ef          	jal	ra,2eec <iprintf>
    4840:	803fa72b          	lwgp	a4,-2048 # 201010 <default_num_contexts>
    4844:	3c0427db          	bfoz	a5,s0,15,0
    4848:	00078593          	addi	a1,a5,0
    484c:	fce7cce3          	blt	a5,a4,4824 <main+0x4e4>
    4850:	18090863          	beq	s2,zero,49e0 <main+0x6a0>
    4854:	17205863          	bge	zero,s2,49c4 <main+0x684>
    4858:	bc1d950b          	addigp	a0,-5184 # 2003d0 <__DATA_BASE+0x3d0>
    485c:	e94fe0ef          	jal	ra,2ef0 <puts>
    4860:	05e10513          	addi	a0,sp,94
    4864:	f54fe0ef          	jal	ra,2fb8 <portable_fini>
    4868:	7f010113          	addi	sp,sp,2032
    486c:	50f6                	c.lwsp	ra,124(sp)
    486e:	5466                	c.lwsp	s0,120(sp)
    4870:	54d6                	c.lwsp	s1,116(sp)
    4872:	5946                	c.lwsp	s2,112(sp)
    4874:	59b6                	c.lwsp	s3,108(sp)
    4876:	5a26                	c.lwsp	s4,104(sp)
    4878:	5a96                	c.lwsp	s5,100(sp)
    487a:	5b06                	c.lwsp	s6,96(sp)
    487c:	4bf6                	c.lwsp	s7,92(sp)
    487e:	4c66                	c.lwsp	s8,88(sp)
    4880:	4cd6                	c.lwsp	s9,84(sp)
    4882:	4d46                	c.lwsp	s10,80(sp)
    4884:	4db6                	c.lwsp	s11,76(sp)
    4886:	4501                	c.li	a0,0
    4888:	6109                	c.addi16sp	sp,128
    488a:	8082                	c.jr	ra
    488c:	6485                	c.lui	s1,0x1
    488e:	83048693          	addi	a3,s1,-2000 # 830 <__sharedata_end_addr+0x4c0>
    4892:	77fd                	c.lui	a5,0xfffff
    4894:	968a                	c.add	a3,sp
    4896:	00f68633          	add	a2,a3,a5
    489a:	7ee61783          	lh	a5,2030(a2)
    489e:	86b2                	c.mv	a3,a2
    48a0:	c232                	c.swsp	a2,4(sp)
    48a2:	7ec61603          	lh	a2,2028(a2)
    48a6:	07c2                	c.slli	a5,0x10
    48a8:	7fc6a583          	lw	a1,2044(a3)
    48ac:	5552                	c.lwsp	a0,52(sp)
    48ae:	8e5d                	c.or	a2,a5
    48b0:	04410693          	addi	a3,sp,68
    48b4:	4b5020ef          	jal	ra,7568 <core_init_matrix>
    48b8:	03c12783          	lw	a5,60(sp)
    48bc:	b85ff06f          	jal	zero,4440 <main+0x100>
    48c0:	6685                	c.lui	a3,0x1
    48c2:	83068493          	addi	s1,a3,-2000 # 830 <__sharedata_end_addr+0x4c0>
    48c6:	77fd                	c.lui	a5,0xfffff
    48c8:	948a                	c.add	s1,sp
    48ca:	94be                	c.add	s1,a5
    48cc:	7ec49603          	lh	a2,2028(s1)
    48d0:	7f84a583          	lw	a1,2040(s1)
    48d4:	00912223          	sw	s1,4(sp)
    48d8:	b08ff0ef          	jal	ra,3be0 <core_list_init>
    48dc:	57f2                	c.lwsp	a5,60(sp)
    48de:	c0aa                	c.swsp	a0,64(sp)
    48e0:	0027f713          	andi	a4,a5,2
    48e4:	b4070ee3          	beq	a4,zero,4440 <main+0x100>
    48e8:	fa5ff06f          	jal	zero,488c <main+0x54c>
    48ec:	04a11b23          	sh	a0,86(sp)
    48f0:	0019645b          	bnec	s2,1,48f8 <main+0x5b8>
    48f4:	bddff06f          	jal	zero,44d0 <main+0x190>
    48f8:	4405                	c.li	s0,1
    48fa:	be79                	c.j	4498 <main+0x158>
    48fc:	038d0433          	mul	s0,s10,s8
    4900:	4692                	c.lwsp	a3,4(sp)
    4902:	9436                	c.add	s0,a3
    4904:	945e                	c.add	s0,s7
    4906:	82a45603          	lhu	a2,-2006(s0)
    490a:	01261563          	bne	a2,s2,4914 <main+0x5d4>
    490e:	82c45783          	lhu	a5,-2004(s0)
    4912:	b30d                	c.j	4634 <main+0x2f4>
    4914:	86ca                	c.mv	a3,s2
    4916:	85ea                	c.mv	a1,s10
    4918:	935d950b          	addigp	a0,-5836 # 200144 <__DATA_BASE+0x144>
    491c:	dd0fe0ef          	jal	ra,2eec <iprintf>
    4920:	82c45783          	lhu	a5,-2004(s0)
    4924:	0785                	c.addi	a5,1
    4926:	3c07a7db          	bfoz	a5,a5,15,0
    492a:	82f41623          	sh	a5,-2004(s0)
    492e:	b319                	c.j	4634 <main+0x2f4>
    4930:	6925                	c.lui	s2,0x9
    4932:	a0290793          	addi	a5,s2,-1534 # 8a02 <core_bench_state+0x2a2>
    4936:	0ef50b63          	beq	a0,a5,4a2c <main+0x6ec>
    493a:	67bd                	c.lui	a5,0xf
    493c:	9f578793          	addi	a5,a5,-1547 # e9f5 <__data_lmastart+0x39f5>
    4940:	10f51c63          	bne	a0,a5,4a58 <main+0x718>
    4944:	6a89                	c.lui	s5,0x2
    4946:	879d950b          	addigp	a0,-6024 # 200088 <__DATA_BASE+0x88>
    494a:	fd7a8b13          	addi	s6,s5,-41 # 1fd7 <_EI_10_HANDLER_WRAPPER+0xedf>
    494e:	6a39                	c.lui	s4,0xe
    4950:	da0fe0ef          	jal	ra,2ef0 <puts>
    4954:	e3a90913          	addi	s2,s2,-454
    4958:	714a0a13          	addi	s4,s4,1812 # e714 <__data_lmastart+0x3714>
    495c:	c45a                	c.swsp	s6,8(sp)
    495e:	b13d                	c.j	458c <main+0x24c>
    4960:	0017d45b          	beqc	a5,1,4968 <main+0x628>
    4964:	a75ff06f          	jal	zero,43d8 <main+0x98>
    4968:	02011783          	lh	a5,32(sp)
    496c:	a60796e3          	bne	a5,zero,43d8 <main+0x98>
    4970:	341537b7          	lui	a5,0x34153
    4974:	41578793          	addi	a5,a5,1045 # 34153415 <VPE_FAIL+0x32f1eeac>
    4978:	ce3e                	c.swsp	a5,28(sp)
    497a:	bc99                	c.j	43d0 <main+0x90>
    497c:	4492                	c.lwsp	s1,4(sp)
    497e:	1080                	c.addi4spn	s0,sp,96
    4980:	7e84ac23          	sw	s0,2040(s1)
    4984:	4685                	c.li	a3,1
    4986:	aa0707e3          	beq	a4,zero,4434 <main+0xf4>
    498a:	a809                	c.j	499c <main+0x65c>
    498c:	02a686b3          	mul	a3,a3,a0
    4990:	1084                	c.addi4spn	s1,sp,96
    4992:	96a6                	c.add	a3,s1
    4994:	d836                	c.swsp	a3,48(sp)
    4996:	aa0603e3          	beq	a2,zero,443c <main+0xfc>
    499a:	b71d                	c.j	48c0 <main+0x580>
    499c:	02a68833          	mul	a6,a3,a0
    49a0:	1084                	c.addi4spn	s1,sp,96
    49a2:	78fd                	c.lui	a7,0xfffff
    49a4:	9826                	c.add	a6,s1
    49a6:	6485                	c.lui	s1,0x1
    49a8:	83048493          	addi	s1,s1,-2000 # 830 <__sharedata_end_addr+0x4c0>
    49ac:	948a                	c.add	s1,sp
    49ae:	94c6                	c.add	s1,a7
    49b0:	0685                	c.addi	a3,1
    49b2:	c226                	c.swsp	s1,4(sp)
    49b4:	7f04ae23          	sw	a6,2044(s1)
    49b8:	3c06a6db          	bfoz	a3,a3,15,0
    49bc:	a6058ee3          	beq	a1,zero,4438 <main+0xf8>
    49c0:	fcdff06f          	jal	zero,498c <main+0x64c>
    49c4:	bd1d950b          	addigp	a0,-5168 # 2003e0 <__DATA_BASE+0x3e0>
    49c8:	d28fe0ef          	jal	ra,2ef0 <puts>
    49cc:	e95ff06f          	jal	zero,4860 <main+0x520>
    49d0:	9c5d950b          	addigp	a0,-5692 # 2001d4 <__DATA_BASE+0x1d4>
    49d4:	00190913          	addi	s2,s2,1
    49d8:	d18fe0ef          	jal	ra,2ef0 <puts>
    49dc:	ce5ff06f          	jal	zero,46c0 <main+0x380>
    49e0:	b79d950b          	addigp	a0,-5256 # 200388 <__DATA_BASE+0x388>
    49e4:	d0cfe0ef          	jal	ra,2ef0 <puts>
    49e8:	e79ff06f          	jal	zero,4860 <main+0x520>
    49ec:	6a85                	c.lui	s5,0x1
    49ee:	81dd950b          	addigp	a0,-6116 # 20002c <__DATA_BASE+0x2c>
    49f2:	199a8b13          	addi	s6,s5,409 # 1199 <_EI_10_HANDLER_WRAPPER+0xa1>
    49f6:	6911                	c.lui	s2,0x4
    49f8:	6a0d                	c.lui	s4,0x3
    49fa:	c45a                	c.swsp	s6,8(sp)
    49fc:	9bf90913          	addi	s2,s2,-1601 # 39bf <core_bench_list+0x73f>
    4a00:	340a0a13          	addi	s4,s4,832 # 3340 <core_bench_list+0xc0>
    4a04:	cecfe0ef          	jal	ra,2ef0 <puts>
    4a08:	b85ff06f          	jal	zero,458c <main+0x24c>
    4a0c:	8a5d950b          	addigp	a0,-5980 # 2000b4 <__DATA_BASE+0xb4>
    4a10:	ce0fe0ef          	jal	ra,2ef0 <puts>
    4a14:	6925                	c.lui	s2,0x9
    4a16:	74700693          	addi	a3,zero,1863
    4a1a:	6a39                	c.lui	s4,0xe
    4a1c:	d8490913          	addi	s2,s2,-636 # 8d84 <core_init_state+0xc4>
    4a20:	74700b13          	addi	s6,zero,1863
    4a24:	3c1a0a13          	addi	s4,s4,961 # e3c1 <__data_lmastart+0x33c1>
    4a28:	c436                	c.swsp	a3,8(sp)
    4a2a:	b68d                	c.j	458c <main+0x24c>
    4a2c:	6ab1                	c.lui	s5,0xc
    4a2e:	ff0d950b          	addigp	a0,-6160 # 200000 <__DATA_BASE>
    4a32:	e52a8b13          	addi	s6,s5,-430 # be52 <__data_lmastart+0xe52>
    4a36:	6919                	c.lui	s2,0x6
    4a38:	0000da37          	lui	s4,0xd
    4a3c:	cb4fe0ef          	jal	ra,2ef0 <puts>
    4a40:	e4790913          	addi	s2,s2,-441 # 5e47 <core_bench_matrix+0x13e7>
    4a44:	4b0a0a13          	addi	s4,s4,1200 # d4b0 <__data_lmastart+0x24b0>
    4a48:	c45a                	c.swsp	s6,8(sp)
    4a4a:	b689                	c.j	458c <main+0x24c>
    4a4c:	4401                	c.li	s0,0
    4a4e:	b109                	c.j	4650 <main+0x310>
    4a50:	9a27fa5b          	bbc	a5,2,4804 <main+0x4c4>
    4a54:	dfdff06f          	jal	zero,4850 <main+0x510>
    4a58:	6441                	c.lui	s0,0x10
    4a5a:	147d                	c.addi	s0,-1
    4a5c:	bed5                	c.j	4650 <main+0x310>
	...

00004a60 <core_bench_matrix>:
    4a60:	715d                	c.addi16sp	sp,-80
    4a62:	86ae                	c.mv	a3,a1
    4a64:	414c                	c.lw	a1,4(a0)
    4a66:	c2a6                	c.swsp	s1,68(sp)
    4a68:	4104                	c.lw	s1,0(a0)
    4a6a:	c0ca                	c.swsp	s2,64(sp)
    4a6c:	d85a                	c.swsp	s6,48(sp)
    4a6e:	797d                	c.lui	s2,0xfffff
    4a70:	d462                	c.swsp	s8,40(sp)
    4a72:	c686                	c.swsp	ra,76(sp)
    4a74:	c4a2                	c.swsp	s0,72(sp)
    4a76:	de4e                	c.swsp	s3,60(sp)
    4a78:	dc52                	c.swsp	s4,56(sp)
    4a7a:	da56                	c.swsp	s5,52(sp)
    4a7c:	d65e                	c.swsp	s7,44(sp)
    4a7e:	d266                	c.swsp	s9,36(sp)
    4a80:	d06a                	c.swsp	s10,32(sp)
    4a82:	ce6e                	c.swsp	s11,28(sp)
    4a84:	c42e                	c.swsp	a1,8(sp)
    4a86:	c632                	c.swsp	a2,12(sp)
    4a88:	00c52c03          	lw	s8,12(a0)
    4a8c:	00852b03          	lw	s6,8(a0)
    4a90:	0126e933          	or	s2,a3,s2
    4a94:	00904463          	blt	zero,s1,4a9c <core_bench_matrix+0x3c>
    4a98:	5ac0106f          	jal	zero,6044 <core_bench_matrix+0x15e4>
    4a9c:	40900d33          	sub	s10,zero,s1
    4aa0:	0a95865b          	lea.h	a2,a1,s1
    4aa4:	8aae                	c.mv	s5,a1
    4aa6:	3c06a9db          	bfoz	s3,a3,15,0
    4aaa:	85b2                	c.mv	a1,a2
    4aac:	00149413          	slli	s0,s1,0x1
    4ab0:	001d1c93          	slli	s9,s10,0x1
    4ab4:	002d1393          	slli	t2,s10,0x2
    4ab8:	00000313          	addi	t1,zero,0
    4abc:	00bc8533          	add	a0,s9,a1
    4ac0:	40a58733          	sub	a4,a1,a0
    4ac4:	ffe70093          	addi	ra,a4,-2
    4ac8:	0010d293          	srli	t0,ra,0x1
    4acc:	00128813          	addi	a6,t0,1
    4ad0:	00787893          	andi	a7,a6,7
    4ad4:	00050793          	addi	a5,a0,0
    4ad8:	08088863          	beq	a7,zero,4b68 <core_bench_matrix+0x108>
    4adc:	0618dc5b          	beqc	a7,1,4b54 <core_bench_matrix+0xf4>
    4ae0:	0628d25b          	beqc	a7,2,4b44 <core_bench_matrix+0xe4>
    4ae4:	0438d85b          	beqc	a7,3,4b34 <core_bench_matrix+0xd4>
    4ae8:	0248de5b          	beqc	a7,4,4b24 <core_bench_matrix+0xc4>
    4aec:	0258d45b          	beqc	a7,5,4b14 <core_bench_matrix+0xb4>
    4af0:	0068da5b          	beqc	a7,6,4b04 <core_bench_matrix+0xa4>
    4af4:	00055a03          	lhu	s4,0(a0)
    4af8:	00250793          	addi	a5,a0,2
    4afc:	01498bb3          	add	s7,s3,s4
    4b00:	01751023          	sh	s7,0(a0)
    4b04:	0007dd83          	lhu	s11,0(a5)
    4b08:	00278793          	addi	a5,a5,2
    4b0c:	01b98e33          	add	t3,s3,s11
    4b10:	ffc79f23          	sh	t3,-2(a5)
    4b14:	0007de83          	lhu	t4,0(a5)
    4b18:	00278793          	addi	a5,a5,2
    4b1c:	01d98f33          	add	t5,s3,t4
    4b20:	ffe79f23          	sh	t5,-2(a5)
    4b24:	0007df83          	lhu	t6,0(a5)
    4b28:	00278793          	addi	a5,a5,2
    4b2c:	01f98733          	add	a4,s3,t6
    4b30:	fee79f23          	sh	a4,-2(a5)
    4b34:	0007d083          	lhu	ra,0(a5)
    4b38:	00278793          	addi	a5,a5,2
    4b3c:	001982b3          	add	t0,s3,ra
    4b40:	fe579f23          	sh	t0,-2(a5)
    4b44:	0007d803          	lhu	a6,0(a5)
    4b48:	00278793          	addi	a5,a5,2
    4b4c:	010988b3          	add	a7,s3,a6
    4b50:	ff179f23          	sh	a7,-2(a5)
    4b54:	0007da03          	lhu	s4,0(a5)
    4b58:	00278793          	addi	a5,a5,2
    4b5c:	01498bb3          	add	s7,s3,s4
    4b60:	ff779f23          	sh	s7,-2(a5)
    4b64:	06f58663          	beq	a1,a5,4bd0 <core_bench_matrix+0x170>
    4b68:	0007dd83          	lhu	s11,0(a5)
    4b6c:	0027df83          	lhu	t6,2(a5)
    4b70:	0047df03          	lhu	t5,4(a5)
    4b74:	0067de83          	lhu	t4,6(a5)
    4b78:	0087de03          	lhu	t3,8(a5)
    4b7c:	00a7d083          	lhu	ra,10(a5)
    4b80:	00c7d803          	lhu	a6,12(a5)
    4b84:	00e7d703          	lhu	a4,14(a5)
    4b88:	01b982b3          	add	t0,s3,s11
    4b8c:	01f98a33          	add	s4,s3,t6
    4b90:	01e98bb3          	add	s7,s3,t5
    4b94:	01d98db3          	add	s11,s3,t4
    4b98:	01c98fb3          	add	t6,s3,t3
    4b9c:	001988b3          	add	a7,s3,ra
    4ba0:	01098f33          	add	t5,s3,a6
    4ba4:	00e98eb3          	add	t4,s3,a4
    4ba8:	00579023          	sh	t0,0(a5)
    4bac:	01479123          	sh	s4,2(a5)
    4bb0:	01779223          	sh	s7,4(a5)
    4bb4:	01b79323          	sh	s11,6(a5)
    4bb8:	01f79423          	sh	t6,8(a5)
    4bbc:	01179523          	sh	a7,10(a5)
    4bc0:	01e79623          	sh	t5,12(a5)
    4bc4:	01d79723          	sh	t4,14(a5)
    4bc8:	01078793          	addi	a5,a5,16
    4bcc:	f8f59ee3          	bne	a1,a5,4b68 <core_bench_matrix+0x108>
    4bd0:	0305                	c.addi	t1,1
    4bd2:	407505b3          	sub	a1,a0,t2
    4bd6:	ee6493e3          	bne	s1,t1,4abc <core_bench_matrix+0x5c>
    4bda:	82e2                	c.mv	t0,s8
    4bdc:	00249a13          	slli	s4,s1,0x2
    4be0:	8be2                	c.mv	s7,s8
    4be2:	4081                	c.li	ra,0
    4be4:	00cc8db3          	add	s11,s9,a2
    4be8:	41b60533          	sub	a0,a2,s11
    4bec:	ffe50793          	addi	a5,a0,-2
    4bf0:	0017de13          	srli	t3,a5,0x1
    4bf4:	001e0813          	addi	a6,t3,1
    4bf8:	00787f93          	andi	t6,a6,7
    4bfc:	8716                	c.mv	a4,t0
    4bfe:	87ee                	c.mv	a5,s11
    4c00:	080f8a63          	beq	t6,zero,4c94 <core_bench_matrix+0x234>
    4c04:	061fde5b          	beqc	t6,1,4c80 <core_bench_matrix+0x220>
    4c08:	062fd45b          	beqc	t6,2,4c70 <core_bench_matrix+0x210>
    4c0c:	043fda5b          	beqc	t6,3,4c60 <core_bench_matrix+0x200>
    4c10:	044fd05b          	beqc	t6,4,4c50 <core_bench_matrix+0x1f0>
    4c14:	025fd65b          	beqc	t6,5,4c40 <core_bench_matrix+0x1e0>
    4c18:	006fdc5b          	beqc	t6,6,4c30 <core_bench_matrix+0x1d0>
    4c1c:	000d9883          	lh	a7,0(s11)
    4c20:	002d8793          	addi	a5,s11,2
    4c24:	00428713          	addi	a4,t0,4
    4c28:	02d88f33          	mul	t5,a7,a3
    4c2c:	01e2a023          	sw	t5,0(t0)
    4c30:	00079e83          	lh	t4,0(a5)
    4c34:	0711                	c.addi	a4,4
    4c36:	0789                	c.addi	a5,2
    4c38:	02de8333          	mul	t1,t4,a3
    4c3c:	fe672e23          	sw	t1,-4(a4)
    4c40:	00079583          	lh	a1,0(a5)
    4c44:	0711                	c.addi	a4,4
    4c46:	0789                	c.addi	a5,2
    4c48:	02d58533          	mul	a0,a1,a3
    4c4c:	fea72e23          	sw	a0,-4(a4)
    4c50:	00079e03          	lh	t3,0(a5)
    4c54:	0711                	c.addi	a4,4
    4c56:	0789                	c.addi	a5,2
    4c58:	02de0833          	mul	a6,t3,a3
    4c5c:	ff072e23          	sw	a6,-4(a4)
    4c60:	00079f83          	lh	t6,0(a5)
    4c64:	0711                	c.addi	a4,4
    4c66:	0789                	c.addi	a5,2
    4c68:	02df88b3          	mul	a7,t6,a3
    4c6c:	ff172e23          	sw	a7,-4(a4)
    4c70:	00079f03          	lh	t5,0(a5)
    4c74:	0711                	c.addi	a4,4
    4c76:	0789                	c.addi	a5,2
    4c78:	02df0eb3          	mul	t4,t5,a3
    4c7c:	ffd72e23          	sw	t4,-4(a4)
    4c80:	00079303          	lh	t1,0(a5)
    4c84:	0789                	c.addi	a5,2
    4c86:	0711                	c.addi	a4,4
    4c88:	02d305b3          	mul	a1,t1,a3
    4c8c:	feb72e23          	sw	a1,-4(a4)
    4c90:	06f60663          	beq	a2,a5,4cfc <core_bench_matrix+0x29c>
    4c94:	00079f83          	lh	t6,0(a5)
    4c98:	00279f03          	lh	t5,2(a5)
    4c9c:	00479e83          	lh	t4,4(a5)
    4ca0:	00679e03          	lh	t3,6(a5)
    4ca4:	00879303          	lh	t1,8(a5)
    4ca8:	00a79883          	lh	a7,10(a5)
    4cac:	00c79803          	lh	a6,12(a5)
    4cb0:	00e79503          	lh	a0,14(a5)
    4cb4:	02df85b3          	mul	a1,t6,a3
    4cb8:	02df0fb3          	mul	t6,t5,a3
    4cbc:	02de8f33          	mul	t5,t4,a3
    4cc0:	02de0eb3          	mul	t4,t3,a3
    4cc4:	02d30e33          	mul	t3,t1,a3
    4cc8:	02d88333          	mul	t1,a7,a3
    4ccc:	02d808b3          	mul	a7,a6,a3
    4cd0:	02d50833          	mul	a6,a0,a3
    4cd4:	c30c                	c.sw	a1,0(a4)
    4cd6:	01f72223          	sw	t6,4(a4)
    4cda:	01e72423          	sw	t5,8(a4)
    4cde:	01d72623          	sw	t4,12(a4)
    4ce2:	01c72823          	sw	t3,16(a4)
    4ce6:	00672a23          	sw	t1,20(a4)
    4cea:	01172c23          	sw	a7,24(a4)
    4cee:	01072e23          	sw	a6,28(a4)
    4cf2:	07c1                	c.addi	a5,16
    4cf4:	02070713          	addi	a4,a4,32
    4cf8:	f8f61ee3          	bne	a2,a5,4c94 <core_bench_matrix+0x234>
    4cfc:	0085                	c.addi	ra,1
    4cfe:	92d2                	c.add	t0,s4
    4d00:	407d8633          	sub	a2,s11,t2
    4d04:	ee1490e3          	bne	s1,ra,4be4 <core_bench_matrix+0x184>
    4d08:	014c0cb3          	add	s9,s8,s4
    4d0c:	8666                	c.mv	a2,s9
    4d0e:	4301                	c.li	t1,0
    4d10:	4781                	c.li	a5,0
    4d12:	0d0e                	c.slli	s10,0x3
    4d14:	4501                	c.li	a0,0
    4d16:	4801                	c.li	a6,0
    4d18:	00c382b3          	add	t0,t2,a2
    4d1c:	405606b3          	sub	a3,a2,t0
    4d20:	ffc68093          	addi	ra,a3,-4
    4d24:	0020dd93          	srli	s11,ra,0x2
    4d28:	001d8593          	addi	a1,s11,1
    4d2c:	0075ff93          	andi	t6,a1,7
    4d30:	8716                	c.mv	a4,t0
    4d32:	3e0f8be3          	beq	t6,zero,5928 <core_bench_matrix+0xec8>
    4d36:	0c1fdb5b          	beqc	t6,1,4e0c <core_bench_matrix+0x3ac>
    4d3a:	0a2fd95b          	beqc	t6,2,4dec <core_bench_matrix+0x38c>
    4d3e:	083fd75b          	beqc	t6,3,4dcc <core_bench_matrix+0x36c>
    4d42:	064fd55b          	beqc	t6,4,4dac <core_bench_matrix+0x34c>
    4d46:	045fd35b          	beqc	t6,5,4d8c <core_bench_matrix+0x32c>
    4d4a:	026fd15b          	beqc	t6,6,4d6c <core_bench_matrix+0x30c>
    4d4e:	871a                	c.mv	a4,t1
    4d50:	0002a303          	lw	t1,0(t0)
    4d54:	979a                	c.add	a5,t1
    4d56:	00f95463          	bge	s2,a5,4d5e <core_bench_matrix+0x2fe>
    4d5a:	2aa0106f          	jal	zero,6004 <core_bench_matrix+0x15a4>
    4d5e:	00672f33          	slt	t5,a4,t1
    4d62:	957a                	c.add	a0,t5
    4d64:	3c05355b          	bfos	a0,a0,15,0
    4d68:	00428713          	addi	a4,t0,4
    4d6c:	8e9a                	c.mv	t4,t1
    4d6e:	00072303          	lw	t1,0(a4)
    4d72:	979a                	c.add	a5,t1
    4d74:	00f95463          	bge	s2,a5,4d7c <core_bench_matrix+0x31c>
    4d78:	24c0106f          	jal	zero,5fc4 <core_bench_matrix+0x1564>
    4d7c:	006eae33          	slt	t3,t4,t1
    4d80:	00ae08b3          	add	a7,t3,a0
    4d84:	3c08b55b          	bfos	a0,a7,15,0
    4d88:	00470713          	addi	a4,a4,4
    4d8c:	809a                	c.mv	ra,t1
    4d8e:	00072303          	lw	t1,0(a4)
    4d92:	979a                	c.add	a5,t1
    4d94:	00f95463          	bge	s2,a5,4d9c <core_bench_matrix+0x33c>
    4d98:	1f00106f          	jal	zero,5f88 <core_bench_matrix+0x1528>
    4d9c:	0060adb3          	slt	s11,ra,t1
    4da0:	00ad85b3          	add	a1,s11,a0
    4da4:	3c05b55b          	bfos	a0,a1,15,0
    4da8:	00470713          	addi	a4,a4,4
    4dac:	8f1a                	c.mv	t5,t1
    4dae:	00072303          	lw	t1,0(a4)
    4db2:	979a                	c.add	a5,t1
    4db4:	00f95463          	bge	s2,a5,4dbc <core_bench_matrix+0x35c>
    4db8:	1940106f          	jal	zero,5f4c <core_bench_matrix+0x14ec>
    4dbc:	006f2eb3          	slt	t4,t5,t1
    4dc0:	01d50533          	add	a0,a0,t4
    4dc4:	3c05355b          	bfos	a0,a0,15,0
    4dc8:	00470713          	addi	a4,a4,4
    4dcc:	8e1a                	c.mv	t3,t1
    4dce:	00072303          	lw	t1,0(a4)
    4dd2:	979a                	c.add	a5,t1
    4dd4:	00f95463          	bge	s2,a5,4ddc <core_bench_matrix+0x37c>
    4dd8:	1340106f          	jal	zero,5f0c <core_bench_matrix+0x14ac>
    4ddc:	006e28b3          	slt	a7,t3,t1
    4de0:	00a886b3          	add	a3,a7,a0
    4de4:	3c06b55b          	bfos	a0,a3,15,0
    4de8:	00470713          	addi	a4,a4,4
    4dec:	8d9a                	c.mv	s11,t1
    4dee:	00072303          	lw	t1,0(a4)
    4df2:	979a                	c.add	a5,t1
    4df4:	00f95463          	bge	s2,a5,4dfc <core_bench_matrix+0x39c>
    4df8:	0d40106f          	jal	zero,5ecc <core_bench_matrix+0x146c>
    4dfc:	006da5b3          	slt	a1,s11,t1
    4e00:	00a58fb3          	add	t6,a1,a0
    4e04:	3c0fb55b          	bfos	a0,t6,15,0
    4e08:	00470713          	addi	a4,a4,4
    4e0c:	8e9a                	c.mv	t4,t1
    4e0e:	00072303          	lw	t1,0(a4)
    4e12:	979a                	c.add	a5,t1
    4e14:	00f95463          	bge	s2,a5,4e1c <core_bench_matrix+0x3bc>
    4e18:	0740106f          	jal	zero,5e8c <core_bench_matrix+0x142c>
    4e1c:	006eae33          	slt	t3,t4,t1
    4e20:	01c50533          	add	a0,a0,t3
    4e24:	3c05355b          	bfos	a0,a0,15,0
    4e28:	00470713          	addi	a4,a4,4
    4e2c:	2ee61ee3          	bne	a2,a4,5928 <core_bench_matrix+0xec8>
    4e30:	0805                	c.addi	a6,1
    4e32:	41a28633          	sub	a2,t0,s10
    4e36:	ef0491e3          	bne	s1,a6,4d18 <core_bench_matrix+0x2b8>
    4e3a:	4581                	c.li	a1,0
    4e3c:	7f4040ef          	jal	ra,9630 <crc16>
    4e40:	4da2                	c.lwsp	s11,8(sp)
    4e42:	85aa                	c.mv	a1,a0
    4e44:	000c0d13          	addi	s10,s8,0
    4e48:	008b0533          	add	a0,s6,s0
    4e4c:	416502b3          	sub	t0,a0,s6
    4e50:	ffe28e13          	addi	t3,t0,-2
    4e54:	001e5093          	srli	ra,t3,0x1
    4e58:	00108313          	addi	t1,ra,1
    4e5c:	00737f93          	andi	t6,t1,7
    4e60:	86da                	c.mv	a3,s6
    4e62:	88ee                	c.mv	a7,s11
    4e64:	00000793          	addi	a5,zero,0
    4e68:	0a0f8663          	beq	t6,zero,4f14 <core_bench_matrix+0x4b4>
    4e6c:	081fd85b          	beqc	t6,1,4efc <core_bench_matrix+0x49c>
    4e70:	062fdc5b          	beqc	t6,2,4ee8 <core_bench_matrix+0x488>
    4e74:	063fd05b          	beqc	t6,3,4ed4 <core_bench_matrix+0x474>
    4e78:	044fd45b          	beqc	t6,4,4ec0 <core_bench_matrix+0x460>
    4e7c:	025fd85b          	beqc	t6,5,4eac <core_bench_matrix+0x44c>
    4e80:	006fdc5b          	beqc	t6,6,4e98 <core_bench_matrix+0x438>
    4e84:	000d9f03          	lh	t5,0(s11)
    4e88:	000b1e83          	lh	t4,0(s6)
    4e8c:	002d8893          	addi	a7,s11,2
    4e90:	002b0693          	addi	a3,s6,2
    4e94:	03df07b3          	mul	a5,t5,t4
    4e98:	00089703          	lh	a4,0(a7) # fffff000 <__start_addr+0x7fffeff0>
    4e9c:	00069383          	lh	t2,0(a3)
    4ea0:	0889                	c.addi	a7,2
    4ea2:	0689                	c.addi	a3,2
    4ea4:	02770833          	mul	a6,a4,t2
    4ea8:	010787b3          	add	a5,a5,a6
    4eac:	00089603          	lh	a2,0(a7)
    4eb0:	00069283          	lh	t0,0(a3)
    4eb4:	0889                	c.addi	a7,2
    4eb6:	0689                	c.addi	a3,2
    4eb8:	02560e33          	mul	t3,a2,t0
    4ebc:	01c787b3          	add	a5,a5,t3
    4ec0:	00089083          	lh	ra,0(a7)
    4ec4:	00069303          	lh	t1,0(a3)
    4ec8:	0889                	c.addi	a7,2
    4eca:	0689                	c.addi	a3,2
    4ecc:	02608fb3          	mul	t6,ra,t1
    4ed0:	01f787b3          	add	a5,a5,t6
    4ed4:	00089f03          	lh	t5,0(a7)
    4ed8:	00069e83          	lh	t4,0(a3)
    4edc:	0889                	c.addi	a7,2
    4ede:	0689                	c.addi	a3,2
    4ee0:	03df0733          	mul	a4,t5,t4
    4ee4:	00e787b3          	add	a5,a5,a4
    4ee8:	00089383          	lh	t2,0(a7)
    4eec:	00069803          	lh	a6,0(a3)
    4ef0:	0889                	c.addi	a7,2
    4ef2:	0689                	c.addi	a3,2
    4ef4:	03038633          	mul	a2,t2,a6
    4ef8:	00c787b3          	add	a5,a5,a2
    4efc:	00089283          	lh	t0,0(a7)
    4f00:	00069e03          	lh	t3,0(a3)
    4f04:	0689                	c.addi	a3,2
    4f06:	0889                	c.addi	a7,2
    4f08:	03c280b3          	mul	ra,t0,t3
    4f0c:	001787b3          	add	a5,a5,ra
    4f10:	08d50663          	beq	a0,a3,4f9c <core_bench_matrix+0x53c>
    4f14:	00089f03          	lh	t5,0(a7)
    4f18:	00069303          	lh	t1,0(a3)
    4f1c:	00269e83          	lh	t4,2(a3)
    4f20:	00289f83          	lh	t6,2(a7)
    4f24:	00489383          	lh	t2,4(a7)
    4f28:	00469803          	lh	a6,4(a3)
    4f2c:	026f0633          	mul	a2,t5,t1
    4f30:	00689283          	lh	t0,6(a7)
    4f34:	00669f03          	lh	t5,6(a3)
    4f38:	03df8fb3          	mul	t6,t6,t4
    4f3c:	00869703          	lh	a4,8(a3)
    4f40:	00889e83          	lh	t4,8(a7)
    4f44:	030380b3          	mul	ra,t2,a6
    4f48:	00a69e03          	lh	t3,10(a3)
    4f4c:	00a89383          	lh	t2,10(a7)
    4f50:	03e28833          	mul	a6,t0,t5
    4f54:	00c89303          	lh	t1,12(a7)
    4f58:	97b2                	c.add	a5,a2
    4f5a:	00c69603          	lh	a2,12(a3)
    4f5e:	02ee8f33          	mul	t5,t4,a4
    4f62:	01f782b3          	add	t0,a5,t6
    4f66:	00e89e83          	lh	t4,14(a7)
    4f6a:	00e69f83          	lh	t6,14(a3)
    4f6e:	00128733          	add	a4,t0,ra
    4f72:	03c380b3          	mul	ra,t2,t3
    4f76:	02c30e33          	mul	t3,t1,a2
    4f7a:	010703b3          	add	t2,a4,a6
    4f7e:	01e387b3          	add	a5,t2,t5
    4f82:	03fe8833          	mul	a6,t4,t6
    4f86:	00178333          	add	t1,a5,ra
    4f8a:	01c30633          	add	a2,t1,t3
    4f8e:	06c1                	c.addi	a3,16
    4f90:	010607b3          	add	a5,a2,a6
    4f94:	01088893          	addi	a7,a7,16
    4f98:	f6d51ee3          	bne	a0,a3,4f14 <core_bench_matrix+0x4b4>
    4f9c:	00fd2023          	sw	a5,0(s10)
    4fa0:	0d11                	c.addi	s10,4
    4fa2:	9da2                	c.add	s11,s0
    4fa4:	ebac94e3          	bne	s9,s10,4e4c <core_bench_matrix+0x3ec>
    4fa8:	8862                	c.mv	a6,s8
    4faa:	4e01                	c.li	t3,0
    4fac:	4781                	c.li	a5,0
    4fae:	4501                	c.li	a0,0
    4fb0:	00000893          	addi	a7,zero,0
    4fb4:	8cf2                	c.mv	s9,t3
    4fb6:	00082e03          	lw	t3,0(a6)
    4fba:	fff48d93          	addi	s11,s1,-1
    4fbe:	97f2                	c.add	a5,t3
    4fc0:	007dfd13          	andi	s10,s11,7
    4fc4:	6af95ce3          	bge	s2,a5,5e7c <core_bench_matrix+0x141c>
    4fc8:	00a50293          	addi	t0,a0,10
    4fcc:	3c02b55b          	bfos	a0,t0,15,0
    4fd0:	00000793          	addi	a5,zero,0
    4fd4:	4605                	c.li	a2,1
    4fd6:	00480713          	addi	a4,a6,4
    4fda:	0e965b63          	bge	a2,s1,50d0 <core_bench_matrix+0x670>
    4fde:	2c0d01e3          	beq	s10,zero,5aa0 <core_bench_matrix+0x1040>
    4fe2:	0c1d575b          	beqc	s10,1,50b0 <core_bench_matrix+0x650>
    4fe6:	0a2d575b          	beqc	s10,2,5094 <core_bench_matrix+0x634>
    4fea:	083d575b          	beqc	s10,3,5078 <core_bench_matrix+0x618>
    4fee:	064d575b          	beqc	s10,4,505c <core_bench_matrix+0x5fc>
    4ff2:	045d555b          	beqc	s10,5,503c <core_bench_matrix+0x5dc>
    4ff6:	026d535b          	beqc	s10,6,501c <core_bench_matrix+0x5bc>
    4ffa:	8f72                	c.mv	t5,t3
    4ffc:	00072e03          	lw	t3,0(a4)
    5000:	01c787b3          	add	a5,a5,t3
    5004:	00f95463          	bge	s2,a5,500c <core_bench_matrix+0x5ac>
    5008:	02c0106f          	jal	zero,6034 <core_bench_matrix+0x15d4>
    500c:	01cf2eb3          	slt	t4,t5,t3
    5010:	00ae8fb3          	add	t6,t4,a0
    5014:	3c0fb55b          	bfos	a0,t6,15,0
    5018:	0605                	c.addi	a2,1
    501a:	0711                	c.addi	a4,4
    501c:	83f2                	c.mv	t2,t3
    501e:	00072e03          	lw	t3,0(a4)
    5022:	97f2                	c.add	a5,t3
    5024:	00f95463          	bge	s2,a5,502c <core_bench_matrix+0x5cc>
    5028:	7cd0006f          	jal	zero,5ff4 <core_bench_matrix+0x1594>
    502c:	01c3a333          	slt	t1,t2,t3
    5030:	00a30cb3          	add	s9,t1,a0
    5034:	3c0cb55b          	bfos	a0,s9,15,0
    5038:	0605                	c.addi	a2,1
    503a:	0711                	c.addi	a4,4
    503c:	8df2                	c.mv	s11,t3
    503e:	00072e03          	lw	t3,0(a4)
    5042:	97f2                	c.add	a5,t3
    5044:	00f95463          	bge	s2,a5,504c <core_bench_matrix+0x5ec>
    5048:	7510006f          	jal	zero,5f98 <core_bench_matrix+0x1538>
    504c:	01cdad33          	slt	s10,s11,t3
    5050:	00ad06b3          	add	a3,s10,a0
    5054:	3c06b55b          	bfos	a0,a3,15,0
    5058:	0605                	c.addi	a2,1
    505a:	0711                	c.addi	a4,4
    505c:	82f2                	c.mv	t0,t3
    505e:	00072e03          	lw	t3,0(a4)
    5062:	97f2                	c.add	a5,t3
    5064:	70f942e3          	blt	s2,a5,5f68 <core_bench_matrix+0x1508>
    5068:	01c2af33          	slt	t5,t0,t3
    506c:	00af0eb3          	add	t4,t5,a0
    5070:	3c0eb55b          	bfos	a0,t4,15,0
    5074:	0605                	c.addi	a2,1
    5076:	0711                	c.addi	a4,4
    5078:	80f2                	c.mv	ra,t3
    507a:	00072e03          	lw	t3,0(a4)
    507e:	97f2                	c.add	a5,t3
    5080:	6af94ee3          	blt	s2,a5,5f3c <core_bench_matrix+0x14dc>
    5084:	01c0a3b3          	slt	t2,ra,t3
    5088:	00a38333          	add	t1,t2,a0
    508c:	3c03355b          	bfos	a0,t1,15,0
    5090:	0605                	c.addi	a2,1
    5092:	0711                	c.addi	a4,4
    5094:	8df2                	c.mv	s11,t3
    5096:	00072e03          	lw	t3,0(a4)
    509a:	97f2                	c.add	a5,t3
    509c:	64f940e3          	blt	s2,a5,5edc <core_bench_matrix+0x147c>
    50a0:	01cdad33          	slt	s10,s11,t3
    50a4:	00ad06b3          	add	a3,s10,a0
    50a8:	3c06b55b          	bfos	a0,a3,15,0
    50ac:	0605                	c.addi	a2,1
    50ae:	0711                	c.addi	a4,4
    50b0:	82f2                	c.mv	t0,t3
    50b2:	00072e03          	lw	t3,0(a4)
    50b6:	97f2                	c.add	a5,t3
    50b8:	60f942e3          	blt	s2,a5,5ebc <core_bench_matrix+0x145c>
    50bc:	01c2af33          	slt	t5,t0,t3
    50c0:	01e50533          	add	a0,a0,t5
    50c4:	3c05355b          	bfos	a0,a0,15,0
    50c8:	0605                	c.addi	a2,1
    50ca:	0711                	c.addi	a4,4
    50cc:	1c964ae3          	blt	a2,s1,5aa0 <core_bench_matrix+0x1040>
    50d0:	0885                	c.addi	a7,1
    50d2:	9852                	c.add	a6,s4
    50d4:	ee98c0e3          	blt	a7,s1,4fb4 <core_bench_matrix+0x554>
    50d8:	558040ef          	jal	ra,9630 <crc16>
    50dc:	48a2                	c.lwsp	a7,8(sp)
    50de:	80e2                	c.mv	ra,s8
    50e0:	4381                	c.li	t2,0
    50e2:	c22a                	c.swsp	a0,4(sp)
    50e4:	85da                	c.mv	a1,s6
    50e6:	8806                	c.mv	a6,ra
    50e8:	00000513          	addi	a0,zero,0
    50ec:	00089c83          	lh	s9,0(a7)
    50f0:	00059d83          	lh	s11,0(a1)
    50f4:	fff48313          	addi	t1,s1,-1
    50f8:	4605                	c.li	a2,1
    50fa:	03bc8733          	mul	a4,s9,s11
    50fe:	00737d13          	andi	s10,t1,7
    5102:	00288693          	addi	a3,a7,2
    5106:	008587b3          	add	a5,a1,s0
    510a:	14965763          	bge	a2,s1,5258 <core_bench_matrix+0x7f8>
    510e:	0a0d0763          	beq	s10,zero,51bc <core_bench_matrix+0x75c>
    5112:	081d595b          	beqc	s10,1,51a4 <core_bench_matrix+0x744>
    5116:	062d5d5b          	beqc	s10,2,5190 <core_bench_matrix+0x730>
    511a:	063d515b          	beqc	s10,3,517c <core_bench_matrix+0x71c>
    511e:	044d555b          	beqc	s10,4,5168 <core_bench_matrix+0x708>
    5122:	025d595b          	beqc	s10,5,5154 <core_bench_matrix+0x6f4>
    5126:	006d5d5b          	beqc	s10,6,5140 <core_bench_matrix+0x6e0>
    512a:	00069283          	lh	t0,0(a3)
    512e:	00079f03          	lh	t5,0(a5)
    5132:	4609                	c.li	a2,2
    5134:	00488693          	addi	a3,a7,4
    5138:	03e28eb3          	mul	t4,t0,t5
    513c:	97a2                	c.add	a5,s0
    513e:	9776                	c.add	a4,t4
    5140:	00069f83          	lh	t6,0(a3)
    5144:	00079e03          	lh	t3,0(a5)
    5148:	0605                	c.addi	a2,1
    514a:	0689                	c.addi	a3,2
    514c:	03cf8cb3          	mul	s9,t6,t3
    5150:	97a2                	c.add	a5,s0
    5152:	9766                	c.add	a4,s9
    5154:	00069d83          	lh	s11,0(a3)
    5158:	00079303          	lh	t1,0(a5)
    515c:	0605                	c.addi	a2,1
    515e:	0689                	c.addi	a3,2
    5160:	026d8d33          	mul	s10,s11,t1
    5164:	97a2                	c.add	a5,s0
    5166:	976a                	c.add	a4,s10
    5168:	00069283          	lh	t0,0(a3)
    516c:	00079f03          	lh	t5,0(a5)
    5170:	0605                	c.addi	a2,1
    5172:	0689                	c.addi	a3,2
    5174:	03e28eb3          	mul	t4,t0,t5
    5178:	97a2                	c.add	a5,s0
    517a:	9776                	c.add	a4,t4
    517c:	00069f83          	lh	t6,0(a3)
    5180:	00079e03          	lh	t3,0(a5)
    5184:	0605                	c.addi	a2,1
    5186:	0689                	c.addi	a3,2
    5188:	03cf8cb3          	mul	s9,t6,t3
    518c:	97a2                	c.add	a5,s0
    518e:	9766                	c.add	a4,s9
    5190:	00069d83          	lh	s11,0(a3)
    5194:	00079303          	lh	t1,0(a5)
    5198:	0605                	c.addi	a2,1
    519a:	0689                	c.addi	a3,2
    519c:	026d8d33          	mul	s10,s11,t1
    51a0:	97a2                	c.add	a5,s0
    51a2:	976a                	c.add	a4,s10
    51a4:	00069283          	lh	t0,0(a3)
    51a8:	00079f03          	lh	t5,0(a5)
    51ac:	0605                	c.addi	a2,1
    51ae:	0689                	c.addi	a3,2
    51b0:	03e28eb3          	mul	t4,t0,t5
    51b4:	97a2                	c.add	a5,s0
    51b6:	9776                	c.add	a4,t4
    51b8:	0a965063          	bge	a2,s1,5258 <core_bench_matrix+0x7f8>
    51bc:	00878fb3          	add	t6,a5,s0
    51c0:	00079d83          	lh	s11,0(a5)
    51c4:	00069c83          	lh	s9,0(a3)
    51c8:	008f8333          	add	t1,t6,s0
    51cc:	00269d03          	lh	s10,2(a3)
    51d0:	000f9283          	lh	t0,0(t6)
    51d4:	00031e03          	lh	t3,0(t1)
    51d8:	00830eb3          	add	t4,t1,s0
    51dc:	00469f83          	lh	t6,4(a3)
    51e0:	03bc8cb3          	mul	s9,s9,s11
    51e4:	000e9303          	lh	t1,0(t4)
    51e8:	008e87b3          	add	a5,t4,s0
    51ec:	00669f03          	lh	t5,6(a3)
    51f0:	00079d83          	lh	s11,0(a5)
    51f4:	025d02b3          	mul	t0,s10,t0
    51f8:	00869e83          	lh	t4,8(a3)
    51fc:	97a2                	c.add	a5,s0
    51fe:	00079d03          	lh	s10,0(a5)
    5202:	03cf8fb3          	mul	t6,t6,t3
    5206:	97a2                	c.add	a5,s0
    5208:	00a69e03          	lh	t3,10(a3)
    520c:	026f0f33          	mul	t5,t5,t1
    5210:	9766                	c.add	a4,s9
    5212:	00079303          	lh	t1,0(a5)
    5216:	00c69c83          	lh	s9,12(a3)
    521a:	97a2                	c.add	a5,s0
    521c:	03be8eb3          	mul	t4,t4,s11
    5220:	92ba                	c.add	t0,a4
    5222:	00e69d83          	lh	s11,14(a3)
    5226:	00079703          	lh	a4,0(a5)
    522a:	03ae0e33          	mul	t3,t3,s10
    522e:	9f96                	c.add	t6,t0
    5230:	01ef8d33          	add	s10,t6,t5
    5234:	026c8f33          	mul	t5,s9,t1
    5238:	01dd0cb3          	add	s9,s10,t4
    523c:	02ed8333          	mul	t1,s11,a4
    5240:	01cc82b3          	add	t0,s9,t3
    5244:	01e28eb3          	add	t4,t0,t5
    5248:	0621                	c.addi	a2,8
    524a:	006e8733          	add	a4,t4,t1
    524e:	06c1                	c.addi	a3,16
    5250:	008787b3          	add	a5,a5,s0
    5254:	f69644e3          	blt	a2,s1,51bc <core_bench_matrix+0x75c>
    5258:	00e82023          	sw	a4,0(a6)
    525c:	0505                	c.addi	a0,1
    525e:	0811                	c.addi	a6,4
    5260:	0589                	c.addi	a1,2
    5262:	e89545e3          	blt	a0,s1,50ec <core_bench_matrix+0x68c>
    5266:	0385                	c.addi	t2,1
    5268:	98a2                	c.add	a7,s0
    526a:	90d2                	c.add	ra,s4
    526c:	e693cce3          	blt	t2,s1,50e4 <core_bench_matrix+0x684>
    5270:	80e2                	c.mv	ra,s8
    5272:	4301                	c.li	t1,0
    5274:	4781                	c.li	a5,0
    5276:	4501                	c.li	a0,0
    5278:	00000393          	addi	t2,zero,0
    527c:	859a                	c.mv	a1,t1
    527e:	0000a303          	lw	t1,0(ra)
    5282:	fff48893          	addi	a7,s1,-1
    5286:	979a                	c.add	a5,t1
    5288:	0078f813          	andi	a6,a7,7
    528c:	3ef950e3          	bge	s2,a5,5e6c <core_bench_matrix+0x140c>
    5290:	00a50693          	addi	a3,a0,10
    5294:	3c06b55b          	bfos	a0,a3,15,0
    5298:	00000793          	addi	a5,zero,0
    529c:	4605                	c.li	a2,1
    529e:	00408713          	addi	a4,ra,4
    52a2:	0e965563          	bge	a2,s1,538c <core_bench_matrix+0x92c>
    52a6:	16080fe3          	beq	a6,zero,5c24 <core_bench_matrix+0x11c4>
    52aa:	0c18515b          	beqc	a6,1,536c <core_bench_matrix+0x90c>
    52ae:	0a28515b          	beqc	a6,2,5350 <core_bench_matrix+0x8f0>
    52b2:	0838515b          	beqc	a6,3,5334 <core_bench_matrix+0x8d4>
    52b6:	0648515b          	beqc	a6,4,5318 <core_bench_matrix+0x8b8>
    52ba:	0458515b          	beqc	a6,5,52fc <core_bench_matrix+0x89c>
    52be:	0268515b          	beqc	a6,6,52e0 <core_bench_matrix+0x880>
    52c2:	8d9a                	c.mv	s11,t1
    52c4:	00072303          	lw	t1,0(a4)
    52c8:	006787b3          	add	a5,a5,t1
    52cc:	54f94ce3          	blt	s2,a5,6024 <core_bench_matrix+0x15c4>
    52d0:	006dafb3          	slt	t6,s11,t1
    52d4:	00af8e33          	add	t3,t6,a0
    52d8:	3c0e355b          	bfos	a0,t3,15,0
    52dc:	0605                	c.addi	a2,1
    52de:	0711                	c.addi	a4,4
    52e0:	8d1a                	c.mv	s10,t1
    52e2:	00072303          	lw	t1,0(a4)
    52e6:	979a                	c.add	a5,t1
    52e8:	4ef94ee3          	blt	s2,a5,5fe4 <core_bench_matrix+0x1584>
    52ec:	006d2f33          	slt	t5,s10,t1
    52f0:	00af0cb3          	add	s9,t5,a0
    52f4:	3c0cb55b          	bfos	a0,s9,15,0
    52f8:	0605                	c.addi	a2,1
    52fa:	0711                	c.addi	a4,4
    52fc:	8e9a                	c.mv	t4,t1
    52fe:	00072303          	lw	t1,0(a4)
    5302:	979a                	c.add	a5,t1
    5304:	4af948e3          	blt	s2,a5,5fb4 <core_bench_matrix+0x1554>
    5308:	006ea5b3          	slt	a1,t4,t1
    530c:	00a588b3          	add	a7,a1,a0
    5310:	3c08b55b          	bfos	a0,a7,15,0
    5314:	0605                	c.addi	a2,1
    5316:	0711                	c.addi	a4,4
    5318:	869a                	c.mv	a3,t1
    531a:	00072303          	lw	t1,0(a4)
    531e:	979a                	c.add	a5,t1
    5320:	44f94ce3          	blt	s2,a5,5f78 <core_bench_matrix+0x1518>
    5324:	0066adb3          	slt	s11,a3,t1
    5328:	01b50533          	add	a0,a0,s11
    532c:	3c05355b          	bfos	a0,a0,15,0
    5330:	0605                	c.addi	a2,1
    5332:	0711                	c.addi	a4,4
    5334:	8e1a                	c.mv	t3,t1
    5336:	00072303          	lw	t1,0(a4)
    533a:	979a                	c.add	a5,t1
    533c:	3ef940e3          	blt	s2,a5,5f1c <core_bench_matrix+0x14bc>
    5340:	006e2d33          	slt	s10,t3,t1
    5344:	00ad0f33          	add	t5,s10,a0
    5348:	3c0f355b          	bfos	a0,t5,15,0
    534c:	0605                	c.addi	a2,1
    534e:	0711                	c.addi	a4,4
    5350:	8c9a                	c.mv	s9,t1
    5352:	00072303          	lw	t1,0(a4)
    5356:	979a                	c.add	a5,t1
    5358:	3af942e3          	blt	s2,a5,5efc <core_bench_matrix+0x149c>
    535c:	006ca2b3          	slt	t0,s9,t1
    5360:	00a28eb3          	add	t4,t0,a0
    5364:	3c0eb55b          	bfos	a0,t4,15,0
    5368:	0605                	c.addi	a2,1
    536a:	0711                	c.addi	a4,4
    536c:	889a                	c.mv	a7,t1
    536e:	00072303          	lw	t1,0(a4)
    5372:	979a                	c.add	a5,t1
    5374:	32f94ce3          	blt	s2,a5,5eac <core_bench_matrix+0x144c>
    5378:	0068a833          	slt	a6,a7,t1
    537c:	00a806b3          	add	a3,a6,a0
    5380:	3c06b55b          	bfos	a0,a3,15,0
    5384:	0605                	c.addi	a2,1
    5386:	0711                	c.addi	a4,4
    5388:	08964ee3          	blt	a2,s1,5c24 <core_bench_matrix+0x11c4>
    538c:	0385                	c.addi	t2,1
    538e:	90d2                	c.add	ra,s4
    5390:	ee93c6e3          	blt	t2,s1,527c <core_bench_matrix+0x81c>
    5394:	00412583          	lw	a1,4(sp)
    5398:	298040ef          	jal	ra,9630 <crc16>
    539c:	c262                	c.swsp	s8,4(sp)
    539e:	4c01                	c.li	s8,0
    53a0:	48a2                	c.lwsp	a7,8(sp)
    53a2:	c42a                	c.swsp	a0,8(sp)
    53a4:	4812                	c.lwsp	a6,4(sp)
    53a6:	85da                	c.mv	a1,s6
    53a8:	00000513          	addi	a0,zero,0
    53ac:	00089083          	lh	ra,0(a7)
    53b0:	00059383          	lh	t2,0(a1)
    53b4:	fff48f93          	addi	t6,s1,-1
    53b8:	4605                	c.li	a2,1
    53ba:	02708d33          	mul	s10,ra,t2
    53be:	007ffe13          	andi	t3,t6,7
    53c2:	00288693          	addi	a3,a7,2
    53c6:	142d2f5b          	bfoz	t5,s10,5,2
    53ca:	2c5d2cdb          	bfoz	s9,s10,11,5
    53ce:	039f0733          	mul	a4,t5,s9
    53d2:	008587b3          	add	a5,a1,s0
    53d6:	20965563          	bge	a2,s1,55e0 <core_bench_matrix+0xb80>
    53da:	100e0163          	beq	t3,zero,54dc <core_bench_matrix+0xa7c>
    53de:	0c1e5d5b          	beqc	t3,1,54b8 <core_bench_matrix+0xa58>
    53e2:	0a2e5b5b          	beqc	t3,2,5498 <core_bench_matrix+0xa38>
    53e6:	083e595b          	beqc	t3,3,5478 <core_bench_matrix+0xa18>
    53ea:	064e575b          	beqc	t3,4,5458 <core_bench_matrix+0x9f8>
    53ee:	045e555b          	beqc	t3,5,5438 <core_bench_matrix+0x9d8>
    53f2:	026e535b          	beqc	t3,6,5418 <core_bench_matrix+0x9b8>
    53f6:	00069283          	lh	t0,0(a3)
    53fa:	00079e83          	lh	t4,0(a5)
    53fe:	4609                	c.li	a2,2
    5400:	00488693          	addi	a3,a7,4
    5404:	03d28333          	mul	t1,t0,t4
    5408:	97a2                	c.add	a5,s0
    540a:	14232ddb          	bfoz	s11,t1,5,2
    540e:	2c5320db          	bfoz	ra,t1,11,5
    5412:	021d83b3          	mul	t2,s11,ra
    5416:	971e                	c.add	a4,t2
    5418:	00069f83          	lh	t6,0(a3)
    541c:	00079e03          	lh	t3,0(a5)
    5420:	0605                	c.addi	a2,1
    5422:	0689                	c.addi	a3,2
    5424:	03cf8d33          	mul	s10,t6,t3
    5428:	97a2                	c.add	a5,s0
    542a:	142d2f5b          	bfoz	t5,s10,5,2
    542e:	2c5d2cdb          	bfoz	s9,s10,11,5
    5432:	039f02b3          	mul	t0,t5,s9
    5436:	9716                	c.add	a4,t0
    5438:	00069e83          	lh	t4,0(a3)
    543c:	00079303          	lh	t1,0(a5)
    5440:	0605                	c.addi	a2,1
    5442:	0689                	c.addi	a3,2
    5444:	026e8db3          	mul	s11,t4,t1
    5448:	97a2                	c.add	a5,s0
    544a:	142da0db          	bfoz	ra,s11,5,2
    544e:	2c5da3db          	bfoz	t2,s11,11,5
    5452:	02708fb3          	mul	t6,ra,t2
    5456:	977e                	c.add	a4,t6
    5458:	00069d03          	lh	s10,0(a3)
    545c:	00079e03          	lh	t3,0(a5)
    5460:	0605                	c.addi	a2,1
    5462:	0689                	c.addi	a3,2
    5464:	03cd0f33          	mul	t5,s10,t3
    5468:	97a2                	c.add	a5,s0
    546a:	142f2cdb          	bfoz	s9,t5,5,2
    546e:	2c5f22db          	bfoz	t0,t5,11,5
    5472:	025c8eb3          	mul	t4,s9,t0
    5476:	9776                	c.add	a4,t4
    5478:	00069303          	lh	t1,0(a3)
    547c:	00079d83          	lh	s11,0(a5)
    5480:	0605                	c.addi	a2,1
    5482:	0689                	c.addi	a3,2
    5484:	03b300b3          	mul	ra,t1,s11
    5488:	97a2                	c.add	a5,s0
    548a:	1420a3db          	bfoz	t2,ra,5,2
    548e:	2c50afdb          	bfoz	t6,ra,11,5
    5492:	03f38d33          	mul	s10,t2,t6
    5496:	976a                	c.add	a4,s10
    5498:	00069f03          	lh	t5,0(a3)
    549c:	00079e03          	lh	t3,0(a5)
    54a0:	0605                	c.addi	a2,1
    54a2:	0689                	c.addi	a3,2
    54a4:	03cf0cb3          	mul	s9,t5,t3
    54a8:	97a2                	c.add	a5,s0
    54aa:	142ca2db          	bfoz	t0,s9,5,2
    54ae:	2c5caedb          	bfoz	t4,s9,11,5
    54b2:	03d28333          	mul	t1,t0,t4
    54b6:	971a                	c.add	a4,t1
    54b8:	00069d83          	lh	s11,0(a3)
    54bc:	00079083          	lh	ra,0(a5)
    54c0:	0605                	c.addi	a2,1
    54c2:	0689                	c.addi	a3,2
    54c4:	021d83b3          	mul	t2,s11,ra
    54c8:	97a2                	c.add	a5,s0
    54ca:	1423afdb          	bfoz	t6,t2,5,2
    54ce:	2c53ad5b          	bfoz	s10,t2,11,5
    54d2:	03af8f33          	mul	t5,t6,s10
    54d6:	977a                	c.add	a4,t5
    54d8:	10965463          	bge	a2,s1,55e0 <core_bench_matrix+0xb80>
    54dc:	008782b3          	add	t0,a5,s0
    54e0:	00069c83          	lh	s9,0(a3)
    54e4:	00079e03          	lh	t3,0(a5)
    54e8:	008280b3          	add	ra,t0,s0
    54ec:	00269d83          	lh	s11,2(a3)
    54f0:	00029303          	lh	t1,0(t0)
    54f4:	00009e83          	lh	t4,0(ra)
    54f8:	00469283          	lh	t0,4(a3)
    54fc:	03cc83b3          	mul	t2,s9,t3
    5500:	008087b3          	add	a5,ra,s0
    5504:	026d8f33          	mul	t5,s11,t1
    5508:	00878cb3          	add	s9,a5,s0
    550c:	00669f83          	lh	t6,6(a3)
    5510:	00079e03          	lh	t3,0(a5)
    5514:	008c8db3          	add	s11,s9,s0
    5518:	000c9303          	lh	t1,0(s9)
    551c:	03d28eb3          	mul	t4,t0,t4
    5520:	00869d03          	lh	s10,8(a3)
    5524:	008d87b3          	add	a5,s11,s0
    5528:	000d9283          	lh	t0,0(s11)
    552c:	1423addb          	bfoz	s11,t2,5,2
    5530:	2c53a3db          	bfoz	t2,t2,11,5
    5534:	00a69c83          	lh	s9,10(a3)
    5538:	03cf8e33          	mul	t3,t6,t3
    553c:	00079083          	lh	ra,0(a5)
    5540:	027d8db3          	mul	s11,s11,t2
    5544:	00c69f83          	lh	t6,12(a3)
    5548:	142f23db          	bfoz	t2,t5,5,2
    554c:	2c5f2f5b          	bfoz	t5,t5,11,5
    5550:	026d0d33          	mul	s10,s10,t1
    5554:	03e38f33          	mul	t5,t2,t5
    5558:	142ea35b          	bfoz	t1,t4,5,2
    555c:	2c5eaedb          	bfoz	t4,t4,11,5
    5560:	03d303b3          	mul	t2,t1,t4
    5564:	025c82b3          	mul	t0,s9,t0
    5568:	021f8fb3          	mul	t6,t6,ra
    556c:	142e2cdb          	bfoz	s9,t3,5,2
    5570:	01b700b3          	add	ra,a4,s11
    5574:	2c5e2e5b          	bfoz	t3,t3,11,5
    5578:	03cc8db3          	mul	s11,s9,t3
    557c:	142d275b          	bfoz	a4,s10,5,2
    5580:	9f06                	c.add	t5,ra
    5582:	2c5d2d5b          	bfoz	s10,s10,11,5
    5586:	97a2                	c.add	a5,s0
    5588:	03a70333          	mul	t1,a4,s10
    558c:	007f0eb3          	add	t4,t5,t2
    5590:	00e69d03          	lh	s10,14(a3)
    5594:	00079f03          	lh	t5,0(a5)
    5598:	01be8e33          	add	t3,t4,s11
    559c:	1422acdb          	bfoz	s9,t0,5,2
    55a0:	006e00b3          	add	ra,t3,t1
    55a4:	2c52a2db          	bfoz	t0,t0,11,5
    55a8:	03ed0333          	mul	t1,s10,t5
    55ac:	025c83b3          	mul	t2,s9,t0
    55b0:	142fa75b          	bfoz	a4,t6,5,2
    55b4:	2c5fafdb          	bfoz	t6,t6,11,5
    55b8:	03f70cb3          	mul	s9,a4,t6
    55bc:	142322db          	bfoz	t0,t1,5,2
    55c0:	2c532edb          	bfoz	t4,t1,11,5
    55c4:	00708db3          	add	s11,ra,t2
    55c8:	03d283b3          	mul	t2,t0,t4
    55cc:	019d8e33          	add	t3,s11,s9
    55d0:	0621                	c.addi	a2,8
    55d2:	06c1                	c.addi	a3,16
    55d4:	007e0733          	add	a4,t3,t2
    55d8:	008787b3          	add	a5,a5,s0
    55dc:	f09640e3          	blt	a2,s1,54dc <core_bench_matrix+0xa7c>
    55e0:	00e82023          	sw	a4,0(a6)
    55e4:	0505                	c.addi	a0,1
    55e6:	0811                	c.addi	a6,4
    55e8:	0589                	c.addi	a1,2
    55ea:	dc9541e3          	blt	a0,s1,53ac <core_bench_matrix+0x94c>
    55ee:	4592                	c.lwsp	a1,4(sp)
    55f0:	0c05                	c.addi	s8,1
    55f2:	01458833          	add	a6,a1,s4
    55f6:	c242                	c.swsp	a6,4(sp)
    55f8:	98a2                	c.add	a7,s0
    55fa:	da9c45e3          	blt	s8,s1,53a4 <core_bench_matrix+0x944>
    55fe:	4301                	c.li	t1,0
    5600:	4781                	c.li	a5,0
    5602:	4501                	c.li	a0,0
    5604:	00000b13          	addi	s6,zero,0
    5608:	889a                	c.mv	a7,t1
    560a:	000ba303          	lw	t1,0(s7) # 1000 <m_trap_entry>
    560e:	fff48c13          	addi	s8,s1,-1
    5612:	979a                	c.add	a5,t1
    5614:	007c7613          	andi	a2,s8,7
    5618:	04f952e3          	bge	s2,a5,5e5c <core_bench_matrix+0x13fc>
    561c:	00a50093          	addi	ra,a0,10
    5620:	3c00b55b          	bfos	a0,ra,15,0
    5624:	00000793          	addi	a5,zero,0
    5628:	4585                	c.li	a1,1
    562a:	004b8713          	addi	a4,s7,4
    562e:	0e95d563          	bge	a1,s1,5718 <core_bench_matrix+0xcb8>
    5632:	76060563          	beq	a2,zero,5d9c <core_bench_matrix+0x133c>
    5636:	0c16515b          	beqc	a2,1,56f8 <core_bench_matrix+0xc98>
    563a:	0a26515b          	beqc	a2,2,56dc <core_bench_matrix+0xc7c>
    563e:	0836515b          	beqc	a2,3,56c0 <core_bench_matrix+0xc60>
    5642:	0646515b          	beqc	a2,4,56a4 <core_bench_matrix+0xc44>
    5646:	0456515b          	beqc	a2,5,5688 <core_bench_matrix+0xc28>
    564a:	0266515b          	beqc	a2,6,566c <core_bench_matrix+0xc0c>
    564e:	8d9a                	c.mv	s11,t1
    5650:	00072303          	lw	t1,0(a4)
    5654:	006787b3          	add	a5,a5,t1
    5658:	1af94ee3          	blt	s2,a5,6014 <core_bench_matrix+0x15b4>
    565c:	006dad33          	slt	s10,s11,t1
    5660:	00ad0f33          	add	t5,s10,a0
    5664:	3c0f355b          	bfos	a0,t5,15,0
    5668:	0585                	c.addi	a1,1
    566a:	0711                	c.addi	a4,4
    566c:	8f9a                	c.mv	t6,t1
    566e:	00072303          	lw	t1,0(a4)
    5672:	979a                	c.add	a5,t1
    5674:	16f940e3          	blt	s2,a5,5fd4 <core_bench_matrix+0x1574>
    5678:	006facb3          	slt	s9,t6,t1
    567c:	00ac82b3          	add	t0,s9,a0
    5680:	3c02b55b          	bfos	a0,t0,15,0
    5684:	0585                	c.addi	a1,1
    5686:	0711                	c.addi	a4,4
    5688:	839a                	c.mv	t2,t1
    568a:	00072303          	lw	t1,0(a4)
    568e:	979a                	c.add	a5,t1
    5690:	10f94ae3          	blt	s2,a5,5fa4 <core_bench_matrix+0x1544>
    5694:	0063ae33          	slt	t3,t2,t1
    5698:	00ae0833          	add	a6,t3,a0
    569c:	3c08355b          	bfos	a0,a6,15,0
    56a0:	0585                	c.addi	a1,1
    56a2:	0711                	c.addi	a4,4
    56a4:	8c1a                	c.mv	s8,t1
    56a6:	00072303          	lw	t1,0(a4)
    56aa:	979a                	c.add	a5,t1
    56ac:	0af948e3          	blt	s2,a5,5f5c <core_bench_matrix+0x14fc>
    56b0:	006c2633          	slt	a2,s8,t1
    56b4:	00a606b3          	add	a3,a2,a0
    56b8:	3c06b55b          	bfos	a0,a3,15,0
    56bc:	0585                	c.addi	a1,1
    56be:	0711                	c.addi	a4,4
    56c0:	809a                	c.mv	ra,t1
    56c2:	00072303          	lw	t1,0(a4)
    56c6:	979a                	c.add	a5,t1
    56c8:	06f942e3          	blt	s2,a5,5f2c <core_bench_matrix+0x14cc>
    56cc:	0060adb3          	slt	s11,ra,t1
    56d0:	00ad8d33          	add	s10,s11,a0
    56d4:	3c0d355b          	bfos	a0,s10,15,0
    56d8:	0585                	c.addi	a1,1
    56da:	0711                	c.addi	a4,4
    56dc:	8f9a                	c.mv	t6,t1
    56de:	00072303          	lw	t1,0(a4)
    56e2:	979a                	c.add	a5,t1
    56e4:	00f944e3          	blt	s2,a5,5eec <core_bench_matrix+0x148c>
    56e8:	006facb3          	slt	s9,t6,t1
    56ec:	00ac82b3          	add	t0,s9,a0
    56f0:	3c02b55b          	bfos	a0,t0,15,0
    56f4:	0585                	c.addi	a1,1
    56f6:	0711                	c.addi	a4,4
    56f8:	8e9a                	c.mv	t4,t1
    56fa:	00072303          	lw	t1,0(a4)
    56fe:	979a                	c.add	a5,t1
    5700:	78f94e63          	blt	s2,a5,5e9c <core_bench_matrix+0x143c>
    5704:	006ea3b3          	slt	t2,t4,t1
    5708:	00a38e33          	add	t3,t2,a0
    570c:	3c0e355b          	bfos	a0,t3,15,0
    5710:	0585                	c.addi	a1,1
    5712:	0711                	c.addi	a4,4
    5714:	6895c463          	blt	a1,s1,5d9c <core_bench_matrix+0x133c>
    5718:	0b05                	c.addi	s6,1
    571a:	9bd2                	c.add	s7,s4
    571c:	ee9b46e3          	blt	s6,s1,5608 <core_bench_matrix+0xba8>
    5720:	45a2                	c.lwsp	a1,8(sp)
    5722:	4901                	c.li	s2,0
    5724:	70d030ef          	jal	ra,9630 <crc16>
    5728:	000ada03          	lhu	s4,0(s5)
    572c:	fff48b93          	addi	s7,s1,-1
    5730:	413a0f33          	sub	t5,s4,s3
    5734:	4685                	c.li	a3,1
    5736:	01ea9023          	sh	t5,0(s5)
    573a:	007bfb13          	andi	s6,s7,7
    573e:	002a8793          	addi	a5,s5,2
    5742:	0e96df63          	bge	a3,s1,5840 <core_bench_matrix+0xde0>
    5746:	080b0963          	beq	s6,zero,57d8 <core_bench_matrix+0xd78>
    574a:	061b5d5b          	beqc	s6,1,57c4 <core_bench_matrix+0xd64>
    574e:	062b535b          	beqc	s6,2,57b4 <core_bench_matrix+0xd54>
    5752:	043b595b          	beqc	s6,3,57a4 <core_bench_matrix+0xd44>
    5756:	024b5f5b          	beqc	s6,4,5794 <core_bench_matrix+0xd34>
    575a:	025b555b          	beqc	s6,5,5784 <core_bench_matrix+0xd24>
    575e:	006b5b5b          	beqc	s6,6,5774 <core_bench_matrix+0xd14>
    5762:	0007df83          	lhu	t6,0(a5)
    5766:	4689                	c.li	a3,2
    5768:	413f8cb3          	sub	s9,t6,s3
    576c:	01979023          	sh	s9,0(a5)
    5770:	004a8793          	addi	a5,s5,4
    5774:	0007d283          	lhu	t0,0(a5)
    5778:	0685                	c.addi	a3,1
    577a:	41328eb3          	sub	t4,t0,s3
    577e:	01d79023          	sh	t4,0(a5)
    5782:	0789                	c.addi	a5,2
    5784:	0007d383          	lhu	t2,0(a5)
    5788:	0685                	c.addi	a3,1
    578a:	41338e33          	sub	t3,t2,s3
    578e:	01c79023          	sh	t3,0(a5)
    5792:	0789                	c.addi	a5,2
    5794:	0007d883          	lhu	a7,0(a5)
    5798:	0685                	c.addi	a3,1
    579a:	41388c33          	sub	s8,a7,s3
    579e:	01879023          	sh	s8,0(a5)
    57a2:	0789                	c.addi	a5,2
    57a4:	0007d803          	lhu	a6,0(a5)
    57a8:	0685                	c.addi	a3,1
    57aa:	41380633          	sub	a2,a6,s3
    57ae:	00c79023          	sh	a2,0(a5)
    57b2:	0789                	c.addi	a5,2
    57b4:	0007d083          	lhu	ra,0(a5)
    57b8:	0685                	c.addi	a3,1
    57ba:	41308333          	sub	t1,ra,s3
    57be:	00679023          	sh	t1,0(a5)
    57c2:	0789                	c.addi	a5,2
    57c4:	0007dd83          	lhu	s11,0(a5)
    57c8:	0685                	c.addi	a3,1
    57ca:	413d8d33          	sub	s10,s11,s3
    57ce:	01a79023          	sh	s10,0(a5)
    57d2:	0789                	c.addi	a5,2
    57d4:	0696d663          	bge	a3,s1,5840 <core_bench_matrix+0xde0>
    57d8:	0007da03          	lhu	s4,0(a5)
    57dc:	0027db83          	lhu	s7,2(a5)
    57e0:	0047db03          	lhu	s6,4(a5)
    57e4:	0067df83          	lhu	t6,6(a5)
    57e8:	0087dc83          	lhu	s9,8(a5)
    57ec:	00a7d583          	lhu	a1,10(a5)
    57f0:	00c7d283          	lhu	t0,12(a5)
    57f4:	00e7d703          	lhu	a4,14(a5)
    57f8:	413a0f33          	sub	t5,s4,s3
    57fc:	413b8eb3          	sub	t4,s7,s3
    5800:	413b03b3          	sub	t2,s6,s3
    5804:	413f8e33          	sub	t3,t6,s3
    5808:	413c88b3          	sub	a7,s9,s3
    580c:	41358c33          	sub	s8,a1,s3
    5810:	41328833          	sub	a6,t0,s3
    5814:	41370633          	sub	a2,a4,s3
    5818:	01e79023          	sh	t5,0(a5)
    581c:	01d79123          	sh	t4,2(a5)
    5820:	00779223          	sh	t2,4(a5)
    5824:	01c79323          	sh	t3,6(a5)
    5828:	01179423          	sh	a7,8(a5)
    582c:	01879523          	sh	s8,10(a5)
    5830:	01079623          	sh	a6,12(a5)
    5834:	00c79723          	sh	a2,14(a5)
    5838:	06a1                	c.addi	a3,8
    583a:	07c1                	c.addi	a5,16
    583c:	f896cee3          	blt	a3,s1,57d8 <core_bench_matrix+0xd78>
    5840:	0905                	c.addi	s2,1
    5842:	9aa2                	c.add	s5,s0
    5844:	ee9942e3          	blt	s2,s1,5728 <core_bench_matrix+0xcc8>
    5848:	4426                	c.lwsp	s0,72(sp)
    584a:	45b2                	c.lwsp	a1,12(sp)
    584c:	40b6                	c.lwsp	ra,76(sp)
    584e:	4496                	c.lwsp	s1,68(sp)
    5850:	4906                	c.lwsp	s2,64(sp)
    5852:	59f2                	c.lwsp	s3,60(sp)
    5854:	5a62                	c.lwsp	s4,56(sp)
    5856:	5ad2                	c.lwsp	s5,52(sp)
    5858:	5b42                	c.lwsp	s6,48(sp)
    585a:	5bb2                	c.lwsp	s7,44(sp)
    585c:	5c22                	c.lwsp	s8,40(sp)
    585e:	5c92                	c.lwsp	s9,36(sp)
    5860:	5d02                	c.lwsp	s10,32(sp)
    5862:	4df2                	c.lwsp	s11,28(sp)
    5864:	3c05355b          	bfos	a0,a0,15,0
    5868:	05010113          	addi	sp,sp,80
    586c:	5c50306f          	jal	zero,9630 <crc16>
    5870:	00472f83          	lw	t6,4(a4)
    5874:	4081                	c.li	ra,0
    5876:	00a50593          	addi	a1,a0,10
    587a:	01f087b3          	add	a5,ra,t6
    587e:	3c05bddb          	bfos	s11,a1,15,0
    5882:	0711                	c.addi	a4,4
    5884:	0cf95663          	bge	s2,a5,5950 <core_bench_matrix+0xef0>
    5888:	4348                	c.lw	a0,4(a4)
    588a:	4781                	c.li	a5,0
    588c:	00ad8e13          	addi	t3,s11,10
    5890:	00a785b3          	add	a1,a5,a0
    5894:	3c0e38db          	bfos	a7,t3,15,0
    5898:	0cb94863          	blt	s2,a1,5968 <core_bench_matrix+0xf08>
    589c:	00afa0b3          	slt	ra,t6,a0
    58a0:	00872f83          	lw	t6,8(a4)
    58a4:	01108333          	add	t1,ra,a7
    58a8:	01f588b3          	add	a7,a1,t6
    58ac:	3c033ddb          	bfos	s11,t1,15,0
    58b0:	0d194863          	blt	s2,a7,5980 <core_bench_matrix+0xf20>
    58b4:	01f52f33          	slt	t5,a0,t6
    58b8:	00c72503          	lw	a0,12(a4)
    58bc:	01bf0eb3          	add	t4,t5,s11
    58c0:	00a885b3          	add	a1,a7,a0
    58c4:	3c0eb0db          	bfos	ra,t4,15,0
    58c8:	0cb94663          	blt	s2,a1,5994 <core_bench_matrix+0xf34>
    58cc:	00afa333          	slt	t1,t6,a0
    58d0:	01072f83          	lw	t6,16(a4)
    58d4:	001306b3          	add	a3,t1,ra
    58d8:	01f588b3          	add	a7,a1,t6
    58dc:	3c06bddb          	bfos	s11,a3,15,0
    58e0:	0d194663          	blt	s2,a7,59ac <core_bench_matrix+0xf4c>
    58e4:	01f52f33          	slt	t5,a0,t6
    58e8:	01472503          	lw	a0,20(a4)
    58ec:	01bf0eb3          	add	t4,t5,s11
    58f0:	00a885b3          	add	a1,a7,a0
    58f4:	3c0eb0db          	bfos	ra,t4,15,0
    58f8:	0cb94463          	blt	s2,a1,59c0 <core_bench_matrix+0xf60>
    58fc:	00afa333          	slt	t1,t6,a0
    5900:	001306b3          	add	a3,t1,ra
    5904:	01872303          	lw	t1,24(a4)
    5908:	3c06bddb          	bfos	s11,a3,15,0
    590c:	006587b3          	add	a5,a1,t1
    5910:	0cf94463          	blt	s2,a5,59d8 <core_bench_matrix+0xf78>
    5914:	00652fb3          	slt	t6,a0,t1
    5918:	01bf8f33          	add	t5,t6,s11
    591c:	3c0f355b          	bfos	a0,t5,15,0
    5920:	01c70713          	addi	a4,a4,28
    5924:	d0e60663          	beq	a2,a4,4e30 <core_bench_matrix+0x3d0>
    5928:	00072883          	lw	a7,0(a4)
    592c:	011780b3          	add	ra,a5,a7
    5930:	f41940e3          	blt	s2,ra,5870 <core_bench_matrix+0xe10>
    5934:	00472f83          	lw	t6,4(a4)
    5938:	01132333          	slt	t1,t1,a7
    593c:	00a306b3          	add	a3,t1,a0
    5940:	01f087b3          	add	a5,ra,t6
    5944:	3c06bddb          	bfos	s11,a3,15,0
    5948:	00470713          	addi	a4,a4,4
    594c:	f2f94ee3          	blt	s2,a5,5888 <core_bench_matrix+0xe28>
    5950:	00472503          	lw	a0,4(a4)
    5954:	01f8af33          	slt	t5,a7,t6
    5958:	01bf0eb3          	add	t4,t5,s11
    595c:	00a785b3          	add	a1,a5,a0
    5960:	3c0eb8db          	bfos	a7,t4,15,0
    5964:	f2b95ce3          	bge	s2,a1,589c <core_bench_matrix+0xe3c>
    5968:	00872f83          	lw	t6,8(a4)
    596c:	00000593          	addi	a1,zero,0
    5970:	00a88693          	addi	a3,a7,10
    5974:	01f588b3          	add	a7,a1,t6
    5978:	3c06bddb          	bfos	s11,a3,15,0
    597c:	f3195ce3          	bge	s2,a7,58b4 <core_bench_matrix+0xe54>
    5980:	4748                	c.lw	a0,12(a4)
    5982:	4881                	c.li	a7,0
    5984:	00ad8e13          	addi	t3,s11,10
    5988:	00a885b3          	add	a1,a7,a0
    598c:	3c0e30db          	bfos	ra,t3,15,0
    5990:	f2b95ee3          	bge	s2,a1,58cc <core_bench_matrix+0xe6c>
    5994:	01072f83          	lw	t6,16(a4)
    5998:	00000593          	addi	a1,zero,0
    599c:	00a08793          	addi	a5,ra,10
    59a0:	01f588b3          	add	a7,a1,t6
    59a4:	3c07bddb          	bfos	s11,a5,15,0
    59a8:	f3195ee3          	bge	s2,a7,58e4 <core_bench_matrix+0xe84>
    59ac:	4b48                	c.lw	a0,20(a4)
    59ae:	4881                	c.li	a7,0
    59b0:	00ad8e13          	addi	t3,s11,10
    59b4:	00a885b3          	add	a1,a7,a0
    59b8:	3c0e30db          	bfos	ra,t3,15,0
    59bc:	f4b950e3          	bge	s2,a1,58fc <core_bench_matrix+0xe9c>
    59c0:	01872303          	lw	t1,24(a4)
    59c4:	00a08793          	addi	a5,ra,10
    59c8:	00000593          	addi	a1,zero,0
    59cc:	3c07bddb          	bfos	s11,a5,15,0
    59d0:	006587b3          	add	a5,a1,t1
    59d4:	f4f950e3          	bge	s2,a5,5914 <core_bench_matrix+0xeb4>
    59d8:	00ad8e93          	addi	t4,s11,10
    59dc:	3c0eb55b          	bfos	a0,t4,15,0
    59e0:	4781                	c.li	a5,0
    59e2:	bf3d                	c.j	5920 <core_bench_matrix+0xec0>
    59e4:	00472d83          	lw	s11,4(a4)
    59e8:	4081                	c.li	ra,0
    59ea:	00a50313          	addi	t1,a0,10
    59ee:	01b08f33          	add	t5,ra,s11
    59f2:	3c033cdb          	bfos	s9,t1,15,0
    59f6:	0605                	c.addi	a2,1
    59f8:	00470713          	addi	a4,a4,4
    59fc:	0de95663          	bge	s2,t5,5ac8 <core_bench_matrix+0x1068>
    5a00:	4348                	c.lw	a0,4(a4)
    5a02:	4f01                	c.li	t5,0
    5a04:	00ac8793          	addi	a5,s9,10
    5a08:	00af03b3          	add	t2,t5,a0
    5a0c:	3c07b2db          	bfos	t0,a5,15,0
    5a10:	0c794863          	blt	s2,t2,5ae0 <core_bench_matrix+0x1080>
    5a14:	00872c83          	lw	s9,8(a4)
    5a18:	00adaeb3          	slt	t4,s11,a0
    5a1c:	005e8fb3          	add	t6,t4,t0
    5a20:	019387b3          	add	a5,t2,s9
    5a24:	3c0fbe5b          	bfos	t3,t6,15,0
    5a28:	0cf94863          	blt	s2,a5,5af8 <core_bench_matrix+0x1098>
    5a2c:	00c72283          	lw	t0,12(a4)
    5a30:	01952333          	slt	t1,a0,s9
    5a34:	01c30db3          	add	s11,t1,t3
    5a38:	005780b3          	add	ra,a5,t0
    5a3c:	3c0db6db          	bfos	a3,s11,15,0
    5a40:	0c194863          	blt	s2,ra,5b10 <core_bench_matrix+0x10b0>
    5a44:	01072e03          	lw	t3,16(a4)
    5a48:	005caf33          	slt	t5,s9,t0
    5a4c:	00df0533          	add	a0,t5,a3
    5a50:	01c08d33          	add	s10,ra,t3
    5a54:	3c053fdb          	bfos	t6,a0,15,0
    5a58:	0da94863          	blt	s2,s10,5b28 <core_bench_matrix+0x10c8>
    5a5c:	01c2a3b3          	slt	t2,t0,t3
    5a60:	01472283          	lw	t0,20(a4)
    5a64:	01f38cb3          	add	s9,t2,t6
    5a68:	005d0533          	add	a0,s10,t0
    5a6c:	3c0cbddb          	bfos	s11,s9,15,0
    5a70:	0ca94863          	blt	s2,a0,5b40 <core_bench_matrix+0x10e0>
    5a74:	005e26b3          	slt	a3,t3,t0
    5a78:	01872e03          	lw	t3,24(a4)
    5a7c:	01b68f33          	add	t5,a3,s11
    5a80:	01c507b3          	add	a5,a0,t3
    5a84:	3c0f3edb          	bfos	t4,t5,15,0
    5a88:	0cf94863          	blt	s2,a5,5b58 <core_bench_matrix+0x10f8>
    5a8c:	01c2afb3          	slt	t6,t0,t3
    5a90:	01df80b3          	add	ra,t6,t4
    5a94:	3c00b55b          	bfos	a0,ra,15,0
    5a98:	061d                	c.addi	a2,7
    5a9a:	0771                	c.addi	a4,28
    5a9c:	e2965a63          	bge	a2,s1,50d0 <core_bench_matrix+0x670>
    5aa0:	00072f83          	lw	t6,0(a4)
    5aa4:	01f780b3          	add	ra,a5,t6
    5aa8:	f2194ee3          	blt	s2,ra,59e4 <core_bench_matrix+0xf84>
    5aac:	00472d83          	lw	s11,4(a4)
    5ab0:	01fe2e33          	slt	t3,t3,t6
    5ab4:	00ae03b3          	add	t2,t3,a0
    5ab8:	01b08f33          	add	t5,ra,s11
    5abc:	3c03bcdb          	bfos	s9,t2,15,0
    5ac0:	0605                	c.addi	a2,1
    5ac2:	0711                	c.addi	a4,4
    5ac4:	f3e94ee3          	blt	s2,t5,5a00 <core_bench_matrix+0xfa0>
    5ac8:	00472503          	lw	a0,4(a4)
    5acc:	01bfad33          	slt	s10,t6,s11
    5ad0:	019d06b3          	add	a3,s10,s9
    5ad4:	00af03b3          	add	t2,t5,a0
    5ad8:	3c06b2db          	bfos	t0,a3,15,0
    5adc:	f2795ce3          	bge	s2,t2,5a14 <core_bench_matrix+0xfb4>
    5ae0:	00872c83          	lw	s9,8(a4)
    5ae4:	00000393          	addi	t2,zero,0
    5ae8:	00a28093          	addi	ra,t0,10
    5aec:	019387b3          	add	a5,t2,s9
    5af0:	3c00be5b          	bfos	t3,ra,15,0
    5af4:	f2f95ce3          	bge	s2,a5,5a2c <core_bench_matrix+0xfcc>
    5af8:	00c72283          	lw	t0,12(a4)
    5afc:	00000793          	addi	a5,zero,0
    5b00:	00ae0d13          	addi	s10,t3,10
    5b04:	005780b3          	add	ra,a5,t0
    5b08:	3c0d36db          	bfos	a3,s10,15,0
    5b0c:	f2195ce3          	bge	s2,ra,5a44 <core_bench_matrix+0xfe4>
    5b10:	01072e03          	lw	t3,16(a4)
    5b14:	00000093          	addi	ra,zero,0
    5b18:	00a68e93          	addi	t4,a3,10
    5b1c:	01c08d33          	add	s10,ra,t3
    5b20:	3c0ebfdb          	bfos	t6,t4,15,0
    5b24:	f3a95ce3          	bge	s2,s10,5a5c <core_bench_matrix+0xffc>
    5b28:	01472283          	lw	t0,20(a4)
    5b2c:	00000d13          	addi	s10,zero,0
    5b30:	00af8313          	addi	t1,t6,10
    5b34:	005d0533          	add	a0,s10,t0
    5b38:	3c033ddb          	bfos	s11,t1,15,0
    5b3c:	f2a95ce3          	bge	s2,a0,5a74 <core_bench_matrix+0x1014>
    5b40:	01872e03          	lw	t3,24(a4)
    5b44:	00ad8793          	addi	a5,s11,10
    5b48:	00000513          	addi	a0,zero,0
    5b4c:	3c07bedb          	bfos	t4,a5,15,0
    5b50:	01c507b3          	add	a5,a0,t3
    5b54:	f2f95ce3          	bge	s2,a5,5a8c <core_bench_matrix+0x102c>
    5b58:	00ae8393          	addi	t2,t4,10
    5b5c:	3c03b55b          	bfos	a0,t2,15,0
    5b60:	4781                	c.li	a5,0
    5b62:	bf1d                	c.j	5a98 <core_bench_matrix+0x1038>
    5b64:	00472c83          	lw	s9,4(a4)
    5b68:	4e01                	c.li	t3,0
    5b6a:	00a50f13          	addi	t5,a0,10
    5b6e:	019e08b3          	add	a7,t3,s9
    5b72:	3c0f3d5b          	bfos	s10,t5,15,0
    5b76:	0605                	c.addi	a2,1
    5b78:	00470713          	addi	a4,a4,4
    5b7c:	0d195863          	bge	s2,a7,5c4c <core_bench_matrix+0x11ec>
    5b80:	00472803          	lw	a6,4(a4)
    5b84:	00000893          	addi	a7,zero,0
    5b88:	00ad0793          	addi	a5,s10,10
    5b8c:	01088333          	add	t1,a7,a6
    5b90:	3c07b5db          	bfos	a1,a5,15,0
    5b94:	0c694863          	blt	s2,t1,5c64 <core_bench_matrix+0x1204>
    5b98:	00872d03          	lw	s10,8(a4)
    5b9c:	010ca6b3          	slt	a3,s9,a6
    5ba0:	00b68db3          	add	s11,a3,a1
    5ba4:	01a30eb3          	add	t4,t1,s10
    5ba8:	3c0dbe5b          	bfos	t3,s11,15,0
    5bac:	0dd94863          	blt	s2,t4,5c7c <core_bench_matrix+0x121c>
    5bb0:	00c72583          	lw	a1,12(a4)
    5bb4:	01a82533          	slt	a0,a6,s10
    5bb8:	01c50f33          	add	t5,a0,t3
    5bbc:	00be8db3          	add	s11,t4,a1
    5bc0:	3c0f32db          	bfos	t0,t5,15,0
    5bc4:	0db94663          	blt	s2,s11,5c90 <core_bench_matrix+0x1230>
    5bc8:	01072f83          	lw	t6,16(a4)
    5bcc:	00bd28b3          	slt	a7,s10,a1
    5bd0:	00588833          	add	a6,a7,t0
    5bd4:	01fd8cb3          	add	s9,s11,t6
    5bd8:	3c0836db          	bfos	a3,a6,15,0
    5bdc:	0d994663          	blt	s2,s9,5ca8 <core_bench_matrix+0x1248>
    5be0:	01472503          	lw	a0,20(a4)
    5be4:	01f5ae33          	slt	t3,a1,t6
    5be8:	00de0333          	add	t1,t3,a3
    5bec:	00ac8833          	add	a6,s9,a0
    5bf0:	3c033f5b          	bfos	t5,t1,15,0
    5bf4:	0d094463          	blt	s2,a6,5cbc <core_bench_matrix+0x125c>
    5bf8:	01872303          	lw	t1,24(a4)
    5bfc:	00afa2b3          	slt	t0,t6,a0
    5c00:	01e28eb3          	add	t4,t0,t5
    5c04:	006807b3          	add	a5,a6,t1
    5c08:	3c0eb8db          	bfos	a7,t4,15,0
    5c0c:	0cf94463          	blt	s2,a5,5cd4 <core_bench_matrix+0x1274>
    5c10:	006526b3          	slt	a3,a0,t1
    5c14:	01168db3          	add	s11,a3,a7
    5c18:	3c0db55b          	bfos	a0,s11,15,0
    5c1c:	061d                	c.addi	a2,7
    5c1e:	0771                	c.addi	a4,28
    5c20:	f6965663          	bge	a2,s1,538c <core_bench_matrix+0x92c>
    5c24:	00072f83          	lw	t6,0(a4)
    5c28:	01f78e33          	add	t3,a5,t6
    5c2c:	f3c94ce3          	blt	s2,t3,5b64 <core_bench_matrix+0x1104>
    5c30:	00472c83          	lw	s9,4(a4)
    5c34:	01f32333          	slt	t1,t1,t6
    5c38:	951a                	c.add	a0,t1
    5c3a:	019e08b3          	add	a7,t3,s9
    5c3e:	3c053d5b          	bfos	s10,a0,15,0
    5c42:	0605                	c.addi	a2,1
    5c44:	00470713          	addi	a4,a4,4
    5c48:	f3194ce3          	blt	s2,a7,5b80 <core_bench_matrix+0x1120>
    5c4c:	00472803          	lw	a6,4(a4)
    5c50:	019fa2b3          	slt	t0,t6,s9
    5c54:	01a28eb3          	add	t4,t0,s10
    5c58:	01088333          	add	t1,a7,a6
    5c5c:	3c0eb5db          	bfos	a1,t4,15,0
    5c60:	f2695ce3          	bge	s2,t1,5b98 <core_bench_matrix+0x1138>
    5c64:	00872d03          	lw	s10,8(a4)
    5c68:	00000313          	addi	t1,zero,0
    5c6c:	00a58f93          	addi	t6,a1,10
    5c70:	01a30eb3          	add	t4,t1,s10
    5c74:	3c0fbe5b          	bfos	t3,t6,15,0
    5c78:	f3d95ce3          	bge	s2,t4,5bb0 <core_bench_matrix+0x1150>
    5c7c:	474c                	c.lw	a1,12(a4)
    5c7e:	4e81                	c.li	t4,0
    5c80:	00ae0c93          	addi	s9,t3,10
    5c84:	00be8db3          	add	s11,t4,a1
    5c88:	3c0cb2db          	bfos	t0,s9,15,0
    5c8c:	f3b95ee3          	bge	s2,s11,5bc8 <core_bench_matrix+0x1168>
    5c90:	01072f83          	lw	t6,16(a4)
    5c94:	00000d93          	addi	s11,zero,0
    5c98:	00a28793          	addi	a5,t0,10
    5c9c:	01fd8cb3          	add	s9,s11,t6
    5ca0:	3c07b6db          	bfos	a3,a5,15,0
    5ca4:	f3995ee3          	bge	s2,s9,5be0 <core_bench_matrix+0x1180>
    5ca8:	4b48                	c.lw	a0,20(a4)
    5caa:	4c81                	c.li	s9,0
    5cac:	00a68d13          	addi	s10,a3,10
    5cb0:	00ac8833          	add	a6,s9,a0
    5cb4:	3c0d3f5b          	bfos	t5,s10,15,0
    5cb8:	f50950e3          	bge	s2,a6,5bf8 <core_bench_matrix+0x1198>
    5cbc:	01872303          	lw	t1,24(a4)
    5cc0:	00000813          	addi	a6,zero,0
    5cc4:	00af0593          	addi	a1,t5,10
    5cc8:	006807b3          	add	a5,a6,t1
    5ccc:	3c05b8db          	bfos	a7,a1,15,0
    5cd0:	f4f950e3          	bge	s2,a5,5c10 <core_bench_matrix+0x11b0>
    5cd4:	00a88793          	addi	a5,a7,10
    5cd8:	3c07b55b          	bfos	a0,a5,15,0
    5cdc:	4781                	c.li	a5,0
    5cde:	bf3d                	c.j	5c1c <core_bench_matrix+0x11bc>
    5ce0:	00472083          	lw	ra,4(a4)
    5ce4:	4c01                	c.li	s8,0
    5ce6:	0529                	c.addi	a0,10
    5ce8:	001c0cb3          	add	s9,s8,ra
    5cec:	3c0536db          	bfos	a3,a0,15,0
    5cf0:	0585                	c.addi	a1,1
    5cf2:	0711                	c.addi	a4,4
    5cf4:	0d995863          	bge	s2,s9,5dc4 <core_bench_matrix+0x1364>
    5cf8:	00472283          	lw	t0,4(a4)
    5cfc:	00000c93          	addi	s9,zero,0
    5d00:	00a68f13          	addi	t5,a3,10
    5d04:	005c88b3          	add	a7,s9,t0
    5d08:	3c0f3fdb          	bfos	t6,t5,15,0
    5d0c:	0d194863          	blt	s2,a7,5ddc <core_bench_matrix+0x137c>
    5d10:	00872803          	lw	a6,8(a4)
    5d14:	0050aeb3          	slt	t4,ra,t0
    5d18:	01fe83b3          	add	t2,t4,t6
    5d1c:	010880b3          	add	ra,a7,a6
    5d20:	3c03be5b          	bfos	t3,t2,15,0
    5d24:	0c194863          	blt	s2,ra,5df4 <core_bench_matrix+0x1394>
    5d28:	00c72503          	lw	a0,12(a4)
    5d2c:	0102ac33          	slt	s8,t0,a6
    5d30:	01cc0333          	add	t1,s8,t3
    5d34:	00a08cb3          	add	s9,ra,a0
    5d38:	3c0336db          	bfos	a3,t1,15,0
    5d3c:	0d994663          	blt	s2,s9,5e08 <core_bench_matrix+0x13a8>
    5d40:	01072283          	lw	t0,16(a4)
    5d44:	00a82db3          	slt	s11,a6,a0
    5d48:	00dd8d33          	add	s10,s11,a3
    5d4c:	005c88b3          	add	a7,s9,t0
    5d50:	3c0d3fdb          	bfos	t6,s10,15,0
    5d54:	0d194663          	blt	s2,a7,5e20 <core_bench_matrix+0x13c0>
    5d58:	01472c03          	lw	s8,20(a4)
    5d5c:	00552eb3          	slt	t4,a0,t0
    5d60:	01fe83b3          	add	t2,t4,t6
    5d64:	018880b3          	add	ra,a7,s8
    5d68:	3c03be5b          	bfos	t3,t2,15,0
    5d6c:	0c194663          	blt	s2,ra,5e38 <core_bench_matrix+0x13d8>
    5d70:	0182a833          	slt	a6,t0,s8
    5d74:	01c80333          	add	t1,a6,t3
    5d78:	3c0336db          	bfos	a3,t1,15,0
    5d7c:	01872303          	lw	t1,24(a4)
    5d80:	006087b3          	add	a5,ra,t1
    5d84:	0cf94663          	blt	s2,a5,5e50 <core_bench_matrix+0x13f0>
    5d88:	006c2533          	slt	a0,s8,t1
    5d8c:	00d50db3          	add	s11,a0,a3
    5d90:	3c0db55b          	bfos	a0,s11,15,0
    5d94:	059d                	c.addi	a1,7
    5d96:	0771                	c.addi	a4,28
    5d98:	9895d0e3          	bge	a1,s1,5718 <core_bench_matrix+0xcb8>
    5d9c:	00072883          	lw	a7,0(a4)
    5da0:	01178c33          	add	s8,a5,a7
    5da4:	f3894ee3          	blt	s2,s8,5ce0 <core_bench_matrix+0x1280>
    5da8:	00472083          	lw	ra,4(a4)
    5dac:	01132333          	slt	t1,t1,a7
    5db0:	00a30633          	add	a2,t1,a0
    5db4:	001c0cb3          	add	s9,s8,ra
    5db8:	3c0636db          	bfos	a3,a2,15,0
    5dbc:	0585                	c.addi	a1,1
    5dbe:	0711                	c.addi	a4,4
    5dc0:	f3994ce3          	blt	s2,s9,5cf8 <core_bench_matrix+0x1298>
    5dc4:	00472283          	lw	t0,4(a4)
    5dc8:	0018adb3          	slt	s11,a7,ra
    5dcc:	00dd8d33          	add	s10,s11,a3
    5dd0:	005c88b3          	add	a7,s9,t0
    5dd4:	3c0d3fdb          	bfos	t6,s10,15,0
    5dd8:	f3195ce3          	bge	s2,a7,5d10 <core_bench_matrix+0x12b0>
    5ddc:	00872803          	lw	a6,8(a4)
    5de0:	00000893          	addi	a7,zero,0
    5de4:	00af8793          	addi	a5,t6,10
    5de8:	010880b3          	add	ra,a7,a6
    5dec:	3c07be5b          	bfos	t3,a5,15,0
    5df0:	f2195ce3          	bge	s2,ra,5d28 <core_bench_matrix+0x12c8>
    5df4:	4748                	c.lw	a0,12(a4)
    5df6:	4081                	c.li	ra,0
    5df8:	00ae0613          	addi	a2,t3,10
    5dfc:	00a08cb3          	add	s9,ra,a0
    5e00:	3c0636db          	bfos	a3,a2,15,0
    5e04:	f3995ee3          	bge	s2,s9,5d40 <core_bench_matrix+0x12e0>
    5e08:	01072283          	lw	t0,16(a4)
    5e0c:	00000c93          	addi	s9,zero,0
    5e10:	00a68f13          	addi	t5,a3,10
    5e14:	005c88b3          	add	a7,s9,t0
    5e18:	3c0f3fdb          	bfos	t6,t5,15,0
    5e1c:	f3195ee3          	bge	s2,a7,5d58 <core_bench_matrix+0x12f8>
    5e20:	01472c03          	lw	s8,20(a4)
    5e24:	00000893          	addi	a7,zero,0
    5e28:	00af8793          	addi	a5,t6,10
    5e2c:	018880b3          	add	ra,a7,s8
    5e30:	3c07be5b          	bfos	t3,a5,15,0
    5e34:	f2195ee3          	bge	s2,ra,5d70 <core_bench_matrix+0x1310>
    5e38:	01872303          	lw	t1,24(a4)
    5e3c:	00000093          	addi	ra,zero,0
    5e40:	00ae0613          	addi	a2,t3,10
    5e44:	006087b3          	add	a5,ra,t1
    5e48:	3c0636db          	bfos	a3,a2,15,0
    5e4c:	f2f95ee3          	bge	s2,a5,5d88 <core_bench_matrix+0x1328>
    5e50:	00a68d13          	addi	s10,a3,10
    5e54:	3c0d355b          	bfos	a0,s10,15,0
    5e58:	4781                	c.li	a5,0
    5e5a:	bf2d                	c.j	5d94 <core_bench_matrix+0x1334>
    5e5c:	0068a6b3          	slt	a3,a7,t1
    5e60:	00d50533          	add	a0,a0,a3
    5e64:	3c05355b          	bfos	a0,a0,15,0
    5e68:	fc0ff06f          	jal	zero,5628 <core_bench_matrix+0xbc8>
    5e6c:	0065a633          	slt	a2,a1,t1
    5e70:	00c50533          	add	a0,a0,a2
    5e74:	3c05355b          	bfos	a0,a0,15,0
    5e78:	c24ff06f          	jal	zero,529c <core_bench_matrix+0x83c>
    5e7c:	01cca6b3          	slt	a3,s9,t3
    5e80:	00d50533          	add	a0,a0,a3
    5e84:	3c05355b          	bfos	a0,a0,15,0
    5e88:	94cff06f          	jal	zero,4fd4 <core_bench_matrix+0x574>
    5e8c:	00a50793          	addi	a5,a0,10
    5e90:	3c07b55b          	bfos	a0,a5,15,0
    5e94:	00000793          	addi	a5,zero,0
    5e98:	f91fe06f          	jal	zero,4e28 <core_bench_matrix+0x3c8>
    5e9c:	00a50813          	addi	a6,a0,10
    5ea0:	3c08355b          	bfos	a0,a6,15,0
    5ea4:	00000793          	addi	a5,zero,0
    5ea8:	869ff06f          	jal	zero,5710 <core_bench_matrix+0xcb0>
    5eac:	00a50d93          	addi	s11,a0,10
    5eb0:	3c0db55b          	bfos	a0,s11,15,0
    5eb4:	00000793          	addi	a5,zero,0
    5eb8:	cccff06f          	jal	zero,5384 <core_bench_matrix+0x924>
    5ebc:	00a50e93          	addi	t4,a0,10
    5ec0:	3c0eb55b          	bfos	a0,t4,15,0
    5ec4:	00000793          	addi	a5,zero,0
    5ec8:	a00ff06f          	jal	zero,50c8 <core_bench_matrix+0x668>
    5ecc:	00a50f13          	addi	t5,a0,10
    5ed0:	3c0f355b          	bfos	a0,t5,15,0
    5ed4:	00000793          	addi	a5,zero,0
    5ed8:	f31fe06f          	jal	zero,4e08 <core_bench_matrix+0x3a8>
    5edc:	00a50793          	addi	a5,a0,10
    5ee0:	3c07b55b          	bfos	a0,a5,15,0
    5ee4:	00000793          	addi	a5,zero,0
    5ee8:	9c4ff06f          	jal	zero,50ac <core_bench_matrix+0x64c>
    5eec:	00a50793          	addi	a5,a0,10
    5ef0:	3c07b55b          	bfos	a0,a5,15,0
    5ef4:	00000793          	addi	a5,zero,0
    5ef8:	ffcff06f          	jal	zero,56f4 <core_bench_matrix+0xc94>
    5efc:	00a50593          	addi	a1,a0,10
    5f00:	3c05b55b          	bfos	a0,a1,15,0
    5f04:	00000793          	addi	a5,zero,0
    5f08:	c60ff06f          	jal	zero,5368 <core_bench_matrix+0x908>
    5f0c:	00a50093          	addi	ra,a0,10
    5f10:	3c00b55b          	bfos	a0,ra,15,0
    5f14:	00000793          	addi	a5,zero,0
    5f18:	ed1fe06f          	jal	zero,4de8 <core_bench_matrix+0x388>
    5f1c:	00a50793          	addi	a5,a0,10
    5f20:	3c07b55b          	bfos	a0,a5,15,0
    5f24:	00000793          	addi	a5,zero,0
    5f28:	c24ff06f          	jal	zero,534c <core_bench_matrix+0x8ec>
    5f2c:	00a50f13          	addi	t5,a0,10
    5f30:	3c0f355b          	bfos	a0,t5,15,0
    5f34:	00000793          	addi	a5,zero,0
    5f38:	fa0ff06f          	jal	zero,56d8 <core_bench_matrix+0xc78>
    5f3c:	00a50c93          	addi	s9,a0,10
    5f40:	3c0cb55b          	bfos	a0,s9,15,0
    5f44:	00000793          	addi	a5,zero,0
    5f48:	948ff06f          	jal	zero,5090 <core_bench_matrix+0x630>
    5f4c:	00a50793          	addi	a5,a0,10
    5f50:	3c07b55b          	bfos	a0,a5,15,0
    5f54:	00000793          	addi	a5,zero,0
    5f58:	e71fe06f          	jal	zero,4dc8 <core_bench_matrix+0x368>
    5f5c:	0529                	c.addi	a0,10
    5f5e:	3c05355b          	bfos	a0,a0,15,0
    5f62:	4781                	c.li	a5,0
    5f64:	f58ff06f          	jal	zero,56bc <core_bench_matrix+0xc5c>
    5f68:	00a50f93          	addi	t6,a0,10
    5f6c:	3c0fb55b          	bfos	a0,t6,15,0
    5f70:	00000793          	addi	a5,zero,0
    5f74:	900ff06f          	jal	zero,5074 <core_bench_matrix+0x614>
    5f78:	00a50f93          	addi	t6,a0,10
    5f7c:	3c0fb55b          	bfos	a0,t6,15,0
    5f80:	00000793          	addi	a5,zero,0
    5f84:	bacff06f          	jal	zero,5330 <core_bench_matrix+0x8d0>
    5f88:	00a50f93          	addi	t6,a0,10
    5f8c:	3c0fb55b          	bfos	a0,t6,15,0
    5f90:	00000793          	addi	a5,zero,0
    5f94:	e15fe06f          	jal	zero,4da8 <core_bench_matrix+0x348>
    5f98:	0529                	c.addi	a0,10
    5f9a:	3c05355b          	bfos	a0,a0,15,0
    5f9e:	4781                	c.li	a5,0
    5fa0:	8b8ff06f          	jal	zero,5058 <core_bench_matrix+0x5f8>
    5fa4:	00a50893          	addi	a7,a0,10
    5fa8:	3c08b55b          	bfos	a0,a7,15,0
    5fac:	00000793          	addi	a5,zero,0
    5fb0:	ef0ff06f          	jal	zero,56a0 <core_bench_matrix+0xc40>
    5fb4:	00a50813          	addi	a6,a0,10
    5fb8:	3c08355b          	bfos	a0,a6,15,0
    5fbc:	00000793          	addi	a5,zero,0
    5fc0:	b54ff06f          	jal	zero,5314 <core_bench_matrix+0x8b4>
    5fc4:	00a50693          	addi	a3,a0,10
    5fc8:	3c06b55b          	bfos	a0,a3,15,0
    5fcc:	00000793          	addi	a5,zero,0
    5fd0:	db9fe06f          	jal	zero,4d88 <core_bench_matrix+0x328>
    5fd4:	00a50e93          	addi	t4,a0,10
    5fd8:	3c0eb55b          	bfos	a0,t4,15,0
    5fdc:	00000793          	addi	a5,zero,0
    5fe0:	ea4ff06f          	jal	zero,5684 <core_bench_matrix+0xc24>
    5fe4:	00a50293          	addi	t0,a0,10
    5fe8:	3c02b55b          	bfos	a0,t0,15,0
    5fec:	00000793          	addi	a5,zero,0
    5ff0:	b08ff06f          	jal	zero,52f8 <core_bench_matrix+0x898>
    5ff4:	00a50793          	addi	a5,a0,10
    5ff8:	3c07b55b          	bfos	a0,a5,15,0
    5ffc:	00000793          	addi	a5,zero,0
    6000:	838ff06f          	jal	zero,5038 <core_bench_matrix+0x5d8>
    6004:	00a50793          	addi	a5,a0,10
    6008:	3c07b55b          	bfos	a0,a5,15,0
    600c:	00000793          	addi	a5,zero,0
    6010:	d59fe06f          	jal	zero,4d68 <core_bench_matrix+0x308>
    6014:	00a50793          	addi	a5,a0,10
    6018:	3c07b55b          	bfos	a0,a5,15,0
    601c:	00000793          	addi	a5,zero,0
    6020:	e48ff06f          	jal	zero,5668 <core_bench_matrix+0xc08>
    6024:	00a50793          	addi	a5,a0,10
    6028:	3c07b55b          	bfos	a0,a5,15,0
    602c:	00000793          	addi	a5,zero,0
    6030:	aacff06f          	jal	zero,52dc <core_bench_matrix+0x87c>
    6034:	00a50093          	addi	ra,a0,10
    6038:	3c00b55b          	bfos	a0,ra,15,0
    603c:	00000793          	addi	a5,zero,0
    6040:	fd9fe06f          	jal	zero,5018 <core_bench_matrix+0x5b8>
    6044:	4581                	c.li	a1,0
    6046:	4501                	c.li	a0,0
    6048:	5e8030ef          	jal	ra,9630 <crc16>
    604c:	85aa                	c.mv	a1,a0
    604e:	4501                	c.li	a0,0
    6050:	5e0030ef          	jal	ra,9630 <crc16>
    6054:	85aa                	c.mv	a1,a0
    6056:	4501                	c.li	a0,0
    6058:	5d8030ef          	jal	ra,9630 <crc16>
    605c:	85aa                	c.mv	a1,a0
    605e:	4501                	c.li	a0,0
    6060:	5d0030ef          	jal	ra,9630 <crc16>
    6064:	4426                	c.lwsp	s0,72(sp)
    6066:	45b2                	c.lwsp	a1,12(sp)
    6068:	40b6                	c.lwsp	ra,76(sp)
    606a:	4496                	c.lwsp	s1,68(sp)
    606c:	4906                	c.lwsp	s2,64(sp)
    606e:	59f2                	c.lwsp	s3,60(sp)
    6070:	5a62                	c.lwsp	s4,56(sp)
    6072:	5ad2                	c.lwsp	s5,52(sp)
    6074:	5b42                	c.lwsp	s6,48(sp)
    6076:	5bb2                	c.lwsp	s7,44(sp)
    6078:	5c22                	c.lwsp	s8,40(sp)
    607a:	5c92                	c.lwsp	s9,36(sp)
    607c:	5d02                	c.lwsp	s10,32(sp)
    607e:	4df2                	c.lwsp	s11,28(sp)
    6080:	3c05355b          	bfos	a0,a0,15,0
    6084:	05010113          	addi	sp,sp,80
    6088:	5a80306f          	jal	zero,9630 <crc16>

0000608c <matrix_test>:
    608c:	715d                	c.addi16sp	sp,-80
    608e:	c0ca                	c.swsp	s2,64(sp)
    6090:	c686                	c.swsp	ra,76(sp)
    6092:	797d                	c.lui	s2,0xfffff
    6094:	c4a2                	c.swsp	s0,72(sp)
    6096:	c2a6                	c.swsp	s1,68(sp)
    6098:	de4e                	c.swsp	s3,60(sp)
    609a:	dc52                	c.swsp	s4,56(sp)
    609c:	da56                	c.swsp	s5,52(sp)
    609e:	d85a                	c.swsp	s6,48(sp)
    60a0:	d65e                	c.swsp	s7,44(sp)
    60a2:	d462                	c.swsp	s8,40(sp)
    60a4:	d266                	c.swsp	s9,36(sp)
    60a6:	d06a                	c.swsp	s10,32(sp)
    60a8:	ce6e                	c.swsp	s11,28(sp)
    60aa:	c432                	c.swsp	a2,8(sp)
    60ac:	01276933          	or	s2,a4,s2
    60b0:	00a04463          	blt	zero,a0,60b8 <matrix_test+0x2c>
    60b4:	4240106f          	jal	zero,74d8 <matrix_test+0x144c>
    60b8:	40a00333          	sub	t1,zero,a0
    60bc:	8bb2                	c.mv	s7,a2
    60be:	0aa6065b          	lea.h	a2,a2,a0
    60c2:	8dae                	c.mv	s11,a1
    60c4:	8c36                	c.mv	s8,a3
    60c6:	88ba                	c.mv	a7,a4
    60c8:	8aaa                	c.mv	s5,a0
    60ca:	86b2                	c.mv	a3,a2
    60cc:	3c0729db          	bfoz	s3,a4,15,0
    60d0:	00151413          	slli	s0,a0,0x1
    60d4:	00131593          	slli	a1,t1,0x1
    60d8:	00231813          	slli	a6,t1,0x2
    60dc:	00000493          	addi	s1,zero,0
    60e0:	00d58533          	add	a0,a1,a3
    60e4:	40a68733          	sub	a4,a3,a0
    60e8:	ffe70093          	addi	ra,a4,-2
    60ec:	0010d293          	srli	t0,ra,0x1
    60f0:	00128393          	addi	t2,t0,1
    60f4:	0073fa13          	andi	s4,t2,7
    60f8:	00050793          	addi	a5,a0,0
    60fc:	080a0863          	beq	s4,zero,618c <matrix_test+0x100>
    6100:	061a5c5b          	beqc	s4,1,6178 <matrix_test+0xec>
    6104:	062a525b          	beqc	s4,2,6168 <matrix_test+0xdc>
    6108:	043a585b          	beqc	s4,3,6158 <matrix_test+0xcc>
    610c:	024a5e5b          	beqc	s4,4,6148 <matrix_test+0xbc>
    6110:	025a545b          	beqc	s4,5,6138 <matrix_test+0xac>
    6114:	006a5a5b          	beqc	s4,6,6128 <matrix_test+0x9c>
    6118:	00055b03          	lhu	s6,0(a0)
    611c:	00250793          	addi	a5,a0,2
    6120:	01698cb3          	add	s9,s3,s6
    6124:	01951023          	sh	s9,0(a0)
    6128:	0007dd03          	lhu	s10,0(a5)
    612c:	00278793          	addi	a5,a5,2
    6130:	01a98e33          	add	t3,s3,s10
    6134:	ffc79f23          	sh	t3,-2(a5)
    6138:	0007df03          	lhu	t5,0(a5)
    613c:	00278793          	addi	a5,a5,2
    6140:	01e98fb3          	add	t6,s3,t5
    6144:	fff79f23          	sh	t6,-2(a5)
    6148:	0007de83          	lhu	t4,0(a5)
    614c:	00278793          	addi	a5,a5,2
    6150:	01d98733          	add	a4,s3,t4
    6154:	fee79f23          	sh	a4,-2(a5)
    6158:	0007d083          	lhu	ra,0(a5)
    615c:	00278793          	addi	a5,a5,2
    6160:	001982b3          	add	t0,s3,ra
    6164:	fe579f23          	sh	t0,-2(a5)
    6168:	0007d383          	lhu	t2,0(a5)
    616c:	00278793          	addi	a5,a5,2
    6170:	00798a33          	add	s4,s3,t2
    6174:	ff479f23          	sh	s4,-2(a5)
    6178:	0007db03          	lhu	s6,0(a5)
    617c:	00278793          	addi	a5,a5,2
    6180:	01698cb3          	add	s9,s3,s6
    6184:	ff979f23          	sh	s9,-2(a5)
    6188:	06f68663          	beq	a3,a5,61f4 <matrix_test+0x168>
    618c:	0007dd03          	lhu	s10,0(a5)
    6190:	0027d383          	lhu	t2,2(a5)
    6194:	0047d283          	lhu	t0,4(a5)
    6198:	0067df83          	lhu	t6,6(a5)
    619c:	0087df03          	lhu	t5,8(a5)
    61a0:	00a7de83          	lhu	t4,10(a5)
    61a4:	00c7de03          	lhu	t3,12(a5)
    61a8:	00e7d703          	lhu	a4,14(a5)
    61ac:	01a980b3          	add	ra,s3,s10
    61b0:	00798a33          	add	s4,s3,t2
    61b4:	00598b33          	add	s6,s3,t0
    61b8:	01f98cb3          	add	s9,s3,t6
    61bc:	01e98d33          	add	s10,s3,t5
    61c0:	01d983b3          	add	t2,s3,t4
    61c4:	01c982b3          	add	t0,s3,t3
    61c8:	00e98fb3          	add	t6,s3,a4
    61cc:	00179023          	sh	ra,0(a5)
    61d0:	01479123          	sh	s4,2(a5)
    61d4:	01679223          	sh	s6,4(a5)
    61d8:	01979323          	sh	s9,6(a5)
    61dc:	01a79423          	sh	s10,8(a5)
    61e0:	00779523          	sh	t2,10(a5)
    61e4:	00579623          	sh	t0,12(a5)
    61e8:	01f79723          	sh	t6,14(a5)
    61ec:	01078793          	addi	a5,a5,16
    61f0:	f8f69ee3          	bne	a3,a5,618c <matrix_test+0x100>
    61f4:	00148793          	addi	a5,s1,1
    61f8:	410506b3          	sub	a3,a0,a6
    61fc:	00fa8463          	beq	s5,a5,6204 <matrix_test+0x178>
    6200:	84be                	c.mv	s1,a5
    6202:	bdf9                	c.j	60e0 <matrix_test+0x54>
    6204:	8f6e                	c.mv	t5,s11
    6206:	0a8a                	c.slli	s5,0x2
    6208:	8b6e                	c.mv	s6,s11
    620a:	4f81                	c.li	t6,0
    620c:	00c58533          	add	a0,a1,a2
    6210:	40a60eb3          	sub	t4,a2,a0
    6214:	ffee8e13          	addi	t3,t4,-2
    6218:	001e5713          	srli	a4,t3,0x1
    621c:	00170093          	addi	ra,a4,1
    6220:	0070fa13          	andi	s4,ra,7
    6224:	86fa                	c.mv	a3,t5
    6226:	87aa                	c.mv	a5,a0
    6228:	080a0a63          	beq	s4,zero,62bc <matrix_test+0x230>
    622c:	061a5e5b          	beqc	s4,1,62a8 <matrix_test+0x21c>
    6230:	062a545b          	beqc	s4,2,6298 <matrix_test+0x20c>
    6234:	043a5a5b          	beqc	s4,3,6288 <matrix_test+0x1fc>
    6238:	044a505b          	beqc	s4,4,6278 <matrix_test+0x1ec>
    623c:	025a565b          	beqc	s4,5,6268 <matrix_test+0x1dc>
    6240:	006a5c5b          	beqc	s4,6,6258 <matrix_test+0x1cc>
    6244:	00051c83          	lh	s9,0(a0)
    6248:	00250793          	addi	a5,a0,2
    624c:	004f0693          	addi	a3,t5,4
    6250:	031c8d33          	mul	s10,s9,a7
    6254:	01af2023          	sw	s10,0(t5)
    6258:	00079383          	lh	t2,0(a5)
    625c:	0691                	c.addi	a3,4
    625e:	0789                	c.addi	a5,2
    6260:	031382b3          	mul	t0,t2,a7
    6264:	fe56ae23          	sw	t0,-4(a3)
    6268:	00079e83          	lh	t4,0(a5)
    626c:	0691                	c.addi	a3,4
    626e:	0789                	c.addi	a5,2
    6270:	031e8e33          	mul	t3,t4,a7
    6274:	ffc6ae23          	sw	t3,-4(a3)
    6278:	00079703          	lh	a4,0(a5)
    627c:	0691                	c.addi	a3,4
    627e:	0789                	c.addi	a5,2
    6280:	031700b3          	mul	ra,a4,a7
    6284:	fe16ae23          	sw	ra,-4(a3)
    6288:	00079a03          	lh	s4,0(a5)
    628c:	0691                	c.addi	a3,4
    628e:	0789                	c.addi	a5,2
    6290:	031a0cb3          	mul	s9,s4,a7
    6294:	ff96ae23          	sw	s9,-4(a3)
    6298:	00079d03          	lh	s10,0(a5)
    629c:	0691                	c.addi	a3,4
    629e:	0789                	c.addi	a5,2
    62a0:	031d03b3          	mul	t2,s10,a7
    62a4:	fe76ae23          	sw	t2,-4(a3)
    62a8:	00079283          	lh	t0,0(a5)
    62ac:	0789                	c.addi	a5,2
    62ae:	0691                	c.addi	a3,4
    62b0:	03128eb3          	mul	t4,t0,a7
    62b4:	ffd6ae23          	sw	t4,-4(a3)
    62b8:	06f60863          	beq	a2,a5,6328 <matrix_test+0x29c>
    62bc:	00679d03          	lh	s10,6(a5)
    62c0:	00879283          	lh	t0,8(a5)
    62c4:	00a79e83          	lh	t4,10(a5)
    62c8:	00c79e03          	lh	t3,12(a5)
    62cc:	00079c83          	lh	s9,0(a5)
    62d0:	00279a03          	lh	s4,2(a5)
    62d4:	00479083          	lh	ra,4(a5)
    62d8:	00e79703          	lh	a4,14(a5)
    62dc:	031d03b3          	mul	t2,s10,a7
    62e0:	031c8cb3          	mul	s9,s9,a7
    62e4:	03128d33          	mul	s10,t0,a7
    62e8:	031a0a33          	mul	s4,s4,a7
    62ec:	031e82b3          	mul	t0,t4,a7
    62f0:	031080b3          	mul	ra,ra,a7
    62f4:	031e0eb3          	mul	t4,t3,a7
    62f8:	03170e33          	mul	t3,a4,a7
    62fc:	0196a023          	sw	s9,0(a3)
    6300:	0146a223          	sw	s4,4(a3)
    6304:	0016a423          	sw	ra,8(a3)
    6308:	0076a623          	sw	t2,12(a3)
    630c:	01a6a823          	sw	s10,16(a3)
    6310:	0056aa23          	sw	t0,20(a3)
    6314:	01d6ac23          	sw	t4,24(a3)
    6318:	01c6ae23          	sw	t3,28(a3)
    631c:	01078793          	addi	a5,a5,16
    6320:	02068693          	addi	a3,a3,32
    6324:	f8f61ce3          	bne	a2,a5,62bc <matrix_test+0x230>
    6328:	001f8793          	addi	a5,t6,1
    632c:	9f56                	c.add	t5,s5
    632e:	41050633          	sub	a2,a0,a6
    6332:	009f8563          	beq	t6,s1,633c <matrix_test+0x2b0>
    6336:	8fbe                	c.mv	t6,a5
    6338:	ed5ff06f          	jal	zero,620c <matrix_test+0x180>
    633c:	015d8a33          	add	s4,s11,s5
    6340:	8652                	c.mv	a2,s4
    6342:	4e01                	c.li	t3,0
    6344:	4781                	c.li	a5,0
    6346:	030e                	c.slli	t1,0x3
    6348:	4501                	c.li	a0,0
    634a:	4881                	c.li	a7,0
    634c:	00c80fb3          	add	t6,a6,a2
    6350:	41f606b3          	sub	a3,a2,t6
    6354:	ffc68593          	addi	a1,a3,-4
    6358:	0025d713          	srli	a4,a1,0x2
    635c:	00170c93          	addi	s9,a4,1
    6360:	007cf093          	andi	ra,s9,7
    6364:	877e                	c.mv	a4,t6
    6366:	1a008763          	beq	ra,zero,6514 <matrix_test+0x488>
    636a:	0c10d15b          	beqc	ra,1,642c <matrix_test+0x3a0>
    636e:	0a20d15b          	beqc	ra,2,6410 <matrix_test+0x384>
    6372:	0830d15b          	beqc	ra,3,63f4 <matrix_test+0x368>
    6376:	0640d15b          	beqc	ra,4,63d8 <matrix_test+0x34c>
    637a:	0450d15b          	beqc	ra,5,63bc <matrix_test+0x330>
    637e:	0260d15b          	beqc	ra,6,63a0 <matrix_test+0x314>
    6382:	83f2                	c.mv	t2,t3
    6384:	000fae03          	lw	t3,0(t6)
    6388:	97f2                	c.add	a5,t3
    638a:	00f95463          	bge	s2,a5,6392 <matrix_test+0x306>
    638e:	19e0106f          	jal	zero,752c <matrix_test+0x14a0>
    6392:	01c3ad33          	slt	s10,t2,t3
    6396:	956a                	c.add	a0,s10
    6398:	3c05355b          	bfos	a0,a0,15,0
    639c:	004f8713          	addi	a4,t6,4
    63a0:	8ef2                	c.mv	t4,t3
    63a2:	00072e03          	lw	t3,0(a4)
    63a6:	97f2                	c.add	a5,t3
    63a8:	24f94e63          	blt	s2,a5,6604 <matrix_test+0x578>
    63ac:	01ceaf33          	slt	t5,t4,t3
    63b0:	00af06b3          	add	a3,t5,a0
    63b4:	3c06b55b          	bfos	a0,a3,15,0
    63b8:	00470713          	addi	a4,a4,4
    63bc:	85f2                	c.mv	a1,t3
    63be:	00072e03          	lw	t3,0(a4)
    63c2:	97f2                	c.add	a5,t3
    63c4:	22f94a63          	blt	s2,a5,65f8 <matrix_test+0x56c>
    63c8:	01c5acb3          	slt	s9,a1,t3
    63cc:	00ac80b3          	add	ra,s9,a0
    63d0:	3c00b55b          	bfos	a0,ra,15,0
    63d4:	00470713          	addi	a4,a4,4
    63d8:	8d72                	c.mv	s10,t3
    63da:	00072e03          	lw	t3,0(a4)
    63de:	97f2                	c.add	a5,t3
    63e0:	20f94663          	blt	s2,a5,65ec <matrix_test+0x560>
    63e4:	01cd22b3          	slt	t0,s10,t3
    63e8:	00550533          	add	a0,a0,t0
    63ec:	3c05355b          	bfos	a0,a0,15,0
    63f0:	00470713          	addi	a4,a4,4
    63f4:	8f72                	c.mv	t5,t3
    63f6:	00072e03          	lw	t3,0(a4)
    63fa:	97f2                	c.add	a5,t3
    63fc:	1ef94263          	blt	s2,a5,65e0 <matrix_test+0x554>
    6400:	01cf26b3          	slt	a3,t5,t3
    6404:	00a685b3          	add	a1,a3,a0
    6408:	3c05b55b          	bfos	a0,a1,15,0
    640c:	00470713          	addi	a4,a4,4
    6410:	8cf2                	c.mv	s9,t3
    6412:	00072e03          	lw	t3,0(a4)
    6416:	97f2                	c.add	a5,t3
    6418:	1af94e63          	blt	s2,a5,65d4 <matrix_test+0x548>
    641c:	01cca0b3          	slt	ra,s9,t3
    6420:	00a083b3          	add	t2,ra,a0
    6424:	3c03b55b          	bfos	a0,t2,15,0
    6428:	00470713          	addi	a4,a4,4
    642c:	82f2                	c.mv	t0,t3
    642e:	00072e03          	lw	t3,0(a4)
    6432:	97f2                	c.add	a5,t3
    6434:	18f94a63          	blt	s2,a5,65c8 <matrix_test+0x53c>
    6438:	01c2aeb3          	slt	t4,t0,t3
    643c:	01d50533          	add	a0,a0,t4
    6440:	3c05355b          	bfos	a0,a0,15,0
    6444:	00470713          	addi	a4,a4,4
    6448:	0ce61663          	bne	a2,a4,6514 <matrix_test+0x488>
    644c:	00188e93          	addi	t4,a7,1
    6450:	406f8633          	sub	a2,t6,t1
    6454:	1a988e63          	beq	a7,s1,6610 <matrix_test+0x584>
    6458:	88f6                	c.mv	a7,t4
    645a:	bdcd                	c.j	634c <matrix_test+0x2c0>
    645c:	00472383          	lw	t2,4(a4)
    6460:	4781                	c.li	a5,0
    6462:	00a50093          	addi	ra,a0,10
    6466:	979e                	c.add	a5,t2
    6468:	3c00bcdb          	bfos	s9,ra,15,0
    646c:	00470713          	addi	a4,a4,4
    6470:	0cf95263          	bge	s2,a5,6534 <matrix_test+0x4a8>
    6474:	4348                	c.lw	a0,4(a4)
    6476:	4781                	c.li	a5,0
    6478:	00ac8e93          	addi	t4,s9,10
    647c:	00a780b3          	add	ra,a5,a0
    6480:	3c0ebf5b          	bfos	t5,t4,15,0
    6484:	0c194463          	blt	s2,ra,654c <matrix_test+0x4c0>
    6488:	00a3a5b3          	slt	a1,t2,a0
    648c:	00872383          	lw	t2,8(a4)
    6490:	01e58e33          	add	t3,a1,t5
    6494:	007087b3          	add	a5,ra,t2
    6498:	3c0e3cdb          	bfos	s9,t3,15,0
    649c:	0cf94463          	blt	s2,a5,6564 <matrix_test+0x4d8>
    64a0:	00752d33          	slt	s10,a0,t2
    64a4:	00c72503          	lw	a0,12(a4)
    64a8:	019d02b3          	add	t0,s10,s9
    64ac:	00a780b3          	add	ra,a5,a0
    64b0:	3c02bf5b          	bfos	t5,t0,15,0
    64b4:	0c194263          	blt	s2,ra,6578 <matrix_test+0x4ec>
    64b8:	00a3a5b3          	slt	a1,t2,a0
    64bc:	01072383          	lw	t2,16(a4)
    64c0:	01e58e33          	add	t3,a1,t5
    64c4:	007087b3          	add	a5,ra,t2
    64c8:	3c0e3cdb          	bfos	s9,t3,15,0
    64cc:	0cf94263          	blt	s2,a5,6590 <matrix_test+0x504>
    64d0:	00752d33          	slt	s10,a0,t2
    64d4:	01472503          	lw	a0,20(a4)
    64d8:	019d02b3          	add	t0,s10,s9
    64dc:	00a780b3          	add	ra,a5,a0
    64e0:	3c02bf5b          	bfos	t5,t0,15,0
    64e4:	0c194063          	blt	s2,ra,65a4 <matrix_test+0x518>
    64e8:	00a3a5b3          	slt	a1,t2,a0
    64ec:	01e58e33          	add	t3,a1,t5
    64f0:	3c0e3cdb          	bfos	s9,t3,15,0
    64f4:	01872e03          	lw	t3,24(a4)
    64f8:	01c087b3          	add	a5,ra,t3
    64fc:	0cf94063          	blt	s2,a5,65bc <matrix_test+0x530>
    6500:	01c523b3          	slt	t2,a0,t3
    6504:	01938d33          	add	s10,t2,s9
    6508:	3c0d355b          	bfos	a0,s10,15,0
    650c:	01c70713          	addi	a4,a4,28
    6510:	f2e60ee3          	beq	a2,a4,644c <matrix_test+0x3c0>
    6514:	430c                	c.lw	a1,0(a4)
    6516:	97ae                	c.add	a5,a1
    6518:	f4f942e3          	blt	s2,a5,645c <matrix_test+0x3d0>
    651c:	00472383          	lw	t2,4(a4)
    6520:	00be2e33          	slt	t3,t3,a1
    6524:	00ae06b3          	add	a3,t3,a0
    6528:	979e                	c.add	a5,t2
    652a:	3c06bcdb          	bfos	s9,a3,15,0
    652e:	0711                	c.addi	a4,4
    6530:	f4f942e3          	blt	s2,a5,6474 <matrix_test+0x3e8>
    6534:	00472503          	lw	a0,4(a4)
    6538:	0075ad33          	slt	s10,a1,t2
    653c:	019d02b3          	add	t0,s10,s9
    6540:	00a780b3          	add	ra,a5,a0
    6544:	3c02bf5b          	bfos	t5,t0,15,0
    6548:	f41950e3          	bge	s2,ra,6488 <matrix_test+0x3fc>
    654c:	00872383          	lw	t2,8(a4)
    6550:	00000093          	addi	ra,zero,0
    6554:	00af0693          	addi	a3,t5,10
    6558:	007087b3          	add	a5,ra,t2
    655c:	3c06bcdb          	bfos	s9,a3,15,0
    6560:	f4f950e3          	bge	s2,a5,64a0 <matrix_test+0x414>
    6564:	4748                	c.lw	a0,12(a4)
    6566:	4781                	c.li	a5,0
    6568:	00ac8e93          	addi	t4,s9,10
    656c:	00a780b3          	add	ra,a5,a0
    6570:	3c0ebf5b          	bfos	t5,t4,15,0
    6574:	f41952e3          	bge	s2,ra,64b8 <matrix_test+0x42c>
    6578:	01072383          	lw	t2,16(a4)
    657c:	00000093          	addi	ra,zero,0
    6580:	00af0693          	addi	a3,t5,10
    6584:	007087b3          	add	a5,ra,t2
    6588:	3c06bcdb          	bfos	s9,a3,15,0
    658c:	f4f952e3          	bge	s2,a5,64d0 <matrix_test+0x444>
    6590:	4b48                	c.lw	a0,20(a4)
    6592:	4781                	c.li	a5,0
    6594:	00ac8e93          	addi	t4,s9,10
    6598:	00a780b3          	add	ra,a5,a0
    659c:	3c0ebf5b          	bfos	t5,t4,15,0
    65a0:	f41954e3          	bge	s2,ra,64e8 <matrix_test+0x45c>
    65a4:	01872e03          	lw	t3,24(a4)
    65a8:	00000093          	addi	ra,zero,0
    65ac:	00af0693          	addi	a3,t5,10
    65b0:	01c087b3          	add	a5,ra,t3
    65b4:	3c06bcdb          	bfos	s9,a3,15,0
    65b8:	f4f954e3          	bge	s2,a5,6500 <matrix_test+0x474>
    65bc:	00ac8293          	addi	t0,s9,10
    65c0:	3c02b55b          	bfos	a0,t0,15,0
    65c4:	4781                	c.li	a5,0
    65c6:	b799                	c.j	650c <matrix_test+0x480>
    65c8:	00a50f13          	addi	t5,a0,10
    65cc:	3c0f355b          	bfos	a0,t5,15,0
    65d0:	4781                	c.li	a5,0
    65d2:	bd8d                	c.j	6444 <matrix_test+0x3b8>
    65d4:	00a50d13          	addi	s10,a0,10
    65d8:	3c0d355b          	bfos	a0,s10,15,0
    65dc:	4781                	c.li	a5,0
    65de:	b5a9                	c.j	6428 <matrix_test+0x39c>
    65e0:	00a50793          	addi	a5,a0,10
    65e4:	3c07b55b          	bfos	a0,a5,15,0
    65e8:	4781                	c.li	a5,0
    65ea:	b50d                	c.j	640c <matrix_test+0x380>
    65ec:	00a50e93          	addi	t4,a0,10
    65f0:	3c0eb55b          	bfos	a0,t4,15,0
    65f4:	4781                	c.li	a5,0
    65f6:	bbed                	c.j	63f0 <matrix_test+0x364>
    65f8:	00a50393          	addi	t2,a0,10
    65fc:	3c03b55b          	bfos	a0,t2,15,0
    6600:	4781                	c.li	a5,0
    6602:	bbc9                	c.j	63d4 <matrix_test+0x348>
    6604:	00a50793          	addi	a5,a0,10
    6608:	3c07b55b          	bfos	a0,a5,15,0
    660c:	4781                	c.li	a5,0
    660e:	b36d                	c.j	63b8 <matrix_test+0x32c>
    6610:	00000593          	addi	a1,zero,0
    6614:	01c030ef          	jal	ra,9630 <crc16>
    6618:	4ca2                	c.lwsp	s9,8(sp)
    661a:	85aa                	c.mv	a1,a0
    661c:	000d8d13          	addi	s10,s11,0
    6620:	008c0533          	add	a0,s8,s0
    6624:	418508b3          	sub	a7,a0,s8
    6628:	ffe88f93          	addi	t6,a7,-2
    662c:	001fdf13          	srli	t5,t6,0x1
    6630:	001f0693          	addi	a3,t5,1
    6634:	0076f093          	andi	ra,a3,7
    6638:	87e2                	c.mv	a5,s8
    663a:	88e6                	c.mv	a7,s9
    663c:	00000713          	addi	a4,zero,0
    6640:	0a008663          	beq	ra,zero,66ec <matrix_test+0x660>
    6644:	0810d85b          	beqc	ra,1,66d4 <matrix_test+0x648>
    6648:	0620dc5b          	beqc	ra,2,66c0 <matrix_test+0x634>
    664c:	0630d05b          	beqc	ra,3,66ac <matrix_test+0x620>
    6650:	0440d45b          	beqc	ra,4,6698 <matrix_test+0x60c>
    6654:	0250d85b          	beqc	ra,5,6684 <matrix_test+0x5f8>
    6658:	0060dc5b          	beqc	ra,6,6670 <matrix_test+0x5e4>
    665c:	000c9e03          	lh	t3,0(s9)
    6660:	000c1383          	lh	t2,0(s8)
    6664:	002c8893          	addi	a7,s9,2
    6668:	002c0793          	addi	a5,s8,2
    666c:	027e0733          	mul	a4,t3,t2
    6670:	00089283          	lh	t0,0(a7)
    6674:	00079303          	lh	t1,0(a5)
    6678:	0889                	c.addi	a7,2
    667a:	0789                	c.addi	a5,2
    667c:	02628833          	mul	a6,t0,t1
    6680:	01070733          	add	a4,a4,a6
    6684:	00089e83          	lh	t4,0(a7)
    6688:	00079603          	lh	a2,0(a5)
    668c:	0889                	c.addi	a7,2
    668e:	0789                	c.addi	a5,2
    6690:	02ce8fb3          	mul	t6,t4,a2
    6694:	01f70733          	add	a4,a4,t6
    6698:	00089f03          	lh	t5,0(a7)
    669c:	00079683          	lh	a3,0(a5)
    66a0:	0889                	c.addi	a7,2
    66a2:	0789                	c.addi	a5,2
    66a4:	02df00b3          	mul	ra,t5,a3
    66a8:	00170733          	add	a4,a4,ra
    66ac:	00089e03          	lh	t3,0(a7)
    66b0:	00079383          	lh	t2,0(a5)
    66b4:	0889                	c.addi	a7,2
    66b6:	0789                	c.addi	a5,2
    66b8:	027e02b3          	mul	t0,t3,t2
    66bc:	00570733          	add	a4,a4,t0
    66c0:	00089803          	lh	a6,0(a7)
    66c4:	00079303          	lh	t1,0(a5)
    66c8:	0889                	c.addi	a7,2
    66ca:	0789                	c.addi	a5,2
    66cc:	02680eb3          	mul	t4,a6,t1
    66d0:	01d70733          	add	a4,a4,t4
    66d4:	00089603          	lh	a2,0(a7)
    66d8:	00079f83          	lh	t6,0(a5)
    66dc:	0789                	c.addi	a5,2
    66de:	0889                	c.addi	a7,2
    66e0:	03f60f33          	mul	t5,a2,t6
    66e4:	01e70733          	add	a4,a4,t5
    66e8:	08f50663          	beq	a0,a5,6774 <matrix_test+0x6e8>
    66ec:	00089383          	lh	t2,0(a7)
    66f0:	00079283          	lh	t0,0(a5)
    66f4:	00289803          	lh	a6,2(a7)
    66f8:	00279683          	lh	a3,2(a5)
    66fc:	00479e03          	lh	t3,4(a5)
    6700:	00489083          	lh	ra,4(a7)
    6704:	02538333          	mul	t1,t2,t0
    6708:	00679f03          	lh	t5,6(a5)
    670c:	00689603          	lh	a2,6(a7)
    6710:	02d80fb3          	mul	t6,a6,a3
    6714:	00889e83          	lh	t4,8(a7)
    6718:	00879803          	lh	a6,8(a5)
    671c:	03c080b3          	mul	ra,ra,t3
    6720:	00a89383          	lh	t2,10(a7)
    6724:	00a79e03          	lh	t3,10(a5)
    6728:	03e60633          	mul	a2,a2,t5
    672c:	00c79283          	lh	t0,12(a5)
    6730:	971a                	c.add	a4,t1
    6732:	00c89303          	lh	t1,12(a7)
    6736:	01f70f33          	add	t5,a4,t6
    673a:	030e8eb3          	mul	t4,t4,a6
    673e:	00e89683          	lh	a3,14(a7)
    6742:	00e79f83          	lh	t6,14(a5)
    6746:	001f0833          	add	a6,t5,ra
    674a:	03c380b3          	mul	ra,t2,t3
    674e:	02530e33          	mul	t3,t1,t0
    6752:	00c803b3          	add	t2,a6,a2
    6756:	01d38733          	add	a4,t2,t4
    675a:	03f68633          	mul	a2,a3,t6
    675e:	00170333          	add	t1,a4,ra
    6762:	01c302b3          	add	t0,t1,t3
    6766:	07c1                	c.addi	a5,16
    6768:	00c28733          	add	a4,t0,a2
    676c:	01088893          	addi	a7,a7,16
    6770:	f6f51ee3          	bne	a0,a5,66ec <matrix_test+0x660>
    6774:	00ed2023          	sw	a4,0(s10)
    6778:	0d11                	c.addi	s10,4
    677a:	9ca2                	c.add	s9,s0
    677c:	ebaa14e3          	bne	s4,s10,6624 <matrix_test+0x598>
    6780:	866e                	c.mv	a2,s11
    6782:	4f01                	c.li	t5,0
    6784:	4781                	c.li	a5,0
    6786:	4301                	c.li	t1,0
    6788:	4501                	c.li	a0,0
    678a:	4801                	c.li	a6,0
    678c:	0074fa13          	andi	s4,s1,7
    6790:	8e32                	c.mv	t3,a2
    6792:	4e81                	c.li	t4,0
    6794:	1a0a0e63          	beq	s4,zero,6950 <matrix_test+0x8c4>
    6798:	8cfa                	c.mv	s9,t5
    679a:	00062f03          	lw	t5,0(a2)
    679e:	97fa                	c.add	a5,t5
    67a0:	1ef94263          	blt	s2,a5,6984 <matrix_test+0x8f8>
    67a4:	01ecad33          	slt	s10,s9,t5
    67a8:	01a50533          	add	a0,a0,s10
    67ac:	3c05355b          	bfos	a0,a0,15,0
    67b0:	00460e13          	addi	t3,a2,4
    67b4:	1c935063          	bge	t1,s1,6974 <matrix_test+0x8e8>
    67b8:	4e85                	c.li	t4,1
    67ba:	181a5b5b          	beqc	s4,1,6950 <matrix_test+0x8c4>
    67be:	0a2a515b          	beqc	s4,2,6860 <matrix_test+0x7d4>
    67c2:	083a515b          	beqc	s4,3,6844 <matrix_test+0x7b8>
    67c6:	064a515b          	beqc	s4,4,6828 <matrix_test+0x79c>
    67ca:	045a515b          	beqc	s4,5,680c <matrix_test+0x780>
    67ce:	026a515b          	beqc	s4,6,67f0 <matrix_test+0x764>
    67d2:	8efa                	c.mv	t4,t5
    67d4:	000e2f03          	lw	t5,0(t3)
    67d8:	01e787b3          	add	a5,a5,t5
    67dc:	56f94ee3          	blt	s2,a5,7558 <matrix_test+0x14cc>
    67e0:	01eea6b3          	slt	a3,t4,t5
    67e4:	00a68fb3          	add	t6,a3,a0
    67e8:	3c0fb55b          	bfos	a0,t6,15,0
    67ec:	0e11                	c.addi	t3,4
    67ee:	4e89                	c.li	t4,2
    67f0:	80fa                	c.mv	ra,t5
    67f2:	000e2f03          	lw	t5,0(t3)
    67f6:	97fa                	c.add	a5,t5
    67f8:	3cf94863          	blt	s2,a5,6bc8 <matrix_test+0xb3c>
    67fc:	01e0a3b3          	slt	t2,ra,t5
    6800:	00a38733          	add	a4,t2,a0
    6804:	3c07355b          	bfos	a0,a4,15,0
    6808:	0e11                	c.addi	t3,4
    680a:	0e85                	c.addi	t4,1
    680c:	8a7a                	c.mv	s4,t5
    680e:	000e2f03          	lw	t5,0(t3)
    6812:	97fa                	c.add	a5,t5
    6814:	20f94063          	blt	s2,a5,6a14 <matrix_test+0x988>
    6818:	01ea2cb3          	slt	s9,s4,t5
    681c:	00ac8d33          	add	s10,s9,a0
    6820:	3c0d355b          	bfos	a0,s10,15,0
    6824:	0e11                	c.addi	t3,4
    6826:	0e85                	c.addi	t4,1
    6828:	88fa                	c.mv	a7,t5
    682a:	000e2f03          	lw	t5,0(t3)
    682e:	97fa                	c.add	a5,t5
    6830:	1cf94c63          	blt	s2,a5,6a08 <matrix_test+0x97c>
    6834:	01e8a6b3          	slt	a3,a7,t5
    6838:	00a68fb3          	add	t6,a3,a0
    683c:	3c0fb55b          	bfos	a0,t6,15,0
    6840:	0e11                	c.addi	t3,4
    6842:	0e85                	c.addi	t4,1
    6844:	80fa                	c.mv	ra,t5
    6846:	000e2f03          	lw	t5,0(t3)
    684a:	97fa                	c.add	a5,t5
    684c:	1af94863          	blt	s2,a5,69fc <matrix_test+0x970>
    6850:	01e0a3b3          	slt	t2,ra,t5
    6854:	00a38733          	add	a4,t2,a0
    6858:	3c07355b          	bfos	a0,a4,15,0
    685c:	0e11                	c.addi	t3,4
    685e:	0e85                	c.addi	t4,1
    6860:	8a7a                	c.mv	s4,t5
    6862:	000e2f03          	lw	t5,0(t3)
    6866:	97fa                	c.add	a5,t5
    6868:	18f94463          	blt	s2,a5,69f0 <matrix_test+0x964>
    686c:	01ea2cb3          	slt	s9,s4,t5
    6870:	00ac8d33          	add	s10,s9,a0
    6874:	3c0d355b          	bfos	a0,s10,15,0
    6878:	0e11                	c.addi	t3,4
    687a:	88fa                	c.mv	a7,t5
    687c:	000e2f03          	lw	t5,0(t3)
    6880:	0e85                	c.addi	t4,1
    6882:	97fa                	c.add	a5,t5
    6884:	0cf95c63          	bge	s2,a5,695c <matrix_test+0x8d0>
    6888:	00a50793          	addi	a5,a0,10
    688c:	3c07b55b          	bfos	a0,a5,15,0
    6890:	001e8093          	addi	ra,t4,1
    6894:	00000793          	addi	a5,zero,0
    6898:	004e0393          	addi	t2,t3,4
    689c:	0c9edc63          	bge	t4,s1,6974 <matrix_test+0x8e8>
    68a0:	004e2283          	lw	t0,4(t3)
    68a4:	005786b3          	add	a3,a5,t0
    68a8:	12d95c63          	bge	s2,a3,69e0 <matrix_test+0x954>
    68ac:	00a50893          	addi	a7,a0,10
    68b0:	3c08ba5b          	bfos	s4,a7,15,0
    68b4:	00000693          	addi	a3,zero,0
    68b8:	0043a703          	lw	a4,4(t2)
    68bc:	00e68533          	add	a0,a3,a4
    68c0:	10a94a63          	blt	s2,a0,69d4 <matrix_test+0x948>
    68c4:	00e2af33          	slt	t5,t0,a4
    68c8:	014f0fb3          	add	t6,t5,s4
    68cc:	3c0fb7db          	bfos	a5,t6,15,0
    68d0:	0083ae03          	lw	t3,8(t2)
    68d4:	01c50a33          	add	s4,a0,t3
    68d8:	0f494863          	blt	s2,s4,69c8 <matrix_test+0x93c>
    68dc:	01c722b3          	slt	t0,a4,t3
    68e0:	00f28d33          	add	s10,t0,a5
    68e4:	3c0d38db          	bfos	a7,s10,15,0
    68e8:	00c3a683          	lw	a3,12(t2)
    68ec:	00da0533          	add	a0,s4,a3
    68f0:	0ca94663          	blt	s2,a0,69bc <matrix_test+0x930>
    68f4:	00de2733          	slt	a4,t3,a3
    68f8:	01170f33          	add	t5,a4,a7
    68fc:	3c0f37db          	bfos	a5,t5,15,0
    6900:	0103ae83          	lw	t4,16(t2)
    6904:	01d508b3          	add	a7,a0,t4
    6908:	0b194463          	blt	s2,a7,69b0 <matrix_test+0x924>
    690c:	01d6ae33          	slt	t3,a3,t4
    6910:	00fe02b3          	add	t0,t3,a5
    6914:	3c02bcdb          	bfos	s9,t0,15,0
    6918:	0143aa03          	lw	s4,20(t2)
    691c:	014887b3          	add	a5,a7,s4
    6920:	06f94863          	blt	s2,a5,6990 <matrix_test+0x904>
    6924:	0183af03          	lw	t5,24(t2)
    6928:	014ea6b3          	slt	a3,t4,s4
    692c:	01968733          	add	a4,a3,s9
    6930:	01e787b3          	add	a5,a5,t5
    6934:	3c073fdb          	bfos	t6,a4,15,0
    6938:	06f94663          	blt	s2,a5,69a4 <matrix_test+0x918>
    693c:	01ea2533          	slt	a0,s4,t5
    6940:	01f50eb3          	add	t4,a0,t6
    6944:	3c0eb55b          	bfos	a0,t4,15,0
    6948:	01c38e13          	addi	t3,t2,28
    694c:	00708e93          	addi	t4,ra,7
    6950:	88fa                	c.mv	a7,t5
    6952:	000e2f03          	lw	t5,0(t3)
    6956:	97fa                	c.add	a5,t5
    6958:	f2f948e3          	blt	s2,a5,6888 <matrix_test+0x7fc>
    695c:	01e8a6b3          	slt	a3,a7,t5
    6960:	00a68fb3          	add	t6,a3,a0
    6964:	3c0fb55b          	bfos	a0,t6,15,0
    6968:	001e8093          	addi	ra,t4,1
    696c:	004e0393          	addi	t2,t3,4
    6970:	f29ec8e3          	blt	t4,s1,68a0 <matrix_test+0x814>
    6974:	00180e13          	addi	t3,a6,1
    6978:	9656                	c.add	a2,s5
    697a:	0a985363          	bge	a6,s1,6a20 <matrix_test+0x994>
    697e:	8872                	c.mv	a6,t3
    6980:	e0dff06f          	jal	zero,678c <matrix_test+0x700>
    6984:	00a50893          	addi	a7,a0,10
    6988:	3c08b55b          	bfos	a0,a7,15,0
    698c:	4781                	c.li	a5,0
    698e:	b50d                	c.j	67b0 <matrix_test+0x724>
    6990:	00ac8f13          	addi	t5,s9,10
    6994:	3c0f3fdb          	bfos	t6,t5,15,0
    6998:	0183af03          	lw	t5,24(t2)
    699c:	4781                	c.li	a5,0
    699e:	97fa                	c.add	a5,t5
    69a0:	f8f95ee3          	bge	s2,a5,693c <matrix_test+0x8b0>
    69a4:	00af8e13          	addi	t3,t6,10
    69a8:	3c0e355b          	bfos	a0,t3,15,0
    69ac:	4781                	c.li	a5,0
    69ae:	bf69                	c.j	6948 <matrix_test+0x8bc>
    69b0:	00a78d13          	addi	s10,a5,10
    69b4:	3c0d3cdb          	bfos	s9,s10,15,0
    69b8:	4881                	c.li	a7,0
    69ba:	bfb9                	c.j	6918 <matrix_test+0x88c>
    69bc:	00a88f93          	addi	t6,a7,10
    69c0:	3c0fb7db          	bfos	a5,t6,15,0
    69c4:	4501                	c.li	a0,0
    69c6:	bf2d                	c.j	6900 <matrix_test+0x874>
    69c8:	00a78c93          	addi	s9,a5,10
    69cc:	3c0cb8db          	bfos	a7,s9,15,0
    69d0:	4a01                	c.li	s4,0
    69d2:	bf19                	c.j	68e8 <matrix_test+0x85c>
    69d4:	00aa0e93          	addi	t4,s4,10
    69d8:	3c0eb7db          	bfos	a5,t4,15,0
    69dc:	4501                	c.li	a0,0
    69de:	bdcd                	c.j	68d0 <matrix_test+0x844>
    69e0:	005f2d33          	slt	s10,t5,t0
    69e4:	00ad0cb3          	add	s9,s10,a0
    69e8:	3c0cba5b          	bfos	s4,s9,15,0
    69ec:	ecdff06f          	jal	zero,68b8 <matrix_test+0x82c>
    69f0:	0529                	c.addi	a0,10
    69f2:	3c05355b          	bfos	a0,a0,15,0
    69f6:	4781                	c.li	a5,0
    69f8:	e81ff06f          	jal	zero,6878 <matrix_test+0x7ec>
    69fc:	00a50293          	addi	t0,a0,10
    6a00:	3c02b55b          	bfos	a0,t0,15,0
    6a04:	4781                	c.li	a5,0
    6a06:	bd99                	c.j	685c <matrix_test+0x7d0>
    6a08:	00a50793          	addi	a5,a0,10
    6a0c:	3c07b55b          	bfos	a0,a5,15,0
    6a10:	4781                	c.li	a5,0
    6a12:	b53d                	c.j	6840 <matrix_test+0x7b4>
    6a14:	0529                	c.addi	a0,10
    6a16:	3c05355b          	bfos	a0,a0,15,0
    6a1a:	4781                	c.li	a5,0
    6a1c:	e09ff06f          	jal	zero,6824 <matrix_test+0x798>
    6a20:	411020ef          	jal	ra,9630 <crc16>
    6a24:	42a2                	c.lwsp	t0,8(sp)
    6a26:	8cee                	c.mv	s9,s11
    6a28:	4d01                	c.li	s10,0
    6a2a:	c62a                	c.swsp	a0,12(sp)
    6a2c:	85e2                	c.mv	a1,s8
    6a2e:	8f66                	c.mv	t5,s9
    6a30:	00000f93          	addi	t6,zero,0
    6a34:	00029e83          	lh	t4,0(t0)
    6a38:	00059703          	lh	a4,0(a1)
    6a3c:	0074f813          	andi	a6,s1,7
    6a40:	4605                	c.li	a2,1
    6a42:	02ee8733          	mul	a4,t4,a4
    6a46:	00228693          	addi	a3,t0,2
    6a4a:	008587b3          	add	a5,a1,s0
    6a4e:	14905b63          	bge	zero,s1,6ba4 <matrix_test+0xb18>
    6a52:	0a080963          	beq	a6,zero,6b04 <matrix_test+0xa78>
    6a56:	0818595b          	beqc	a6,1,6ae8 <matrix_test+0xa5c>
    6a5a:	06285d5b          	beqc	a6,2,6ad4 <matrix_test+0xa48>
    6a5e:	0638515b          	beqc	a6,3,6ac0 <matrix_test+0xa34>
    6a62:	0448555b          	beqc	a6,4,6aac <matrix_test+0xa20>
    6a66:	0258595b          	beqc	a6,5,6a98 <matrix_test+0xa0c>
    6a6a:	00685d5b          	beqc	a6,6,6a84 <matrix_test+0x9f8>
    6a6e:	00069a03          	lh	s4,0(a3)
    6a72:	00079503          	lh	a0,0(a5)
    6a76:	4609                	c.li	a2,2
    6a78:	00428693          	addi	a3,t0,4
    6a7c:	02aa0333          	mul	t1,s4,a0
    6a80:	97a2                	c.add	a5,s0
    6a82:	971a                	c.add	a4,t1
    6a84:	00069883          	lh	a7,0(a3)
    6a88:	00079083          	lh	ra,0(a5)
    6a8c:	0605                	c.addi	a2,1
    6a8e:	0689                	c.addi	a3,2
    6a90:	021883b3          	mul	t2,a7,ra
    6a94:	97a2                	c.add	a5,s0
    6a96:	971e                	c.add	a4,t2
    6a98:	00069e03          	lh	t3,0(a3)
    6a9c:	00079e83          	lh	t4,0(a5)
    6aa0:	0605                	c.addi	a2,1
    6aa2:	0689                	c.addi	a3,2
    6aa4:	03de0833          	mul	a6,t3,t4
    6aa8:	97a2                	c.add	a5,s0
    6aaa:	9742                	c.add	a4,a6
    6aac:	00069a03          	lh	s4,0(a3)
    6ab0:	00079503          	lh	a0,0(a5)
    6ab4:	0605                	c.addi	a2,1
    6ab6:	0689                	c.addi	a3,2
    6ab8:	02aa0333          	mul	t1,s4,a0
    6abc:	97a2                	c.add	a5,s0
    6abe:	971a                	c.add	a4,t1
    6ac0:	00069883          	lh	a7,0(a3)
    6ac4:	00079083          	lh	ra,0(a5)
    6ac8:	0605                	c.addi	a2,1
    6aca:	0689                	c.addi	a3,2
    6acc:	021883b3          	mul	t2,a7,ra
    6ad0:	97a2                	c.add	a5,s0
    6ad2:	971e                	c.add	a4,t2
    6ad4:	00069e03          	lh	t3,0(a3)
    6ad8:	00079e83          	lh	t4,0(a5)
    6adc:	0605                	c.addi	a2,1
    6ade:	0689                	c.addi	a3,2
    6ae0:	03de0833          	mul	a6,t3,t4
    6ae4:	97a2                	c.add	a5,s0
    6ae6:	9742                	c.add	a4,a6
    6ae8:	00069a03          	lh	s4,0(a3)
    6aec:	00079503          	lh	a0,0(a5)
    6af0:	8332                	c.mv	t1,a2
    6af2:	0689                	c.addi	a3,2
    6af4:	02aa08b3          	mul	a7,s4,a0
    6af8:	0605                	c.addi	a2,1
    6afa:	97a2                	c.add	a5,s0
    6afc:	01170733          	add	a4,a4,a7
    6b00:	0a935263          	bge	t1,s1,6ba4 <matrix_test+0xb18>
    6b04:	00878e33          	add	t3,a5,s0
    6b08:	00069083          	lh	ra,0(a3)
    6b0c:	00079383          	lh	t2,0(a5)
    6b10:	008e0533          	add	a0,t3,s0
    6b14:	000e1a03          	lh	s4,0(t3)
    6b18:	00269e83          	lh	t4,2(a3)
    6b1c:	00051803          	lh	a6,0(a0)
    6b20:	008508b3          	add	a7,a0,s0
    6b24:	00469e03          	lh	t3,4(a3)
    6b28:	027083b3          	mul	t2,ra,t2
    6b2c:	00089503          	lh	a0,0(a7)
    6b30:	008887b3          	add	a5,a7,s0
    6b34:	00669303          	lh	t1,6(a3)
    6b38:	034e8eb3          	mul	t4,t4,s4
    6b3c:	00869883          	lh	a7,8(a3)
    6b40:	00079a03          	lh	s4,0(a5)
    6b44:	97a2                	c.add	a5,s0
    6b46:	030e0e33          	mul	t3,t3,a6
    6b4a:	00a69083          	lh	ra,10(a3)
    6b4e:	00079803          	lh	a6,0(a5)
    6b52:	97a2                	c.add	a5,s0
    6b54:	02a30333          	mul	t1,t1,a0
    6b58:	971e                	c.add	a4,t2
    6b5a:	00079503          	lh	a0,0(a5)
    6b5e:	00c69383          	lh	t2,12(a3)
    6b62:	97a2                	c.add	a5,s0
    6b64:	034888b3          	mul	a7,a7,s4
    6b68:	9eba                	c.add	t4,a4
    6b6a:	00e69a03          	lh	s4,14(a3)
    6b6e:	00079703          	lh	a4,0(a5)
    6b72:	030080b3          	mul	ra,ra,a6
    6b76:	9e76                	c.add	t3,t4
    6b78:	006e0833          	add	a6,t3,t1
    6b7c:	02a38333          	mul	t1,t2,a0
    6b80:	02ea0eb3          	mul	t4,s4,a4
    6b84:	011803b3          	add	t2,a6,a7
    6b88:	00138533          	add	a0,t2,ra
    6b8c:	006508b3          	add	a7,a0,t1
    6b90:	00760a13          	addi	s4,a2,7
    6b94:	01d88733          	add	a4,a7,t4
    6b98:	0621                	c.addi	a2,8
    6b9a:	06c1                	c.addi	a3,16
    6b9c:	008787b3          	add	a5,a5,s0
    6ba0:	f69a42e3          	blt	s4,s1,6b04 <matrix_test+0xa78>
    6ba4:	00ef2023          	sw	a4,0(t5)
    6ba8:	001f8613          	addi	a2,t6,1
    6bac:	0f11                	c.addi	t5,4
    6bae:	0589                	c.addi	a1,2
    6bb0:	009fd463          	bge	t6,s1,6bb8 <matrix_test+0xb2c>
    6bb4:	8fb2                	c.mv	t6,a2
    6bb6:	bdbd                	c.j	6a34 <matrix_test+0x9a8>
    6bb8:	001d0593          	addi	a1,s10,1
    6bbc:	92a2                	c.add	t0,s0
    6bbe:	9cd6                	c.add	s9,s5
    6bc0:	009d5a63          	bge	s10,s1,6bd4 <matrix_test+0xb48>
    6bc4:	8d2e                	c.mv	s10,a1
    6bc6:	b59d                	c.j	6a2c <matrix_test+0x9a0>
    6bc8:	00a50293          	addi	t0,a0,10
    6bcc:	3c02b55b          	bfos	a0,t0,15,0
    6bd0:	4781                	c.li	a5,0
    6bd2:	b91d                	c.j	6808 <matrix_test+0x77c>
    6bd4:	8cee                	c.mv	s9,s11
    6bd6:	4e81                	c.li	t4,0
    6bd8:	4781                	c.li	a5,0
    6bda:	4281                	c.li	t0,0
    6bdc:	4501                	c.li	a0,0
    6bde:	4d01                	c.li	s10,0
    6be0:	0074ff13          	andi	t5,s1,7
    6be4:	8366                	c.mv	t1,s9
    6be6:	4e01                	c.li	t3,0
    6be8:	1a0f0e63          	beq	t5,zero,6da4 <matrix_test+0xd18>
    6bec:	8ff6                	c.mv	t6,t4
    6bee:	000cae83          	lw	t4,0(s9)
    6bf2:	97f6                	c.add	a5,t4
    6bf4:	1ef94263          	blt	s2,a5,6dd8 <matrix_test+0xd4c>
    6bf8:	01dfa6b3          	slt	a3,t6,t4
    6bfc:	00a68733          	add	a4,a3,a0
    6c00:	3c07355b          	bfos	a0,a4,15,0
    6c04:	004c8313          	addi	t1,s9,4
    6c08:	1c92d063          	bge	t0,s1,6dc8 <matrix_test+0xd3c>
    6c0c:	4e05                	c.li	t3,1
    6c0e:	181f5b5b          	beqc	t5,1,6da4 <matrix_test+0xd18>
    6c12:	0a2f515b          	beqc	t5,2,6cb4 <matrix_test+0xc28>
    6c16:	083f515b          	beqc	t5,3,6c98 <matrix_test+0xc0c>
    6c1a:	064f515b          	beqc	t5,4,6c7c <matrix_test+0xbf0>
    6c1e:	045f515b          	beqc	t5,5,6c60 <matrix_test+0xbd4>
    6c22:	026f515b          	beqc	t5,6,6c44 <matrix_test+0xbb8>
    6c26:	8e76                	c.mv	t3,t4
    6c28:	00032e83          	lw	t4,0(t1)
    6c2c:	01d787b3          	add	a5,a5,t4
    6c30:	10f94ce3          	blt	s2,a5,7548 <matrix_test+0x14bc>
    6c34:	01de20b3          	slt	ra,t3,t4
    6c38:	00a08833          	add	a6,ra,a0
    6c3c:	3c08355b          	bfos	a0,a6,15,0
    6c40:	0311                	c.addi	t1,4
    6c42:	4e09                	c.li	t3,2
    6c44:	88f6                	c.mv	a7,t4
    6c46:	00032e83          	lw	t4,0(t1)
    6c4a:	97f6                	c.add	a5,t4
    6c4c:	4af94263          	blt	s2,a5,70f0 <matrix_test+0x1064>
    6c50:	01d8aa33          	slt	s4,a7,t4
    6c54:	01450533          	add	a0,a0,s4
    6c58:	3c05355b          	bfos	a0,a0,15,0
    6c5c:	0311                	c.addi	t1,4
    6c5e:	0e05                	c.addi	t3,1
    6c60:	85f6                	c.mv	a1,t4
    6c62:	00032e83          	lw	t4,0(t1)
    6c66:	97f6                	c.add	a5,t4
    6c68:	20f94263          	blt	s2,a5,6e6c <matrix_test+0xde0>
    6c6c:	01d5af33          	slt	t5,a1,t4
    6c70:	00af0fb3          	add	t6,t5,a0
    6c74:	3c0fb55b          	bfos	a0,t6,15,0
    6c78:	0311                	c.addi	t1,4
    6c7a:	0e05                	c.addi	t3,1
    6c7c:	8776                	c.mv	a4,t4
    6c7e:	00032e83          	lw	t4,0(t1)
    6c82:	97f6                	c.add	a5,t4
    6c84:	1cf94e63          	blt	s2,a5,6e60 <matrix_test+0xdd4>
    6c88:	01d720b3          	slt	ra,a4,t4
    6c8c:	00a08833          	add	a6,ra,a0
    6c90:	3c08355b          	bfos	a0,a6,15,0
    6c94:	0311                	c.addi	t1,4
    6c96:	0e05                	c.addi	t3,1
    6c98:	83f6                	c.mv	t2,t4
    6c9a:	00032e83          	lw	t4,0(t1)
    6c9e:	97f6                	c.add	a5,t4
    6ca0:	1af94a63          	blt	s2,a5,6e54 <matrix_test+0xdc8>
    6ca4:	01d3a8b3          	slt	a7,t2,t4
    6ca8:	00a88a33          	add	s4,a7,a0
    6cac:	3c0a355b          	bfos	a0,s4,15,0
    6cb0:	0311                	c.addi	t1,4
    6cb2:	0e05                	c.addi	t3,1
    6cb4:	8676                	c.mv	a2,t4
    6cb6:	00032e83          	lw	t4,0(t1)
    6cba:	97f6                	c.add	a5,t4
    6cbc:	18f94663          	blt	s2,a5,6e48 <matrix_test+0xdbc>
    6cc0:	01d625b3          	slt	a1,a2,t4
    6cc4:	00a58f33          	add	t5,a1,a0
    6cc8:	3c0f355b          	bfos	a0,t5,15,0
    6ccc:	0311                	c.addi	t1,4
    6cce:	86f6                	c.mv	a3,t4
    6cd0:	00032e83          	lw	t4,0(t1)
    6cd4:	0e05                	c.addi	t3,1
    6cd6:	97f6                	c.add	a5,t4
    6cd8:	0cf95c63          	bge	s2,a5,6db0 <matrix_test+0xd24>
    6cdc:	00a50813          	addi	a6,a0,10
    6ce0:	3c08355b          	bfos	a0,a6,15,0
    6ce4:	00000793          	addi	a5,zero,0
    6ce8:	001e0393          	addi	t2,t3,1
    6cec:	00430893          	addi	a7,t1,4
    6cf0:	0c9e5c63          	bge	t3,s1,6dc8 <matrix_test+0xd3c>
    6cf4:	00432683          	lw	a3,4(t1)
    6cf8:	00d780b3          	add	ra,a5,a3
    6cfc:	12195e63          	bge	s2,ra,6e38 <matrix_test+0xdac>
    6d00:	00a50813          	addi	a6,a0,10
    6d04:	3c0835db          	bfos	a1,a6,15,0
    6d08:	00000093          	addi	ra,zero,0
    6d0c:	0048af83          	lw	t6,4(a7)
    6d10:	01f08e33          	add	t3,ra,t6
    6d14:	11c94c63          	blt	s2,t3,6e2c <matrix_test+0xda0>
    6d18:	01f6aeb3          	slt	t4,a3,t6
    6d1c:	00be8633          	add	a2,t4,a1
    6d20:	3c0637db          	bfos	a5,a2,15,0
    6d24:	0088aa03          	lw	s4,8(a7)
    6d28:	014e0833          	add	a6,t3,s4
    6d2c:	0f094a63          	blt	s2,a6,6e20 <matrix_test+0xd94>
    6d30:	014fa333          	slt	t1,t6,s4
    6d34:	00f306b3          	add	a3,t1,a5
    6d38:	3c06bf5b          	bfos	t5,a3,15,0
    6d3c:	00c8a583          	lw	a1,12(a7)
    6d40:	00b80533          	add	a0,a6,a1
    6d44:	0ca94863          	blt	s2,a0,6e14 <matrix_test+0xd88>
    6d48:	00ba20b3          	slt	ra,s4,a1
    6d4c:	01e08fb3          	add	t6,ra,t5
    6d50:	3c0fb65b          	bfos	a2,t6,15,0
    6d54:	0108ae03          	lw	t3,16(a7)
    6d58:	01c50733          	add	a4,a0,t3
    6d5c:	0ae94663          	blt	s2,a4,6e08 <matrix_test+0xd7c>
    6d60:	01c5a7b3          	slt	a5,a1,t3
    6d64:	00c78a33          	add	s4,a5,a2
    6d68:	3c0a36db          	bfos	a3,s4,15,0
    6d6c:	0148af03          	lw	t5,20(a7)
    6d70:	01e70633          	add	a2,a4,t5
    6d74:	06c94863          	blt	s2,a2,6de4 <matrix_test+0xd58>
    6d78:	0188ae83          	lw	t4,24(a7)
    6d7c:	01ee2833          	slt	a6,t3,t5
    6d80:	00d805b3          	add	a1,a6,a3
    6d84:	01d607b3          	add	a5,a2,t4
    6d88:	3c05bfdb          	bfos	t6,a1,15,0
    6d8c:	06f94863          	blt	s2,a5,6dfc <matrix_test+0xd70>
    6d90:	01df2533          	slt	a0,t5,t4
    6d94:	01f50e33          	add	t3,a0,t6
    6d98:	3c0e355b          	bfos	a0,t3,15,0
    6d9c:	01c88313          	addi	t1,a7,28
    6da0:	00738e13          	addi	t3,t2,7
    6da4:	86f6                	c.mv	a3,t4
    6da6:	00032e83          	lw	t4,0(t1)
    6daa:	97f6                	c.add	a5,t4
    6dac:	f2f948e3          	blt	s2,a5,6cdc <matrix_test+0xc50>
    6db0:	01d6a733          	slt	a4,a3,t4
    6db4:	00a700b3          	add	ra,a4,a0
    6db8:	3c00b55b          	bfos	a0,ra,15,0
    6dbc:	001e0393          	addi	t2,t3,1
    6dc0:	00430893          	addi	a7,t1,4
    6dc4:	f29e48e3          	blt	t3,s1,6cf4 <matrix_test+0xc68>
    6dc8:	001d0313          	addi	t1,s10,1
    6dcc:	9cd6                	c.add	s9,s5
    6dce:	0a9d5563          	bge	s10,s1,6e78 <matrix_test+0xdec>
    6dd2:	8d1a                	c.mv	s10,t1
    6dd4:	e0dff06f          	jal	zero,6be0 <matrix_test+0xb54>
    6dd8:	00a50793          	addi	a5,a0,10
    6ddc:	3c07b55b          	bfos	a0,a5,15,0
    6de0:	4781                	c.li	a5,0
    6de2:	b50d                	c.j	6c04 <matrix_test+0xb78>
    6de4:	0188ae83          	lw	t4,24(a7)
    6de8:	00000613          	addi	a2,zero,0
    6dec:	00a68093          	addi	ra,a3,10
    6df0:	01d607b3          	add	a5,a2,t4
    6df4:	3c00bfdb          	bfos	t6,ra,15,0
    6df8:	f8f95ce3          	bge	s2,a5,6d90 <matrix_test+0xd04>
    6dfc:	00af8793          	addi	a5,t6,10
    6e00:	3c07b55b          	bfos	a0,a5,15,0
    6e04:	4781                	c.li	a5,0
    6e06:	bf59                	c.j	6d9c <matrix_test+0xd10>
    6e08:	00a60313          	addi	t1,a2,10
    6e0c:	3c0336db          	bfos	a3,t1,15,0
    6e10:	4701                	c.li	a4,0
    6e12:	bfa9                	c.j	6d6c <matrix_test+0xce0>
    6e14:	00af0e93          	addi	t4,t5,10
    6e18:	3c0eb65b          	bfos	a2,t4,15,0
    6e1c:	4501                	c.li	a0,0
    6e1e:	bf1d                	c.j	6d54 <matrix_test+0xcc8>
    6e20:	00a78713          	addi	a4,a5,10
    6e24:	3c073f5b          	bfos	t5,a4,15,0
    6e28:	4801                	c.li	a6,0
    6e2a:	bf09                	c.j	6d3c <matrix_test+0xcb0>
    6e2c:	00a58513          	addi	a0,a1,10
    6e30:	3c0537db          	bfos	a5,a0,15,0
    6e34:	4e01                	c.li	t3,0
    6e36:	b5fd                	c.j	6d24 <matrix_test+0xc98>
    6e38:	00dea733          	slt	a4,t4,a3
    6e3c:	00a70f33          	add	t5,a4,a0
    6e40:	3c0f35db          	bfos	a1,t5,15,0
    6e44:	ec9ff06f          	jal	zero,6d0c <matrix_test+0xc80>
    6e48:	00a50f93          	addi	t6,a0,10
    6e4c:	3c0fb55b          	bfos	a0,t6,15,0
    6e50:	4781                	c.li	a5,0
    6e52:	bdad                	c.j	6ccc <matrix_test+0xc40>
    6e54:	0529                	c.addi	a0,10
    6e56:	3c05355b          	bfos	a0,a0,15,0
    6e5a:	4781                	c.li	a5,0
    6e5c:	e55ff06f          	jal	zero,6cb0 <matrix_test+0xc24>
    6e60:	00a50793          	addi	a5,a0,10
    6e64:	3c07b55b          	bfos	a0,a5,15,0
    6e68:	4781                	c.li	a5,0
    6e6a:	b52d                	c.j	6c94 <matrix_test+0xc08>
    6e6c:	00a50693          	addi	a3,a0,10
    6e70:	3c06b55b          	bfos	a0,a3,15,0
    6e74:	4781                	c.li	a5,0
    6e76:	b509                	c.j	6c78 <matrix_test+0xbec>
    6e78:	00c12583          	lw	a1,12(sp)
    6e7c:	7b4020ef          	jal	ra,9630 <crc16>
    6e80:	43a2                	c.lwsp	t2,8(sp)
    6e82:	c62a                	c.swsp	a0,12(sp)
    6e84:	00012423          	sw	zero,8(sp)
    6e88:	8ee2                	c.mv	t4,s8
    6e8a:	8fee                	c.mv	t6,s11
    6e8c:	00000293          	addi	t0,zero,0
    6e90:	00039c83          	lh	s9,0(t2)
    6e94:	000e9d03          	lh	s10,0(t4)
    6e98:	0074fe13          	andi	t3,s1,7
    6e9c:	4605                	c.li	a2,1
    6e9e:	03ac8a33          	mul	s4,s9,s10
    6ea2:	00238693          	addi	a3,t2,2
    6ea6:	008e87b3          	add	a5,t4,s0
    6eaa:	142a255b          	bfoz	a0,s4,5,2
    6eae:	2c5a25db          	bfoz	a1,s4,11,5
    6eb2:	02b50733          	mul	a4,a0,a1
    6eb6:	20905963          	bge	zero,s1,70c8 <matrix_test+0x103c>
    6eba:	100e0363          	beq	t3,zero,6fc0 <matrix_test+0xf34>
    6ebe:	0c1e5d5b          	beqc	t3,1,6f98 <matrix_test+0xf0c>
    6ec2:	0a2e5b5b          	beqc	t3,2,6f78 <matrix_test+0xeec>
    6ec6:	083e595b          	beqc	t3,3,6f58 <matrix_test+0xecc>
    6eca:	064e575b          	beqc	t3,4,6f38 <matrix_test+0xeac>
    6ece:	045e555b          	beqc	t3,5,6f18 <matrix_test+0xe8c>
    6ed2:	026e535b          	beqc	t3,6,6ef8 <matrix_test+0xe6c>
    6ed6:	00069f03          	lh	t5,0(a3)
    6eda:	00079083          	lh	ra,0(a5)
    6ede:	4609                	c.li	a2,2
    6ee0:	00438693          	addi	a3,t2,4
    6ee4:	021f0833          	mul	a6,t5,ra
    6ee8:	97a2                	c.add	a5,s0
    6eea:	142828db          	bfoz	a7,a6,5,2
    6eee:	2c58235b          	bfoz	t1,a6,11,5
    6ef2:	02688cb3          	mul	s9,a7,t1
    6ef6:	9766                	c.add	a4,s9
    6ef8:	00069d03          	lh	s10,0(a3)
    6efc:	00079e03          	lh	t3,0(a5)
    6f00:	0605                	c.addi	a2,1
    6f02:	0689                	c.addi	a3,2
    6f04:	03cd0a33          	mul	s4,s10,t3
    6f08:	97a2                	c.add	a5,s0
    6f0a:	142a255b          	bfoz	a0,s4,5,2
    6f0e:	2c5a25db          	bfoz	a1,s4,11,5
    6f12:	02b50f33          	mul	t5,a0,a1
    6f16:	977a                	c.add	a4,t5
    6f18:	00069083          	lh	ra,0(a3)
    6f1c:	00079803          	lh	a6,0(a5)
    6f20:	0605                	c.addi	a2,1
    6f22:	0689                	c.addi	a3,2
    6f24:	030088b3          	mul	a7,ra,a6
    6f28:	97a2                	c.add	a5,s0
    6f2a:	1428a35b          	bfoz	t1,a7,5,2
    6f2e:	2c58acdb          	bfoz	s9,a7,11,5
    6f32:	03930d33          	mul	s10,t1,s9
    6f36:	976a                	c.add	a4,s10
    6f38:	00069e03          	lh	t3,0(a3)
    6f3c:	00079a03          	lh	s4,0(a5)
    6f40:	0605                	c.addi	a2,1
    6f42:	0689                	c.addi	a3,2
    6f44:	034e05b3          	mul	a1,t3,s4
    6f48:	97a2                	c.add	a5,s0
    6f4a:	1425a55b          	bfoz	a0,a1,5,2
    6f4e:	2c55af5b          	bfoz	t5,a1,11,5
    6f52:	03e500b3          	mul	ra,a0,t5
    6f56:	9706                	c.add	a4,ra
    6f58:	00069803          	lh	a6,0(a3)
    6f5c:	00079883          	lh	a7,0(a5)
    6f60:	0605                	c.addi	a2,1
    6f62:	0689                	c.addi	a3,2
    6f64:	03180333          	mul	t1,a6,a7
    6f68:	97a2                	c.add	a5,s0
    6f6a:	14232cdb          	bfoz	s9,t1,5,2
    6f6e:	2c532d5b          	bfoz	s10,t1,11,5
    6f72:	03ac8e33          	mul	t3,s9,s10
    6f76:	9772                	c.add	a4,t3
    6f78:	00069a03          	lh	s4,0(a3)
    6f7c:	00079583          	lh	a1,0(a5)
    6f80:	0605                	c.addi	a2,1
    6f82:	0689                	c.addi	a3,2
    6f84:	02ba0f33          	mul	t5,s4,a1
    6f88:	97a2                	c.add	a5,s0
    6f8a:	142f255b          	bfoz	a0,t5,5,2
    6f8e:	2c5f20db          	bfoz	ra,t5,11,5
    6f92:	02150833          	mul	a6,a0,ra
    6f96:	9742                	c.add	a4,a6
    6f98:	00069883          	lh	a7,0(a3)
    6f9c:	00079303          	lh	t1,0(a5)
    6fa0:	8cb2                	c.mv	s9,a2
    6fa2:	0689                	c.addi	a3,2
    6fa4:	02688d33          	mul	s10,a7,t1
    6fa8:	0605                	c.addi	a2,1
    6faa:	97a2                	c.add	a5,s0
    6fac:	142d2e5b          	bfoz	t3,s10,5,2
    6fb0:	2c5d2a5b          	bfoz	s4,s10,11,5
    6fb4:	034e05b3          	mul	a1,t3,s4
    6fb8:	00b70733          	add	a4,a4,a1
    6fbc:	109cd663          	bge	s9,s1,70c8 <matrix_test+0x103c>
    6fc0:	00878533          	add	a0,a5,s0
    6fc4:	00079083          	lh	ra,0(a5)
    6fc8:	00069f03          	lh	t5,0(a3)
    6fcc:	008508b3          	add	a7,a0,s0
    6fd0:	00269c83          	lh	s9,2(a3)
    6fd4:	00051803          	lh	a6,0(a0)
    6fd8:	00888d33          	add	s10,a7,s0
    6fdc:	00469303          	lh	t1,4(a3)
    6fe0:	00089a03          	lh	s4,0(a7)
    6fe4:	008d07b3          	add	a5,s10,s0
    6fe8:	021f0f33          	mul	t5,t5,ra
    6fec:	000d1583          	lh	a1,0(s10)
    6ff0:	00669083          	lh	ra,6(a3)
    6ff4:	030c8833          	mul	a6,s9,a6
    6ff8:	00079e03          	lh	t3,0(a5)
    6ffc:	00869d03          	lh	s10,8(a3)
    7000:	03430533          	mul	a0,t1,s4
    7004:	00878cb3          	add	s9,a5,s0
    7008:	00a69a03          	lh	s4,10(a3)
    700c:	02b085b3          	mul	a1,ra,a1
    7010:	008c87b3          	add	a5,s9,s0
    7014:	000c9303          	lh	t1,0(s9)
    7018:	142f2cdb          	bfoz	s9,t5,5,2
    701c:	2c5f2f5b          	bfoz	t5,t5,11,5
    7020:	00c69083          	lh	ra,12(a3)
    7024:	03ec8f33          	mul	t5,s9,t5
    7028:	03cd0d33          	mul	s10,s10,t3
    702c:	14282cdb          	bfoz	s9,a6,5,2
    7030:	00079883          	lh	a7,0(a5)
    7034:	2c58285b          	bfoz	a6,a6,11,5
    7038:	14252e5b          	bfoz	t3,a0,5,2
    703c:	030c8833          	mul	a6,s9,a6
    7040:	2c55255b          	bfoz	a0,a0,11,5
    7044:	026a0333          	mul	t1,s4,t1
    7048:	02ae0cb3          	mul	s9,t3,a0
    704c:	1425aa5b          	bfoz	s4,a1,5,2
    7050:	2c55a5db          	bfoz	a1,a1,11,5
    7054:	031088b3          	mul	a7,ra,a7
    7058:	97a2                	c.add	a5,s0
    705a:	01e700b3          	add	ra,a4,t5
    705e:	02ba0f33          	mul	t5,s4,a1
    7062:	142d275b          	bfoz	a4,s10,5,2
    7066:	2c5d2d5b          	bfoz	s10,s10,11,5
    706a:	03a70e33          	mul	t3,a4,s10
    706e:	9806                	c.add	a6,ra
    7070:	00e69703          	lh	a4,14(a3)
    7074:	00079d03          	lh	s10,0(a5)
    7078:	01980533          	add	a0,a6,s9
    707c:	01e505b3          	add	a1,a0,t5
    7080:	14232a5b          	bfoz	s4,t1,5,2
    7084:	2c53235b          	bfoz	t1,t1,11,5
    7088:	026a0cb3          	mul	s9,s4,t1
    708c:	01c580b3          	add	ra,a1,t3
    7090:	03a70e33          	mul	t3,a4,s10
    7094:	1428a85b          	bfoz	a6,a7,5,2
    7098:	2c58a8db          	bfoz	a7,a7,11,5
    709c:	01908f33          	add	t5,ra,s9
    70a0:	03180a33          	mul	s4,a6,a7
    70a4:	142e255b          	bfoz	a0,t3,5,2
    70a8:	2c5e2cdb          	bfoz	s9,t3,11,5
    70ac:	039505b3          	mul	a1,a0,s9
    70b0:	00760313          	addi	t1,a2,7
    70b4:	014f00b3          	add	ra,t5,s4
    70b8:	0621                	c.addi	a2,8
    70ba:	00b08733          	add	a4,ra,a1
    70be:	06c1                	c.addi	a3,16
    70c0:	008787b3          	add	a5,a5,s0
    70c4:	ee934ee3          	blt	t1,s1,6fc0 <matrix_test+0xf34>
    70c8:	00efa023          	sw	a4,0(t6)
    70cc:	00128613          	addi	a2,t0,1
    70d0:	0f91                	c.addi	t6,4
    70d2:	0e89                	c.addi	t4,2
    70d4:	0092d463          	bge	t0,s1,70dc <matrix_test+0x1050>
    70d8:	82b2                	c.mv	t0,a2
    70da:	bb5d                	c.j	6e90 <matrix_test+0xe04>
    70dc:	4ea2                	c.lwsp	t4,8(sp)
    70de:	93a2                	c.add	t2,s0
    70e0:	001e8f93          	addi	t6,t4,1
    70e4:	9dd6                	c.add	s11,s5
    70e6:	009edb63          	bge	t4,s1,70fc <matrix_test+0x1070>
    70ea:	c47e                	c.swsp	t6,8(sp)
    70ec:	d9dff06f          	jal	zero,6e88 <matrix_test+0xdfc>
    70f0:	00a50613          	addi	a2,a0,10
    70f4:	3c06355b          	bfos	a0,a2,15,0
    70f8:	4781                	c.li	a5,0
    70fa:	b68d                	c.j	6c5c <matrix_test+0xbd0>
    70fc:	4e01                	c.li	t3,0
    70fe:	4a01                	c.li	s4,0
    7100:	4c01                	c.li	s8,0
    7102:	4501                	c.li	a0,0
    7104:	00000d93          	addi	s11,zero,0
    7108:	0074f393          	andi	t2,s1,7
    710c:	88da                	c.mv	a7,s6
    710e:	4301                	c.li	t1,0
    7110:	1a038e63          	beq	t2,zero,72cc <matrix_test+0x1240>
    7114:	82f2                	c.mv	t0,t3
    7116:	000b2e03          	lw	t3,0(s6)
    711a:	9a72                	c.add	s4,t3
    711c:	1f494263          	blt	s2,s4,7300 <matrix_test+0x1274>
    7120:	01c2a6b3          	slt	a3,t0,t3
    7124:	00a68f33          	add	t5,a3,a0
    7128:	3c0f355b          	bfos	a0,t5,15,0
    712c:	004b0893          	addi	a7,s6,4
    7130:	1c9c5063          	bge	s8,s1,72f0 <matrix_test+0x1264>
    7134:	4305                	c.li	t1,1
    7136:	1813db5b          	beqc	t2,1,72cc <matrix_test+0x1240>
    713a:	0a23d15b          	beqc	t2,2,71dc <matrix_test+0x1150>
    713e:	0833d15b          	beqc	t2,3,71c0 <matrix_test+0x1134>
    7142:	0643d15b          	beqc	t2,4,71a4 <matrix_test+0x1118>
    7146:	0453d15b          	beqc	t2,5,7188 <matrix_test+0x10fc>
    714a:	0263d15b          	beqc	t2,6,716c <matrix_test+0x10e0>
    714e:	8772                	c.mv	a4,t3
    7150:	0008ae03          	lw	t3,0(a7)
    7154:	01ca0a33          	add	s4,s4,t3
    7158:	3f494263          	blt	s2,s4,753c <matrix_test+0x14b0>
    715c:	01c72d33          	slt	s10,a4,t3
    7160:	00ad0833          	add	a6,s10,a0
    7164:	3c08355b          	bfos	a0,a6,15,0
    7168:	0891                	c.addi	a7,4
    716a:	4309                	c.li	t1,2
    716c:	8cf2                	c.mv	s9,t3
    716e:	0008ae03          	lw	t3,0(a7)
    7172:	9a72                	c.add	s4,t3
    7174:	3b494663          	blt	s2,s4,7520 <matrix_test+0x1494>
    7178:	01cca5b3          	slt	a1,s9,t3
    717c:	00b50533          	add	a0,a0,a1
    7180:	3c05355b          	bfos	a0,a0,15,0
    7184:	0891                	c.addi	a7,4
    7186:	0305                	c.addi	t1,1
    7188:	8672                	c.mv	a2,t3
    718a:	0008ae03          	lw	t3,0(a7)
    718e:	9a72                	c.add	s4,t3
    7190:	21494263          	blt	s2,s4,7394 <matrix_test+0x1308>
    7194:	01c62eb3          	slt	t4,a2,t3
    7198:	00ae8fb3          	add	t6,t4,a0
    719c:	3c0fb55b          	bfos	a0,t6,15,0
    71a0:	0891                	c.addi	a7,4
    71a2:	0305                	c.addi	t1,1
    71a4:	82f2                	c.mv	t0,t3
    71a6:	0008ae03          	lw	t3,0(a7)
    71aa:	9a72                	c.add	s4,t3
    71ac:	1d494e63          	blt	s2,s4,7388 <matrix_test+0x12fc>
    71b0:	01c2a6b3          	slt	a3,t0,t3
    71b4:	00a68f33          	add	t5,a3,a0
    71b8:	3c0f355b          	bfos	a0,t5,15,0
    71bc:	0891                	c.addi	a7,4
    71be:	0305                	c.addi	t1,1
    71c0:	8772                	c.mv	a4,t3
    71c2:	0008ae03          	lw	t3,0(a7)
    71c6:	9a72                	c.add	s4,t3
    71c8:	1b494a63          	blt	s2,s4,737c <matrix_test+0x12f0>
    71cc:	01c72d33          	slt	s10,a4,t3
    71d0:	00ad0833          	add	a6,s10,a0
    71d4:	3c08355b          	bfos	a0,a6,15,0
    71d8:	0891                	c.addi	a7,4
    71da:	0305                	c.addi	t1,1
    71dc:	8cf2                	c.mv	s9,t3
    71de:	0008ae03          	lw	t3,0(a7)
    71e2:	9a72                	c.add	s4,t3
    71e4:	19494663          	blt	s2,s4,7370 <matrix_test+0x12e4>
    71e8:	01cca5b3          	slt	a1,s9,t3
    71ec:	00b50533          	add	a0,a0,a1
    71f0:	3c05355b          	bfos	a0,a0,15,0
    71f4:	0891                	c.addi	a7,4
    71f6:	8672                	c.mv	a2,t3
    71f8:	0008ae03          	lw	t3,0(a7)
    71fc:	0305                	c.addi	t1,1
    71fe:	9a72                	c.add	s4,t3
    7200:	0d495c63          	bge	s2,s4,72d8 <matrix_test+0x124c>
    7204:	00a50393          	addi	t2,a0,10
    7208:	3c03b55b          	bfos	a0,t2,15,0
    720c:	00000a13          	addi	s4,zero,0
    7210:	00130293          	addi	t0,t1,1
    7214:	00488693          	addi	a3,a7,4
    7218:	0c935c63          	bge	t1,s1,72f0 <matrix_test+0x1264>
    721c:	0048ae83          	lw	t4,4(a7)
    7220:	01da0733          	add	a4,s4,t4
    7224:	12e95e63          	bge	s2,a4,7360 <matrix_test+0x12d4>
    7228:	00a50793          	addi	a5,a0,10
    722c:	3c07b8db          	bfos	a7,a5,15,0
    7230:	00000713          	addi	a4,zero,0
    7234:	0046ae03          	lw	t3,4(a3)
    7238:	01c70a33          	add	s4,a4,t3
    723c:	11494c63          	blt	s2,s4,7354 <matrix_test+0x12c8>
    7240:	01ceaf33          	slt	t5,t4,t3
    7244:	011f0333          	add	t1,t5,a7
    7248:	3c03385b          	bfos	a6,t1,15,0
    724c:	0086ac83          	lw	s9,8(a3)
    7250:	019a0eb3          	add	t4,s4,s9
    7254:	0fd94a63          	blt	s2,t4,7348 <matrix_test+0x12bc>
    7258:	019e25b3          	slt	a1,t3,s9
    725c:	010580b3          	add	ra,a1,a6
    7260:	3c00bfdb          	bfos	t6,ra,15,0
    7264:	00c6a603          	lw	a2,12(a3)
    7268:	00ce8733          	add	a4,t4,a2
    726c:	0ce94863          	blt	s2,a4,733c <matrix_test+0x12b0>
    7270:	00cca3b3          	slt	t2,s9,a2
    7274:	01f387b3          	add	a5,t2,t6
    7278:	3c07be5b          	bfos	t3,a5,15,0
    727c:	0106af03          	lw	t5,16(a3)
    7280:	01e70cb3          	add	s9,a4,t5
    7284:	0b994663          	blt	s2,s9,7330 <matrix_test+0x12a4>
    7288:	01e62333          	slt	t1,a2,t5
    728c:	01c30d33          	add	s10,t1,t3
    7290:	3c0d3a5b          	bfos	s4,s10,15,0
    7294:	0146a583          	lw	a1,20(a3)
    7298:	00bc8633          	add	a2,s9,a1
    729c:	06c94863          	blt	s2,a2,730c <matrix_test+0x1280>
    72a0:	0186ae03          	lw	t3,24(a3)
    72a4:	00bf20b3          	slt	ra,t5,a1
    72a8:	01408533          	add	a0,ra,s4
    72ac:	01c60a33          	add	s4,a2,t3
    72b0:	3c053edb          	bfos	t4,a0,15,0
    72b4:	07494863          	blt	s2,s4,7324 <matrix_test+0x1298>
    72b8:	01c5a3b3          	slt	t2,a1,t3
    72bc:	01d388b3          	add	a7,t2,t4
    72c0:	3c08b55b          	bfos	a0,a7,15,0
    72c4:	01c68893          	addi	a7,a3,28
    72c8:	00728313          	addi	t1,t0,7
    72cc:	8672                	c.mv	a2,t3
    72ce:	0008ae03          	lw	t3,0(a7)
    72d2:	9a72                	c.add	s4,t3
    72d4:	f34948e3          	blt	s2,s4,7204 <matrix_test+0x1178>
    72d8:	01c62eb3          	slt	t4,a2,t3
    72dc:	00ae8fb3          	add	t6,t4,a0
    72e0:	3c0fb55b          	bfos	a0,t6,15,0
    72e4:	00130293          	addi	t0,t1,1
    72e8:	00488693          	addi	a3,a7,4
    72ec:	f29348e3          	blt	t1,s1,721c <matrix_test+0x1190>
    72f0:	001d8893          	addi	a7,s11,1
    72f4:	9b56                	c.add	s6,s5
    72f6:	0a9dd563          	bge	s11,s1,73a0 <matrix_test+0x1314>
    72fa:	8dc6                	c.mv	s11,a7
    72fc:	e0dff06f          	jal	zero,7108 <matrix_test+0x107c>
    7300:	00a50793          	addi	a5,a0,10
    7304:	3c07b55b          	bfos	a0,a5,15,0
    7308:	4a01                	c.li	s4,0
    730a:	b50d                	c.j	712c <matrix_test+0x10a0>
    730c:	0186ae03          	lw	t3,24(a3)
    7310:	00000613          	addi	a2,zero,0
    7314:	00aa0f93          	addi	t6,s4,10
    7318:	01c60a33          	add	s4,a2,t3
    731c:	3c0fbedb          	bfos	t4,t6,15,0
    7320:	f9495ce3          	bge	s2,s4,72b8 <matrix_test+0x122c>
    7324:	00ae8793          	addi	a5,t4,10
    7328:	3c07b55b          	bfos	a0,a5,15,0
    732c:	4a01                	c.li	s4,0
    732e:	bf59                	c.j	72c4 <matrix_test+0x1238>
    7330:	00ae0813          	addi	a6,t3,10
    7334:	3c083a5b          	bfos	s4,a6,15,0
    7338:	4c81                	c.li	s9,0
    733a:	bfa9                	c.j	7294 <matrix_test+0x1208>
    733c:	00af8893          	addi	a7,t6,10
    7340:	3c08be5b          	bfos	t3,a7,15,0
    7344:	4701                	c.li	a4,0
    7346:	bf1d                	c.j	727c <matrix_test+0x11f0>
    7348:	00a80513          	addi	a0,a6,10
    734c:	3c053fdb          	bfos	t6,a0,15,0
    7350:	4e81                	c.li	t4,0
    7352:	bf09                	c.j	7264 <matrix_test+0x11d8>
    7354:	00a88d13          	addi	s10,a7,10
    7358:	3c0d385b          	bfos	a6,s10,15,0
    735c:	4a01                	c.li	s4,0
    735e:	b5fd                	c.j	724c <matrix_test+0x11c0>
    7360:	01de2633          	slt	a2,t3,t4
    7364:	00a603b3          	add	t2,a2,a0
    7368:	3c03b8db          	bfos	a7,t2,15,0
    736c:	ec9ff06f          	jal	zero,7234 <matrix_test+0x11a8>
    7370:	00a50093          	addi	ra,a0,10
    7374:	3c00b55b          	bfos	a0,ra,15,0
    7378:	4a01                	c.li	s4,0
    737a:	bdad                	c.j	71f4 <matrix_test+0x1168>
    737c:	00a50a13          	addi	s4,a0,10
    7380:	3c0a355b          	bfos	a0,s4,15,0
    7384:	4a01                	c.li	s4,0
    7386:	bd89                	c.j	71d8 <matrix_test+0x114c>
    7388:	00a50793          	addi	a5,a0,10
    738c:	3c07b55b          	bfos	a0,a5,15,0
    7390:	4a01                	c.li	s4,0
    7392:	b52d                	c.j	71bc <matrix_test+0x1130>
    7394:	00a50393          	addi	t2,a0,10
    7398:	3c03b55b          	bfos	a0,t2,15,0
    739c:	4a01                	c.li	s4,0
    739e:	b509                	c.j	71a0 <matrix_test+0x1114>
    73a0:	45b2                	c.lwsp	a1,12(sp)
    73a2:	4901                	c.li	s2,0
    73a4:	28c020ef          	jal	ra,9630 <crc16>
    73a8:	00050e93          	addi	t4,a0,0
    73ac:	000bda83          	lhu	s5,0(s7)
    73b0:	0074fb13          	andi	s6,s1,7
    73b4:	413a8e33          	sub	t3,s5,s3
    73b8:	01cb9023          	sh	t3,0(s7)
    73bc:	4385                	c.li	t2,1
    73be:	002b8793          	addi	a5,s7,2
    73c2:	10905363          	bge	zero,s1,74c8 <matrix_test+0x143c>
    73c6:	080b0b63          	beq	s6,zero,745c <matrix_test+0x13d0>
    73ca:	061b5d5b          	beqc	s6,1,7444 <matrix_test+0x13b8>
    73ce:	062b535b          	beqc	s6,2,7434 <matrix_test+0x13a8>
    73d2:	043b595b          	beqc	s6,3,7424 <matrix_test+0x1398>
    73d6:	024b5f5b          	beqc	s6,4,7414 <matrix_test+0x1388>
    73da:	025b555b          	beqc	s6,5,7404 <matrix_test+0x1378>
    73de:	006b5b5b          	beqc	s6,6,73f4 <matrix_test+0x1368>
    73e2:	0007d303          	lhu	t1,0(a5)
    73e6:	4389                	c.li	t2,2
    73e8:	41330c33          	sub	s8,t1,s3
    73ec:	01879023          	sh	s8,0(a5)
    73f0:	004b8793          	addi	a5,s7,4
    73f4:	0007dd83          	lhu	s11,0(a5)
    73f8:	0385                	c.addi	t2,1
    73fa:	413d8f33          	sub	t5,s11,s3
    73fe:	01e79023          	sh	t5,0(a5)
    7402:	0789                	c.addi	a5,2
    7404:	0007d703          	lhu	a4,0(a5)
    7408:	0385                	c.addi	t2,1
    740a:	41370d33          	sub	s10,a4,s3
    740e:	01a79023          	sh	s10,0(a5)
    7412:	0789                	c.addi	a5,2
    7414:	0007d803          	lhu	a6,0(a5)
    7418:	0385                	c.addi	t2,1
    741a:	41380a33          	sub	s4,a6,s3
    741e:	01479023          	sh	s4,0(a5)
    7422:	0789                	c.addi	a5,2
    7424:	0007dc83          	lhu	s9,0(a5)
    7428:	0385                	c.addi	t2,1
    742a:	413c85b3          	sub	a1,s9,s3
    742e:	00b79023          	sh	a1,0(a5)
    7432:	0789                	c.addi	a5,2
    7434:	0007d503          	lhu	a0,0(a5)
    7438:	0385                	c.addi	t2,1
    743a:	413500b3          	sub	ra,a0,s3
    743e:	00179023          	sh	ra,0(a5)
    7442:	0789                	c.addi	a5,2
    7444:	0007df83          	lhu	t6,0(a5)
    7448:	861e                	c.mv	a2,t2
    744a:	413f82b3          	sub	t0,t6,s3
    744e:	00579023          	sh	t0,0(a5)
    7452:	0385                	c.addi	t2,1
    7454:	00278793          	addi	a5,a5,2
    7458:	06965863          	bge	a2,s1,74c8 <matrix_test+0x143c>
    745c:	0007d683          	lhu	a3,0(a5)
    7460:	0027da83          	lhu	s5,2(a5)
    7464:	0047d883          	lhu	a7,4(a5)
    7468:	0067db03          	lhu	s6,6(a5)
    746c:	0087de03          	lhu	t3,8(a5)
    7470:	00a7dc03          	lhu	s8,10(a5)
    7474:	00c7dd83          	lhu	s11,12(a5)
    7478:	00e7d703          	lhu	a4,14(a5)
    747c:	41368f33          	sub	t5,a3,s3
    7480:	413a8333          	sub	t1,s5,s3
    7484:	41388d33          	sub	s10,a7,s3
    7488:	413b0833          	sub	a6,s6,s3
    748c:	413e0a33          	sub	s4,t3,s3
    7490:	413c0cb3          	sub	s9,s8,s3
    7494:	413d85b3          	sub	a1,s11,s3
    7498:	41370533          	sub	a0,a4,s3
    749c:	00738093          	addi	ra,t2,7
    74a0:	01e79023          	sh	t5,0(a5)
    74a4:	00679123          	sh	t1,2(a5)
    74a8:	01a79223          	sh	s10,4(a5)
    74ac:	01079323          	sh	a6,6(a5)
    74b0:	01479423          	sh	s4,8(a5)
    74b4:	01979523          	sh	s9,10(a5)
    74b8:	00b79623          	sh	a1,12(a5)
    74bc:	00a79723          	sh	a0,14(a5)
    74c0:	03a1                	c.addi	t2,8
    74c2:	07c1                	c.addi	a5,16
    74c4:	f890cce3          	blt	ra,s1,745c <matrix_test+0x13d0>
    74c8:	00190f93          	addi	t6,s2,1 # fffff001 <__start_addr+0x7fffeff1>
    74cc:	9ba2                	c.add	s7,s0
    74ce:	02995763          	bge	s2,s1,74fc <matrix_test+0x1470>
    74d2:	897e                	c.mv	s2,t6
    74d4:	ed9ff06f          	jal	zero,73ac <matrix_test+0x1320>
    74d8:	4581                	c.li	a1,0
    74da:	4501                	c.li	a0,0
    74dc:	154020ef          	jal	ra,9630 <crc16>
    74e0:	85aa                	c.mv	a1,a0
    74e2:	4501                	c.li	a0,0
    74e4:	14c020ef          	jal	ra,9630 <crc16>
    74e8:	85aa                	c.mv	a1,a0
    74ea:	4501                	c.li	a0,0
    74ec:	144020ef          	jal	ra,9630 <crc16>
    74f0:	85aa                	c.mv	a1,a0
    74f2:	4501                	c.li	a0,0
    74f4:	13c020ef          	jal	ra,9630 <crc16>
    74f8:	00050e93          	addi	t4,a0,0
    74fc:	40b6                	c.lwsp	ra,76(sp)
    74fe:	4426                	c.lwsp	s0,72(sp)
    7500:	4496                	c.lwsp	s1,68(sp)
    7502:	4906                	c.lwsp	s2,64(sp)
    7504:	59f2                	c.lwsp	s3,60(sp)
    7506:	5a62                	c.lwsp	s4,56(sp)
    7508:	5ad2                	c.lwsp	s5,52(sp)
    750a:	5b42                	c.lwsp	s6,48(sp)
    750c:	5bb2                	c.lwsp	s7,44(sp)
    750e:	5c22                	c.lwsp	s8,40(sp)
    7510:	5c92                	c.lwsp	s9,36(sp)
    7512:	5d02                	c.lwsp	s10,32(sp)
    7514:	4df2                	c.lwsp	s11,28(sp)
    7516:	3c0eb55b          	bfos	a0,t4,15,0
    751a:	6161                	c.addi16sp	sp,80
    751c:	00008067          	jalr	zero,0(ra)
    7520:	00a50093          	addi	ra,a0,10
    7524:	3c00b55b          	bfos	a0,ra,15,0
    7528:	4a01                	c.li	s4,0
    752a:	b9a9                	c.j	7184 <matrix_test+0x10f8>
    752c:	00a50293          	addi	t0,a0,10
    7530:	3c02b55b          	bfos	a0,t0,15,0
    7534:	00000793          	addi	a5,zero,0
    7538:	e65fe06f          	jal	zero,639c <matrix_test+0x310>
    753c:	00a50a13          	addi	s4,a0,10
    7540:	3c0a355b          	bfos	a0,s4,15,0
    7544:	4a01                	c.li	s4,0
    7546:	b10d                	c.j	7168 <matrix_test+0x10dc>
    7548:	00a50393          	addi	t2,a0,10
    754c:	3c03b55b          	bfos	a0,t2,15,0
    7550:	00000793          	addi	a5,zero,0
    7554:	eecff06f          	jal	zero,6c40 <matrix_test+0xbb4>
    7558:	00a50793          	addi	a5,a0,10
    755c:	3c07b55b          	bfos	a0,a5,15,0
    7560:	00000793          	addi	a5,zero,0
    7564:	a88ff06f          	jal	zero,67ec <matrix_test+0x760>

00007568 <core_init_matrix>:
    7568:	7179                	c.addi16sp	sp,-48
    756a:	d622                	c.swsp	s0,44(sp)
    756c:	d426                	c.swsp	s1,40(sp)
    756e:	d24a                	c.swsp	s2,36(sp)
    7570:	d04e                	c.swsp	s3,32(sp)
    7572:	ce52                	c.swsp	s4,28(sp)
    7574:	cc56                	c.swsp	s5,24(sp)
    7576:	ca5a                	c.swsp	s6,20(sp)
    7578:	c85e                	c.swsp	s7,16(sp)
    757a:	c662                	c.swsp	s8,12(sp)
    757c:	00061463          	bne	a2,zero,7584 <core_init_matrix+0x1c>
    7580:	00100613          	addi	a2,zero,1
    7584:	48a05e63          	bge	zero,a0,7a20 <core_init_matrix+0x4b8>
    7588:	00000313          	addi	t1,zero,0
    758c:	8e9a                	c.mv	t4,t1
    758e:	0305                	c.addi	t1,1
    7590:	02630733          	mul	a4,t1,t1
    7594:	879a                	c.mv	a5,t1
    7596:	00371393          	slli	t2,a4,0x3
    759a:	08a3d163          	bge	t2,a0,761c <core_init_matrix+0xb4>
    759e:	8e9a                	c.mv	t4,t1
    75a0:	0305                	c.addi	t1,1
    75a2:	026304b3          	mul	s1,t1,t1
    75a6:	00349813          	slli	a6,s1,0x3
    75aa:	06a85963          	bge	a6,a0,761c <core_init_matrix+0xb4>
    75ae:	8e9a                	c.mv	t4,t1
    75b0:	00278313          	addi	t1,a5,2
    75b4:	026308b3          	mul	a7,t1,t1
    75b8:	00389913          	slli	s2,a7,0x3
    75bc:	06a95063          	bge	s2,a0,761c <core_init_matrix+0xb4>
    75c0:	8e9a                	c.mv	t4,t1
    75c2:	00378313          	addi	t1,a5,3
    75c6:	026309b3          	mul	s3,t1,t1
    75ca:	00399a13          	slli	s4,s3,0x3
    75ce:	04aa5763          	bge	s4,a0,761c <core_init_matrix+0xb4>
    75d2:	8e9a                	c.mv	t4,t1
    75d4:	00478313          	addi	t1,a5,4
    75d8:	02630ab3          	mul	s5,t1,t1
    75dc:	003a9b13          	slli	s6,s5,0x3
    75e0:	02ab5e63          	bge	s6,a0,761c <core_init_matrix+0xb4>
    75e4:	8e9a                	c.mv	t4,t1
    75e6:	00578313          	addi	t1,a5,5
    75ea:	02630bb3          	mul	s7,t1,t1
    75ee:	003b9c13          	slli	s8,s7,0x3
    75f2:	02ac5563          	bge	s8,a0,761c <core_init_matrix+0xb4>
    75f6:	8e9a                	c.mv	t4,t1
    75f8:	00678313          	addi	t1,a5,6
    75fc:	02630e33          	mul	t3,t1,t1
    7600:	003e1f13          	slli	t5,t3,0x3
    7604:	00af5c63          	bge	t5,a0,761c <core_init_matrix+0xb4>
    7608:	00030e93          	addi	t4,t1,0
    760c:	00778313          	addi	t1,a5,7
    7610:	026302b3          	mul	t0,t1,t1
    7614:	00329413          	slli	s0,t0,0x3
    7618:	f6a44ae3          	blt	s0,a0,758c <core_init_matrix+0x24>
    761c:	fff58513          	addi	a0,a1,-1
    7620:	03de85b3          	mul	a1,t4,t4
    7624:	ffc57f93          	andi	t6,a0,-4
    7628:	004f8413          	addi	s0,t6,4
    762c:	00159293          	slli	t0,a1,0x1
    7630:	0ab40fdb          	lea.h	t6,s0,a1
    7634:	420e8863          	beq	t4,zero,7a64 <core_init_matrix+0x4fc>
    7638:	6741                	c.lui	a4,0x10
    763a:	8f7e                	c.mv	t5,t6
    763c:	4e05                	c.li	t3,1
    763e:	001e9393          	slli	t2,t4,0x1
    7642:	4501                	c.li	a0,0
    7644:	fff70813          	addi	a6,a4,-1 # ffff <__data_lmastart+0x4fff>
    7648:	41f408b3          	sub	a7,s0,t6
    764c:	41c307b3          	sub	a5,t1,t3
    7650:	0077f493          	andi	s1,a5,7
    7654:	877a                	c.mv	a4,t5
    7656:	85f2                	c.mv	a1,t3
    7658:	1c048463          	beq	s1,zero,7820 <core_init_matrix+0x2b8>
    765c:	1814d25b          	beqc	s1,1,77e0 <core_init_matrix+0x278>
    7660:	1424d25b          	beqc	s1,2,77a4 <core_init_matrix+0x23c>
    7664:	1034d25b          	beqc	s1,3,7768 <core_init_matrix+0x200>
    7668:	0c44d25b          	beqc	s1,4,772c <core_init_matrix+0x1c4>
    766c:	0854d25b          	beqc	s1,5,76f0 <core_init_matrix+0x188>
    7670:	0464d25b          	beqc	s1,6,76b4 <core_init_matrix+0x14c>
    7674:	03c60633          	mul	a2,a2,t3
    7678:	3c0e295b          	bfoz	s2,t3,15,0
    767c:	01e889b3          	add	s3,a7,t5
    7680:	41f65a13          	srai	s4,a2,0x1f
    7684:	010a5a93          	srli	s5,s4,0x10
    7688:	01560b33          	add	s6,a2,s5
    768c:	010b7bb3          	and	s7,s6,a6
    7690:	415b8633          	sub	a2,s7,s5
    7694:	00c90c33          	add	s8,s2,a2
    7698:	3c0c25db          	bfoz	a1,s8,15,0
    769c:	01258733          	add	a4,a1,s2
    76a0:	0ff77793          	andi	a5,a4,255
    76a4:	00bf1023          	sh	a1,0(t5)
    76a8:	002f0713          	addi	a4,t5,2
    76ac:	001e0593          	addi	a1,t3,1
    76b0:	00f99023          	sh	a5,0(s3) # 1000 <m_trap_entry>
    76b4:	02b60633          	mul	a2,a2,a1
    76b8:	3c05a9db          	bfoz	s3,a1,15,0
    76bc:	00e88933          	add	s2,a7,a4
    76c0:	41f65493          	srai	s1,a2,0x1f
    76c4:	0104da13          	srli	s4,s1,0x10
    76c8:	01460ab3          	add	s5,a2,s4
    76cc:	010afb33          	and	s6,s5,a6
    76d0:	414b0633          	sub	a2,s6,s4
    76d4:	00c98bb3          	add	s7,s3,a2
    76d8:	3c0bac5b          	bfoz	s8,s7,15,0
    76dc:	013c07b3          	add	a5,s8,s3
    76e0:	01871023          	sh	s8,0(a4)
    76e4:	0ff7f993          	andi	s3,a5,255
    76e8:	0585                	c.addi	a1,1
    76ea:	0709                	c.addi	a4,2
    76ec:	01391023          	sh	s3,0(s2)
    76f0:	02b60633          	mul	a2,a2,a1
    76f4:	3c05aa5b          	bfoz	s4,a1,15,0
    76f8:	00e88ab3          	add	s5,a7,a4
    76fc:	41f65493          	srai	s1,a2,0x1f
    7700:	0104db13          	srli	s6,s1,0x10
    7704:	01660bb3          	add	s7,a2,s6
    7708:	010bfc33          	and	s8,s7,a6
    770c:	416c0633          	sub	a2,s8,s6
    7710:	00ca07b3          	add	a5,s4,a2
    7714:	3c07a9db          	bfoz	s3,a5,15,0
    7718:	01498933          	add	s2,s3,s4
    771c:	01371023          	sh	s3,0(a4)
    7720:	0ff97a13          	andi	s4,s2,255
    7724:	0585                	c.addi	a1,1
    7726:	0709                	c.addi	a4,2
    7728:	014a9023          	sh	s4,0(s5)
    772c:	02b60633          	mul	a2,a2,a1
    7730:	3c05ab5b          	bfoz	s6,a1,15,0
    7734:	00e88bb3          	add	s7,a7,a4
    7738:	41f65493          	srai	s1,a2,0x1f
    773c:	0104dc13          	srli	s8,s1,0x10
    7740:	018607b3          	add	a5,a2,s8
    7744:	0107f9b3          	and	s3,a5,a6
    7748:	41898633          	sub	a2,s3,s8
    774c:	00cb0933          	add	s2,s6,a2
    7750:	3c092a5b          	bfoz	s4,s2,15,0
    7754:	016a0ab3          	add	s5,s4,s6
    7758:	01471023          	sh	s4,0(a4)
    775c:	0ffafb13          	andi	s6,s5,255
    7760:	0585                	c.addi	a1,1
    7762:	0709                	c.addi	a4,2
    7764:	016b9023          	sh	s6,0(s7)
    7768:	02b60633          	mul	a2,a2,a1
    776c:	3c05ac5b          	bfoz	s8,a1,15,0
    7770:	00e889b3          	add	s3,a7,a4
    7774:	41f65493          	srai	s1,a2,0x1f
    7778:	0104d793          	srli	a5,s1,0x10
    777c:	00f60933          	add	s2,a2,a5
    7780:	01097a33          	and	s4,s2,a6
    7784:	40fa0633          	sub	a2,s4,a5
    7788:	00cc0ab3          	add	s5,s8,a2
    778c:	3c0aab5b          	bfoz	s6,s5,15,0
    7790:	018b0bb3          	add	s7,s6,s8
    7794:	01671023          	sh	s6,0(a4)
    7798:	0ffbfc13          	andi	s8,s7,255
    779c:	0585                	c.addi	a1,1
    779e:	0709                	c.addi	a4,2
    77a0:	01899023          	sh	s8,0(s3)
    77a4:	02b60633          	mul	a2,a2,a1
    77a8:	3c05a7db          	bfoz	a5,a1,15,0
    77ac:	00e88933          	add	s2,a7,a4
    77b0:	41f65493          	srai	s1,a2,0x1f
    77b4:	0104da13          	srli	s4,s1,0x10
    77b8:	01460ab3          	add	s5,a2,s4
    77bc:	010afb33          	and	s6,s5,a6
    77c0:	414b0633          	sub	a2,s6,s4
    77c4:	00c78bb3          	add	s7,a5,a2
    77c8:	3c0bac5b          	bfoz	s8,s7,15,0
    77cc:	00fc09b3          	add	s3,s8,a5
    77d0:	01871023          	sh	s8,0(a4)
    77d4:	0ff9f793          	andi	a5,s3,255
    77d8:	0585                	c.addi	a1,1
    77da:	0709                	c.addi	a4,2
    77dc:	00f91023          	sh	a5,0(s2)
    77e0:	02b60633          	mul	a2,a2,a1
    77e4:	3c05aa5b          	bfoz	s4,a1,15,0
    77e8:	00e88ab3          	add	s5,a7,a4
    77ec:	41f65493          	srai	s1,a2,0x1f
    77f0:	0104db13          	srli	s6,s1,0x10
    77f4:	01660bb3          	add	s7,a2,s6
    77f8:	010bfc33          	and	s8,s7,a6
    77fc:	416c0633          	sub	a2,s8,s6
    7800:	00ca09b3          	add	s3,s4,a2
    7804:	3c09a95b          	bfoz	s2,s3,15,0
    7808:	014907b3          	add	a5,s2,s4
    780c:	01271023          	sh	s2,0(a4)
    7810:	0ff7fa13          	andi	s4,a5,255
    7814:	0585                	c.addi	a1,1
    7816:	014a9023          	sh	s4,0(s5)
    781a:	0709                	c.addi	a4,2
    781c:	1c658263          	beq	a1,t1,79e0 <core_init_matrix+0x478>
    7820:	02b60633          	mul	a2,a2,a1
    7824:	00158a93          	addi	s5,a1,1
    7828:	00258a13          	addi	s4,a1,2
    782c:	41f65493          	srai	s1,a2,0x1f
    7830:	0104db13          	srli	s6,s1,0x10
    7834:	01660bb3          	add	s7,a2,s6
    7838:	010bfc33          	and	s8,s7,a6
    783c:	416c07b3          	sub	a5,s8,s6
    7840:	03578633          	mul	a2,a5,s5
    7844:	00358993          	addi	s3,a1,3
    7848:	3c05ab5b          	bfoz	s6,a1,15,0
    784c:	41f65913          	srai	s2,a2,0x1f
    7850:	01095b93          	srli	s7,s2,0x10
    7854:	017604b3          	add	s1,a2,s7
    7858:	0104fc33          	and	s8,s1,a6
    785c:	417c04b3          	sub	s1,s8,s7
    7860:	03448933          	mul	s2,s1,s4
    7864:	97da                	c.add	a5,s6
    7866:	3c07a7db          	bfoz	a5,a5,15,0
    786a:	41f95613          	srai	a2,s2,0x1f
    786e:	01065b93          	srli	s7,a2,0x10
    7872:	01790c33          	add	s8,s2,s7
    7876:	010c7933          	and	s2,s8,a6
    787a:	41790633          	sub	a2,s2,s7
    787e:	03360bb3          	mul	s7,a2,s3
    7882:	3c0aaadb          	bfoz	s5,s5,15,0
    7886:	3c0a2a5b          	bfoz	s4,s4,15,0
    788a:	41fbdc13          	srai	s8,s7,0x1f
    788e:	010c5c13          	srli	s8,s8,0x10
    7892:	018b8933          	add	s2,s7,s8
    7896:	9b3e                	c.add	s6,a5
    7898:	00f71023          	sh	a5,0(a4)
    789c:	01097bb3          	and	s7,s2,a6
    78a0:	94d6                	c.add	s1,s5
    78a2:	00e88933          	add	s2,a7,a4
    78a6:	9652                	c.add	a2,s4
    78a8:	0ffb7b13          	andi	s6,s6,255
    78ac:	01691023          	sh	s6,0(s2)
    78b0:	418b8c33          	sub	s8,s7,s8
    78b4:	3c04abdb          	bfoz	s7,s1,15,0
    78b8:	84ca                	c.mv	s1,s2
    78ba:	3c06295b          	bfoz	s2,a2,15,0
    78be:	01490b33          	add	s6,s2,s4
    78c2:	00458a13          	addi	s4,a1,4
    78c6:	034c0633          	mul	a2,s8,s4
    78ca:	015b87b3          	add	a5,s7,s5
    78ce:	01771123          	sh	s7,2(a4)
    78d2:	0ff7fa93          	andi	s5,a5,255
    78d6:	01549123          	sh	s5,2(s1)
    78da:	41f65a93          	srai	s5,a2,0x1f
    78de:	01271223          	sh	s2,4(a4)
    78e2:	0ffb7b93          	andi	s7,s6,255
    78e6:	010ad913          	srli	s2,s5,0x10
    78ea:	01749223          	sh	s7,4(s1)
    78ee:	012604b3          	add	s1,a2,s2
    78f2:	0104fbb3          	and	s7,s1,a6
    78f6:	00558b13          	addi	s6,a1,5
    78fa:	412b84b3          	sub	s1,s7,s2
    78fe:	03648bb3          	mul	s7,s1,s6
    7902:	00658793          	addi	a5,a1,6
    7906:	3c09a9db          	bfoz	s3,s3,15,0
    790a:	41fbd613          	srai	a2,s7,0x1f
    790e:	01065a93          	srli	s5,a2,0x10
    7912:	015b8933          	add	s2,s7,s5
    7916:	01097bb3          	and	s7,s2,a6
    791a:	415b8633          	sub	a2,s7,s5
    791e:	02f60bb3          	mul	s7,a2,a5
    7922:	9c4e                	c.add	s8,s3
    7924:	3c0c2adb          	bfoz	s5,s8,15,0
    7928:	41fbdc13          	srai	s8,s7,0x1f
    792c:	010c5c13          	srli	s8,s8,0x10
    7930:	3c0a2a5b          	bfoz	s4,s4,15,0
    7934:	018b8933          	add	s2,s7,s8
    7938:	01097bb3          	and	s7,s2,a6
    793c:	99d6                	c.add	s3,s5
    793e:	94d2                	c.add	s1,s4
    7940:	01571323          	sh	s5,6(a4)
    7944:	01170933          	add	s2,a4,a7
    7948:	418b8c33          	sub	s8,s7,s8
    794c:	3c0b2b5b          	bfoz	s6,s6,15,0
    7950:	0ff9fb93          	andi	s7,s3,255
    7954:	3c04a9db          	bfoz	s3,s1,15,0
    7958:	01791323          	sh	s7,6(s2)
    795c:	01498ab3          	add	s5,s3,s4
    7960:	965a                	c.add	a2,s6
    7962:	01371423          	sh	s3,8(a4)
    7966:	3c062bdb          	bfoz	s7,a2,15,0
    796a:	0ffafa13          	andi	s4,s5,255
    796e:	01491423          	sh	s4,8(s2)
    7972:	9b5e                	c.add	s6,s7
    7974:	01771523          	sh	s7,10(a4)
    7978:	84ca                	c.mv	s1,s2
    797a:	0ffb7913          	andi	s2,s6,255
    797e:	01249523          	sh	s2,10(s1)
    7982:	3c07a7db          	bfoz	a5,a5,15,0
    7986:	8ba6                	c.mv	s7,s1
    7988:	00758493          	addi	s1,a1,7
    798c:	01878633          	add	a2,a5,s8
    7990:	029c0c33          	mul	s8,s8,s1
    7994:	3c0629db          	bfoz	s3,a2,15,0
    7998:	00f98ab3          	add	s5,s3,a5
    799c:	41fc5613          	srai	a2,s8,0x1f
    79a0:	01065a13          	srli	s4,a2,0x10
    79a4:	014c0933          	add	s2,s8,s4
    79a8:	01371623          	sh	s3,12(a4)
    79ac:	010979b3          	and	s3,s2,a6
    79b0:	3c04a7db          	bfoz	a5,s1,15,0
    79b4:	41498633          	sub	a2,s3,s4
    79b8:	0ffafb13          	andi	s6,s5,255
    79bc:	00c78ab3          	add	s5,a5,a2
    79c0:	3c0aa4db          	bfoz	s1,s5,15,0
    79c4:	00f48c33          	add	s8,s1,a5
    79c8:	016b9623          	sh	s6,12(s7)
    79cc:	00971723          	sh	s1,14(a4)
    79d0:	0ffc7793          	andi	a5,s8,255
    79d4:	05a1                	c.addi	a1,8
    79d6:	00fb9723          	sh	a5,14(s7)
    79da:	0741                	c.addi	a4,16
    79dc:	e46592e3          	bne	a1,t1,7820 <core_init_matrix+0x2b8>
    79e0:	0505                	c.addi	a0,1
    79e2:	9e76                	c.add	t3,t4
    79e4:	9376                	c.add	t1,t4
    79e6:	9f1e                	c.add	t5,t2
    79e8:	c6ae92e3          	bne	t4,a0,764c <core_init_matrix+0xe4>
    79ec:	005f8eb3          	add	t4,t6,t0
    79f0:	fffe8313          	addi	t1,t4,-1
    79f4:	ffc37293          	andi	t0,t1,-4
    79f8:	c2c0                	c.sw	s0,4(a3)
    79fa:	00428393          	addi	t2,t0,4
    79fe:	5432                	c.lwsp	s0,44(sp)
    7a00:	01f6a423          	sw	t6,8(a3)
    7a04:	0076a623          	sw	t2,12(a3)
    7a08:	c288                	c.sw	a0,0(a3)
    7a0a:	54a2                	c.lwsp	s1,40(sp)
    7a0c:	5912                	c.lwsp	s2,36(sp)
    7a0e:	5982                	c.lwsp	s3,32(sp)
    7a10:	4a72                	c.lwsp	s4,28(sp)
    7a12:	4ae2                	c.lwsp	s5,24(sp)
    7a14:	4b52                	c.lwsp	s6,20(sp)
    7a16:	4bc2                	c.lwsp	s7,16(sp)
    7a18:	4c32                	c.lwsp	s8,12(sp)
    7a1a:	6145                	c.addi16sp	sp,48
    7a1c:	00008067          	jalr	zero,0(ra)
    7a20:	15fd                	c.addi	a1,-1
    7a22:	ffc5ff93          	andi	t6,a1,-4
    7a26:	004f8413          	addi	s0,t6,4
    7a2a:	4289                	c.li	t0,2
    7a2c:	0f99                	c.addi	t6,6
    7a2e:	005f8eb3          	add	t4,t6,t0
    7a32:	fffe8313          	addi	t1,t4,-1
    7a36:	ffc37293          	andi	t0,t1,-4
    7a3a:	557d                	c.li	a0,-1
    7a3c:	c2c0                	c.sw	s0,4(a3)
    7a3e:	00428393          	addi	t2,t0,4
    7a42:	5432                	c.lwsp	s0,44(sp)
    7a44:	01f6a423          	sw	t6,8(a3)
    7a48:	0076a623          	sw	t2,12(a3)
    7a4c:	c288                	c.sw	a0,0(a3)
    7a4e:	54a2                	c.lwsp	s1,40(sp)
    7a50:	5912                	c.lwsp	s2,36(sp)
    7a52:	5982                	c.lwsp	s3,32(sp)
    7a54:	4a72                	c.lwsp	s4,28(sp)
    7a56:	4ae2                	c.lwsp	s5,24(sp)
    7a58:	4b52                	c.lwsp	s6,20(sp)
    7a5a:	4bc2                	c.lwsp	s7,16(sp)
    7a5c:	4c32                	c.lwsp	s8,12(sp)
    7a5e:	6145                	c.addi16sp	sp,48
    7a60:	00008067          	jalr	zero,0(ra)
    7a64:	4501                	c.li	a0,0
    7a66:	b759                	c.j	79ec <core_init_matrix+0x484>

00007a68 <matrix_sum>:
    7a68:	832a                	c.mv	t1,a0
    7a6a:	2ca05d63          	bge	zero,a0,7d44 <matrix_sum+0x2dc>
    7a6e:	40a00e33          	sub	t3,zero,a0
    7a72:	002e1e93          	slli	t4,t3,0x2
    7a76:	4881                	c.li	a7,0
    7a78:	4501                	c.li	a0,0
    7a7a:	4f81                	c.li	t6,0
    7a7c:	0c6585db          	lea.w	a1,a1,t1
    7a80:	0e0e                	c.slli	t3,0x3
    7a82:	4781                	c.li	a5,0
    7a84:	01d58833          	add	a6,a1,t4
    7a88:	41058f33          	sub	t5,a1,a6
    7a8c:	ffcf0293          	addi	t0,t5,-4
    7a90:	0022d393          	srli	t2,t0,0x2
    7a94:	00138693          	addi	a3,t2,1
    7a98:	0076ff13          	andi	t5,a3,7
    7a9c:	8742                	c.mv	a4,a6
    7a9e:	1a0f0163          	beq	t5,zero,7c40 <matrix_sum+0x1d8>
    7aa2:	0a1f5f5b          	beqc	t5,1,7b60 <matrix_sum+0xf8>
    7aa6:	082f5f5b          	beqc	t5,2,7b44 <matrix_sum+0xdc>
    7aaa:	063f5f5b          	beqc	t5,3,7b28 <matrix_sum+0xc0>
    7aae:	044f5f5b          	beqc	t5,4,7b0c <matrix_sum+0xa4>
    7ab2:	025f5f5b          	beqc	t5,5,7af0 <matrix_sum+0x88>
    7ab6:	006f5f5b          	beqc	t5,6,7ad4 <matrix_sum+0x6c>
    7aba:	877e                	c.mv	a4,t6
    7abc:	00082f83          	lw	t6,0(a6)
    7ac0:	97fe                	c.add	a5,t6
    7ac2:	26f64b63          	blt	a2,a5,7d38 <matrix_sum+0x2d0>
    7ac6:	01f722b3          	slt	t0,a4,t6
    7aca:	9516                	c.add	a0,t0
    7acc:	3c05355b          	bfos	a0,a0,15,0
    7ad0:	00480713          	addi	a4,a6,4
    7ad4:	83fe                	c.mv	t2,t6
    7ad6:	00072f83          	lw	t6,0(a4)
    7ada:	97fe                	c.add	a5,t6
    7adc:	24f64863          	blt	a2,a5,7d2c <matrix_sum+0x2c4>
    7ae0:	01f3a6b3          	slt	a3,t2,t6
    7ae4:	00a68f33          	add	t5,a3,a0
    7ae8:	3c0f355b          	bfos	a0,t5,15,0
    7aec:	00470713          	addi	a4,a4,4
    7af0:	83fe                	c.mv	t2,t6
    7af2:	00072f83          	lw	t6,0(a4)
    7af6:	97fe                	c.add	a5,t6
    7af8:	22f64463          	blt	a2,a5,7d20 <matrix_sum+0x2b8>
    7afc:	01f3a6b3          	slt	a3,t2,t6
    7b00:	00d50533          	add	a0,a0,a3
    7b04:	3c05355b          	bfos	a0,a0,15,0
    7b08:	00470713          	addi	a4,a4,4
    7b0c:	8f7e                	c.mv	t5,t6
    7b0e:	00072f83          	lw	t6,0(a4)
    7b12:	97fe                	c.add	a5,t6
    7b14:	20f64063          	blt	a2,a5,7d14 <matrix_sum+0x2ac>
    7b18:	01ff22b3          	slt	t0,t5,t6
    7b1c:	00a283b3          	add	t2,t0,a0
    7b20:	3c03b55b          	bfos	a0,t2,15,0
    7b24:	00470713          	addi	a4,a4,4
    7b28:	8f7e                	c.mv	t5,t6
    7b2a:	00072f83          	lw	t6,0(a4)
    7b2e:	97fe                	c.add	a5,t6
    7b30:	1cf64c63          	blt	a2,a5,7d08 <matrix_sum+0x2a0>
    7b34:	01ff22b3          	slt	t0,t5,t6
    7b38:	00550533          	add	a0,a0,t0
    7b3c:	3c05355b          	bfos	a0,a0,15,0
    7b40:	00470713          	addi	a4,a4,4
    7b44:	83fe                	c.mv	t2,t6
    7b46:	00072f83          	lw	t6,0(a4)
    7b4a:	97fe                	c.add	a5,t6
    7b4c:	1af64863          	blt	a2,a5,7cfc <matrix_sum+0x294>
    7b50:	01f3a6b3          	slt	a3,t2,t6
    7b54:	00a68f33          	add	t5,a3,a0
    7b58:	3c0f355b          	bfos	a0,t5,15,0
    7b5c:	00470713          	addi	a4,a4,4
    7b60:	83fe                	c.mv	t2,t6
    7b62:	00072f83          	lw	t6,0(a4)
    7b66:	97fe                	c.add	a5,t6
    7b68:	18f64463          	blt	a2,a5,7cf0 <matrix_sum+0x288>
    7b6c:	01f3a6b3          	slt	a3,t2,t6
    7b70:	00d50533          	add	a0,a0,a3
    7b74:	3c05355b          	bfos	a0,a0,15,0
    7b78:	00470713          	addi	a4,a4,4
    7b7c:	0ce59263          	bne	a1,a4,7c40 <matrix_sum+0x1d8>
    7b80:	0885                	c.addi	a7,1
    7b82:	41c805b3          	sub	a1,a6,t3
    7b86:	ef131fe3          	bne	t1,a7,7a84 <matrix_sum+0x1c>
    7b8a:	8082                	c.jr	ra
    7b8c:	00472f83          	lw	t6,4(a4)
    7b90:	4381                	c.li	t2,0
    7b92:	0529                	c.addi	a0,10
    7b94:	01f38f33          	add	t5,t2,t6
    7b98:	3c0536db          	bfos	a3,a0,15,0
    7b9c:	00470713          	addi	a4,a4,4
    7ba0:	0de65463          	bge	a2,t5,7c68 <matrix_sum+0x200>
    7ba4:	4348                	c.lw	a0,4(a4)
    7ba6:	00a68793          	addi	a5,a3,10
    7baa:	4f01                	c.li	t5,0
    7bac:	3c07b6db          	bfos	a3,a5,15,0
    7bb0:	00af07b3          	add	a5,t5,a0
    7bb4:	0cf64663          	blt	a2,a5,7c80 <matrix_sum+0x218>
    7bb8:	00872f03          	lw	t5,8(a4)
    7bbc:	00afafb3          	slt	t6,t6,a0
    7bc0:	00df82b3          	add	t0,t6,a3
    7bc4:	01e787b3          	add	a5,a5,t5
    7bc8:	3c02b6db          	bfos	a3,t0,15,0
    7bcc:	0cf64463          	blt	a2,a5,7c94 <matrix_sum+0x22c>
    7bd0:	01e52533          	slt	a0,a0,t5
    7bd4:	00d50fb3          	add	t6,a0,a3
    7bd8:	4748                	c.lw	a0,12(a4)
    7bda:	3c0fb3db          	bfos	t2,t6,15,0
    7bde:	97aa                	c.add	a5,a0
    7be0:	0cf64463          	blt	a2,a5,7ca8 <matrix_sum+0x240>
    7be4:	00af26b3          	slt	a3,t5,a0
    7be8:	00768f33          	add	t5,a3,t2
    7bec:	01072383          	lw	t2,16(a4)
    7bf0:	3c0f32db          	bfos	t0,t5,15,0
    7bf4:	007787b3          	add	a5,a5,t2
    7bf8:	0cf64263          	blt	a2,a5,7cbc <matrix_sum+0x254>
    7bfc:	00752533          	slt	a0,a0,t2
    7c00:	005506b3          	add	a3,a0,t0
    7c04:	01472283          	lw	t0,20(a4)
    7c08:	3c06bfdb          	bfos	t6,a3,15,0
    7c0c:	005787b3          	add	a5,a5,t0
    7c10:	0cf64063          	blt	a2,a5,7cd0 <matrix_sum+0x268>
    7c14:	0053a3b3          	slt	t2,t2,t0
    7c18:	01f38533          	add	a0,t2,t6
    7c1c:	01872f83          	lw	t6,24(a4)
    7c20:	3c053f5b          	bfos	t5,a0,15,0
    7c24:	01f787b3          	add	a5,a5,t6
    7c28:	0af64e63          	blt	a2,a5,7ce4 <matrix_sum+0x27c>
    7c2c:	01f2a2b3          	slt	t0,t0,t6
    7c30:	01e283b3          	add	t2,t0,t5
    7c34:	3c03b55b          	bfos	a0,t2,15,0
    7c38:	01c70713          	addi	a4,a4,28
    7c3c:	f4e582e3          	beq	a1,a4,7b80 <matrix_sum+0x118>
    7c40:	00072283          	lw	t0,0(a4)
    7c44:	005783b3          	add	t2,a5,t0
    7c48:	f47642e3          	blt	a2,t2,7b8c <matrix_sum+0x124>
    7c4c:	005fafb3          	slt	t6,t6,t0
    7c50:	00af8f33          	add	t5,t6,a0
    7c54:	00472f83          	lw	t6,4(a4)
    7c58:	3c0f36db          	bfos	a3,t5,15,0
    7c5c:	01f38f33          	add	t5,t2,t6
    7c60:	00470713          	addi	a4,a4,4
    7c64:	f5e640e3          	blt	a2,t5,7ba4 <matrix_sum+0x13c>
    7c68:	00472503          	lw	a0,4(a4)
    7c6c:	01f2a2b3          	slt	t0,t0,t6
    7c70:	00d283b3          	add	t2,t0,a3
    7c74:	00af07b3          	add	a5,t5,a0
    7c78:	3c03b6db          	bfos	a3,t2,15,0
    7c7c:	f2f65ee3          	bge	a2,a5,7bb8 <matrix_sum+0x150>
    7c80:	00872f03          	lw	t5,8(a4)
    7c84:	4781                	c.li	a5,0
    7c86:	00a68393          	addi	t2,a3,10
    7c8a:	97fa                	c.add	a5,t5
    7c8c:	3c03b6db          	bfos	a3,t2,15,0
    7c90:	f4f650e3          	bge	a2,a5,7bd0 <matrix_sum+0x168>
    7c94:	4748                	c.lw	a0,12(a4)
    7c96:	4781                	c.li	a5,0
    7c98:	00a68293          	addi	t0,a3,10
    7c9c:	00a787b3          	add	a5,a5,a0
    7ca0:	3c02b3db          	bfos	t2,t0,15,0
    7ca4:	f4f650e3          	bge	a2,a5,7be4 <matrix_sum+0x17c>
    7ca8:	00a38f93          	addi	t6,t2,10
    7cac:	01072383          	lw	t2,16(a4)
    7cb0:	4781                	c.li	a5,0
    7cb2:	979e                	c.add	a5,t2
    7cb4:	3c0fb2db          	bfos	t0,t6,15,0
    7cb8:	f4f652e3          	bge	a2,a5,7bfc <matrix_sum+0x194>
    7cbc:	00a28f13          	addi	t5,t0,10
    7cc0:	01472283          	lw	t0,20(a4)
    7cc4:	4781                	c.li	a5,0
    7cc6:	9796                	c.add	a5,t0
    7cc8:	3c0f3fdb          	bfos	t6,t5,15,0
    7ccc:	f4f654e3          	bge	a2,a5,7c14 <matrix_sum+0x1ac>
    7cd0:	00af8693          	addi	a3,t6,10
    7cd4:	01872f83          	lw	t6,24(a4)
    7cd8:	4781                	c.li	a5,0
    7cda:	97fe                	c.add	a5,t6
    7cdc:	3c06bf5b          	bfos	t5,a3,15,0
    7ce0:	f4f656e3          	bge	a2,a5,7c2c <matrix_sum+0x1c4>
    7ce4:	00af0513          	addi	a0,t5,10
    7ce8:	3c05355b          	bfos	a0,a0,15,0
    7cec:	4781                	c.li	a5,0
    7cee:	b7a9                	c.j	7c38 <matrix_sum+0x1d0>
    7cf0:	00a50793          	addi	a5,a0,10
    7cf4:	3c07b55b          	bfos	a0,a5,15,0
    7cf8:	4781                	c.li	a5,0
    7cfa:	bdbd                	c.j	7b78 <matrix_sum+0x110>
    7cfc:	00a50293          	addi	t0,a0,10
    7d00:	3c02b55b          	bfos	a0,t0,15,0
    7d04:	4781                	c.li	a5,0
    7d06:	bd99                	c.j	7b5c <matrix_sum+0xf4>
    7d08:	00a50793          	addi	a5,a0,10
    7d0c:	3c07b55b          	bfos	a0,a5,15,0
    7d10:	4781                	c.li	a5,0
    7d12:	b53d                	c.j	7b40 <matrix_sum+0xd8>
    7d14:	00a50693          	addi	a3,a0,10
    7d18:	3c06b55b          	bfos	a0,a3,15,0
    7d1c:	4781                	c.li	a5,0
    7d1e:	b519                	c.j	7b24 <matrix_sum+0xbc>
    7d20:	00a50793          	addi	a5,a0,10
    7d24:	3c07b55b          	bfos	a0,a5,15,0
    7d28:	4781                	c.li	a5,0
    7d2a:	bbf9                	c.j	7b08 <matrix_sum+0xa0>
    7d2c:	00a50293          	addi	t0,a0,10
    7d30:	3c02b55b          	bfos	a0,t0,15,0
    7d34:	4781                	c.li	a5,0
    7d36:	bb5d                	c.j	7aec <matrix_sum+0x84>
    7d38:	00a50793          	addi	a5,a0,10
    7d3c:	3c07b55b          	bfos	a0,a5,15,0
    7d40:	4781                	c.li	a5,0
    7d42:	b379                	c.j	7ad0 <matrix_sum+0x68>
    7d44:	4501                	c.li	a0,0
    7d46:	8082                	c.jr	ra

00007d48 <matrix_mul_const>:
    7d48:	14a05a63          	bge	zero,a0,7e9c <matrix_mul_const+0x154>
    7d4c:	1141                	c.addi	sp,-16
    7d4e:	40a003b3          	sub	t2,zero,a0
    7d52:	8fae                	c.mv	t6,a1
    7d54:	c622                	c.swsp	s0,12(sp)
    7d56:	c426                	c.swsp	s1,8(sp)
    7d58:	00139413          	slli	s0,t2,0x1
    7d5c:	4281                	c.li	t0,0
    7d5e:	00251493          	slli	s1,a0,0x2
    7d62:	0aa605db          	lea.h	a1,a2,a0
    7d66:	038a                	c.slli	t2,0x2
    7d68:	c24a                	c.swsp	s2,4(sp)
    7d6a:	c04e                	c.swsp	s3,0(sp)
    7d6c:	00858833          	add	a6,a1,s0
    7d70:	41058633          	sub	a2,a1,a6
    7d74:	ffe60313          	addi	t1,a2,-2
    7d78:	00135713          	srli	a4,t1,0x1
    7d7c:	00170893          	addi	a7,a4,1
    7d80:	0078f913          	andi	s2,a7,7
    7d84:	877e                	c.mv	a4,t6
    7d86:	87c2                	c.mv	a5,a6
    7d88:	08090a63          	beq	s2,zero,7e1c <matrix_mul_const+0xd4>
    7d8c:	06195e5b          	beqc	s2,1,7e08 <matrix_mul_const+0xc0>
    7d90:	0629545b          	beqc	s2,2,7df8 <matrix_mul_const+0xb0>
    7d94:	04395a5b          	beqc	s2,3,7de8 <matrix_mul_const+0xa0>
    7d98:	0449505b          	beqc	s2,4,7dd8 <matrix_mul_const+0x90>
    7d9c:	0259565b          	beqc	s2,5,7dc8 <matrix_mul_const+0x80>
    7da0:	00695c5b          	beqc	s2,6,7db8 <matrix_mul_const+0x70>
    7da4:	00081983          	lh	s3,0(a6)
    7da8:	00280793          	addi	a5,a6,2
    7dac:	004f8713          	addi	a4,t6,4
    7db0:	02d98e33          	mul	t3,s3,a3
    7db4:	01cfa023          	sw	t3,0(t6)
    7db8:	00079e83          	lh	t4,0(a5)
    7dbc:	0711                	c.addi	a4,4
    7dbe:	0789                	c.addi	a5,2
    7dc0:	02de8f33          	mul	t5,t4,a3
    7dc4:	ffe72e23          	sw	t5,-4(a4)
    7dc8:	00079603          	lh	a2,0(a5)
    7dcc:	0711                	c.addi	a4,4
    7dce:	0789                	c.addi	a5,2
    7dd0:	02d60333          	mul	t1,a2,a3
    7dd4:	fe672e23          	sw	t1,-4(a4)
    7dd8:	00079883          	lh	a7,0(a5)
    7ddc:	0711                	c.addi	a4,4
    7dde:	0789                	c.addi	a5,2
    7de0:	02d88933          	mul	s2,a7,a3
    7de4:	ff272e23          	sw	s2,-4(a4)
    7de8:	00079983          	lh	s3,0(a5)
    7dec:	0711                	c.addi	a4,4
    7dee:	0789                	c.addi	a5,2
    7df0:	02d98e33          	mul	t3,s3,a3
    7df4:	ffc72e23          	sw	t3,-4(a4)
    7df8:	00079e83          	lh	t4,0(a5)
    7dfc:	0711                	c.addi	a4,4
    7dfe:	0789                	c.addi	a5,2
    7e00:	02de8f33          	mul	t5,t4,a3
    7e04:	ffe72e23          	sw	t5,-4(a4)
    7e08:	00079603          	lh	a2,0(a5)
    7e0c:	0789                	c.addi	a5,2
    7e0e:	0711                	c.addi	a4,4
    7e10:	02d60333          	mul	t1,a2,a3
    7e14:	fe672e23          	sw	t1,-4(a4)
    7e18:	06f58663          	beq	a1,a5,7e84 <matrix_mul_const+0x13c>
    7e1c:	00079983          	lh	s3,0(a5)
    7e20:	00279903          	lh	s2,2(a5)
    7e24:	00479f03          	lh	t5,4(a5)
    7e28:	00679e83          	lh	t4,6(a5)
    7e2c:	00879e03          	lh	t3,8(a5)
    7e30:	00a79303          	lh	t1,10(a5)
    7e34:	00c79883          	lh	a7,12(a5)
    7e38:	00e79603          	lh	a2,14(a5)
    7e3c:	02d989b3          	mul	s3,s3,a3
    7e40:	02d90933          	mul	s2,s2,a3
    7e44:	02df0f33          	mul	t5,t5,a3
    7e48:	02de8eb3          	mul	t4,t4,a3
    7e4c:	02de0e33          	mul	t3,t3,a3
    7e50:	02d30333          	mul	t1,t1,a3
    7e54:	02d888b3          	mul	a7,a7,a3
    7e58:	02d60633          	mul	a2,a2,a3
    7e5c:	01372023          	sw	s3,0(a4)
    7e60:	01272223          	sw	s2,4(a4)
    7e64:	01e72423          	sw	t5,8(a4)
    7e68:	01d72623          	sw	t4,12(a4)
    7e6c:	01c72823          	sw	t3,16(a4)
    7e70:	00672a23          	sw	t1,20(a4)
    7e74:	01172c23          	sw	a7,24(a4)
    7e78:	cf50                	c.sw	a2,28(a4)
    7e7a:	07c1                	c.addi	a5,16
    7e7c:	02070713          	addi	a4,a4,32
    7e80:	f8f59ee3          	bne	a1,a5,7e1c <matrix_mul_const+0xd4>
    7e84:	0285                	c.addi	t0,1
    7e86:	9fa6                	c.add	t6,s1
    7e88:	407805b3          	sub	a1,a6,t2
    7e8c:	ee5510e3          	bne	a0,t0,7d6c <matrix_mul_const+0x24>
    7e90:	4432                	c.lwsp	s0,12(sp)
    7e92:	44a2                	c.lwsp	s1,8(sp)
    7e94:	4912                	c.lwsp	s2,4(sp)
    7e96:	4982                	c.lwsp	s3,0(sp)
    7e98:	0141                	c.addi	sp,16
    7e9a:	8082                	c.jr	ra
    7e9c:	00008067          	jalr	zero,0(ra)

00007ea0 <matrix_add_const>:
    7ea0:	1ea05063          	bge	zero,a0,8080 <matrix_add_const+0x1e0>
    7ea4:	40a002b3          	sub	t0,zero,a0
    7ea8:	3c0626db          	bfoz	a3,a2,15,0
    7eac:	00129393          	slli	t2,t0,0x1
    7eb0:	4f81                	c.li	t6,0
    7eb2:	0aa5865b          	lea.h	a2,a1,a0
    7eb6:	028a                	c.slli	t0,0x2
    7eb8:	00c385b3          	add	a1,t2,a2
    7ebc:	40b60733          	sub	a4,a2,a1
    7ec0:	ffe70313          	addi	t1,a4,-2
    7ec4:	00135793          	srli	a5,t1,0x1
    7ec8:	00178813          	addi	a6,a5,1
    7ecc:	00787893          	andi	a7,a6,7
    7ed0:	00058793          	addi	a5,a1,0
    7ed4:	08088863          	beq	a7,zero,7f64 <matrix_add_const+0xc4>
    7ed8:	0618dc5b          	beqc	a7,1,7f50 <matrix_add_const+0xb0>
    7edc:	0628d25b          	beqc	a7,2,7f40 <matrix_add_const+0xa0>
    7ee0:	0438d85b          	beqc	a7,3,7f30 <matrix_add_const+0x90>
    7ee4:	0248de5b          	beqc	a7,4,7f20 <matrix_add_const+0x80>
    7ee8:	0258d45b          	beqc	a7,5,7f10 <matrix_add_const+0x70>
    7eec:	0068da5b          	beqc	a7,6,7f00 <matrix_add_const+0x60>
    7ef0:	0005de03          	lhu	t3,0(a1)
    7ef4:	00258793          	addi	a5,a1,2
    7ef8:	01c68eb3          	add	t4,a3,t3
    7efc:	01d59023          	sh	t4,0(a1)
    7f00:	0007df03          	lhu	t5,0(a5)
    7f04:	00278793          	addi	a5,a5,2
    7f08:	01e68733          	add	a4,a3,t5
    7f0c:	fee79f23          	sh	a4,-2(a5)
    7f10:	0007d303          	lhu	t1,0(a5)
    7f14:	00278793          	addi	a5,a5,2
    7f18:	00668833          	add	a6,a3,t1
    7f1c:	ff079f23          	sh	a6,-2(a5)
    7f20:	0007d883          	lhu	a7,0(a5)
    7f24:	00278793          	addi	a5,a5,2
    7f28:	01168e33          	add	t3,a3,a7
    7f2c:	ffc79f23          	sh	t3,-2(a5)
    7f30:	0007de83          	lhu	t4,0(a5)
    7f34:	00278793          	addi	a5,a5,2
    7f38:	01d68f33          	add	t5,a3,t4
    7f3c:	ffe79f23          	sh	t5,-2(a5)
    7f40:	0007d703          	lhu	a4,0(a5)
    7f44:	00278793          	addi	a5,a5,2
    7f48:	00e68333          	add	t1,a3,a4
    7f4c:	fe679f23          	sh	t1,-2(a5)
    7f50:	0007d803          	lhu	a6,0(a5)
    7f54:	00278793          	addi	a5,a5,2
    7f58:	010688b3          	add	a7,a3,a6
    7f5c:	ff179f23          	sh	a7,-2(a5)
    7f60:	10f60a63          	beq	a2,a5,8074 <matrix_add_const+0x1d4>
    7f64:	1141                	c.addi	sp,-16
    7f66:	c622                	c.swsp	s0,12(sp)
    7f68:	0007d403          	lhu	s0,0(a5)
    7f6c:	0027df03          	lhu	t5,2(a5)
    7f70:	0047de83          	lhu	t4,4(a5)
    7f74:	0067de03          	lhu	t3,6(a5)
    7f78:	0087d303          	lhu	t1,8(a5)
    7f7c:	00a7d883          	lhu	a7,10(a5)
    7f80:	00c7d803          	lhu	a6,12(a5)
    7f84:	00e7d703          	lhu	a4,14(a5)
    7f88:	9436                	c.add	s0,a3
    7f8a:	9f36                	c.add	t5,a3
    7f8c:	9eb6                	c.add	t4,a3
    7f8e:	9e36                	c.add	t3,a3
    7f90:	9336                	c.add	t1,a3
    7f92:	98b6                	c.add	a7,a3
    7f94:	9836                	c.add	a6,a3
    7f96:	9736                	c.add	a4,a3
    7f98:	00879023          	sh	s0,0(a5)
    7f9c:	01e79123          	sh	t5,2(a5)
    7fa0:	01d79223          	sh	t4,4(a5)
    7fa4:	01c79323          	sh	t3,6(a5)
    7fa8:	00679423          	sh	t1,8(a5)
    7fac:	01179523          	sh	a7,10(a5)
    7fb0:	01079623          	sh	a6,12(a5)
    7fb4:	00e79723          	sh	a4,14(a5)
    7fb8:	07c1                	c.addi	a5,16
    7fba:	faf617e3          	bne	a2,a5,7f68 <matrix_add_const+0xc8>
    7fbe:	0f85                	c.addi	t6,1
    7fc0:	40558633          	sub	a2,a1,t0
    7fc4:	0bf50463          	beq	a0,t6,806c <matrix_add_const+0x1cc>
    7fc8:	00c385b3          	add	a1,t2,a2
    7fcc:	40b607b3          	sub	a5,a2,a1
    7fd0:	ffe78413          	addi	s0,a5,-2
    7fd4:	00145f13          	srli	t5,s0,0x1
    7fd8:	001f0e93          	addi	t4,t5,1
    7fdc:	007efe13          	andi	t3,t4,7
    7fe0:	00058793          	addi	a5,a1,0
    7fe4:	f80e02e3          	beq	t3,zero,7f68 <matrix_add_const+0xc8>
    7fe8:	061e545b          	beqc	t3,1,8050 <matrix_add_const+0x1b0>
    7fec:	042e5a5b          	beqc	t3,2,8040 <matrix_add_const+0x1a0>
    7ff0:	043e505b          	beqc	t3,3,8030 <matrix_add_const+0x190>
    7ff4:	024e565b          	beqc	t3,4,8020 <matrix_add_const+0x180>
    7ff8:	005e5c5b          	beqc	t3,5,8010 <matrix_add_const+0x170>
    7ffc:	086e645b          	bnec	t3,6,8084 <matrix_add_const+0x1e4>
    8000:	0007d803          	lhu	a6,0(a5)
    8004:	00278793          	addi	a5,a5,2
    8008:	01068733          	add	a4,a3,a6
    800c:	fee79f23          	sh	a4,-2(a5)
    8010:	0007d403          	lhu	s0,0(a5)
    8014:	00278793          	addi	a5,a5,2
    8018:	00868f33          	add	t5,a3,s0
    801c:	ffe79f23          	sh	t5,-2(a5)
    8020:	0007de83          	lhu	t4,0(a5)
    8024:	00278793          	addi	a5,a5,2
    8028:	01d68e33          	add	t3,a3,t4
    802c:	ffc79f23          	sh	t3,-2(a5)
    8030:	0007d303          	lhu	t1,0(a5)
    8034:	00278793          	addi	a5,a5,2
    8038:	006688b3          	add	a7,a3,t1
    803c:	ff179f23          	sh	a7,-2(a5)
    8040:	0007d803          	lhu	a6,0(a5)
    8044:	00278793          	addi	a5,a5,2
    8048:	01068733          	add	a4,a3,a6
    804c:	fee79f23          	sh	a4,-2(a5)
    8050:	0007d403          	lhu	s0,0(a5)
    8054:	0789                	c.addi	a5,2
    8056:	00868f33          	add	t5,a3,s0
    805a:	ffe79f23          	sh	t5,-2(a5)
    805e:	f0f615e3          	bne	a2,a5,7f68 <matrix_add_const+0xc8>
    8062:	0f85                	c.addi	t6,1
    8064:	40558633          	sub	a2,a1,t0
    8068:	f7f510e3          	bne	a0,t6,7fc8 <matrix_add_const+0x128>
    806c:	4432                	c.lwsp	s0,12(sp)
    806e:	0141                	c.addi	sp,16
    8070:	00008067          	jalr	zero,0(ra)
    8074:	001f8f93          	addi	t6,t6,1
    8078:	40558633          	sub	a2,a1,t0
    807c:	e3f51ee3          	bne	a0,t6,7eb8 <matrix_add_const+0x18>
    8080:	00008067          	jalr	zero,0(ra)
    8084:	0005d303          	lhu	t1,0(a1)
    8088:	00258793          	addi	a5,a1,2
    808c:	006688b3          	add	a7,a3,t1
    8090:	01159023          	sh	a7,0(a1)
    8094:	f6dff06f          	jal	zero,8000 <matrix_add_const+0x160>

00008098 <matrix_mul_vect>:
    8098:	24a05663          	bge	zero,a0,82e4 <matrix_mul_vect+0x24c>
    809c:	882e                	c.mv	a6,a1
    809e:	00151f13          	slli	t5,a0,0x1
    80a2:	8e32                	c.mv	t3,a2
    80a4:	0ca58edb          	lea.w	t4,a1,a0
    80a8:	0aa688db          	lea.h	a7,a3,a0
    80ac:	40d88633          	sub	a2,a7,a3
    80b0:	ffe60293          	addi	t0,a2,-2
    80b4:	0012d313          	srli	t1,t0,0x1
    80b8:	00130393          	addi	t2,t1,1
    80bc:	0073f593          	andi	a1,t2,7
    80c0:	87b6                	c.mv	a5,a3
    80c2:	8772                	c.mv	a4,t3
    80c4:	4501                	c.li	a0,0
    80c6:	c5cd                	c.beqz	a1,8170 <matrix_mul_vect+0xd8>
    80c8:	0815d85b          	beqc	a1,1,8158 <matrix_mul_vect+0xc0>
    80cc:	0625dc5b          	beqc	a1,2,8144 <matrix_mul_vect+0xac>
    80d0:	0635d05b          	beqc	a1,3,8130 <matrix_mul_vect+0x98>
    80d4:	0445d45b          	beqc	a1,4,811c <matrix_mul_vect+0x84>
    80d8:	0255d85b          	beqc	a1,5,8108 <matrix_mul_vect+0x70>
    80dc:	0065dc5b          	beqc	a1,6,80f4 <matrix_mul_vect+0x5c>
    80e0:	000e1503          	lh	a0,0(t3)
    80e4:	00069f83          	lh	t6,0(a3)
    80e8:	002e0713          	addi	a4,t3,2
    80ec:	00268793          	addi	a5,a3,2
    80f0:	03f50533          	mul	a0,a0,t6
    80f4:	00071603          	lh	a2,0(a4)
    80f8:	00079283          	lh	t0,0(a5)
    80fc:	0709                	c.addi	a4,2
    80fe:	0789                	c.addi	a5,2
    8100:	02560333          	mul	t1,a2,t0
    8104:	00650533          	add	a0,a0,t1
    8108:	00071383          	lh	t2,0(a4)
    810c:	00079583          	lh	a1,0(a5)
    8110:	0709                	c.addi	a4,2
    8112:	0789                	c.addi	a5,2
    8114:	02b38fb3          	mul	t6,t2,a1
    8118:	01f50533          	add	a0,a0,t6
    811c:	00071603          	lh	a2,0(a4)
    8120:	00079283          	lh	t0,0(a5)
    8124:	0709                	c.addi	a4,2
    8126:	0789                	c.addi	a5,2
    8128:	02560333          	mul	t1,a2,t0
    812c:	00650533          	add	a0,a0,t1
    8130:	00071383          	lh	t2,0(a4)
    8134:	00079583          	lh	a1,0(a5)
    8138:	0709                	c.addi	a4,2
    813a:	0789                	c.addi	a5,2
    813c:	02b38fb3          	mul	t6,t2,a1
    8140:	01f50533          	add	a0,a0,t6
    8144:	00071603          	lh	a2,0(a4)
    8148:	00079283          	lh	t0,0(a5)
    814c:	0709                	c.addi	a4,2
    814e:	0789                	c.addi	a5,2
    8150:	02560333          	mul	t1,a2,t0
    8154:	00650533          	add	a0,a0,t1
    8158:	00071383          	lh	t2,0(a4)
    815c:	00079583          	lh	a1,0(a5)
    8160:	0789                	c.addi	a5,2
    8162:	0709                	c.addi	a4,2
    8164:	02b38fb3          	mul	t6,t2,a1
    8168:	01f50533          	add	a0,a0,t6
    816c:	16f88463          	beq	a7,a5,82d4 <matrix_mul_vect+0x23c>
    8170:	1141                	c.addi	sp,-16
    8172:	c622                	c.swsp	s0,12(sp)
    8174:	c426                	c.swsp	s1,8(sp)
    8176:	c24a                	c.swsp	s2,4(sp)
    8178:	01312023          	sw	s3,0(sp)
    817c:	00071483          	lh	s1,0(a4)
    8180:	00079903          	lh	s2,0(a5)
    8184:	00279983          	lh	s3,2(a5)
    8188:	00271403          	lh	s0,2(a4)
    818c:	00479f83          	lh	t6,4(a5)
    8190:	00471603          	lh	a2,4(a4)
    8194:	032485b3          	mul	a1,s1,s2
    8198:	00679303          	lh	t1,6(a5)
    819c:	00671383          	lh	t2,6(a4)
    81a0:	03340433          	mul	s0,s0,s3
    81a4:	00871283          	lh	t0,8(a4)
    81a8:	00879983          	lh	s3,8(a5)
    81ac:	00a79903          	lh	s2,10(a5)
    81b0:	03f60633          	mul	a2,a2,t6
    81b4:	00a71f83          	lh	t6,10(a4)
    81b8:	026383b3          	mul	t2,t2,t1
    81bc:	00c79483          	lh	s1,12(a5)
    81c0:	00c71303          	lh	t1,12(a4)
    81c4:	952e                	c.add	a0,a1
    81c6:	008505b3          	add	a1,a0,s0
    81ca:	033282b3          	mul	t0,t0,s3
    81ce:	00e79403          	lh	s0,14(a5)
    81d2:	00e71983          	lh	s3,14(a4)
    81d6:	032f8fb3          	mul	t6,t6,s2
    81da:	962e                	c.add	a2,a1
    81dc:	02930533          	mul	a0,t1,s1
    81e0:	00760933          	add	s2,a2,t2
    81e4:	02898333          	mul	t1,s3,s0
    81e8:	005903b3          	add	t2,s2,t0
    81ec:	01f384b3          	add	s1,t2,t6
    81f0:	00a485b3          	add	a1,s1,a0
    81f4:	07c1                	c.addi	a5,16
    81f6:	00658533          	add	a0,a1,t1
    81fa:	0741                	c.addi	a4,16
    81fc:	f8f890e3          	bne	a7,a5,817c <matrix_mul_vect+0xe4>
    8200:	00a82023          	sw	a0,0(a6)
    8204:	0811                	c.addi	a6,4
    8206:	9e7a                	c.add	t3,t5
    8208:	0d0e8063          	beq	t4,a6,82c8 <matrix_mul_vect+0x230>
    820c:	40d88733          	sub	a4,a7,a3
    8210:	ffe70793          	addi	a5,a4,-2
    8214:	0017d293          	srli	t0,a5,0x1
    8218:	00128993          	addi	s3,t0,1
    821c:	0079f413          	andi	s0,s3,7
    8220:	87b6                	c.mv	a5,a3
    8222:	8772                	c.mv	a4,t3
    8224:	4501                	c.li	a0,0
    8226:	d839                	c.beqz	s0,817c <matrix_mul_vect+0xe4>
    8228:	06145e5b          	beqc	s0,1,82a4 <matrix_mul_vect+0x20c>
    822c:	0624525b          	beqc	s0,2,8290 <matrix_mul_vect+0x1f8>
    8230:	0434565b          	beqc	s0,3,827c <matrix_mul_vect+0x1e4>
    8234:	02445a5b          	beqc	s0,4,8268 <matrix_mul_vect+0x1d0>
    8238:	00545e5b          	beqc	s0,5,8254 <matrix_mul_vect+0x1bc>
    823c:	0a64665b          	bnec	s0,6,82e8 <matrix_mul_vect+0x250>
    8240:	00071903          	lh	s2,0(a4)
    8244:	00079383          	lh	t2,0(a5)
    8248:	0709                	c.addi	a4,2
    824a:	0789                	c.addi	a5,2
    824c:	02790333          	mul	t1,s2,t2
    8250:	00650533          	add	a0,a0,t1
    8254:	00071483          	lh	s1,0(a4)
    8258:	00079583          	lh	a1,0(a5)
    825c:	0709                	c.addi	a4,2
    825e:	0789                	c.addi	a5,2
    8260:	02b482b3          	mul	t0,s1,a1
    8264:	00550533          	add	a0,a0,t0
    8268:	00071983          	lh	s3,0(a4)
    826c:	00079403          	lh	s0,0(a5)
    8270:	0709                	c.addi	a4,2
    8272:	0789                	c.addi	a5,2
    8274:	02898fb3          	mul	t6,s3,s0
    8278:	01f50533          	add	a0,a0,t6
    827c:	00071603          	lh	a2,0(a4)
    8280:	00079903          	lh	s2,0(a5)
    8284:	0709                	c.addi	a4,2
    8286:	0789                	c.addi	a5,2
    8288:	032603b3          	mul	t2,a2,s2
    828c:	00750533          	add	a0,a0,t2
    8290:	00071303          	lh	t1,0(a4)
    8294:	00079483          	lh	s1,0(a5)
    8298:	0709                	c.addi	a4,2
    829a:	0789                	c.addi	a5,2
    829c:	029305b3          	mul	a1,t1,s1
    82a0:	00b50533          	add	a0,a0,a1
    82a4:	00071283          	lh	t0,0(a4)
    82a8:	00079983          	lh	s3,0(a5)
    82ac:	0789                	c.addi	a5,2
    82ae:	0709                	c.addi	a4,2
    82b0:	03328433          	mul	s0,t0,s3
    82b4:	9522                	c.add	a0,s0
    82b6:	ecf893e3          	bne	a7,a5,817c <matrix_mul_vect+0xe4>
    82ba:	00a82023          	sw	a0,0(a6)
    82be:	0811                	c.addi	a6,4
    82c0:	01ee0e33          	add	t3,t3,t5
    82c4:	f50e94e3          	bne	t4,a6,820c <matrix_mul_vect+0x174>
    82c8:	4432                	c.lwsp	s0,12(sp)
    82ca:	44a2                	c.lwsp	s1,8(sp)
    82cc:	4912                	c.lwsp	s2,4(sp)
    82ce:	4982                	c.lwsp	s3,0(sp)
    82d0:	0141                	c.addi	sp,16
    82d2:	8082                	c.jr	ra
    82d4:	00a82023          	sw	a0,0(a6)
    82d8:	0811                	c.addi	a6,4
    82da:	9e7a                	c.add	t3,t5
    82dc:	dd0e98e3          	bne	t4,a6,80ac <matrix_mul_vect+0x14>
    82e0:	00008067          	jalr	zero,0(ra)
    82e4:	00008067          	jalr	zero,0(ra)
    82e8:	000e1f83          	lh	t6,0(t3)
    82ec:	00069603          	lh	a2,0(a3)
    82f0:	002e0713          	addi	a4,t3,2
    82f4:	00268793          	addi	a5,a3,2
    82f8:	02cf8533          	mul	a0,t6,a2
    82fc:	f45ff06f          	jal	zero,8240 <matrix_mul_vect+0x1a8>

00008300 <matrix_mul_matrix>:
    8300:	1ca05863          	bge	zero,a0,84d0 <matrix_mul_matrix+0x1d0>
    8304:	7179                	c.addi16sp	sp,-48
    8306:	8eae                	c.mv	t4,a1
    8308:	8faa                	c.mv	t6,a0
    830a:	82b6                	c.mv	t0,a3
    830c:	8332                	c.mv	t1,a2
    830e:	00151593          	slli	a1,a0,0x1
    8312:	0aa6085b          	lea.h	a6,a2,a0
    8316:	00251393          	slli	t2,a0,0x2
    831a:	0aa68e5b          	lea.h	t3,a3,a0
    831e:	4f01                	c.li	t5,0
    8320:	d622                	c.swsp	s0,44(sp)
    8322:	d426                	c.swsp	s1,40(sp)
    8324:	d24a                	c.swsp	s2,36(sp)
    8326:	d04e                	c.swsp	s3,32(sp)
    8328:	ce52                	c.swsp	s4,28(sp)
    832a:	cc56                	c.swsp	s5,24(sp)
    832c:	ca5a                	c.swsp	s6,20(sp)
    832e:	c85e                	c.swsp	s7,16(sp)
    8330:	01812623          	sw	s8,12(sp)
    8334:	8516                	c.mv	a0,t0
    8336:	88f6                	c.mv	a7,t4
    8338:	406806b3          	sub	a3,a6,t1
    833c:	ffe68413          	addi	s0,a3,-2
    8340:	00145493          	srli	s1,s0,0x1
    8344:	00148613          	addi	a2,s1,1
    8348:	00767913          	andi	s2,a2,7
    834c:	87aa                	c.mv	a5,a0
    834e:	871a                	c.mv	a4,t1
    8350:	00000413          	addi	s0,zero,0
    8354:	0a090663          	beq	s2,zero,8400 <matrix_mul_matrix+0x100>
    8358:	0819585b          	beqc	s2,1,83e8 <matrix_mul_matrix+0xe8>
    835c:	06295c5b          	beqc	s2,2,83d4 <matrix_mul_matrix+0xd4>
    8360:	0639505b          	beqc	s2,3,83c0 <matrix_mul_matrix+0xc0>
    8364:	0449545b          	beqc	s2,4,83ac <matrix_mul_matrix+0xac>
    8368:	0259585b          	beqc	s2,5,8398 <matrix_mul_matrix+0x98>
    836c:	00695c5b          	beqc	s2,6,8384 <matrix_mul_matrix+0x84>
    8370:	00031983          	lh	s3,0(t1)
    8374:	00051a03          	lh	s4,0(a0)
    8378:	00230713          	addi	a4,t1,2
    837c:	00b507b3          	add	a5,a0,a1
    8380:	03498433          	mul	s0,s3,s4
    8384:	00071a83          	lh	s5,0(a4)
    8388:	00079b03          	lh	s6,0(a5)
    838c:	0709                	c.addi	a4,2
    838e:	97ae                	c.add	a5,a1
    8390:	036a8bb3          	mul	s7,s5,s6
    8394:	01740433          	add	s0,s0,s7
    8398:	00071c03          	lh	s8,0(a4)
    839c:	00079683          	lh	a3,0(a5)
    83a0:	0709                	c.addi	a4,2
    83a2:	97ae                	c.add	a5,a1
    83a4:	02dc04b3          	mul	s1,s8,a3
    83a8:	00940433          	add	s0,s0,s1
    83ac:	00071903          	lh	s2,0(a4)
    83b0:	00079603          	lh	a2,0(a5)
    83b4:	0709                	c.addi	a4,2
    83b6:	97ae                	c.add	a5,a1
    83b8:	02c909b3          	mul	s3,s2,a2
    83bc:	01340433          	add	s0,s0,s3
    83c0:	00071a03          	lh	s4,0(a4)
    83c4:	00079a83          	lh	s5,0(a5)
    83c8:	0709                	c.addi	a4,2
    83ca:	97ae                	c.add	a5,a1
    83cc:	035a0b33          	mul	s6,s4,s5
    83d0:	01640433          	add	s0,s0,s6
    83d4:	00071b83          	lh	s7,0(a4)
    83d8:	00079c03          	lh	s8,0(a5)
    83dc:	0709                	c.addi	a4,2
    83de:	97ae                	c.add	a5,a1
    83e0:	038b86b3          	mul	a3,s7,s8
    83e4:	00d40433          	add	s0,s0,a3
    83e8:	00071483          	lh	s1,0(a4)
    83ec:	00079903          	lh	s2,0(a5)
    83f0:	0709                	c.addi	a4,2
    83f2:	97ae                	c.add	a5,a1
    83f4:	03248633          	mul	a2,s1,s2
    83f8:	00c40433          	add	s0,s0,a2
    83fc:	0ae80263          	beq	a6,a4,84a0 <matrix_mul_matrix+0x1a0>
    8400:	00b78bb3          	add	s7,a5,a1
    8404:	00071a83          	lh	s5,0(a4)
    8408:	00079b03          	lh	s6,0(a5)
    840c:	00bb8c33          	add	s8,s7,a1
    8410:	000b9983          	lh	s3,0(s7)
    8414:	00271a03          	lh	s4,2(a4)
    8418:	00bc07b3          	add	a5,s8,a1
    841c:	000c1903          	lh	s2,0(s8)
    8420:	00471683          	lh	a3,4(a4)
    8424:	036a8633          	mul	a2,s5,s6
    8428:	00671b83          	lh	s7,6(a4)
    842c:	00b78ab3          	add	s5,a5,a1
    8430:	00079483          	lh	s1,0(a5)
    8434:	033a0a33          	mul	s4,s4,s3
    8438:	000a9b03          	lh	s6,0(s5)
    843c:	00ba8c33          	add	s8,s5,a1
    8440:	00871983          	lh	s3,8(a4)
    8444:	000c1a83          	lh	s5,0(s8)
    8448:	00bc07b3          	add	a5,s8,a1
    844c:	032686b3          	mul	a3,a3,s2
    8450:	00a71903          	lh	s2,10(a4)
    8454:	029b8c33          	mul	s8,s7,s1
    8458:	9432                	c.add	s0,a2
    845a:	00c71483          	lh	s1,12(a4)
    845e:	00079b83          	lh	s7,0(a5)
    8462:	97ae                	c.add	a5,a1
    8464:	01440633          	add	a2,s0,s4
    8468:	036989b3          	mul	s3,s3,s6
    846c:	00079a03          	lh	s4,0(a5)
    8470:	00e71b03          	lh	s6,14(a4)
    8474:	03590933          	mul	s2,s2,s5
    8478:	96b2                	c.add	a3,a2
    847a:	03748433          	mul	s0,s1,s7
    847e:	01868ab3          	add	s5,a3,s8
    8482:	034b04b3          	mul	s1,s6,s4
    8486:	013a8c33          	add	s8,s5,s3
    848a:	012c0bb3          	add	s7,s8,s2
    848e:	008b8633          	add	a2,s7,s0
    8492:	0741                	c.addi	a4,16
    8494:	00960433          	add	s0,a2,s1
    8498:	00b787b3          	add	a5,a5,a1
    849c:	f6e812e3          	bne	a6,a4,8400 <matrix_mul_matrix+0x100>
    84a0:	0088a023          	sw	s0,0(a7)
    84a4:	0509                	c.addi	a0,2
    84a6:	0891                	c.addi	a7,4
    84a8:	e8ae18e3          	bne	t3,a0,8338 <matrix_mul_matrix+0x38>
    84ac:	0f05                	c.addi	t5,1
    84ae:	932e                	c.add	t1,a1
    84b0:	982e                	c.add	a6,a1
    84b2:	9e9e                	c.add	t4,t2
    84b4:	e9ef90e3          	bne	t6,t5,8334 <matrix_mul_matrix+0x34>
    84b8:	5432                	c.lwsp	s0,44(sp)
    84ba:	54a2                	c.lwsp	s1,40(sp)
    84bc:	5912                	c.lwsp	s2,36(sp)
    84be:	5982                	c.lwsp	s3,32(sp)
    84c0:	4a72                	c.lwsp	s4,28(sp)
    84c2:	4ae2                	c.lwsp	s5,24(sp)
    84c4:	4b52                	c.lwsp	s6,20(sp)
    84c6:	4bc2                	c.lwsp	s7,16(sp)
    84c8:	4c32                	c.lwsp	s8,12(sp)
    84ca:	6145                	c.addi16sp	sp,48
    84cc:	00008067          	jalr	zero,0(ra)
    84d0:	00008067          	jalr	zero,0(ra)

000084d4 <matrix_mul_matrix_bitextract>:
    84d4:	28a05463          	bge	zero,a0,875c <matrix_mul_matrix_bitextract+0x288>
    84d8:	7179                	c.addi16sp	sp,-48
    84da:	82aa                	c.mv	t0,a0
    84dc:	d622                	c.swsp	s0,44(sp)
    84de:	83b6                	c.mv	t2,a3
    84e0:	8e32                	c.mv	t3,a2
    84e2:	0506                	c.slli	a0,0x1
    84e4:	0a5608db          	lea.h	a7,a2,t0
    84e8:	00229413          	slli	s0,t0,0x2
    84ec:	8f2e                	c.mv	t5,a1
    84ee:	0a568edb          	lea.h	t4,a3,t0
    84f2:	4f81                	c.li	t6,0
    84f4:	d426                	c.swsp	s1,40(sp)
    84f6:	d24a                	c.swsp	s2,36(sp)
    84f8:	d04e                	c.swsp	s3,32(sp)
    84fa:	ce52                	c.swsp	s4,28(sp)
    84fc:	cc56                	c.swsp	s5,24(sp)
    84fe:	ca5a                	c.swsp	s6,20(sp)
    8500:	c85e                	c.swsp	s7,16(sp)
    8502:	c662                	c.swsp	s8,12(sp)
    8504:	c466                	c.swsp	s9,8(sp)
    8506:	c26a                	c.swsp	s10,4(sp)
    8508:	881e                	c.mv	a6,t2
    850a:	837a                	c.mv	t1,t5
    850c:	41c885b3          	sub	a1,a7,t3
    8510:	ffe58493          	addi	s1,a1,-2
    8514:	0014d613          	srli	a2,s1,0x1
    8518:	00160693          	addi	a3,a2,1
    851c:	0076f713          	andi	a4,a3,7
    8520:	87c2                	c.mv	a5,a6
    8522:	8672                	c.mv	a2,t3
    8524:	00000913          	addi	s2,zero,0
    8528:	10070063          	beq	a4,zero,8628 <matrix_mul_matrix_bitextract+0x154>
    852c:	0c175c5b          	beqc	a4,1,8604 <matrix_mul_matrix_bitextract+0x130>
    8530:	0a275a5b          	beqc	a4,2,85e4 <matrix_mul_matrix_bitextract+0x110>
    8534:	0837585b          	beqc	a4,3,85c4 <matrix_mul_matrix_bitextract+0xf0>
    8538:	0647565b          	beqc	a4,4,85a4 <matrix_mul_matrix_bitextract+0xd0>
    853c:	0457545b          	beqc	a4,5,8584 <matrix_mul_matrix_bitextract+0xb0>
    8540:	0267525b          	beqc	a4,6,8564 <matrix_mul_matrix_bitextract+0x90>
    8544:	000e1903          	lh	s2,0(t3)
    8548:	00081983          	lh	s3,0(a6)
    854c:	002e0613          	addi	a2,t3,2
    8550:	00a807b3          	add	a5,a6,a0
    8554:	03390a33          	mul	s4,s2,s3
    8558:	142a2adb          	bfoz	s5,s4,5,2
    855c:	2c5a2b5b          	bfoz	s6,s4,11,5
    8560:	036a8933          	mul	s2,s5,s6
    8564:	00061b83          	lh	s7,0(a2)
    8568:	00079c03          	lh	s8,0(a5)
    856c:	0609                	c.addi	a2,2
    856e:	97aa                	c.add	a5,a0
    8570:	038b8cb3          	mul	s9,s7,s8
    8574:	142cad5b          	bfoz	s10,s9,5,2
    8578:	2c5ca5db          	bfoz	a1,s9,11,5
    857c:	02bd04b3          	mul	s1,s10,a1
    8580:	00990933          	add	s2,s2,s1
    8584:	00061703          	lh	a4,0(a2)
    8588:	00079683          	lh	a3,0(a5)
    858c:	0609                	c.addi	a2,2
    858e:	97aa                	c.add	a5,a0
    8590:	02d709b3          	mul	s3,a4,a3
    8594:	1429aa5b          	bfoz	s4,s3,5,2
    8598:	2c59aadb          	bfoz	s5,s3,11,5
    859c:	035a0b33          	mul	s6,s4,s5
    85a0:	01690933          	add	s2,s2,s6
    85a4:	00061b83          	lh	s7,0(a2)
    85a8:	00079c03          	lh	s8,0(a5)
    85ac:	0609                	c.addi	a2,2
    85ae:	97aa                	c.add	a5,a0
    85b0:	038b8cb3          	mul	s9,s7,s8
    85b4:	142cad5b          	bfoz	s10,s9,5,2
    85b8:	2c5ca5db          	bfoz	a1,s9,11,5
    85bc:	02bd04b3          	mul	s1,s10,a1
    85c0:	00990933          	add	s2,s2,s1
    85c4:	00061703          	lh	a4,0(a2)
    85c8:	00079683          	lh	a3,0(a5)
    85cc:	0609                	c.addi	a2,2
    85ce:	97aa                	c.add	a5,a0
    85d0:	02d709b3          	mul	s3,a4,a3
    85d4:	1429aa5b          	bfoz	s4,s3,5,2
    85d8:	2c59aadb          	bfoz	s5,s3,11,5
    85dc:	035a0b33          	mul	s6,s4,s5
    85e0:	01690933          	add	s2,s2,s6
    85e4:	00061b83          	lh	s7,0(a2)
    85e8:	00079c03          	lh	s8,0(a5)
    85ec:	0609                	c.addi	a2,2
    85ee:	97aa                	c.add	a5,a0
    85f0:	038b8cb3          	mul	s9,s7,s8
    85f4:	142cad5b          	bfoz	s10,s9,5,2
    85f8:	2c5ca5db          	bfoz	a1,s9,11,5
    85fc:	02bd04b3          	mul	s1,s10,a1
    8600:	00990933          	add	s2,s2,s1
    8604:	00061683          	lh	a3,0(a2)
    8608:	00079703          	lh	a4,0(a5)
    860c:	0609                	c.addi	a2,2
    860e:	97aa                	c.add	a5,a0
    8610:	02e689b3          	mul	s3,a3,a4
    8614:	1429aa5b          	bfoz	s4,s3,5,2
    8618:	2c59aadb          	bfoz	s5,s3,11,5
    861c:	035a0b33          	mul	s6,s4,s5
    8620:	01690933          	add	s2,s2,s6
    8624:	10c88263          	beq	a7,a2,8728 <matrix_mul_matrix_bitextract+0x254>
    8628:	00a78cb3          	add	s9,a5,a0
    862c:	00079c03          	lh	s8,0(a5)
    8630:	00061b83          	lh	s7,0(a2)
    8634:	00ac84b3          	add	s1,s9,a0
    8638:	00261d03          	lh	s10,2(a2)
    863c:	000c9683          	lh	a3,0(s9)
    8640:	00a487b3          	add	a5,s1,a0
    8644:	038b8bb3          	mul	s7,s7,s8
    8648:	00049583          	lh	a1,0(s1)
    864c:	00a78c33          	add	s8,a5,a0
    8650:	00461a83          	lh	s5,4(a2)
    8654:	02dd0b33          	mul	s6,s10,a3
    8658:	00661703          	lh	a4,6(a2)
    865c:	000c1983          	lh	s3,0(s8)
    8660:	00079a03          	lh	s4,0(a5)
    8664:	00861d03          	lh	s10,8(a2)
    8668:	00ac06b3          	add	a3,s8,a0
    866c:	02ba8ab3          	mul	s5,s5,a1
    8670:	00a687b3          	add	a5,a3,a0
    8674:	00069583          	lh	a1,0(a3)
    8678:	2c5ba4db          	bfoz	s1,s7,11,5
    867c:	142ba6db          	bfoz	a3,s7,5,2
    8680:	033d0d33          	mul	s10,s10,s3
    8684:	03470a33          	mul	s4,a4,s4
    8688:	00c61c03          	lh	s8,12(a2)
    868c:	00079b83          	lh	s7,0(a5)
    8690:	029686b3          	mul	a3,a3,s1
    8694:	142b275b          	bfoz	a4,s6,5,2
    8698:	2c5b2b5b          	bfoz	s6,s6,11,5
    869c:	03670b33          	mul	s6,a4,s6
    86a0:	00a61c83          	lh	s9,10(a2)
    86a4:	037c04b3          	mul	s1,s8,s7
    86a8:	142aa9db          	bfoz	s3,s5,5,2
    86ac:	9936                	c.add	s2,a3
    86ae:	142d2bdb          	bfoz	s7,s10,5,2
    86b2:	2c5d275b          	bfoz	a4,s10,11,5
    86b6:	97aa                	c.add	a5,a0
    86b8:	2c5aaadb          	bfoz	s5,s5,11,5
    86bc:	02bc8cb3          	mul	s9,s9,a1
    86c0:	02eb8d33          	mul	s10,s7,a4
    86c4:	016906b3          	add	a3,s2,s6
    86c8:	03598ab3          	mul	s5,s3,s5
    86cc:	00079903          	lh	s2,0(a5)
    86d0:	00e61b83          	lh	s7,14(a2)
    86d4:	142a25db          	bfoz	a1,s4,5,2
    86d8:	2c5a2a5b          	bfoz	s4,s4,11,5
    86dc:	03458c33          	mul	s8,a1,s4
    86e0:	142cab5b          	bfoz	s6,s9,5,2
    86e4:	2c5ca9db          	bfoz	s3,s9,11,5
    86e8:	01568cb3          	add	s9,a3,s5
    86ec:	032b86b3          	mul	a3,s7,s2
    86f0:	033b0ab3          	mul	s5,s6,s3
    86f4:	018c85b3          	add	a1,s9,s8
    86f8:	1424a75b          	bfoz	a4,s1,5,2
    86fc:	2c54a4db          	bfoz	s1,s1,11,5
    8700:	01a58a33          	add	s4,a1,s10
    8704:	1426ab5b          	bfoz	s6,a3,5,2
    8708:	02970d33          	mul	s10,a4,s1
    870c:	2c56a9db          	bfoz	s3,a3,11,5
    8710:	033b0cb3          	mul	s9,s6,s3
    8714:	015a0c33          	add	s8,s4,s5
    8718:	01ac0ab3          	add	s5,s8,s10
    871c:	0641                	c.addi	a2,16
    871e:	97aa                	c.add	a5,a0
    8720:	019a8933          	add	s2,s5,s9
    8724:	f0c892e3          	bne	a7,a2,8628 <matrix_mul_matrix_bitextract+0x154>
    8728:	01232023          	sw	s2,0(t1)
    872c:	0809                	c.addi	a6,2
    872e:	0311                	c.addi	t1,4
    8730:	dd0e9ee3          	bne	t4,a6,850c <matrix_mul_matrix_bitextract+0x38>
    8734:	0f85                	c.addi	t6,1
    8736:	9e2a                	c.add	t3,a0
    8738:	98aa                	c.add	a7,a0
    873a:	9f22                	c.add	t5,s0
    873c:	ddf296e3          	bne	t0,t6,8508 <matrix_mul_matrix_bitextract+0x34>
    8740:	5432                	c.lwsp	s0,44(sp)
    8742:	54a2                	c.lwsp	s1,40(sp)
    8744:	5912                	c.lwsp	s2,36(sp)
    8746:	5982                	c.lwsp	s3,32(sp)
    8748:	4a72                	c.lwsp	s4,28(sp)
    874a:	4ae2                	c.lwsp	s5,24(sp)
    874c:	4b52                	c.lwsp	s6,20(sp)
    874e:	4bc2                	c.lwsp	s7,16(sp)
    8750:	4c32                	c.lwsp	s8,12(sp)
    8752:	4ca2                	c.lwsp	s9,8(sp)
    8754:	4d12                	c.lwsp	s10,4(sp)
    8756:	6145                	c.addi16sp	sp,48
    8758:	00008067          	jalr	zero,0(ra)
    875c:	8082                	c.jr	ra
	...

00008760 <core_bench_state>:
    8760:	711d                	c.addi16sp	sp,-96
    8762:	cca2                	c.swsp	s0,88(sp)
    8764:	ce86                	c.swsp	ra,92(sp)
    8766:	caa6                	c.swsp	s1,84(sp)
    8768:	c8ca                	c.swsp	s2,80(sp)
    876a:	c6ce                	c.swsp	s3,76(sp)
    876c:	1000                	c.addi4spn	s0,sp,32
    876e:	d002                	c.swsp	zero,32(sp)
    8770:	0005ce83          	lbu	t4,0(a1)
    8774:	00042223          	sw	zero,4(s0) # 10004 <__data_lmastart+0x5004>
    8778:	00042423          	sw	zero,8(s0)
    877c:	00042623          	sw	zero,12(s0)
    8780:	00042823          	sw	zero,16(s0)
    8784:	00042a23          	sw	zero,20(s0)
    8788:	00042c23          	sw	zero,24(s0)
    878c:	00042e23          	sw	zero,28(s0)
    8790:	c002                	c.swsp	zero,0(sp)
    8792:	c202                	c.swsp	zero,4(sp)
    8794:	c402                	c.swsp	zero,8(sp)
    8796:	c602                	c.swsp	zero,12(sp)
    8798:	c802                	c.swsp	zero,16(sp)
    879a:	ca02                	c.swsp	zero,20(sp)
    879c:	cc02                	c.swsp	zero,24(sp)
    879e:	ce02                	c.swsp	zero,28(sp)
    87a0:	8f2e                	c.mv	t5,a1
    87a2:	85be                	c.mv	a1,a5
    87a4:	0a0e8a63          	beq	t4,zero,8858 <core_bench_state+0xf8>
    87a8:	00cee4db          	bnec	t4,44,87b0 <core_bench_state+0x50>
    87ac:	4f00006f          	jal	zero,8c9c <core_bench_state+0x53c>
    87b0:	8876                	c.mv	a6,t4
    87b2:	8e7a                	c.mv	t3,t5
    87b4:	4081                	c.li	ra,0
    87b6:	4901                	c.li	s2,0
    87b8:	4281                	c.li	t0,0
    87ba:	4f81                	c.li	t6,0
    87bc:	4381                	c.li	t2,0
    87be:	4981                	c.li	s3,0
    87c0:	00000493          	addi	s1,zero,0
    87c4:	fd080893          	addi	a7,a6,-48
    87c8:	0ff8f313          	andi	t1,a7,255
    87cc:	47a5                	c.li	a5,9
    87ce:	0a67ef63          	bltu	a5,t1,888c <core_bench_state+0x12c>
    87d2:	001e4803          	lbu	a6,1(t3)
    87d6:	0085                	c.addi	ra,1
    87d8:	001e0893          	addi	a7,t3,1
    87dc:	00400313          	addi	t1,zero,4
    87e0:	0a080463          	beq	a6,zero,8888 <core_bench_state+0x128>
    87e4:	04c852db          	beqc	a6,44,8828 <core_bench_state+0xc8>
    87e8:	0ce852db          	beqc	a6,46,88ac <core_bench_state+0x14c>
    87ec:	fd080813          	addi	a6,a6,-48
    87f0:	0ff87e13          	andi	t3,a6,255
    87f4:	19c7fc63          	bgeu	a5,t3,898c <core_bench_state+0x22c>
    87f8:	0018c803          	lbu	a6,1(a7)
    87fc:	4305                	c.li	t1,1
    87fe:	0905                	c.addi	s2,1
    8800:	00188e13          	addi	t3,a7,1
    8804:	04010793          	addi	a5,sp,64
    8808:	0c67835b          	lea.w	t1,a5,t1
    880c:	fc032883          	lw	a7,-64(t1)
    8810:	00188793          	addi	a5,a7,1
    8814:	fcf32023          	sw	a5,-64(t1)
    8818:	02080863          	beq	a6,zero,8848 <core_bench_state+0xe8>
    881c:	00000313          	addi	t1,zero,0
    8820:	bac862db          	bnec	a6,44,87c4 <core_bench_state+0x64>
    8824:	000e0893          	addi	a7,t3,0
    8828:	0018c803          	lbu	a6,1(a7)
    882c:	00188e13          	addi	t3,a7,1
    8830:	04010793          	addi	a5,sp,64
    8834:	0c67835b          	lea.w	t1,a5,t1
    8838:	fc032883          	lw	a7,-64(t1)
    883c:	00188793          	addi	a5,a7,1
    8840:	fcf32023          	sw	a5,-64(t1)
    8844:	fc081ce3          	bne	a6,zero,881c <core_bench_state+0xbc>
    8848:	d24e                	c.swsp	s3,36(sp)
    884a:	d006                	c.swsp	ra,32(sp)
    884c:	d41e                	c.swsp	t2,40(sp)
    884e:	d84a                	c.swsp	s2,48(sp)
    8850:	da26                	c.swsp	s1,52(sp)
    8852:	d67e                	c.swsp	t6,44(sp)
    8854:	02512c23          	sw	t0,56(sp)
    8858:	957a                	c.add	a0,t5
    885a:	3caf7f63          	bgeu	t5,a0,8c38 <core_bench_state+0x4d8>
    885e:	887a                	c.mv	a6,t5
    8860:	00ced6db          	beqc	t4,44,886c <core_bench_state+0x10c>
    8864:	00ceceb3          	xor	t4,t4,a2
    8868:	01d80023          	sb	t4,0(a6)
    886c:	983a                	c.add	a6,a4
    886e:	18a87b63          	bgeu	a6,a0,8a04 <core_bench_state+0x2a4>
    8872:	00084e83          	lbu	t4,0(a6)
    8876:	b7ed                	c.j	8860 <core_bench_state+0x100>
    8878:	0018c803          	lbu	a6,1(a7)
    887c:	0385                	c.addi	t2,1
    887e:	0885                	c.addi	a7,1
    8880:	00400313          	addi	t1,zero,4
    8884:	f60810e3          	bne	a6,zero,87e4 <core_bench_state+0x84>
    8888:	8e46                	c.mv	t3,a7
    888a:	bfad                	c.j	8804 <core_bench_state+0xa4>
    888c:	10b85cdb          	beqc	a6,43,89a4 <core_bench_state+0x244>
    8890:	10d85adb          	beqc	a6,45,89a4 <core_bench_state+0x244>
    8894:	00e864db          	bnec	a6,46,889c <core_bench_state+0x13c>
    8898:	3f00006f          	jal	zero,8c88 <core_bench_state+0x528>
    889c:	001e4803          	lbu	a6,1(t3)
    88a0:	4305                	c.li	t1,1
    88a2:	0985                	c.addi	s3,1
    88a4:	0085                	c.addi	ra,1
    88a6:	0e05                	c.addi	t3,1
    88a8:	f5dff06f          	jal	zero,8804 <core_bench_state+0xa4>
    88ac:	0018c803          	lbu	a6,1(a7)
    88b0:	0905                	c.addi	s2,1
    88b2:	0885                	c.addi	a7,1
    88b4:	00500313          	addi	t1,zero,5
    88b8:	fc0808e3          	beq	a6,zero,8888 <core_bench_state+0x128>
    88bc:	b6c856db          	beqc	a6,44,8828 <core_bench_state+0xc8>
    88c0:	fd080313          	addi	t1,a6,-48
    88c4:	0df87813          	andi	a6,a6,223
    88c8:	40585e5b          	beqc	a6,69,88e4 <core_bench_state+0x184>
    88cc:	0ff37e13          	andi	t3,t1,255
    88d0:	11c7f463          	bgeu	a5,t3,89d8 <core_bench_state+0x278>
    88d4:	0018c803          	lbu	a6,1(a7)
    88d8:	4305                	c.li	t1,1
    88da:	0485                	c.addi	s1,1
    88dc:	00188e13          	addi	t3,a7,1
    88e0:	f51ff06f          	jal	zero,8830 <core_bench_state+0xd0>
    88e4:	0018c803          	lbu	a6,1(a7)
    88e8:	0485                	c.addi	s1,1
    88ea:	00188e13          	addi	t3,a7,1
    88ee:	430d                	c.li	t1,3
    88f0:	f0080ae3          	beq	a6,zero,8804 <core_bench_state+0xa4>
    88f4:	b2c858db          	beqc	a6,44,8824 <core_bench_state+0xc4>
    88f8:	fd580313          	addi	t1,a6,-43
    88fc:	0fd37813          	andi	a6,t1,253
    8900:	00080a63          	beq	a6,zero,8914 <core_bench_state+0x1b4>
    8904:	0028c803          	lbu	a6,2(a7)
    8908:	4305                	c.li	t1,1
    890a:	0f85                	c.addi	t6,1
    890c:	00288e13          	addi	t3,a7,2
    8910:	ef5ff06f          	jal	zero,8804 <core_bench_state+0xa4>
    8914:	0028c803          	lbu	a6,2(a7)
    8918:	0f85                	c.addi	t6,1
    891a:	00288e13          	addi	t3,a7,2
    891e:	4319                	c.li	t1,6
    8920:	ee0802e3          	beq	a6,zero,8804 <core_bench_state+0xa4>
    8924:	b0c850db          	beqc	a6,44,8824 <core_bench_state+0xc4>
    8928:	fd080e13          	addi	t3,a6,-48
    892c:	0ffe7313          	andi	t1,t3,255
    8930:	0067fa63          	bgeu	a5,t1,8944 <core_bench_state+0x1e4>
    8934:	0038c803          	lbu	a6,3(a7)
    8938:	4305                	c.li	t1,1
    893a:	0285                	c.addi	t0,1
    893c:	00388e13          	addi	t3,a7,3
    8940:	ec5ff06f          	jal	zero,8804 <core_bench_state+0xa4>
    8944:	0038c803          	lbu	a6,3(a7)
    8948:	0285                	c.addi	t0,1
    894a:	088d                	c.addi	a7,3
    894c:	00700313          	addi	t1,zero,7
    8950:	f2080ce3          	beq	a6,zero,8888 <core_bench_state+0x128>
    8954:	acc85adb          	beqc	a6,44,8828 <core_bench_state+0xc8>
    8958:	fd080813          	addi	a6,a6,-48
    895c:	0ff87313          	andi	t1,a6,255
    8960:	0067fa63          	bgeu	a5,t1,8974 <core_bench_state+0x214>
    8964:	0018c803          	lbu	a6,1(a7)
    8968:	4305                	c.li	t1,1
    896a:	0985                	c.addi	s3,1
    896c:	00188e13          	addi	t3,a7,1
    8970:	e95ff06f          	jal	zero,8804 <core_bench_state+0xa4>
    8974:	0018c803          	lbu	a6,1(a7)
    8978:	00188e13          	addi	t3,a7,1
    897c:	431d                	c.li	t1,7
    897e:	e80803e3          	beq	a6,zero,8804 <core_bench_state+0xa4>
    8982:	aac851db          	beqc	a6,44,8824 <core_bench_state+0xc4>
    8986:	88f2                	c.mv	a7,t3
    8988:	fd1ff06f          	jal	zero,8958 <core_bench_state+0x1f8>
    898c:	0018c803          	lbu	a6,1(a7)
    8990:	00188e13          	addi	t3,a7,1
    8994:	4311                	c.li	t1,4
    8996:	e60807e3          	beq	a6,zero,8804 <core_bench_state+0xa4>
    899a:	a8c855db          	beqc	a6,44,8824 <core_bench_state+0xc4>
    899e:	88f2                	c.mv	a7,t3
    89a0:	e49ff06f          	jal	zero,87e8 <core_bench_state+0x88>
    89a4:	001e4803          	lbu	a6,1(t3)
    89a8:	0085                	c.addi	ra,1
    89aa:	001e0893          	addi	a7,t3,1
    89ae:	4309                	c.li	t1,2
    89b0:	ec080ce3          	beq	a6,zero,8888 <core_bench_state+0x128>
    89b4:	a6c85adb          	beqc	a6,44,8828 <core_bench_state+0xc8>
    89b8:	fd080e13          	addi	t3,a6,-48
    89bc:	0ffe7313          	andi	t1,t3,255
    89c0:	ea67fce3          	bgeu	a5,t1,8878 <core_bench_state+0x118>
    89c4:	02e856db          	beqc	a6,46,89f0 <core_bench_state+0x290>
    89c8:	0018c803          	lbu	a6,1(a7)
    89cc:	4305                	c.li	t1,1
    89ce:	0385                	c.addi	t2,1
    89d0:	00188e13          	addi	t3,a7,1
    89d4:	e31ff06f          	jal	zero,8804 <core_bench_state+0xa4>
    89d8:	0018c803          	lbu	a6,1(a7)
    89dc:	00188e13          	addi	t3,a7,1
    89e0:	4315                	c.li	t1,5
    89e2:	e20801e3          	beq	a6,zero,8804 <core_bench_state+0xa4>
    89e6:	a2c85fdb          	beqc	a6,44,8824 <core_bench_state+0xc4>
    89ea:	88f2                	c.mv	a7,t3
    89ec:	ed5ff06f          	jal	zero,88c0 <core_bench_state+0x160>
    89f0:	0018c803          	lbu	a6,1(a7)
    89f4:	0385                	c.addi	t2,1
    89f6:	0885                	c.addi	a7,1
    89f8:	4315                	c.li	t1,5
    89fa:	ec0811e3          	bne	a6,zero,88bc <core_bench_state+0x15c>
    89fe:	8e46                	c.mv	t3,a7
    8a00:	e05ff06f          	jal	zero,8804 <core_bench_state+0xa4>
    8a04:	000f4e83          	lbu	t4,0(t5)
    8a08:	0a0e8e63          	beq	t4,zero,8ac4 <core_bench_state+0x364>
    8a0c:	5912                	c.lwsp	s2,36(sp)
    8a0e:	5f82                	c.lwsp	t6,32(sp)
    8a10:	52a2                	c.lwsp	t0,40(sp)
    8a12:	54c2                	c.lwsp	s1,48(sp)
    8a14:	50d2                	c.lwsp	ra,52(sp)
    8a16:	5e32                	c.lwsp	t3,44(sp)
    8a18:	53e2                	c.lwsp	t2,56(sp)
    8a1a:	28cedfdb          	beqc	t4,44,8cb8 <core_bench_state+0x558>
    8a1e:	8676                	c.mv	a2,t4
    8a20:	837a                	c.mv	t1,t5
    8a22:	a82d                	c.j	8a5c <core_bench_state+0x2fc>
    8a24:	1ab65cdb          	beqc	a2,43,8bdc <core_bench_state+0x47c>
    8a28:	1ad65adb          	beqc	a2,45,8bdc <core_bench_state+0x47c>
    8a2c:	24e654db          	beqc	a2,46,8c74 <core_bench_state+0x514>
    8a30:	00134603          	lbu	a2,1(t1)
    8a34:	4885                	c.li	a7,1
    8a36:	0905                	c.addi	s2,1
    8a38:	0f85                	c.addi	t6,1
    8a3a:	0305                	c.addi	t1,1
    8a3c:	04010993          	addi	s3,sp,64
    8a40:	0d1988db          	lea.w	a7,s3,a7
    8a44:	fc08a783          	lw	a5,-64(a7)
    8a48:	00178813          	addi	a6,a5,1
    8a4c:	fd08a023          	sw	a6,-64(a7)
    8a50:	06060063          	beq	a2,zero,8ab0 <core_bench_state+0x350>
    8a54:	00000893          	addi	a7,zero,0
    8a58:	20c658db          	beqc	a2,44,8c68 <core_bench_state+0x508>
    8a5c:	fd060993          	addi	s3,a2,-48
    8a60:	0ff9f793          	andi	a5,s3,255
    8a64:	49a5                	c.li	s3,9
    8a66:	faf9efe3          	bltu	s3,a5,8a24 <core_bench_state+0x2c4>
    8a6a:	00134603          	lbu	a2,1(t1)
    8a6e:	0f85                	c.addi	t6,1
    8a70:	00130813          	addi	a6,t1,1
    8a74:	4891                	c.li	a7,4
    8a76:	c25d                	c.beqz	a2,8b1c <core_bench_state+0x3bc>
    8a78:	08c656db          	beqc	a2,44,8b04 <core_bench_state+0x3a4>
    8a7c:	06e650db          	beqc	a2,46,8adc <core_bench_state+0x37c>
    8a80:	fd060613          	addi	a2,a2,-48
    8a84:	0ff67793          	andi	a5,a2,255
    8a88:	12f9fe63          	bgeu	s3,a5,8bc4 <core_bench_state+0x464>
    8a8c:	4885                	c.li	a7,1
    8a8e:	04010993          	addi	s3,sp,64
    8a92:	0d1988db          	lea.w	a7,s3,a7
    8a96:	fc08a783          	lw	a5,-64(a7)
    8a9a:	00184603          	lbu	a2,1(a6)
    8a9e:	00180313          	addi	t1,a6,1
    8aa2:	00178813          	addi	a6,a5,1
    8aa6:	fd08a023          	sw	a6,-64(a7)
    8aaa:	0485                	c.addi	s1,1
    8aac:	fa0614e3          	bne	a2,zero,8a54 <core_bench_state+0x2f4>
    8ab0:	d24a                	c.swsp	s2,36(sp)
    8ab2:	d07e                	c.swsp	t6,32(sp)
    8ab4:	d416                	c.swsp	t0,40(sp)
    8ab6:	d826                	c.swsp	s1,48(sp)
    8ab8:	da06                	c.swsp	ra,52(sp)
    8aba:	d672                	c.swsp	t3,44(sp)
    8abc:	02712c23          	sw	t2,56(sp)
    8ac0:	16af7e63          	bgeu	t5,a0,8c3c <core_bench_state+0x4dc>
    8ac4:	00ced6db          	beqc	t4,44,8ad0 <core_bench_state+0x370>
    8ac8:	00deceb3          	xor	t4,t4,a3
    8acc:	01df0023          	sb	t4,0(t5)
    8ad0:	9f3a                	c.add	t5,a4
    8ad2:	16af7563          	bgeu	t5,a0,8c3c <core_bench_state+0x4dc>
    8ad6:	000f4e83          	lbu	t4,0(t5)
    8ada:	b7ed                	c.j	8ac4 <core_bench_state+0x364>
    8adc:	00184603          	lbu	a2,1(a6)
    8ae0:	0485                	c.addi	s1,1
    8ae2:	0805                	c.addi	a6,1
    8ae4:	4895                	c.li	a7,5
    8ae6:	ca1d                	c.beqz	a2,8b1c <core_bench_state+0x3bc>
    8ae8:	00c65edb          	beqc	a2,44,8b04 <core_bench_state+0x3a4>
    8aec:	0df67893          	andi	a7,a2,223
    8af0:	fd060313          	addi	t1,a2,-48
    8af4:	4258d65b          	beqc	a7,69,8b20 <core_bench_state+0x3c0>
    8af8:	0ff37613          	andi	a2,t1,255
    8afc:	10c9f863          	bgeu	s3,a2,8c0c <core_bench_state+0x4ac>
    8b00:	4885                	c.li	a7,1
    8b02:	0085                	c.addi	ra,1
    8b04:	00184603          	lbu	a2,1(a6)
    8b08:	00180313          	addi	t1,a6,1
    8b0c:	f31ff06f          	jal	zero,8a3c <core_bench_state+0x2dc>
    8b10:	00184603          	lbu	a2,1(a6)
    8b14:	0285                	c.addi	t0,1
    8b16:	0805                	c.addi	a6,1
    8b18:	4891                	c.li	a7,4
    8b1a:	fe39                	c.bnez	a2,8a78 <core_bench_state+0x318>
    8b1c:	8342                	c.mv	t1,a6
    8b1e:	bf39                	c.j	8a3c <core_bench_state+0x2dc>
    8b20:	00184603          	lbu	a2,1(a6)
    8b24:	0085                	c.addi	ra,1
    8b26:	00180313          	addi	t1,a6,1
    8b2a:	488d                	c.li	a7,3
    8b2c:	f00608e3          	beq	a2,zero,8a3c <core_bench_state+0x2dc>
    8b30:	12c65cdb          	beqc	a2,44,8c68 <core_bench_state+0x508>
    8b34:	fd560793          	addi	a5,a2,-43
    8b38:	0fd7f313          	andi	t1,a5,253
    8b3c:	00030a63          	beq	t1,zero,8b50 <core_bench_state+0x3f0>
    8b40:	00284603          	lbu	a2,2(a6)
    8b44:	4885                	c.li	a7,1
    8b46:	0e05                	c.addi	t3,1
    8b48:	00280313          	addi	t1,a6,2
    8b4c:	ef1ff06f          	jal	zero,8a3c <core_bench_state+0x2dc>
    8b50:	00284603          	lbu	a2,2(a6)
    8b54:	0e05                	c.addi	t3,1
    8b56:	00280313          	addi	t1,a6,2
    8b5a:	4899                	c.li	a7,6
    8b5c:	ee0600e3          	beq	a2,zero,8a3c <core_bench_state+0x2dc>
    8b60:	10c654db          	beqc	a2,44,8c68 <core_bench_state+0x508>
    8b64:	fd060893          	addi	a7,a2,-48
    8b68:	0ff8f613          	andi	a2,a7,255
    8b6c:	00c9fa63          	bgeu	s3,a2,8b80 <core_bench_state+0x420>
    8b70:	00384603          	lbu	a2,3(a6)
    8b74:	4885                	c.li	a7,1
    8b76:	0385                	c.addi	t2,1
    8b78:	00380313          	addi	t1,a6,3
    8b7c:	ec1ff06f          	jal	zero,8a3c <core_bench_state+0x2dc>
    8b80:	00384603          	lbu	a2,3(a6)
    8b84:	0385                	c.addi	t2,1
    8b86:	080d                	c.addi	a6,3
    8b88:	489d                	c.li	a7,7
    8b8a:	da49                	c.beqz	a2,8b1c <core_bench_state+0x3bc>
    8b8c:	b6c65cdb          	beqc	a2,44,8b04 <core_bench_state+0x3a4>
    8b90:	fd060793          	addi	a5,a2,-48
    8b94:	0ff7f313          	andi	t1,a5,255
    8b98:	0069fa63          	bgeu	s3,t1,8bac <core_bench_state+0x44c>
    8b9c:	00184603          	lbu	a2,1(a6)
    8ba0:	4885                	c.li	a7,1
    8ba2:	0905                	c.addi	s2,1
    8ba4:	00180313          	addi	t1,a6,1
    8ba8:	e95ff06f          	jal	zero,8a3c <core_bench_state+0x2dc>
    8bac:	00184603          	lbu	a2,1(a6)
    8bb0:	00180313          	addi	t1,a6,1
    8bb4:	489d                	c.li	a7,7
    8bb6:	e80603e3          	beq	a2,zero,8a3c <core_bench_state+0x2dc>
    8bba:	0ac657db          	beqc	a2,44,8c68 <core_bench_state+0x508>
    8bbe:	881a                	c.mv	a6,t1
    8bc0:	fd1ff06f          	jal	zero,8b90 <core_bench_state+0x430>
    8bc4:	00184603          	lbu	a2,1(a6)
    8bc8:	00180313          	addi	t1,a6,1
    8bcc:	4891                	c.li	a7,4
    8bce:	e60607e3          	beq	a2,zero,8a3c <core_bench_state+0x2dc>
    8bd2:	08c65bdb          	beqc	a2,44,8c68 <core_bench_state+0x508>
    8bd6:	881a                	c.mv	a6,t1
    8bd8:	ea5ff06f          	jal	zero,8a7c <core_bench_state+0x31c>
    8bdc:	00134603          	lbu	a2,1(t1)
    8be0:	0f85                	c.addi	t6,1
    8be2:	00130813          	addi	a6,t1,1
    8be6:	4889                	c.li	a7,2
    8be8:	da15                	c.beqz	a2,8b1c <core_bench_state+0x3bc>
    8bea:	b0c65ddb          	beqc	a2,44,8b04 <core_bench_state+0x3a4>
    8bee:	fd060313          	addi	t1,a2,-48
    8bf2:	0ff37893          	andi	a7,t1,255
    8bf6:	f119fde3          	bgeu	s3,a7,8b10 <core_bench_state+0x3b0>
    8bfa:	02e655db          	beqc	a2,46,8c24 <core_bench_state+0x4c4>
    8bfe:	00184603          	lbu	a2,1(a6)
    8c02:	4885                	c.li	a7,1
    8c04:	0285                	c.addi	t0,1
    8c06:	00180313          	addi	t1,a6,1
    8c0a:	bd0d                	c.j	8a3c <core_bench_state+0x2dc>
    8c0c:	00184603          	lbu	a2,1(a6)
    8c10:	00180313          	addi	t1,a6,1
    8c14:	4895                	c.li	a7,5
    8c16:	e20603e3          	beq	a2,zero,8a3c <core_bench_state+0x2dc>
    8c1a:	04c657db          	beqc	a2,44,8c68 <core_bench_state+0x508>
    8c1e:	881a                	c.mv	a6,t1
    8c20:	ecdff06f          	jal	zero,8aec <core_bench_state+0x38c>
    8c24:	00184603          	lbu	a2,1(a6)
    8c28:	0285                	c.addi	t0,1
    8c2a:	0805                	c.addi	a6,1
    8c2c:	4895                	c.li	a7,5
    8c2e:	ea061de3          	bne	a2,zero,8ae8 <core_bench_state+0x388>
    8c32:	8342                	c.mv	t1,a6
    8c34:	e09ff06f          	jal	zero,8a3c <core_bench_state+0x2dc>
    8c38:	dc0e9ae3          	bne	t4,zero,8a0c <core_bench_state+0x2ac>
    8c3c:	848a                	c.mv	s1,sp
    8c3e:	8922                	c.mv	s2,s0
    8c40:	4088                	c.lw	a0,0(s1)
    8c42:	0491                	c.addi	s1,4
    8c44:	6dc000ef          	jal	ra,9320 <crcu32>
    8c48:	85aa                	c.mv	a1,a0
    8c4a:	00092503          	lw	a0,0(s2)
    8c4e:	0911                	c.addi	s2,4
    8c50:	6d0000ef          	jal	ra,9320 <crcu32>
    8c54:	85aa                	c.mv	a1,a0
    8c56:	fe9415e3          	bne	s0,s1,8c40 <core_bench_state+0x4e0>
    8c5a:	40f6                	c.lwsp	ra,92(sp)
    8c5c:	4466                	c.lwsp	s0,88(sp)
    8c5e:	44d6                	c.lwsp	s1,84(sp)
    8c60:	4946                	c.lwsp	s2,80(sp)
    8c62:	49b6                	c.lwsp	s3,76(sp)
    8c64:	6125                	c.addi16sp	sp,96
    8c66:	8082                	c.jr	ra
    8c68:	881a                	c.mv	a6,t1
    8c6a:	00184603          	lbu	a2,1(a6)
    8c6e:	00180313          	addi	t1,a6,1
    8c72:	b3e9                	c.j	8a3c <core_bench_state+0x2dc>
    8c74:	00134603          	lbu	a2,1(t1)
    8c78:	0f85                	c.addi	t6,1
    8c7a:	00130813          	addi	a6,t1,1
    8c7e:	4895                	c.li	a7,5
    8c80:	e60614e3          	bne	a2,zero,8ae8 <core_bench_state+0x388>
    8c84:	8342                	c.mv	t1,a6
    8c86:	bb5d                	c.j	8a3c <core_bench_state+0x2dc>
    8c88:	001e4803          	lbu	a6,1(t3)
    8c8c:	0085                	c.addi	ra,1
    8c8e:	001e0893          	addi	a7,t3,1
    8c92:	4315                	c.li	t1,5
    8c94:	c20814e3          	bne	a6,zero,88bc <core_bench_state+0x15c>
    8c98:	8e46                	c.mv	t3,a7
    8c9a:	b6ad                	c.j	8804 <core_bench_state+0xa4>
    8c9c:	88fa                	c.mv	a7,t5
    8c9e:	0018c803          	lbu	a6,1(a7)
    8ca2:	4981                	c.li	s3,0
    8ca4:	4281                	c.li	t0,0
    8ca6:	4f81                	c.li	t6,0
    8ca8:	4481                	c.li	s1,0
    8caa:	4901                	c.li	s2,0
    8cac:	4381                	c.li	t2,0
    8cae:	4081                	c.li	ra,0
    8cb0:	4301                	c.li	t1,0
    8cb2:	00188e13          	addi	t3,a7,1
    8cb6:	bead                	c.j	8830 <core_bench_state+0xd0>
    8cb8:	887a                	c.mv	a6,t5
    8cba:	4881                	c.li	a7,0
    8cbc:	e49ff06f          	jal	zero,8b04 <core_bench_state+0x3a4>

00008cc0 <core_init_state>:
    8cc0:	fff50313          	addi	t1,a0,-1
    8cc4:	4e05                	c.li	t3,1
    8cc6:	88b2                	c.mv	a7,a2
    8cc8:	106e5063          	bge	t3,t1,8dc8 <core_init_state+0x108>
    8ccc:	0585                	c.addi	a1,1
    8cce:	4801                	c.li	a6,0
    8cd0:	3c05a5db          	bfoz	a1,a1,15,0
    8cd4:	02c00f13          	addi	t5,zero,44
    8cd8:	4e91                	c.li	t4,4
    8cda:	cfdd960b          	addigp	a2,-4868 # 20050c <intpat>
    8cde:	a079                	c.j	8d6c <core_init_state+0xac>
    8ce0:	0cfee863          	bltu	t4,a5,8db0 <core_init_state+0xf0>
    8ce4:	ffd78393          	addi	t2,a5,-3
    8ce8:	1037275b          	bfoz	a4,a4,4,3
    8cec:	3c03afdb          	bfoz	t6,t2,15,0
    8cf0:	0ce607db          	lea.w	a5,a2,a4
    8cf4:	0bfe6a63          	bltu	t3,t6,8da8 <core_init_state+0xe8>
    8cf8:	4b98                	c.lw	a4,16(a5)
    8cfa:	4fa5                	c.li	t6,9
    8cfc:	00800793          	addi	a5,zero,8
    8d00:	00f806b3          	add	a3,a6,a5
    8d04:	00168293          	addi	t0,a3,1
    8d08:	0862d663          	bge	t0,t1,8d94 <core_init_state+0xd4>
    8d0c:	00074383          	lbu	t2,0(a4)
    8d10:	010886b3          	add	a3,a7,a6
    8d14:	00768023          	sb	t2,0(a3)
    8d18:	00174283          	lbu	t0,1(a4)
    8d1c:	005680a3          	sb	t0,1(a3)
    8d20:	00274383          	lbu	t2,2(a4)
    8d24:	00768123          	sb	t2,2(a3)
    8d28:	00374283          	lbu	t0,3(a4)
    8d2c:	005681a3          	sb	t0,3(a3)
    8d30:	0247d45b          	beqc	a5,4,8d58 <core_init_state+0x98>
    8d34:	00474383          	lbu	t2,4(a4)
    8d38:	00768223          	sb	t2,4(a3)
    8d3c:	00574283          	lbu	t0,5(a4)
    8d40:	005682a3          	sb	t0,5(a3)
    8d44:	00674383          	lbu	t2,6(a4)
    8d48:	00768323          	sb	t2,6(a3)
    8d4c:	0087e65b          	bnec	a5,8,8d58 <core_init_state+0x98>
    8d50:	00774703          	lbu	a4,7(a4)
    8d54:	00e683a3          	sb	a4,7(a3)
    8d58:	97c6                	c.add	a5,a7
    8d5a:	0585                	c.addi	a1,1
    8d5c:	010786b3          	add	a3,a5,a6
    8d60:	3c05a5db          	bfoz	a1,a1,15,0
    8d64:	01f80833          	add	a6,a6,t6
    8d68:	01e68023          	sb	t5,0(a3)
    8d6c:	0075f793          	andi	a5,a1,7
    8d70:	3c05b75b          	bfos	a4,a1,15,0
    8d74:	b677e65b          	bnec	a5,7,8ce0 <core_init_state+0x20>
    8d78:	47a1                	c.li	a5,8
    8d7a:	103722db          	bfoz	t0,a4,4,3
    8d7e:	00f806b3          	add	a3,a6,a5
    8d82:	0c5603db          	lea.w	t2,a2,t0
    8d86:	00168293          	addi	t0,a3,1
    8d8a:	0303a703          	lw	a4,48(t2)
    8d8e:	4fa5                	c.li	t6,9
    8d90:	f662cee3          	blt	t0,t1,8d0c <core_init_state+0x4c>
    8d94:	02a85863          	bge	a6,a0,8dc4 <core_init_state+0x104>
    8d98:	41050633          	sub	a2,a0,a6
    8d9c:	00000593          	addi	a1,zero,0
    8da0:	01088533          	add	a0,a7,a6
    8da4:	2190006f          	jal	zero,97bc <memset>
    8da8:	4398                	c.lw	a4,0(a5)
    8daa:	4f95                	c.li	t6,5
    8dac:	4791                	c.li	a5,4
    8dae:	bf89                	c.j	8d00 <core_init_state+0x40>
    8db0:	103726db          	bfoz	a3,a4,4,3
    8db4:	0cd602db          	lea.w	t0,a2,a3
    8db8:	0202a703          	lw	a4,32(t0)
    8dbc:	4fa5                	c.li	t6,9
    8dbe:	47a1                	c.li	a5,8
    8dc0:	f41ff06f          	jal	zero,8d00 <core_init_state+0x40>
    8dc4:	00008067          	jalr	zero,0(ra)
    8dc8:	4801                	c.li	a6,0
    8dca:	b7e9                	c.j	8d94 <core_init_state+0xd4>

00008dcc <core_state_transition>:
    8dcc:	411c                	c.lw	a5,0(a0)
    8dce:	882a                	c.mv	a6,a0
    8dd0:	0007c703          	lbu	a4,0(a5)
    8dd4:	26070a63          	beq	a4,zero,9048 <core_state_transition+0x27c>
    8dd8:	24c75cdb          	beqc	a4,44,9030 <core_state_transition+0x264>
    8ddc:	fd070613          	addi	a2,a4,-48
    8de0:	0ff67293          	andi	t0,a2,255
    8de4:	00900693          	addi	a3,zero,9
    8de8:	0856e863          	bltu	a3,t0,8e78 <core_state_transition+0xac>
    8dec:	0005ae83          	lw	t4,0(a1)
    8df0:	00178313          	addi	t1,a5,1
    8df4:	001e8f13          	addi	t5,t4,1
    8df8:	01e5a023          	sw	t5,0(a1)
    8dfc:	0017c283          	lbu	t0,1(a5)
    8e00:	10028c63          	beq	t0,zero,8f18 <core_state_transition+0x14c>
    8e04:	22c2dadb          	beqc	t0,44,9038 <core_state_transition+0x26c>
    8e08:	02e2d4db          	beqc	t0,46,8e30 <core_state_transition+0x64>
    8e0c:	fd028f93          	addi	t6,t0,-48
    8e10:	0ffff713          	andi	a4,t6,255
    8e14:	08e6e863          	bltu	a3,a4,8ea4 <core_state_transition+0xd8>
    8e18:	00134283          	lbu	t0,1(t1)
    8e1c:	00130793          	addi	a5,t1,1
    8e20:	24028663          	beq	t0,zero,906c <core_state_transition+0x2a0>
    8e24:	24c2d6db          	beqc	t0,44,9070 <core_state_transition+0x2a4>
    8e28:	00078313          	addi	t1,a5,0
    8e2c:	bee2e0db          	bnec	t0,46,8e0c <core_state_transition+0x40>
    8e30:	0105a383          	lw	t2,16(a1)
    8e34:	00130613          	addi	a2,t1,1
    8e38:	00138893          	addi	a7,t2,1
    8e3c:	0115a823          	sw	a7,16(a1)
    8e40:	00134f83          	lbu	t6,1(t1)
    8e44:	1c0f8463          	beq	t6,zero,900c <core_state_transition+0x240>
    8e48:	20cfd4db          	beqc	t6,44,9050 <core_state_transition+0x284>
    8e4c:	0dfffe13          	andi	t3,t6,223
    8e50:	fd0f8513          	addi	a0,t6,-48
    8e54:	4c5e565b          	beqc	t3,69,8f20 <core_state_transition+0x154>
    8e58:	0ff57e93          	andi	t4,a0,255
    8e5c:	19d6f263          	bgeu	a3,t4,8fe0 <core_state_transition+0x214>
    8e60:	49d4                	c.lw	a3,20(a1)
    8e62:	00160793          	addi	a5,a2,1
    8e66:	00168f13          	addi	t5,a3,1
    8e6a:	01e5aa23          	sw	t5,20(a1)
    8e6e:	4505                	c.li	a0,1
    8e70:	00f82023          	sw	a5,0(a6)
    8e74:	00008067          	jalr	zero,0(ra)
    8e78:	04b752db          	beqc	a4,43,8ebc <core_state_transition+0xf0>
    8e7c:	04d750db          	beqc	a4,45,8ebc <core_state_transition+0xf0>
    8e80:	16e75adb          	beqc	a4,46,8ff4 <core_state_transition+0x228>
    8e84:	41d4                	c.lw	a3,4(a1)
    8e86:	0005a303          	lw	t1,0(a1)
    8e8a:	00168393          	addi	t2,a3,1
    8e8e:	00130893          	addi	a7,t1,1
    8e92:	0785                	c.addi	a5,1
    8e94:	0075a223          	sw	t2,4(a1)
    8e98:	0115a023          	sw	a7,0(a1)
    8e9c:	4505                	c.li	a0,1
    8e9e:	00f82023          	sw	a5,0(a6)
    8ea2:	8082                	c.jr	ra
    8ea4:	499c                	c.lw	a5,16(a1)
    8ea6:	4505                	c.li	a0,1
    8ea8:	00178613          	addi	a2,a5,1
    8eac:	00130793          	addi	a5,t1,1
    8eb0:	00c5a823          	sw	a2,16(a1)
    8eb4:	00f82023          	sw	a5,0(a6)
    8eb8:	00008067          	jalr	zero,0(ra)
    8ebc:	0005ae83          	lw	t4,0(a1)
    8ec0:	00178f13          	addi	t5,a5,1
    8ec4:	001e8f93          	addi	t6,t4,1
    8ec8:	01f5a023          	sw	t6,0(a1)
    8ecc:	0017c703          	lbu	a4,1(a5)
    8ed0:	1a070463          	beq	a4,zero,9078 <core_state_transition+0x2ac>
    8ed4:	1ac756db          	beqc	a4,44,9080 <core_state_transition+0x2b4>
    8ed8:	fd070613          	addi	a2,a4,-48
    8edc:	0ff67293          	andi	t0,a2,255
    8ee0:	0256f063          	bgeu	a3,t0,8f00 <core_state_transition+0x134>
    8ee4:	12e758db          	beqc	a4,46,9014 <core_state_transition+0x248>
    8ee8:	4594                	c.lw	a3,8(a1)
    8eea:	001f0793          	addi	a5,t5,1
    8eee:	00168313          	addi	t1,a3,1
    8ef2:	0065a423          	sw	t1,8(a1)
    8ef6:	4505                	c.li	a0,1
    8ef8:	00f82023          	sw	a5,0(a6)
    8efc:	00008067          	jalr	zero,0(ra)
    8f00:	0085a503          	lw	a0,8(a1)
    8f04:	001f0313          	addi	t1,t5,1
    8f08:	00150e13          	addi	t3,a0,1
    8f0c:	01c5a423          	sw	t3,8(a1)
    8f10:	001f4283          	lbu	t0,1(t5)
    8f14:	ee0298e3          	bne	t0,zero,8e04 <core_state_transition+0x38>
    8f18:	879a                	c.mv	a5,t1
    8f1a:	4511                	c.li	a0,4
    8f1c:	f99ff06f          	jal	zero,8eb4 <core_state_transition+0xe8>
    8f20:	49d8                	c.lw	a4,20(a1)
    8f22:	00160793          	addi	a5,a2,1
    8f26:	00170293          	addi	t0,a4,1
    8f2a:	0055aa23          	sw	t0,20(a1)
    8f2e:	00164303          	lbu	t1,1(a2)
    8f32:	12030363          	beq	t1,zero,9058 <core_state_transition+0x28c>
    8f36:	12c353db          	beqc	t1,44,905c <core_state_transition+0x290>
    8f3a:	fd530793          	addi	a5,t1,-43
    8f3e:	0fd7f393          	andi	t2,a5,253
    8f42:	00038f63          	beq	t2,zero,8f60 <core_state_transition+0x194>
    8f46:	00c5a883          	lw	a7,12(a1)
    8f4a:	00260793          	addi	a5,a2,2
    8f4e:	00188e13          	addi	t3,a7,1
    8f52:	01c5a623          	sw	t3,12(a1)
    8f56:	4505                	c.li	a0,1
    8f58:	00f82023          	sw	a5,0(a6)
    8f5c:	00008067          	jalr	zero,0(ra)
    8f60:	45c8                	c.lw	a0,12(a1)
    8f62:	00260793          	addi	a5,a2,2
    8f66:	00150e93          	addi	t4,a0,1
    8f6a:	01d5a623          	sw	t4,12(a1)
    8f6e:	00264f03          	lbu	t5,2(a2)
    8f72:	0c0f0d63          	beq	t5,zero,904c <core_state_transition+0x280>
    8f76:	0ecf57db          	beqc	t5,44,9064 <core_state_transition+0x298>
    8f7a:	fd0f0f93          	addi	t6,t5,-48
    8f7e:	0ffff713          	andi	a4,t6,255
    8f82:	00e6fb63          	bgeu	a3,a4,8f98 <core_state_transition+0x1cc>
    8f86:	4d94                	c.lw	a3,24(a1)
    8f88:	4505                	c.li	a0,1
    8f8a:	00168293          	addi	t0,a3,1
    8f8e:	00360793          	addi	a5,a2,3
    8f92:	0055ac23          	sw	t0,24(a1)
    8f96:	bf39                	c.j	8eb4 <core_state_transition+0xe8>
    8f98:	0185a303          	lw	t1,24(a1)
    8f9c:	00360793          	addi	a5,a2,3
    8fa0:	00130393          	addi	t2,t1,1
    8fa4:	0075ac23          	sw	t2,24(a1)
    8fa8:	00364503          	lbu	a0,3(a2)
    8fac:	02050863          	beq	a0,zero,8fdc <core_state_transition+0x210>
    8fb0:	08c558db          	beqc	a0,44,9040 <core_state_transition+0x274>
    8fb4:	fd050613          	addi	a2,a0,-48
    8fb8:	0ff67893          	andi	a7,a2,255
    8fbc:	0116fc63          	bgeu	a3,a7,8fd4 <core_state_transition+0x208>
    8fc0:	0045ae03          	lw	t3,4(a1)
    8fc4:	4505                	c.li	a0,1
    8fc6:	001e0e93          	addi	t4,t3,1
    8fca:	0785                	c.addi	a5,1
    8fcc:	01d5a223          	sw	t4,4(a1)
    8fd0:	ee5ff06f          	jal	zero,8eb4 <core_state_transition+0xe8>
    8fd4:	0017c503          	lbu	a0,1(a5)
    8fd8:	0785                	c.addi	a5,1
    8fda:	f979                	c.bnez	a0,8fb0 <core_state_transition+0x1e4>
    8fdc:	451d                	c.li	a0,7
    8fde:	bdd9                	c.j	8eb4 <core_state_transition+0xe8>
    8fe0:	00164f83          	lbu	t6,1(a2)
    8fe4:	00160793          	addi	a5,a2,1
    8fe8:	0a0f8063          	beq	t6,zero,9088 <core_state_transition+0x2bc>
    8fec:	0acfd0db          	beqc	t6,44,908c <core_state_transition+0x2c0>
    8ff0:	863e                	c.mv	a2,a5
    8ff2:	bda9                	c.j	8e4c <core_state_transition+0x80>
    8ff4:	0005a503          	lw	a0,0(a1)
    8ff8:	00178613          	addi	a2,a5,1
    8ffc:	00150e13          	addi	t3,a0,1
    9000:	01c5a023          	sw	t3,0(a1)
    9004:	0017cf83          	lbu	t6,1(a5)
    9008:	e40f90e3          	bne	t6,zero,8e48 <core_state_transition+0x7c>
    900c:	87b2                	c.mv	a5,a2
    900e:	4515                	c.li	a0,5
    9010:	ea5ff06f          	jal	zero,8eb4 <core_state_transition+0xe8>
    9014:	0085a383          	lw	t2,8(a1)
    9018:	001f0613          	addi	a2,t5,1
    901c:	00138893          	addi	a7,t2,1
    9020:	0115a423          	sw	a7,8(a1)
    9024:	001f4f83          	lbu	t6,1(t5)
    9028:	e20f90e3          	bne	t6,zero,8e48 <core_state_transition+0x7c>
    902c:	fe1ff06f          	jal	zero,900c <core_state_transition+0x240>
    9030:	4501                	c.li	a0,0
    9032:	0785                	c.addi	a5,1
    9034:	e81ff06f          	jal	zero,8eb4 <core_state_transition+0xe8>
    9038:	879a                	c.mv	a5,t1
    903a:	4511                	c.li	a0,4
    903c:	0785                	c.addi	a5,1
    903e:	bd9d                	c.j	8eb4 <core_state_transition+0xe8>
    9040:	451d                	c.li	a0,7
    9042:	0785                	c.addi	a5,1
    9044:	e71ff06f          	jal	zero,8eb4 <core_state_transition+0xe8>
    9048:	4501                	c.li	a0,0
    904a:	b5ad                	c.j	8eb4 <core_state_transition+0xe8>
    904c:	4519                	c.li	a0,6
    904e:	b59d                	c.j	8eb4 <core_state_transition+0xe8>
    9050:	87b2                	c.mv	a5,a2
    9052:	4515                	c.li	a0,5
    9054:	0785                	c.addi	a5,1
    9056:	bdb9                	c.j	8eb4 <core_state_transition+0xe8>
    9058:	450d                	c.li	a0,3
    905a:	bda9                	c.j	8eb4 <core_state_transition+0xe8>
    905c:	450d                	c.li	a0,3
    905e:	0785                	c.addi	a5,1
    9060:	e55ff06f          	jal	zero,8eb4 <core_state_transition+0xe8>
    9064:	4519                	c.li	a0,6
    9066:	0785                	c.addi	a5,1
    9068:	e4dff06f          	jal	zero,8eb4 <core_state_transition+0xe8>
    906c:	4511                	c.li	a0,4
    906e:	b599                	c.j	8eb4 <core_state_transition+0xe8>
    9070:	4511                	c.li	a0,4
    9072:	0785                	c.addi	a5,1
    9074:	e41ff06f          	jal	zero,8eb4 <core_state_transition+0xe8>
    9078:	87fa                	c.mv	a5,t5
    907a:	4509                	c.li	a0,2
    907c:	e39ff06f          	jal	zero,8eb4 <core_state_transition+0xe8>
    9080:	87fa                	c.mv	a5,t5
    9082:	4509                	c.li	a0,2
    9084:	0785                	c.addi	a5,1
    9086:	b53d                	c.j	8eb4 <core_state_transition+0xe8>
    9088:	4515                	c.li	a0,5
    908a:	b52d                	c.j	8eb4 <core_state_transition+0xe8>
    908c:	4515                	c.li	a0,5
    908e:	0785                	c.addi	a5,1
    9090:	b515                	c.j	8eb4 <core_state_transition+0xe8>
    9092:	0001                	c.addi	zero,0

00009094 <get_seed_32>:
    9094:	d3dd928b          	addigp	t0,-4804 # 20054c <errpat+0x10>
    9098:	4715                	c.li	a4,5
    909a:	0ca2835b          	lea.w	t1,t0,a0
    909e:	02a76963          	bltu	a4,a0,90d0 <get_seed_32+0x3c>
    90a2:	00032383          	lw	t2,0(t1)
    90a6:	8382                	c.jr	t2
    90a8:	823fa52b          	lwgp	a0,-2016 # 201030 <seed5_volatile>
    90ac:	00008067          	jalr	zero,0(ra)
    90b0:	82bfa52b          	lwgp	a0,-2008 # 201038 <seed1_volatile>
    90b4:	00008067          	jalr	zero,0(ra)
    90b8:	827fa52b          	lwgp	a0,-2012 # 201034 <seed2_volatile>
    90bc:	00008067          	jalr	zero,0(ra)
    90c0:	80bfa52b          	lwgp	a0,-2040 # 201018 <seed3_volatile>
    90c4:	00008067          	jalr	zero,0(ra)
    90c8:	807fa52b          	lwgp	a0,-2044 # 201014 <seed4_volatile>
    90cc:	00008067          	jalr	zero,0(ra)
    90d0:	4501                	c.li	a0,0
    90d2:	8082                	c.jr	ra

000090d4 <crcu8>:
    90d4:	77e9                	c.lui	a5,0xffffa
    90d6:	00178293          	addi	t0,a5,1 # ffffa001 <__start_addr+0x7fff9ff1>
    90da:	0015d693          	srli	a3,a1,0x1
    90de:	0056c733          	xor	a4,a3,t0
    90e2:	8da9                	c.xor	a1,a0
    90e4:	0005f45b          	bbc	a1,0,90ec <crcu8+0x18>
    90e8:	3c0726db          	bfoz	a3,a4,15,0
    90ec:	00155613          	srli	a2,a0,0x1
    90f0:	0016d313          	srli	t1,a3,0x1
    90f4:	00c6c3b3          	xor	t2,a3,a2
    90f8:	00534833          	xor	a6,t1,t0
    90fc:	0003f45b          	bbc	t2,0,9104 <crcu8+0x30>
    9100:	3c08235b          	bfoz	t1,a6,15,0
    9104:	00255893          	srli	a7,a0,0x2
    9108:	00135e13          	srli	t3,t1,0x1
    910c:	01134eb3          	xor	t4,t1,a7
    9110:	005e4f33          	xor	t5,t3,t0
    9114:	000ef45b          	bbc	t4,0,911c <crcu8+0x48>
    9118:	3c0f2e5b          	bfoz	t3,t5,15,0
    911c:	00355f93          	srli	t6,a0,0x3
    9120:	001e5793          	srli	a5,t3,0x1
    9124:	01fe46b3          	xor	a3,t3,t6
    9128:	0057c5b3          	xor	a1,a5,t0
    912c:	0006f45b          	bbc	a3,0,9134 <crcu8+0x60>
    9130:	3c05a7db          	bfoz	a5,a1,15,0
    9134:	00455713          	srli	a4,a0,0x4
    9138:	0017d313          	srli	t1,a5,0x1
    913c:	00e7c3b3          	xor	t2,a5,a4
    9140:	00534633          	xor	a2,t1,t0
    9144:	0003f45b          	bbc	t2,0,914c <crcu8+0x78>
    9148:	3c06235b          	bfoz	t1,a2,15,0
    914c:	00555813          	srli	a6,a0,0x5
    9150:	00135893          	srli	a7,t1,0x1
    9154:	0058ceb3          	xor	t4,a7,t0
    9158:	01034e33          	xor	t3,t1,a6
    915c:	000e745b          	bbc	t3,0,9164 <crcu8+0x90>
    9160:	3c0ea8db          	bfoz	a7,t4,15,0
    9164:	00655f13          	srli	t5,a0,0x6
    9168:	0018df93          	srli	t6,a7,0x1
    916c:	005fc6b3          	xor	a3,t6,t0
    9170:	01e8c7b3          	xor	a5,a7,t5
    9174:	0007f45b          	bbc	a5,0,917c <crcu8+0xa8>
    9178:	3c06afdb          	bfoz	t6,a3,15,0
    917c:	00755593          	srli	a1,a0,0x7
    9180:	001fd513          	srli	a0,t6,0x1
    9184:	00bfc733          	xor	a4,t6,a1
    9188:	005542b3          	xor	t0,a0,t0
    918c:	0007745b          	bbc	a4,0,9194 <crcu8+0xc0>
    9190:	3c02a55b          	bfoz	a0,t0,15,0
    9194:	00008067          	jalr	zero,0(ra)

00009198 <crcu16>:
    9198:	77e9                	c.lui	a5,0xffffa
    919a:	00178293          	addi	t0,a5,1 # ffffa001 <__start_addr+0x7fff9ff1>
    919e:	0015d693          	srli	a3,a1,0x1
    91a2:	0056c733          	xor	a4,a3,t0
    91a6:	8da9                	c.xor	a1,a0
    91a8:	0005f45b          	bbc	a1,0,91b0 <crcu16+0x18>
    91ac:	3c0726db          	bfoz	a3,a4,15,0
    91b0:	1c15265b          	bfoz	a2,a0,7,1
    91b4:	4016a35b          	bfoz	t1,a3,16,1
    91b8:	00c6c3b3          	xor	t2,a3,a2
    91bc:	00534833          	xor	a6,t1,t0
    91c0:	0003f45b          	bbc	t2,0,91c8 <crcu16+0x30>
    91c4:	3c08235b          	bfoz	t1,a6,15,0
    91c8:	1c2528db          	bfoz	a7,a0,7,2
    91cc:	40132e5b          	bfoz	t3,t1,16,1
    91d0:	01134eb3          	xor	t4,t1,a7
    91d4:	005e4f33          	xor	t5,t3,t0
    91d8:	000ef45b          	bbc	t4,0,91e0 <crcu16+0x48>
    91dc:	3c0f2e5b          	bfoz	t3,t5,15,0
    91e0:	1c352fdb          	bfoz	t6,a0,7,3
    91e4:	401e27db          	bfoz	a5,t3,16,1
    91e8:	01fe46b3          	xor	a3,t3,t6
    91ec:	0057c5b3          	xor	a1,a5,t0
    91f0:	0006f45b          	bbc	a3,0,91f8 <crcu16+0x60>
    91f4:	3c05a7db          	bfoz	a5,a1,15,0
    91f8:	1c45275b          	bfoz	a4,a0,7,4
    91fc:	4017a35b          	bfoz	t1,a5,16,1
    9200:	00e7c3b3          	xor	t2,a5,a4
    9204:	00534633          	xor	a2,t1,t0
    9208:	0003f45b          	bbc	t2,0,9210 <crcu16+0x78>
    920c:	3c06235b          	bfoz	t1,a2,15,0
    9210:	1c55285b          	bfoz	a6,a0,7,5
    9214:	401328db          	bfoz	a7,t1,16,1
    9218:	01034e33          	xor	t3,t1,a6
    921c:	0058ceb3          	xor	t4,a7,t0
    9220:	000e745b          	bbc	t3,0,9228 <crcu16+0x90>
    9224:	3c0ea8db          	bfoz	a7,t4,15,0
    9228:	1c652f5b          	bfoz	t5,a0,7,6
    922c:	4018afdb          	bfoz	t6,a7,16,1
    9230:	01e8c7b3          	xor	a5,a7,t5
    9234:	005fc6b3          	xor	a3,t6,t0
    9238:	0007f45b          	bbc	a5,0,9240 <crcu16+0xa8>
    923c:	3c06afdb          	bfoz	t6,a3,15,0
    9240:	1c7525db          	bfoz	a1,a0,7,7
    9244:	001fd713          	srli	a4,t6,0x1
    9248:	00bfc333          	xor	t1,t6,a1
    924c:	005743b3          	xor	t2,a4,t0
    9250:	0003745b          	bbc	t1,0,9258 <crcu16+0xc0>
    9254:	3c03a75b          	bfoz	a4,t2,15,0
    9258:	00175613          	srli	a2,a4,0x1
    925c:	00855813          	srli	a6,a0,0x8
    9260:	00e848b3          	xor	a7,a6,a4
    9264:	00564eb3          	xor	t4,a2,t0
    9268:	00060e13          	addi	t3,a2,0
    926c:	0008f45b          	bbc	a7,0,9274 <crcu16+0xdc>
    9270:	3c0eae5b          	bfoz	t3,t4,15,0
    9274:	00955f13          	srli	t5,a0,0x9
    9278:	401e2fdb          	bfoz	t6,t3,16,1
    927c:	01cf47b3          	xor	a5,t5,t3
    9280:	005fc6b3          	xor	a3,t6,t0
    9284:	0007f45b          	bbc	a5,0,928c <crcu16+0xf4>
    9288:	3c06afdb          	bfoz	t6,a3,15,0
    928c:	00a55593          	srli	a1,a0,0xa
    9290:	401fa35b          	bfoz	t1,t6,16,1
    9294:	00bfc3b3          	xor	t2,t6,a1
    9298:	00534733          	xor	a4,t1,t0
    929c:	0003f45b          	bbc	t2,0,92a4 <crcu16+0x10c>
    92a0:	3c07235b          	bfoz	t1,a4,15,0
    92a4:	00b55813          	srli	a6,a0,0xb
    92a8:	401328db          	bfoz	a7,t1,16,1
    92ac:	01034e33          	xor	t3,t1,a6
    92b0:	0058c633          	xor	a2,a7,t0
    92b4:	000e745b          	bbc	t3,0,92bc <crcu16+0x124>
    92b8:	3c0628db          	bfoz	a7,a2,15,0
    92bc:	00c55e93          	srli	t4,a0,0xc
    92c0:	4018af5b          	bfoz	t5,a7,16,1
    92c4:	01d8cfb3          	xor	t6,a7,t4
    92c8:	005f47b3          	xor	a5,t5,t0
    92cc:	000ff45b          	bbc	t6,0,92d4 <crcu16+0x13c>
    92d0:	3c07af5b          	bfoz	t5,a5,15,0
    92d4:	00d55693          	srli	a3,a0,0xd
    92d8:	401f25db          	bfoz	a1,t5,16,1
    92dc:	0055c3b3          	xor	t2,a1,t0
    92e0:	00df4333          	xor	t1,t5,a3
    92e4:	0003745b          	bbc	t1,0,92ec <crcu16+0x154>
    92e8:	3c03a5db          	bfoz	a1,t2,15,0
    92ec:	00e55713          	srli	a4,a0,0xe
    92f0:	0015d813          	srli	a6,a1,0x1
    92f4:	00584e33          	xor	t3,a6,t0
    92f8:	00e5c8b3          	xor	a7,a1,a4
    92fc:	0008f45b          	bbc	a7,0,9304 <crcu16+0x16c>
    9300:	3c0e285b          	bfoz	a6,t3,15,0
    9304:	00f55613          	srli	a2,a0,0xf
    9308:	00185513          	srli	a0,a6,0x1
    930c:	00c84eb3          	xor	t4,a6,a2
    9310:	005542b3          	xor	t0,a0,t0
    9314:	000ef45b          	bbc	t4,0,931c <crcu16+0x184>
    9318:	3c02a55b          	bfoz	a0,t0,15,0
    931c:	00008067          	jalr	zero,0(ra)

00009320 <crcu32>:
    9320:	77e9                	c.lui	a5,0xffffa
    9322:	00178293          	addi	t0,a5,1 # ffffa001 <__start_addr+0x7fff9ff1>
    9326:	0015d693          	srli	a3,a1,0x1
    932a:	0056c733          	xor	a4,a3,t0
    932e:	8da9                	c.xor	a1,a0
    9330:	0005f45b          	bbc	a1,0,9338 <crcu32+0x18>
    9334:	3c0726db          	bfoz	a3,a4,15,0
    9338:	1c15265b          	bfoz	a2,a0,7,1
    933c:	4016a35b          	bfoz	t1,a3,16,1
    9340:	00c6c3b3          	xor	t2,a3,a2
    9344:	00534833          	xor	a6,t1,t0
    9348:	0003f45b          	bbc	t2,0,9350 <crcu32+0x30>
    934c:	3c08235b          	bfoz	t1,a6,15,0
    9350:	1c2528db          	bfoz	a7,a0,7,2
    9354:	40132e5b          	bfoz	t3,t1,16,1
    9358:	01134eb3          	xor	t4,t1,a7
    935c:	005e4f33          	xor	t5,t3,t0
    9360:	000ef45b          	bbc	t4,0,9368 <crcu32+0x48>
    9364:	3c0f2e5b          	bfoz	t3,t5,15,0
    9368:	1c352fdb          	bfoz	t6,a0,7,3
    936c:	401e27db          	bfoz	a5,t3,16,1
    9370:	01fe46b3          	xor	a3,t3,t6
    9374:	0057c5b3          	xor	a1,a5,t0
    9378:	0006f45b          	bbc	a3,0,9380 <crcu32+0x60>
    937c:	3c05a7db          	bfoz	a5,a1,15,0
    9380:	1c45275b          	bfoz	a4,a0,7,4
    9384:	4017a35b          	bfoz	t1,a5,16,1
    9388:	00e7c3b3          	xor	t2,a5,a4
    938c:	00534633          	xor	a2,t1,t0
    9390:	0003f45b          	bbc	t2,0,9398 <crcu32+0x78>
    9394:	3c06235b          	bfoz	t1,a2,15,0
    9398:	1c55285b          	bfoz	a6,a0,7,5
    939c:	401328db          	bfoz	a7,t1,16,1
    93a0:	01034e33          	xor	t3,t1,a6
    93a4:	0058ceb3          	xor	t4,a7,t0
    93a8:	000e745b          	bbc	t3,0,93b0 <crcu32+0x90>
    93ac:	3c0ea8db          	bfoz	a7,t4,15,0
    93b0:	1c652f5b          	bfoz	t5,a0,7,6
    93b4:	0018df93          	srli	t6,a7,0x1
    93b8:	01e8c7b3          	xor	a5,a7,t5
    93bc:	005fc6b3          	xor	a3,t6,t0
    93c0:	0007f45b          	bbc	a5,0,93c8 <crcu32+0xa8>
    93c4:	3c06afdb          	bfoz	t6,a3,15,0
    93c8:	1c7525db          	bfoz	a1,a0,7,7
    93cc:	001fd713          	srli	a4,t6,0x1
    93d0:	00bfc333          	xor	t1,t6,a1
    93d4:	005743b3          	xor	t2,a4,t0
    93d8:	0003745b          	bbc	t1,0,93e0 <crcu32+0xc0>
    93dc:	3c03a75b          	bfoz	a4,t2,15,0
    93e0:	3c85265b          	bfoz	a2,a0,15,8
    93e4:	00175813          	srli	a6,a4,0x1
    93e8:	00c748b3          	xor	a7,a4,a2
    93ec:	00584eb3          	xor	t4,a6,t0
    93f0:	40172e5b          	bfoz	t3,a4,16,1
    93f4:	0008f45b          	bbc	a7,0,93fc <crcu32+0xdc>
    93f8:	3c0eae5b          	bfoz	t3,t4,15,0
    93fc:	3c952f5b          	bfoz	t5,a0,15,9
    9400:	401e2fdb          	bfoz	t6,t3,16,1
    9404:	01ee47b3          	xor	a5,t3,t5
    9408:	005fc6b3          	xor	a3,t6,t0
    940c:	0007f45b          	bbc	a5,0,9414 <crcu32+0xf4>
    9410:	3c06afdb          	bfoz	t6,a3,15,0
    9414:	3ca525db          	bfoz	a1,a0,15,10
    9418:	401fa35b          	bfoz	t1,t6,16,1
    941c:	00bfc3b3          	xor	t2,t6,a1
    9420:	00534733          	xor	a4,t1,t0
    9424:	0003f45b          	bbc	t2,0,942c <crcu32+0x10c>
    9428:	3c07235b          	bfoz	t1,a4,15,0
    942c:	3cb5265b          	bfoz	a2,a0,15,11
    9430:	4013285b          	bfoz	a6,t1,16,1
    9434:	00c348b3          	xor	a7,t1,a2
    9438:	00584e33          	xor	t3,a6,t0
    943c:	0008f45b          	bbc	a7,0,9444 <crcu32+0x124>
    9440:	3c0e285b          	bfoz	a6,t3,15,0
    9444:	3cc52edb          	bfoz	t4,a0,15,12
    9448:	40182f5b          	bfoz	t5,a6,16,1
    944c:	01d84fb3          	xor	t6,a6,t4
    9450:	005f47b3          	xor	a5,t5,t0
    9454:	000ff45b          	bbc	t6,0,945c <crcu32+0x13c>
    9458:	3c07af5b          	bfoz	t5,a5,15,0
    945c:	3cd526db          	bfoz	a3,a0,15,13
    9460:	401f25db          	bfoz	a1,t5,16,1
    9464:	00df4333          	xor	t1,t5,a3
    9468:	0055c3b3          	xor	t2,a1,t0
    946c:	0003745b          	bbc	t1,0,9474 <crcu32+0x154>
    9470:	3c03a5db          	bfoz	a1,t2,15,0
    9474:	3ce5275b          	bfoz	a4,a0,15,14
    9478:	0015d813          	srli	a6,a1,0x1
    947c:	00e5c8b3          	xor	a7,a1,a4
    9480:	00584633          	xor	a2,a6,t0
    9484:	0008f45b          	bbc	a7,0,948c <crcu32+0x16c>
    9488:	3c06285b          	bfoz	a6,a2,15,0
    948c:	3cf52e5b          	bfoz	t3,a0,15,15
    9490:	00185e93          	srli	t4,a6,0x1
    9494:	01c84f33          	xor	t5,a6,t3
    9498:	005ecfb3          	xor	t6,t4,t0
    949c:	000f745b          	bbc	t5,0,94a4 <crcu32+0x184>
    94a0:	3c0faedb          	bfoz	t4,t6,15,0
    94a4:	001ed693          	srli	a3,t4,0x1
    94a8:	41055793          	srai	a5,a0,0x10
    94ac:	00fec5b3          	xor	a1,t4,a5
    94b0:	0056c3b3          	xor	t2,a3,t0
    94b4:	00068313          	addi	t1,a3,0
    94b8:	0005f45b          	bbc	a1,0,94c0 <crcu32+0x1a0>
    94bc:	3c03a35b          	bfoz	t1,t2,15,0
    94c0:	5d15275b          	bfoz	a4,a0,23,17
    94c4:	4013285b          	bfoz	a6,t1,16,1
    94c8:	00e348b3          	xor	a7,t1,a4
    94cc:	00584633          	xor	a2,a6,t0
    94d0:	0008f45b          	bbc	a7,0,94d8 <crcu32+0x1b8>
    94d4:	3c06285b          	bfoz	a6,a2,15,0
    94d8:	5d252e5b          	bfoz	t3,a0,23,18
    94dc:	40182edb          	bfoz	t4,a6,16,1
    94e0:	01c84f33          	xor	t5,a6,t3
    94e4:	005ecfb3          	xor	t6,t4,t0
    94e8:	000f745b          	bbc	t5,0,94f0 <crcu32+0x1d0>
    94ec:	3c0faedb          	bfoz	t4,t6,15,0
    94f0:	5d3527db          	bfoz	a5,a0,23,19
    94f4:	401ea5db          	bfoz	a1,t4,16,1
    94f8:	00fec6b3          	xor	a3,t4,a5
    94fc:	0055c333          	xor	t1,a1,t0
    9500:	0006f45b          	bbc	a3,0,9508 <crcu32+0x1e8>
    9504:	3c0325db          	bfoz	a1,t1,15,0
    9508:	5d4523db          	bfoz	t2,a0,23,20
    950c:	4015a85b          	bfoz	a6,a1,16,1
    9510:	0075c733          	xor	a4,a1,t2
    9514:	005848b3          	xor	a7,a6,t0
    9518:	0007745b          	bbc	a4,0,9520 <crcu32+0x200>
    951c:	3c08a85b          	bfoz	a6,a7,15,0
    9520:	5d55265b          	bfoz	a2,a0,23,21
    9524:	40182e5b          	bfoz	t3,a6,16,1
    9528:	00c84eb3          	xor	t4,a6,a2
    952c:	005e4f33          	xor	t5,t3,t0
    9530:	000ef45b          	bbc	t4,0,9538 <crcu32+0x218>
    9534:	3c0f2e5b          	bfoz	t3,t5,15,0
    9538:	5d652fdb          	bfoz	t6,a0,23,22
    953c:	001e5793          	srli	a5,t3,0x1
    9540:	01fe45b3          	xor	a1,t3,t6
    9544:	0057c6b3          	xor	a3,a5,t0
    9548:	0005f45b          	bbc	a1,0,9550 <crcu32+0x230>
    954c:	3c06a7db          	bfoz	a5,a3,15,0
    9550:	5d75235b          	bfoz	t1,a0,23,23
    9554:	0017d393          	srli	t2,a5,0x1
    9558:	0067c833          	xor	a6,a5,t1
    955c:	0053c733          	xor	a4,t2,t0
    9560:	0008745b          	bbc	a6,0,9568 <crcu32+0x248>
    9564:	3c0723db          	bfoz	t2,a4,15,0
    9568:	0013de13          	srli	t3,t2,0x1
    956c:	01855893          	srli	a7,a0,0x18
    9570:	0078c633          	xor	a2,a7,t2
    9574:	005e4f33          	xor	t5,t3,t0
    9578:	000e0e93          	addi	t4,t3,0
    957c:	0006745b          	bbc	a2,0,9584 <crcu32+0x264>
    9580:	3c0f2edb          	bfoz	t4,t5,15,0
    9584:	01955f93          	srli	t6,a0,0x19
    9588:	401ea7db          	bfoz	a5,t4,16,1
    958c:	01dfc5b3          	xor	a1,t6,t4
    9590:	0057c6b3          	xor	a3,a5,t0
    9594:	0005f45b          	bbc	a1,0,959c <crcu32+0x27c>
    9598:	3c06a7db          	bfoz	a5,a3,15,0
    959c:	01a55313          	srli	t1,a0,0x1a
    95a0:	4017a3db          	bfoz	t2,a5,16,1
    95a4:	00f34833          	xor	a6,t1,a5
    95a8:	0053c733          	xor	a4,t2,t0
    95ac:	0008745b          	bbc	a6,0,95b4 <crcu32+0x294>
    95b0:	3c0723db          	bfoz	t2,a4,15,0
    95b4:	01b55893          	srli	a7,a0,0x1b
    95b8:	4013ae5b          	bfoz	t3,t2,16,1
    95bc:	0078ceb3          	xor	t4,a7,t2
    95c0:	005e4633          	xor	a2,t3,t0
    95c4:	000ef45b          	bbc	t4,0,95cc <crcu32+0x2ac>
    95c8:	3c062e5b          	bfoz	t3,a2,15,0
    95cc:	01c55f13          	srli	t5,a0,0x1c
    95d0:	401e2fdb          	bfoz	t6,t3,16,1
    95d4:	01cf47b3          	xor	a5,t5,t3
    95d8:	005fc5b3          	xor	a1,t6,t0
    95dc:	0007f45b          	bbc	a5,0,95e4 <crcu32+0x2c4>
    95e0:	3c05afdb          	bfoz	t6,a1,15,0
    95e4:	01d55693          	srli	a3,a0,0x1d
    95e8:	401fa35b          	bfoz	t1,t6,16,1
    95ec:	00534833          	xor	a6,t1,t0
    95f0:	00dfc3b3          	xor	t2,t6,a3
    95f4:	0003f45b          	bbc	t2,0,95fc <crcu32+0x2dc>
    95f8:	3c08235b          	bfoz	t1,a6,15,0
    95fc:	01e55713          	srli	a4,a0,0x1e
    9600:	00135893          	srli	a7,t1,0x1
    9604:	0058ceb3          	xor	t4,a7,t0
    9608:	00e34e33          	xor	t3,t1,a4
    960c:	000e745b          	bbc	t3,0,9614 <crcu32+0x2f4>
    9610:	3c0ea8db          	bfoz	a7,t4,15,0
    9614:	01f55613          	srli	a2,a0,0x1f
    9618:	0018d513          	srli	a0,a7,0x1
    961c:	00c8cf33          	xor	t5,a7,a2
    9620:	005542b3          	xor	t0,a0,t0
    9624:	000f745b          	bbc	t5,0,962c <crcu32+0x30c>
    9628:	3c02a55b          	bfoz	a0,t0,15,0
    962c:	00008067          	jalr	zero,0(ra)

00009630 <crc16>:
    9630:	77e9                	c.lui	a5,0xffffa
    9632:	00178293          	addi	t0,a5,1 # ffffa001 <__start_addr+0x7fff9ff1>
    9636:	0015d693          	srli	a3,a1,0x1
    963a:	0056c733          	xor	a4,a3,t0
    963e:	8da9                	c.xor	a1,a0
    9640:	0005f45b          	bbc	a1,0,9648 <crc16+0x18>
    9644:	3c0726db          	bfoz	a3,a4,15,0
    9648:	1c15265b          	bfoz	a2,a0,7,1
    964c:	4016a35b          	bfoz	t1,a3,16,1
    9650:	00c6c3b3          	xor	t2,a3,a2
    9654:	00534833          	xor	a6,t1,t0
    9658:	0003f45b          	bbc	t2,0,9660 <crc16+0x30>
    965c:	3c08235b          	bfoz	t1,a6,15,0
    9660:	1c2528db          	bfoz	a7,a0,7,2
    9664:	40132e5b          	bfoz	t3,t1,16,1
    9668:	01134eb3          	xor	t4,t1,a7
    966c:	005e4f33          	xor	t5,t3,t0
    9670:	000ef45b          	bbc	t4,0,9678 <crc16+0x48>
    9674:	3c0f2e5b          	bfoz	t3,t5,15,0
    9678:	1c352fdb          	bfoz	t6,a0,7,3
    967c:	401e27db          	bfoz	a5,t3,16,1
    9680:	01fe46b3          	xor	a3,t3,t6
    9684:	0057c5b3          	xor	a1,a5,t0
    9688:	0006f45b          	bbc	a3,0,9690 <crc16+0x60>
    968c:	3c05a7db          	bfoz	a5,a1,15,0
    9690:	1c45275b          	bfoz	a4,a0,7,4
    9694:	4017a35b          	bfoz	t1,a5,16,1
    9698:	00e7c3b3          	xor	t2,a5,a4
    969c:	00534633          	xor	a2,t1,t0
    96a0:	0003f45b          	bbc	t2,0,96a8 <crc16+0x78>
    96a4:	3c06235b          	bfoz	t1,a2,15,0
    96a8:	1c55285b          	bfoz	a6,a0,7,5
    96ac:	401328db          	bfoz	a7,t1,16,1
    96b0:	01034e33          	xor	t3,t1,a6
    96b4:	0058ceb3          	xor	t4,a7,t0
    96b8:	000e745b          	bbc	t3,0,96c0 <crc16+0x90>
    96bc:	3c0ea8db          	bfoz	a7,t4,15,0
    96c0:	1c652f5b          	bfoz	t5,a0,7,6
    96c4:	0018df93          	srli	t6,a7,0x1
    96c8:	01e8c7b3          	xor	a5,a7,t5
    96cc:	005fc6b3          	xor	a3,t6,t0
    96d0:	0007f45b          	bbc	a5,0,96d8 <crc16+0xa8>
    96d4:	3c06afdb          	bfoz	t6,a3,15,0
    96d8:	1c7525db          	bfoz	a1,a0,7,7
    96dc:	001fd713          	srli	a4,t6,0x1
    96e0:	00bfc333          	xor	t1,t6,a1
    96e4:	005743b3          	xor	t2,a4,t0
    96e8:	0003745b          	bbc	t1,0,96f0 <crc16+0xc0>
    96ec:	3c03a75b          	bfoz	a4,t2,15,0
    96f0:	3c85285b          	bfoz	a6,a0,15,8
    96f4:	00175613          	srli	a2,a4,0x1
    96f8:	00e848b3          	xor	a7,a6,a4
    96fc:	00564eb3          	xor	t4,a2,t0
    9700:	40172e5b          	bfoz	t3,a4,16,1
    9704:	0008f45b          	bbc	a7,0,970c <crc16+0xdc>
    9708:	3c0eae5b          	bfoz	t3,t4,15,0
    970c:	3c952f5b          	bfoz	t5,a0,15,9
    9710:	401e2fdb          	bfoz	t6,t3,16,1
    9714:	01cf47b3          	xor	a5,t5,t3
    9718:	005fc6b3          	xor	a3,t6,t0
    971c:	0007f45b          	bbc	a5,0,9724 <crc16+0xf4>
    9720:	3c06afdb          	bfoz	t6,a3,15,0
    9724:	3ca525db          	bfoz	a1,a0,15,10
    9728:	401fa35b          	bfoz	t1,t6,16,1
    972c:	00bfc3b3          	xor	t2,t6,a1
    9730:	00534733          	xor	a4,t1,t0
    9734:	0003f45b          	bbc	t2,0,973c <crc16+0x10c>
    9738:	3c07235b          	bfoz	t1,a4,15,0
    973c:	3cb5285b          	bfoz	a6,a0,15,11
    9740:	401328db          	bfoz	a7,t1,16,1
    9744:	01034e33          	xor	t3,t1,a6
    9748:	0058c633          	xor	a2,a7,t0
    974c:	000e745b          	bbc	t3,0,9754 <crc16+0x124>
    9750:	3c0628db          	bfoz	a7,a2,15,0
    9754:	3cc52edb          	bfoz	t4,a0,15,12
    9758:	4018af5b          	bfoz	t5,a7,16,1
    975c:	01d8cfb3          	xor	t6,a7,t4
    9760:	005f47b3          	xor	a5,t5,t0
    9764:	000ff45b          	bbc	t6,0,976c <crc16+0x13c>
    9768:	3c07af5b          	bfoz	t5,a5,15,0
    976c:	3cd526db          	bfoz	a3,a0,15,13
    9770:	401f25db          	bfoz	a1,t5,16,1
    9774:	0055c3b3          	xor	t2,a1,t0
    9778:	00df4333          	xor	t1,t5,a3
    977c:	0003745b          	bbc	t1,0,9784 <crc16+0x154>
    9780:	3c03a5db          	bfoz	a1,t2,15,0
    9784:	3ce5275b          	bfoz	a4,a0,15,14
    9788:	0015d813          	srli	a6,a1,0x1
    978c:	00584e33          	xor	t3,a6,t0
    9790:	00e5c8b3          	xor	a7,a1,a4
    9794:	0008f45b          	bbc	a7,0,979c <crc16+0x16c>
    9798:	3c0e285b          	bfoz	a6,t3,15,0
    979c:	01f55613          	srli	a2,a0,0x1f
    97a0:	00185513          	srli	a0,a6,0x1
    97a4:	00c84eb3          	xor	t4,a6,a2
    97a8:	005542b3          	xor	t0,a0,t0
    97ac:	000ef45b          	bbc	t4,0,97b4 <crc16+0x184>
    97b0:	3c02a55b          	bfoz	a0,t0,15,0
    97b4:	00008067          	jalr	zero,0(ra)

000097b8 <check_data_types>:
    97b8:	4501                	c.li	a0,0
    97ba:	8082                	c.jr	ra

000097bc <memset>:
    97bc:	832a                	c.mv	t1,a0
    97be:	00c503b3          	add	t2,a0,a2
    97c2:	00357693          	andi	a3,a0,3
    97c6:	ce81                	c.beqz	a3,97de <memset+0x22>
    97c8:	ffc68693          	addi	a3,a3,-4
    97cc:	40d507b3          	sub	a5,a0,a3
    97d0:	06f3e463          	bltu	t2,a5,9838 <memset+0x7c>
    97d4:	00b50023          	sb	a1,0(a0)
    97d8:	0505                	c.addi	a0,1
    97da:	fea79de3          	bne	a5,a0,97d4 <memset+0x18>
    97de:	04750d63          	beq	a0,t2,9838 <memset+0x7c>
    97e2:	05e2                	c.slli	a1,0x18
    97e4:	0085d793          	srli	a5,a1,0x8
    97e8:	95be                	c.add	a1,a5
    97ea:	0105d793          	srli	a5,a1,0x10
    97ee:	95be                	c.add	a1,a5
    97f0:	40a38633          	sub	a2,t2,a0
    97f4:	02000713          	addi	a4,zero,32
    97f8:	fe067693          	andi	a3,a2,-32
    97fc:	00a687b3          	add	a5,a3,a0
    9800:	e285                	c.bnez	a3,9820 <memset+0x64>
    9802:	ffc67693          	andi	a3,a2,-4
    9806:	ca8d                	c.beqz	a3,9838 <memset+0x7c>
    9808:	40d70633          	sub	a2,a4,a3
    980c:	00a687b3          	add	a5,a3,a0
    9810:	8736                	c.mv	a4,a3
    9812:	8205                	c.srli	a2,0x1
    9814:	00000697          	auipc	a3,0x0
    9818:	00c686b3          	add	a3,a3,a2
    981c:	00c68067          	jalr	zero,12(a3) # 9820 <memset+0x64>
    9820:	cd4c                	c.sw	a1,28(a0)
    9822:	cd0c                	c.sw	a1,24(a0)
    9824:	c94c                	c.sw	a1,20(a0)
    9826:	c90c                	c.sw	a1,16(a0)
    9828:	c54c                	c.sw	a1,12(a0)
    982a:	c50c                	c.sw	a1,8(a0)
    982c:	c14c                	c.sw	a1,4(a0)
    982e:	c10c                	c.sw	a1,0(a0)
    9830:	953a                	c.add	a0,a4
    9832:	fef517e3          	bne	a0,a5,9820 <memset+0x64>
    9836:	bf6d                	c.j	97f0 <memset+0x34>
    9838:	879e                	c.mv	a5,t2
    983a:	f8751de3          	bne	a0,t2,97d4 <memset+0x18>
    983e:	851a                	c.mv	a0,t1
    9840:	8082                	c.jr	ra
    9842:	0000                	c.unimp
    9844:	0000                	c.unimp
	...

Disassembly of section .loader:

80000000 <__start_addr-0x10>:
80000000:	00000297          	auipc	t0,0x0
80000004:	0102a283          	lw	t0,16(t0) # 80000010 <__start_addr>
80000008:	8282                	c.jr	t0
8000000a:	00000013          	addi	zero,zero,0
8000000e:	0001                	c.addi	zero,0

80000010 <__start_addr>:
80000010:	0080                	c.addi4spn	s0,sp,64
80000012:	0000                	c.unimp
80000014:	0000                	c.unimp
	...

Contents of section .init:
 0000 00100000 f8100000 f8100000 f8100000  ................
 0010 f8100000 f8100000 f8100000 f8100000  ................
 0020 f8100000 f8100000 f8100000 f8100000  ................
 0030 f8100000 f8100000 f8100000 f8100000  ................
 0040 f8100000 f8100000 f8100000 f8100000  ................
 0050 f8100000 f8100000 f8100000 f8100000  ................
 0060 f8100000 f8100000 f8100000 f8100000  ................
 0070 f8100000 f8100000 f8100000 f8100000  ................
 0080 09a0f322 20346384 02006f10 a0068140  ..." 4c...o....@
 0090 01418141 01428142 01438143 01448144  .A.A.B.B.C.C.D.D
 00a0 01458145 01468146 01478147 01488148  .E.E.F.F.G.G.H.H
 00b0 01498149 014a814a 014b814b 014c814c  .I.I.J.J.K.K.L.L
 00c0 014d814d 014e814e 014f814f f3271030  .M.M.N.N.O.O.'.0
 00d0 9583858b c1c70967 73200730 530000f0  .......gs .0S...
 00e0 d30000f0 530100f0 d30100f0 530200f0  ....S.......S...
 00f0 d30200f0 530300f0 d30300f0 530400f0  ....S.......S...
 0100 d30400f0 530500f0 d30500f0 530600f0  ....S.......S...
 0110 d30600f0 530700f0 d30700f0 530800f0  ....S.......S...
 0120 d30800f0 530900f0 d30900f0 530a00f0  ....S.......S...
 0130 d30a00f0 530b00f0 d30b00f0 530c00f0  ....S.......S...
 0140 d30c00f0 530d00f0 d30d00f0 530e00f0  ....S.......S...
 0150 d30e00f0 530f00f0 d30f00f0 f3271030  ....S........'.0
 0160 d583858b d9cbf327 00301307 00207320  .......'.0... s 
 0170 07305777 00015730 005ed730 005e5731  .0Ww..W0.^.0.^W1
 0180 005ed731 005e5732 005ed732 005e5733  .^.1.^W2.^.2.^W3
 0190 005ed733 005e5734 005ed734 005e5735  .^.3.^W4.^.4.^W5
 01a0 005ed735 005e5736 005ed736 005e5737  .^.5.^W6.^.6.^W7
 01b0 005ed737 005e5738 005ed738 005e5739  .^.7.^W8.^.8.^W9
 01c0 005ed739 005e573a 005ed73a 005e573b  .^.9.^W:.^.:.^W;
 01d0 005ed73b 005e573c 005ed73c 005e573d  .^.;.^W<.^.<.^W=
 01e0 005ed73d 005e573e 005ed73e 005e573f  .^.=.^W>.^.>.^W?
 01f0 005ed73f 005e7390 07309701 000083a1  .^.?.^s..0......
 0200 61149702 000083a2 62147323 40f1a163  a.......b.s#@..c
 0210 63050300 9e927d13 e5bf1681 732320fc  c.....}.....s# .
 0220 1353b301 13731300 630f0300 97220000  .S...s..c...."..
 0230 938242dd 73907230 97120000 938282dc  ..B.s.r0........
 0240 93e23200 85a89712 00009382 a2e37323  ..2...........s#
 0250 10301353 23011373 13006307 03027323  .0.S#..s..c...s#
 0260 30309303 00203363 73007310 33307323  00... 3cs.s.30s#
 0270 007d1373 d3ff7310 037d7390 52109712  .}.s..s..}s.R...
 0280 00009382 22d83da0 97120000 938282d7  ....".=.........
 0290 732320fc 1353c300 13731300 630c0300  s# ..S...s..c...
 02a0 7323007d 13632300 7310037d 97020000  s#.}.c#.s..}....
 02b0 938242d5 73905230 bd427390 023afd52  ..B.s.R0.Bs..:.R
 02c0 7390023b ef205037 17b50000 130585d3  s..;. P7........
 02d0 97050000 83a50508 17060000 03260608  .............&..
 02e0 630cb500 63fac500 83220500 23a05500  c...c...."..#.U.
 02f0 11059105 e3eac5fe 17050000 03250506  .............%..
 0300 97050000 83a50506 6377b500 23200500  ........cw..# ..
 0310 1105e36d b5fe1705 00000325 25059705  ...m.......%%...
 0320 000083a5 25056377 b5002320 05001105  ....%.cw..# ....
 0330 e36db5fe ef20103e 01a08280 13000000  .m... .>........
 0340 10182000 00000000 00002800 00000000  .. .......(.....
 0350 00102000 00000000 20102000 00000000  .. ..... . .....
 0360 40102000 00000000 00003000 00000000  @. .......0.....
 0370 00003000 00000000 01001300 0000      ..0...........  

Contents of section .rodata:
 200000 366b2070 6572666f 726d616e 63652072  6k performance r
 200010 756e2070 6172616d 65746572 7320666f  un parameters fo
 200020 7220636f 72656d61 726b2e00 366b2076  r coremark..6k v
 200030 616c6964 6174696f 6e207275 6e207061  alidation run pa
 200040 72616d65 74657273 20666f72 20636f72  rameters for cor
 200050 656d6172 6b2e0000 50726f66 696c6520  emark...Profile 
 200060 67656e65 72617469 6f6e2072 756e2070  generation run p
 200070 6172616d 65746572 7320666f 7220636f  arameters for co
 200080 72656d61 726b2e00 324b2070 6572666f  remark..2K perfo
 200090 726d616e 63652072 756e2070 6172616d  rmance run param
 2000a0 65746572 7320666f 7220636f 72656d61  eters for corema
 2000b0 726b2e00 324b2076 616c6964 6174696f  rk..2K validatio
 2000c0 6e207275 6e207061 72616d65 74657273  n run parameters
 2000d0 20666f72 20636f72 656d6172 6b2e0000   for coremark...
 2000e0 5b25755d 4552524f 5221206c 69737420  [%u]ERROR! list 
 2000f0 63726320 30782530 3478202d 2073686f  crc 0x%04x - sho
 200100 756c6420 62652030 78253034 780a0000  uld be 0x%04x...
 200110 5b25755d 4552524f 5221206d 61747269  [%u]ERROR! matri
 200120 78206372 63203078 25303478 202d2073  x crc 0x%04x - s
 200130 686f756c 64206265 20307825 3034780a  hould be 0x%04x.
 200140 00000000 5b25755d 4552524f 52212073  ....[%u]ERROR! s
 200150 74617465 20637263 20307825 30347820  tate crc 0x%04x 
 200160 2d207368 6f756c64 20626520 30782530  - should be 0x%0
 200170 34780a00 436f7265 4d61726b 2053697a  4x..CoreMark Siz
 200180 65202020 203a2025 6c750a00 546f7461  e    : %lu..Tota
 200190 6c207469 636b7320 20202020 203a2025  l ticks      : %
 2001a0 6c750a00 546f7461 6c207469 6d652028  lu..Total time (
 2001b0 73656373 293a2025 640a0000 49746572  secs): %d...Iter
 2001c0 6174696f 6e732f53 65632020 203a2025  ations/Sec   : %
 2001d0 640a0000 4552524f 5221204d 75737420  d...ERROR! Must 
 2001e0 65786563 75746520 666f7220 6174206c  execute for at l
 2001f0 65617374 20313020 73656373 20666f72  east 10 secs for
 200200 20612076 616c6964 20726573 756c7421   a valid result!
 200210 00000000 49746572 6174696f 6e732020  ....Iterations  
 200220 20202020 203a2025 6c750a00 47434331       : %lu..GCC1
 200230 302e332e 30000000 436f6d70 696c6572  0.3.0...Compiler
 200240 20766572 73696f6e 203a2025 730a0000   version : %s...
 200250 506c6561 73652070 75742063 6f6d7069  Please put compi
 200260 6c657220 666c6167 73206865 72652028  ler flags here (
 200270 652e672e 202d6f33 29000000 436f6d70  e.g. -o3)...Comp
 200280 696c6572 20666c61 67732020 203a2025  iler flags   : %
 200290 730a0000 506c6561 73652070 75742064  s...Please put d
 2002a0 61746120 6d656d6f 7279206c 6f636174  ata memory locat
 2002b0 696f6e20 68657265 0a090909 28652e67  ion here....(e.g
 2002c0 2e20636f 64652069 6e20666c 6173682c  . code in flash,
 2002d0 20646174 61206f6e 20686561 70206574   data on heap et
 2002e0 63290000 4d656d6f 7279206c 6f636174  c)..Memory locat
 2002f0 696f6e20 203a2025 730a0000 73656564  ion  : %s...seed
 200300 63726320 20202020 20202020 203a2030  crc          : 0
 200310 78253034 780a0000 5b25645d 6372636c  x%04x...[%d]crcl
 200320 69737420 20202020 20203a20 30782530  ist       : 0x%0
 200330 34780a00 5b25645d 6372636d 61747269  4x..[%d]crcmatri
 200340 78202020 20203a20 30782530 34780a00  x     : 0x%04x..
 200350 5b25645d 63726373 74617465 20202020  [%d]crcstate    
 200360 20203a20 30782530 34780a00 5b25645d    : 0x%04x..[%d]
 200370 63726366 696e616c 20202020 20203a20  crcfinal      : 
 200380 30782530 34780a00 436f7272 65637420  0x%04x..Correct 
 200390 6f706572 6174696f 6e207661 6c696461  operation valida
 2003a0 7465642e 20536565 20524541 444d452e  ted. See README.
 2003b0 6d642066 6f722072 756e2061 6e642072  md for run and r
 2003c0 65706f72 74696e67 2072756c 65732e00  eporting rules..
 2003d0 4572726f 72732064 65746563 74656400  Errors detected.
 2003e0 43616e6e 6f742076 616c6964 61746520  Cannot validate 
 2003f0 6f706572 6174696f 6e20666f 72207468  operation for th
 200400 65736520 73656564 2076616c 7565732c  ese seed values,
 200410 20706c65 61736520 636f6d70 61726520   please compare 
 200420 77697468 20726573 756c7473 206f6e20  with results on 
 200430 61206b6e 6f776e20 706c6174 666f726d  a known platform
 200440 2e000000 53746174 69630000 48656170  ....Static..Heap
 200450 00000000 53746163 6b000000 54302e33  ....Stack...T0.3
 200460 652d3146 00000000 2d542e54 2b2b5471  e-1F....-T.T++Tq
 200470 00000000 3154332e 3465347a 00000000  ....1T3.4e4z....
 200480 33342e30 652d545e 00000000 352e3530  34.0e-T^....5.50
 200490 30652b33 00000000 2d2e3132 33652d32  0e+3....-.123e-2
 2004a0 00000000 2d383765 2b383332 00000000  ....-87e+832....
 2004b0 2b302e36 652d3132 00000000 33352e35  +0.6e-12....35.5
 2004c0 34343030 00000000 2e313233 34353030  4400.....1234500
 2004d0 00000000 2d313130 2e373030 00000000  ....-110.700....
 2004e0 2b302e36 34343030 00000000 35303132  +0.64400....5012
 2004f0 00000000 31323334 00000000 2d383734  ....1234....-874
 200500 00000000 2b313232 00000000 ec042000  ....+122...... .
 200510 f4042000 fc042000 04052000 bc042000  .. ... ... ... .
 200520 c8042000 d4042000 e0042000 8c042000  .. ... ... ... .
 200530 98042000 a4042000 b0042000 5c042000  .. ... ... .\. .
 200540 68042000 74042000 80042000 d0900000  h. .t. ... .....
 200550 b0900000 b8900000 c0900000 c8900000  ................
 200560 a8900000                             ....            

Contents of section .data:
 201000 00102000 44042000 4c042000 54042000  .. .D. .L. .T. .

Contents of section .sdata:
 201010 01000000 04000000 66000000           ........f...    

Contents of section .loader:
 80000000 97020000 83a20201 82821300 00000100  ................
 80000010 80000000 00000000                    ........        
