
a.out:     file format elf32-littleriscv


Disassembly of section .text.init:

00000000 <_RELAX_END_>:
	...

00000080 <_start>:
  80:	0340006f          	jal	zero,b4 <reset_vector>

00000084 <trap_vector>:
  84:	00000f17          	auipc	t5,0x0
  88:	f7cf0f13          	addi	t5,t5,-132 # 0 <_RELAX_END_>
  8c:	000f0363          	beq	t5,zero,92 <trap_vector+0xe>
  90:	8f02                	c.jr	t5
  92:	34202f73          	csrrs	t5,mcause,zero
  96:	000f5363          	bge	t5,zero,9c <handle_exception>
  9a:	a009                	c.j	9c <handle_exception>

0000009c <handle_exception>:
  9c:	5391e193          	ori	gp,gp,1337

000000a0 <fail_handler>:
  a0:	0ff0000f          	fence	iorw,iorw
  a4:	e00802b7          	lui	t0,0xe0080
  a8:	01234337          	lui	t1,0x1234
  ac:	56930313          	addi	t1,t1,1385 # 1234569 <__global_pointer$+0x1232d59>
  b0:	0062a023          	sw	t1,0(t0) # e0080000 <__start_addr+0x6007fff0>

000000b4 <reset_vector>:
  b4:	f1402573          	csrrs	a0,mhartid,zero
  b8:	00051063          	bne	a0,zero,b8 <reset_vector+0x4>
  bc:	00000297          	auipc	t0,0x0
  c0:	01028293          	addi	t0,t0,16 # cc <reset_vector+0x18>
  c4:	30529073          	csrrw	zero,mtvec,t0
  c8:	18005073          	csrrwi	zero,satp,0
  cc:	00000297          	auipc	t0,0x0
  d0:	02028293          	addi	t0,t0,32 # ec <reset_vector+0x38>
  d4:	30529073          	csrrw	zero,mtvec,t0
  d8:	800002b7          	lui	t0,0x80000
  dc:	fff28293          	addi	t0,t0,-1 # 7fffffff <__start_addr+0xffffffef>
  e0:	3b029073          	csrrw	zero,pmpaddr0,t0
  e4:	01f00293          	addi	t0,zero,31
  e8:	3a029073          	csrrw	zero,pmpcfg0,t0
  ec:	00000297          	auipc	t0,0x0
  f0:	01828293          	addi	t0,t0,24 # 104 <reset_vector+0x50>
  f4:	30529073          	csrrw	zero,mtvec,t0
  f8:	30205073          	csrrwi	zero,medeleg,0
  fc:	30305073          	csrrwi	zero,mideleg,0
 100:	30405073          	csrrwi	zero,mie,0
 104:	4181                	c.li	gp,0
 106:	00000297          	auipc	t0,0x0
 10a:	f7e28293          	addi	t0,t0,-130 # 84 <trap_vector>
 10e:	30529073          	csrrw	zero,mtvec,t0
 112:	30102573          	csrrs	a0,misa,zero
 116:	00055c63          	bge	a0,zero,12e <reset_vector+0x7a>
 11a:	0ff0000f          	fence	iorw,iorw
 11e:	e00802b7          	lui	t0,0xe0080
 122:	01234337          	lui	t1,0x1234
 126:	56830313          	addi	t1,t1,1384 # 1234568 <__global_pointer$+0x1232d58>
 12a:	0062a023          	sw	t1,0(t0) # e0080000 <__start_addr+0x6007fff0>
 12e:	00000297          	auipc	t0,0x0
 132:	ed228293          	addi	t0,t0,-302 # 0 <_RELAX_END_>
 136:	00028e63          	beq	t0,zero,152 <reset_vector+0x9e>
 13a:	10529073          	csrrw	zero,stvec,t0
 13e:	0000b2b7          	lui	t0,0xb
 142:	10928293          	addi	t0,t0,265 # b109 <__global_pointer$+0x98f9>
 146:	30229073          	csrrw	zero,medeleg,t0
 14a:	30202373          	csrrs	t1,medeleg,zero
 14e:	f46297e3          	bne	t0,t1,9c <handle_exception>
 152:	30005073          	csrrwi	zero,mstatus,0
 156:	557d                	c.li	a0,-1
 158:	3b051073          	csrrw	zero,pmpaddr0,a0
 15c:	3a0fd073          	csrrwi	zero,pmpcfg0,31
 160:	00000297          	auipc	t0,0x0
 164:	01428293          	addi	t0,t0,20 # 174 <test_2>
 168:	34129073          	csrrw	zero,mepc,t0
 16c:	f1402573          	csrrs	a0,mhartid,zero
 170:	30200073          	mret

00000174 <test_2>:
 174:	00001097          	auipc	ra,0x1
 178:	e8c08093          	addi	ra,ra,-372 # 1000 <begin_signature>
 17c:	faa00113          	addi	sp,zero,-86
 180:	00208023          	sb	sp,0(ra)
 184:	00008703          	lb	a4,0(ra)
 188:	faa00e93          	addi	t4,zero,-86
 18c:	4189                	c.li	gp,2
 18e:	33d71463          	bne	a4,t4,4b6 <fail>

00000192 <test_3>:
 192:	00001097          	auipc	ra,0x1
 196:	e6e08093          	addi	ra,ra,-402 # 1000 <begin_signature>
 19a:	4101                	c.li	sp,0
 19c:	002080a3          	sb	sp,1(ra)
 1a0:	00108703          	lb	a4,1(ra)
 1a4:	4e81                	c.li	t4,0
 1a6:	418d                	c.li	gp,3
 1a8:	31d71763          	bne	a4,t4,4b6 <fail>

000001ac <test_4>:
 1ac:	00001097          	auipc	ra,0x1
 1b0:	e5408093          	addi	ra,ra,-428 # 1000 <begin_signature>
 1b4:	fffff137          	lui	sp,0xfffff
 1b8:	fa010113          	addi	sp,sp,-96 # ffffefa0 <__start_addr+0x7fffef90>
 1bc:	00208123          	sb	sp,2(ra)
 1c0:	00209703          	lh	a4,2(ra)
 1c4:	fffffeb7          	lui	t4,0xfffff
 1c8:	fa0e8e93          	addi	t4,t4,-96 # ffffefa0 <__start_addr+0x7fffef90>
 1cc:	4191                	c.li	gp,4
 1ce:	2fd71463          	bne	a4,t4,4b6 <fail>

000001d2 <test_5>:
 1d2:	00001097          	auipc	ra,0x1
 1d6:	e2e08093          	addi	ra,ra,-466 # 1000 <begin_signature>
 1da:	4129                	c.li	sp,10
 1dc:	002081a3          	sb	sp,3(ra)
 1e0:	00308703          	lb	a4,3(ra)
 1e4:	4ea9                	c.li	t4,10
 1e6:	4195                	c.li	gp,5
 1e8:	2dd71763          	bne	a4,t4,4b6 <fail>

000001ec <test_6>:
 1ec:	00001097          	auipc	ra,0x1
 1f0:	e1b08093          	addi	ra,ra,-485 # 1007 <tdat8>
 1f4:	faa00113          	addi	sp,zero,-86
 1f8:	fe208ea3          	sb	sp,-3(ra)
 1fc:	ffd08703          	lb	a4,-3(ra)
 200:	faa00e93          	addi	t4,zero,-86
 204:	4199                	c.li	gp,6
 206:	2bd71863          	bne	a4,t4,4b6 <fail>

0000020a <test_7>:
 20a:	00001097          	auipc	ra,0x1
 20e:	dfd08093          	addi	ra,ra,-515 # 1007 <tdat8>
 212:	4101                	c.li	sp,0
 214:	fe208f23          	sb	sp,-2(ra)
 218:	ffe08703          	lb	a4,-2(ra)
 21c:	4e81                	c.li	t4,0
 21e:	419d                	c.li	gp,7
 220:	29d71b63          	bne	a4,t4,4b6 <fail>

00000224 <test_8>:
 224:	00001097          	auipc	ra,0x1
 228:	de308093          	addi	ra,ra,-541 # 1007 <tdat8>
 22c:	fa000113          	addi	sp,zero,-96
 230:	fe208fa3          	sb	sp,-1(ra)
 234:	fff08703          	lb	a4,-1(ra)
 238:	fa000e93          	addi	t4,zero,-96
 23c:	41a1                	c.li	gp,8
 23e:	27d71c63          	bne	a4,t4,4b6 <fail>

00000242 <test_9>:
 242:	00001097          	auipc	ra,0x1
 246:	dc508093          	addi	ra,ra,-571 # 1007 <tdat8>
 24a:	4129                	c.li	sp,10
 24c:	00208023          	sb	sp,0(ra)
 250:	00008703          	lb	a4,0(ra)
 254:	4ea9                	c.li	t4,10
 256:	41a5                	c.li	gp,9
 258:	25d71f63          	bne	a4,t4,4b6 <fail>

0000025c <test_10>:
 25c:	00001097          	auipc	ra,0x1
 260:	dac08093          	addi	ra,ra,-596 # 1008 <tdat9>
 264:	12345137          	lui	sp,0x12345
 268:	67810113          	addi	sp,sp,1656 # 12345678 <__global_pointer$+0x12343e68>
 26c:	fe008213          	addi	tp,ra,-32
 270:	02220023          	sb	sp,32(tp) # 20 <_RELAX_END_+0x20>
 274:	00008283          	lb	t0,0(ra)
 278:	07800e93          	addi	t4,zero,120
 27c:	41a9                	c.li	gp,10
 27e:	23d29c63          	bne	t0,t4,4b6 <fail>

00000282 <test_11>:
 282:	00001097          	auipc	ra,0x1
 286:	d8608093          	addi	ra,ra,-634 # 1008 <tdat9>
 28a:	00003137          	lui	sp,0x3
 28e:	09810113          	addi	sp,sp,152 # 3098 <__global_pointer$+0x1888>
 292:	10e9                	c.addi	ra,-6
 294:	002083a3          	sb	sp,7(ra)
 298:	00001217          	auipc	tp,0x1
 29c:	d7120213          	addi	tp,tp,-655 # 1009 <tdat10>
 2a0:	00020283          	lb	t0,0(tp) # 0 <_RELAX_END_>
 2a4:	f9800e93          	addi	t4,zero,-104
 2a8:	41ad                	c.li	gp,11
 2aa:	21d29663          	bne	t0,t4,4b6 <fail>

000002ae <test_12>:
 2ae:	41b1                	c.li	gp,12
 2b0:	4201                	c.li	tp,0
 2b2:	fdd00093          	addi	ra,zero,-35
 2b6:	00001117          	auipc	sp,0x1
 2ba:	d4a10113          	addi	sp,sp,-694 # 1000 <begin_signature>
 2be:	00110023          	sb	ra,0(sp)
 2c2:	00010703          	lb	a4,0(sp)
 2c6:	fdd00e93          	addi	t4,zero,-35
 2ca:	1fd71663          	bne	a4,t4,4b6 <fail>
 2ce:	0205                	c.addi	tp,1
 2d0:	4289                	c.li	t0,2
 2d2:	fe5210e3          	bne	tp,t0,2b2 <test_12+0x4>

000002d6 <test_13>:
 2d6:	41b5                	c.li	gp,13
 2d8:	4201                	c.li	tp,0
 2da:	fcd00093          	addi	ra,zero,-51
 2de:	00001117          	auipc	sp,0x1
 2e2:	d2210113          	addi	sp,sp,-734 # 1000 <begin_signature>
 2e6:	0001                	c.addi	zero,0
 2e8:	001100a3          	sb	ra,1(sp)
 2ec:	00110703          	lb	a4,1(sp)
 2f0:	fcd00e93          	addi	t4,zero,-51
 2f4:	1dd71163          	bne	a4,t4,4b6 <fail>
 2f8:	0205                	c.addi	tp,1
 2fa:	4289                	c.li	t0,2
 2fc:	fc521fe3          	bne	tp,t0,2da <test_13+0x4>

00000300 <test_14>:
 300:	41b9                	c.li	gp,14
 302:	4201                	c.li	tp,0
 304:	fcc00093          	addi	ra,zero,-52
 308:	00001117          	auipc	sp,0x1
 30c:	cf810113          	addi	sp,sp,-776 # 1000 <begin_signature>
 310:	0001                	c.addi	zero,0
 312:	0001                	c.addi	zero,0
 314:	00110123          	sb	ra,2(sp)
 318:	00210703          	lb	a4,2(sp)
 31c:	fcc00e93          	addi	t4,zero,-52
 320:	19d71b63          	bne	a4,t4,4b6 <fail>
 324:	0205                	c.addi	tp,1
 326:	4289                	c.li	t0,2
 328:	fc521ee3          	bne	tp,t0,304 <test_14+0x4>

0000032c <test_15>:
 32c:	41bd                	c.li	gp,15
 32e:	4201                	c.li	tp,0
 330:	fbc00093          	addi	ra,zero,-68
 334:	0001                	c.addi	zero,0
 336:	00001117          	auipc	sp,0x1
 33a:	cca10113          	addi	sp,sp,-822 # 1000 <begin_signature>
 33e:	001101a3          	sb	ra,3(sp)
 342:	00310703          	lb	a4,3(sp)
 346:	fbc00e93          	addi	t4,zero,-68
 34a:	17d71663          	bne	a4,t4,4b6 <fail>
 34e:	0205                	c.addi	tp,1
 350:	4289                	c.li	t0,2
 352:	fc521fe3          	bne	tp,t0,330 <test_15+0x4>

00000356 <test_16>:
 356:	41c1                	c.li	gp,16
 358:	4201                	c.li	tp,0
 35a:	fbb00093          	addi	ra,zero,-69
 35e:	0001                	c.addi	zero,0
 360:	00001117          	auipc	sp,0x1
 364:	ca010113          	addi	sp,sp,-864 # 1000 <begin_signature>
 368:	0001                	c.addi	zero,0
 36a:	00110223          	sb	ra,4(sp)
 36e:	00410703          	lb	a4,4(sp)
 372:	fbb00e93          	addi	t4,zero,-69
 376:	15d71063          	bne	a4,t4,4b6 <fail>
 37a:	0205                	c.addi	tp,1
 37c:	4289                	c.li	t0,2
 37e:	fc521ee3          	bne	tp,t0,35a <test_16+0x4>

00000382 <test_17>:
 382:	41c5                	c.li	gp,17
 384:	4201                	c.li	tp,0
 386:	fab00093          	addi	ra,zero,-85
 38a:	0001                	c.addi	zero,0
 38c:	0001                	c.addi	zero,0
 38e:	00001117          	auipc	sp,0x1
 392:	c7210113          	addi	sp,sp,-910 # 1000 <begin_signature>
 396:	001102a3          	sb	ra,5(sp)
 39a:	00510703          	lb	a4,5(sp)
 39e:	fab00e93          	addi	t4,zero,-85
 3a2:	11d71a63          	bne	a4,t4,4b6 <fail>
 3a6:	0205                	c.addi	tp,1
 3a8:	4289                	c.li	t0,2
 3aa:	fc521ee3          	bne	tp,t0,386 <test_17+0x4>

000003ae <test_18>:
 3ae:	41c9                	c.li	gp,18
 3b0:	4201                	c.li	tp,0
 3b2:	00001117          	auipc	sp,0x1
 3b6:	c4e10113          	addi	sp,sp,-946 # 1000 <begin_signature>
 3ba:	03300093          	addi	ra,zero,51
 3be:	00110023          	sb	ra,0(sp)
 3c2:	00010703          	lb	a4,0(sp)
 3c6:	03300e93          	addi	t4,zero,51
 3ca:	0fd71663          	bne	a4,t4,4b6 <fail>
 3ce:	0205                	c.addi	tp,1
 3d0:	4289                	c.li	t0,2
 3d2:	fe5210e3          	bne	tp,t0,3b2 <test_18+0x4>

000003d6 <test_19>:
 3d6:	41cd                	c.li	gp,19
 3d8:	4201                	c.li	tp,0
 3da:	00001117          	auipc	sp,0x1
 3de:	c2610113          	addi	sp,sp,-986 # 1000 <begin_signature>
 3e2:	02300093          	addi	ra,zero,35
 3e6:	0001                	c.addi	zero,0
 3e8:	001100a3          	sb	ra,1(sp)
 3ec:	00110703          	lb	a4,1(sp)
 3f0:	02300e93          	addi	t4,zero,35
 3f4:	0dd71163          	bne	a4,t4,4b6 <fail>
 3f8:	0205                	c.addi	tp,1
 3fa:	4289                	c.li	t0,2
 3fc:	fc521fe3          	bne	tp,t0,3da <test_19+0x4>

00000400 <test_20>:
 400:	41d1                	c.li	gp,20
 402:	4201                	c.li	tp,0
 404:	00001117          	auipc	sp,0x1
 408:	bfc10113          	addi	sp,sp,-1028 # 1000 <begin_signature>
 40c:	02200093          	addi	ra,zero,34
 410:	0001                	c.addi	zero,0
 412:	0001                	c.addi	zero,0
 414:	00110123          	sb	ra,2(sp)
 418:	00210703          	lb	a4,2(sp)
 41c:	02200e93          	addi	t4,zero,34
 420:	09d71b63          	bne	a4,t4,4b6 <fail>
 424:	0205                	c.addi	tp,1
 426:	4289                	c.li	t0,2
 428:	fc521ee3          	bne	tp,t0,404 <test_20+0x4>

0000042c <test_21>:
 42c:	41d5                	c.li	gp,21
 42e:	4201                	c.li	tp,0
 430:	00001117          	auipc	sp,0x1
 434:	bd010113          	addi	sp,sp,-1072 # 1000 <begin_signature>
 438:	0001                	c.addi	zero,0
 43a:	40c9                	c.li	ra,18
 43c:	001101a3          	sb	ra,3(sp)
 440:	00310703          	lb	a4,3(sp)
 444:	4ec9                	c.li	t4,18
 446:	07d71863          	bne	a4,t4,4b6 <fail>
 44a:	0205                	c.addi	tp,1
 44c:	4289                	c.li	t0,2
 44e:	fe5211e3          	bne	tp,t0,430 <test_21+0x4>

00000452 <test_22>:
 452:	41d9                	c.li	gp,22
 454:	4201                	c.li	tp,0
 456:	00001117          	auipc	sp,0x1
 45a:	baa10113          	addi	sp,sp,-1110 # 1000 <begin_signature>
 45e:	0001                	c.addi	zero,0
 460:	40c5                	c.li	ra,17
 462:	0001                	c.addi	zero,0
 464:	00110223          	sb	ra,4(sp)
 468:	00410703          	lb	a4,4(sp)
 46c:	4ec5                	c.li	t4,17
 46e:	05d71463          	bne	a4,t4,4b6 <fail>
 472:	0205                	c.addi	tp,1
 474:	4289                	c.li	t0,2
 476:	fe5210e3          	bne	tp,t0,456 <test_22+0x4>

0000047a <test_23>:
 47a:	41dd                	c.li	gp,23
 47c:	4201                	c.li	tp,0
 47e:	00001117          	auipc	sp,0x1
 482:	b8210113          	addi	sp,sp,-1150 # 1000 <begin_signature>
 486:	0001                	c.addi	zero,0
 488:	0001                	c.addi	zero,0
 48a:	4085                	c.li	ra,1
 48c:	001102a3          	sb	ra,5(sp)
 490:	00510703          	lb	a4,5(sp)
 494:	4e85                	c.li	t4,1
 496:	03d71063          	bne	a4,t4,4b6 <fail>
 49a:	0205                	c.addi	tp,1
 49c:	4289                	c.li	t0,2
 49e:	fe5210e3          	bne	tp,t0,47e <test_23+0x4>
 4a2:	0ef00513          	addi	a0,zero,239
 4a6:	00001597          	auipc	a1,0x1
 4aa:	b5a58593          	addi	a1,a1,-1190 # 1000 <begin_signature>
 4ae:	00a581a3          	sb	a0,3(a1)
 4b2:	00301c63          	bne	zero,gp,4ca <pass>

000004b6 <fail>:
 4b6:	0ff0000f          	fence	iorw,iorw
 4ba:	e00802b7          	lui	t0,0xe0080
 4be:	01234337          	lui	t1,0x1234
 4c2:	56930313          	addi	t1,t1,1385 # 1234569 <__global_pointer$+0x1232d59>
 4c6:	0062a023          	sw	t1,0(t0) # e0080000 <__start_addr+0x6007fff0>

000004ca <pass>:
 4ca:	0ff0000f          	fence	iorw,iorw
 4ce:	e00802b7          	lui	t0,0xe0080
 4d2:	01234337          	lui	t1,0x1234
 4d6:	56830313          	addi	t1,t1,1384 # 1234568 <__global_pointer$+0x1232d58>
 4da:	0062a023          	sw	t1,0(t0) # e0080000 <__start_addr+0x6007fff0>
 4de:	0000                	c.unimp
 4e0:	00000013          	addi	zero,zero,0
 4e4:	00000013          	addi	zero,zero,0
 4e8:	00000013          	addi	zero,zero,0
 4ec:	00000013          	addi	zero,zero,0
 4f0:	00000013          	addi	zero,zero,0
 4f4:	00000013          	addi	zero,zero,0
 4f8:	00000013          	addi	zero,zero,0
 4fc:	00000013          	addi	zero,zero,0

Contents of section .data:
 1000 efefefef efefefef efef0000 00000000  ................

Contents of section .loader:
 80000000 97020000 83a20201 82920000 00000000  ................
 80000010 80000000 00000000                    ........        
