
whet.exe:     file format elf32-littleriscv


Disassembly of section .init:

00000000 <_RELAX_END_>:
   0:	1000                	c.addi4spn	s0,sp,32
   2:	0000                	c.unimp
   4:	10f8                	c.addi4spn	a4,sp,108
   6:	0000                	c.unimp
   8:	10f8                	c.addi4spn	a4,sp,108
   a:	0000                	c.unimp
   c:	10f8                	c.addi4spn	a4,sp,108
   e:	0000                	c.unimp
  10:	10f8                	c.addi4spn	a4,sp,108
  12:	0000                	c.unimp
  14:	10f8                	c.addi4spn	a4,sp,108
  16:	0000                	c.unimp
  18:	10f8                	c.addi4spn	a4,sp,108
  1a:	0000                	c.unimp
  1c:	10f8                	c.addi4spn	a4,sp,108
  1e:	0000                	c.unimp
  20:	10f8                	c.addi4spn	a4,sp,108
  22:	0000                	c.unimp
  24:	10f8                	c.addi4spn	a4,sp,108
  26:	0000                	c.unimp
  28:	10f8                	c.addi4spn	a4,sp,108
  2a:	0000                	c.unimp
  2c:	10f8                	c.addi4spn	a4,sp,108
  2e:	0000                	c.unimp
  30:	10f8                	c.addi4spn	a4,sp,108
  32:	0000                	c.unimp
  34:	10f8                	c.addi4spn	a4,sp,108
  36:	0000                	c.unimp
  38:	10f8                	c.addi4spn	a4,sp,108
  3a:	0000                	c.unimp
  3c:	10f8                	c.addi4spn	a4,sp,108
  3e:	0000                	c.unimp
  40:	10f8                	c.addi4spn	a4,sp,108
  42:	0000                	c.unimp
  44:	10f8                	c.addi4spn	a4,sp,108
  46:	0000                	c.unimp
  48:	10f8                	c.addi4spn	a4,sp,108
  4a:	0000                	c.unimp
  4c:	10f8                	c.addi4spn	a4,sp,108
  4e:	0000                	c.unimp
  50:	10f8                	c.addi4spn	a4,sp,108
  52:	0000                	c.unimp
  54:	10f8                	c.addi4spn	a4,sp,108
  56:	0000                	c.unimp
  58:	10f8                	c.addi4spn	a4,sp,108
  5a:	0000                	c.unimp
  5c:	10f8                	c.addi4spn	a4,sp,108
  5e:	0000                	c.unimp
  60:	10f8                	c.addi4spn	a4,sp,108
  62:	0000                	c.unimp
  64:	10f8                	c.addi4spn	a4,sp,108
  66:	0000                	c.unimp
  68:	10f8                	c.addi4spn	a4,sp,108
  6a:	0000                	c.unimp
  6c:	10f8                	c.addi4spn	a4,sp,108
  6e:	0000                	c.unimp
  70:	10f8                	c.addi4spn	a4,sp,108
  72:	0000                	c.unimp
  74:	10f8                	c.addi4spn	a4,sp,108
  76:	0000                	c.unimp
  78:	10f8                	c.addi4spn	a4,sp,108
  7a:	0000                	c.unimp
  7c:	10f8                	c.addi4spn	a4,sp,108
	...

00000080 <_start>:
  80:	a009                	c.j	82 <_reset_handler>

00000082 <_reset_handler>:
  82:	342022f3          	csrrs	t0,mcause,zero
  86:	00028463          	beq	t0,zero,8e <_reset_handler+0xc>
  8a:	06a0106f          	jal	zero,10f4 <nmi_handler>
  8e:	4081                	c.li	ra,0
  90:	4101                	c.li	sp,0
  92:	4181                	c.li	gp,0
  94:	4201                	c.li	tp,0
  96:	4281                	c.li	t0,0
  98:	4301                	c.li	t1,0
  9a:	4381                	c.li	t2,0
  9c:	4401                	c.li	s0,0
  9e:	4481                	c.li	s1,0
  a0:	4501                	c.li	a0,0
  a2:	4581                	c.li	a1,0
  a4:	4601                	c.li	a2,0
  a6:	4681                	c.li	a3,0
  a8:	4701                	c.li	a4,0
  aa:	4781                	c.li	a5,0
  ac:	4801                	c.li	a6,0
  ae:	4881                	c.li	a7,0
  b0:	4901                	c.li	s2,0
  b2:	4981                	c.li	s3,0
  b4:	4a01                	c.li	s4,0
  b6:	4a81                	c.li	s5,0
  b8:	4b01                	c.li	s6,0
  ba:	4b81                	c.li	s7,0
  bc:	4c01                	c.li	s8,0
  be:	4c81                	c.li	s9,0
  c0:	4d01                	c.li	s10,0
  c2:	4d81                	c.li	s11,0
  c4:	4e01                	c.li	t3,0
  c6:	4e81                	c.li	t4,0
  c8:	4f01                	c.li	t5,0
  ca:	4f81                	c.li	t6,0
  cc:	301027f3          	csrrs	a5,misa,zero
  d0:	8395                	c.srli	a5,0x5
  d2:	8b85                	c.andi	a5,1
  d4:	c7c1                	c.beqz	a5,15c <_reset_handler+0xda>
  d6:	6709                	c.lui	a4,0x2
  d8:	30072073          	csrrs	zero,mstatus,a4
  dc:	f0000053          	fmv.w.x	ft0,zero
  e0:	f00000d3          	fmv.w.x	ft1,zero
  e4:	f0000153          	fmv.w.x	ft2,zero
  e8:	f00001d3          	fmv.w.x	ft3,zero
  ec:	f0000253          	fmv.w.x	ft4,zero
  f0:	f00002d3          	fmv.w.x	ft5,zero
  f4:	f0000353          	fmv.w.x	ft6,zero
  f8:	f00003d3          	fmv.w.x	ft7,zero
  fc:	f0000453          	fmv.w.x	fs0,zero
 100:	f00004d3          	fmv.w.x	fs1,zero
 104:	f0000553          	fmv.w.x	fa0,zero
 108:	f00005d3          	fmv.w.x	fa1,zero
 10c:	f0000653          	fmv.w.x	fa2,zero
 110:	f00006d3          	fmv.w.x	fa3,zero
 114:	f0000753          	fmv.w.x	fa4,zero
 118:	f00007d3          	fmv.w.x	fa5,zero
 11c:	f0000853          	fmv.w.x	fa6,zero
 120:	f00008d3          	fmv.w.x	fa7,zero
 124:	f0000953          	fmv.w.x	fs2,zero
 128:	f00009d3          	fmv.w.x	fs3,zero
 12c:	f0000a53          	fmv.w.x	fs4,zero
 130:	f0000ad3          	fmv.w.x	fs5,zero
 134:	f0000b53          	fmv.w.x	fs6,zero
 138:	f0000bd3          	fmv.w.x	fs7,zero
 13c:	f0000c53          	fmv.w.x	fs8,zero
 140:	f0000cd3          	fmv.w.x	fs9,zero
 144:	f0000d53          	fmv.w.x	fs10,zero
 148:	f0000dd3          	fmv.w.x	fs11,zero
 14c:	f0000e53          	fmv.w.x	ft8,zero
 150:	f0000ed3          	fmv.w.x	ft9,zero
 154:	f0000f53          	fmv.w.x	ft10,zero
 158:	f0000fd3          	fmv.w.x	ft11,zero
 15c:	301027f3          	csrrs	a5,misa,zero
 160:	83d5                	c.srli	a5,0x15
 162:	8b85                	c.andi	a5,1
 164:	cbd9                	c.beqz	a5,1fa <_reset_handler+0x178>
 166:	300027f3          	csrrs	a5,mstatus,zero
 16a:	20000713          	addi	a4,zero,512
 16e:	30072073          	csrrs	zero,mstatus,a4
 172:	01007757          	vsetvli	a4,zero,e32,m1,tu,mu,d1
 176:	5e003057          	vmv.v.i	v0,0
 17a:	5e0030d7          	vmv.v.i	v1,0
 17e:	5e003157          	vmv.v.i	v2,0
 182:	5e0031d7          	vmv.v.i	v3,0
 186:	5e003257          	vmv.v.i	v4,0
 18a:	5e0032d7          	vmv.v.i	v5,0
 18e:	5e003357          	vmv.v.i	v6,0
 192:	5e0033d7          	vmv.v.i	v7,0
 196:	5e003457          	vmv.v.i	v8,0
 19a:	5e0034d7          	vmv.v.i	v9,0
 19e:	5e003557          	vmv.v.i	v10,0
 1a2:	5e0035d7          	vmv.v.i	v11,0
 1a6:	5e003657          	vmv.v.i	v12,0
 1aa:	5e0036d7          	vmv.v.i	v13,0
 1ae:	5e003757          	vmv.v.i	v14,0
 1b2:	5e0037d7          	vmv.v.i	v15,0
 1b6:	5e003857          	vmv.v.i	v16,0
 1ba:	5e0038d7          	vmv.v.i	v17,0
 1be:	5e003957          	vmv.v.i	v18,0
 1c2:	5e0039d7          	vmv.v.i	v19,0
 1c6:	5e003a57          	vmv.v.i	v20,0
 1ca:	5e003ad7          	vmv.v.i	v21,0
 1ce:	5e003b57          	vmv.v.i	v22,0
 1d2:	5e003bd7          	vmv.v.i	v23,0
 1d6:	5e003c57          	vmv.v.i	v24,0
 1da:	5e003cd7          	vmv.v.i	v25,0
 1de:	5e003d57          	vmv.v.i	v26,0
 1e2:	5e003dd7          	vmv.v.i	v27,0
 1e6:	5e003e57          	vmv.v.i	v28,0
 1ea:	5e003ed7          	vmv.v.i	v29,0
 1ee:	5e003f57          	vmv.v.i	v30,0
 1f2:	5e003fd7          	vmv.v.i	v31,0
 1f6:	30079073          	csrrw	zero,mstatus,a5
 1fa:	00000197          	auipc	gp,0x0
 1fe:	1461a183          	lw	gp,326(gp) # 340 <__global_pointer_addr>
 202:	00000297          	auipc	t0,0x0
 206:	1462a283          	lw	t0,326(t0) # 348 <_stack_addr>
 20a:	f1402373          	csrrs	t1,mhartid,zero
 20e:	63a1                	c.lui	t2,0x8
 210:	00030563          	beq	t1,zero,21a <_reset_handler+0x198>
 214:	929e                	c.add	t0,t2
 216:	137d                	c.addi	t1,-1
 218:	bfe5                	c.j	210 <_reset_handler+0x18e>
 21a:	8116                	c.mv	sp,t0
 21c:	fc202373          	csrrs	t1,mmsc_cfg,zero
 220:	01b35313          	srli	t1,t1,0x1b
 224:	00137313          	andi	t1,t1,1
 228:	00030f63          	beq	t1,zero,246 <_reset_handler+0x1c4>
 22c:	00002297          	auipc	t0,0x2
 230:	dd428293          	addi	t0,t0,-556 # 2000 <MSTATUS_FS_INIT>
 234:	30729073          	csrrw	zero,mtvt,t0
 238:	00001297          	auipc	t0,0x1
 23c:	dc828293          	addi	t0,t0,-568 # 1000 <m_trap_entry>
 240:	0032e293          	ori	t0,t0,3
 244:	a885                	c.j	2b4 <_mtvec_set>
 246:	00001297          	auipc	t0,0x1
 24a:	e3a28293          	addi	t0,t0,-454 # 1080 <s_trap_entry>
 24e:	30102373          	csrrs	t1,misa,zero
 252:	01235313          	srli	t1,t1,0x12
 256:	00137313          	andi	t1,t1,1
 25a:	02030763          	beq	t1,zero,288 <_init_mtvec>
 25e:	30302373          	csrrs	t1,mideleg,zero
 262:	20000393          	addi	t2,zero,512
 266:	00736333          	or	t1,t1,t2
 26a:	30331073          	csrrw	zero,mideleg,t1
 26e:	7d002373          	csrrs	t1,mmisc_ctl,zero
 272:	ffd37313          	andi	t1,t1,-3
 276:	7d031073          	csrrw	zero,mmisc_ctl,t1
 27a:	10529073          	csrrw	zero,stvec,t0
 27e:	00001297          	auipc	t0,0x1
 282:	d8228293          	addi	t0,t0,-638 # 1000 <m_trap_entry>
 286:	a03d                	c.j	2b4 <_mtvec_set>

00000288 <_init_mtvec>:
 288:	00001297          	auipc	t0,0x1
 28c:	d7828293          	addi	t0,t0,-648 # 1000 <m_trap_entry>
 290:	fc202373          	csrrs	t1,mmsc_cfg,zero
 294:	00c35313          	srli	t1,t1,0xc
 298:	00137313          	andi	t1,t1,1
 29c:	00030c63          	beq	t1,zero,2b4 <_mtvec_set>
 2a0:	7d002373          	csrrs	t1,mmisc_ctl,zero
 2a4:	00236313          	ori	t1,t1,2
 2a8:	7d031073          	csrrw	zero,mmisc_ctl,t1
 2ac:	00000297          	auipc	t0,0x0
 2b0:	d5428293          	addi	t0,t0,-684 # 0 <_RELAX_END_>

000002b4 <_mtvec_set>:
 2b4:	30529073          	csrrw	zero,mtvec,t0
 2b8:	42bd                	c.li	t0,15
 2ba:	3a029073          	csrrw	zero,pmpcfg0,t0
 2be:	52fd                	c.li	t0,-1
 2c0:	3b029073          	csrrw	zero,pmpaddr0,t0
 2c4:	375020ef          	jal	ra,2e38 <__platform_init>
 2c8:	0000a517          	auipc	a0,0xa
 2cc:	13850513          	addi	a0,a0,312 # a400 <__data_lmastart>
 2d0:	00000597          	auipc	a1,0x0
 2d4:	0805a583          	lw	a1,128(a1) # 350 <__data_start_addr>
 2d8:	00000617          	auipc	a2,0x0
 2dc:	08062603          	lw	a2,128(a2) # 358 <_edata_addr>
 2e0:	00b50c63          	beq	a0,a1,2f8 <_mtvec_set+0x44>
 2e4:	00c5fa63          	bgeu	a1,a2,2f8 <_mtvec_set+0x44>
 2e8:	00052283          	lw	t0,0(a0)
 2ec:	0055a023          	sw	t0,0(a1)
 2f0:	0511                	c.addi	a0,4
 2f2:	0591                	c.addi	a1,4
 2f4:	fec5eae3          	bltu	a1,a2,2e8 <_mtvec_set+0x34>
 2f8:	00000517          	auipc	a0,0x0
 2fc:	06052503          	lw	a0,96(a0) # 358 <_edata_addr>
 300:	00000597          	auipc	a1,0x0
 304:	0605a583          	lw	a1,96(a1) # 360 <_end_addr>
 308:	00b57763          	bgeu	a0,a1,316 <_mtvec_set+0x62>
 30c:	00052023          	sw	zero,0(a0)
 310:	0511                	c.addi	a0,4
 312:	feb56de3          	bltu	a0,a1,30c <_mtvec_set+0x58>
 316:	00000517          	auipc	a0,0x0
 31a:	05252503          	lw	a0,82(a0) # 368 <__sharedata_start_addr>
 31e:	00000597          	auipc	a1,0x0
 322:	0525a583          	lw	a1,82(a1) # 370 <__sharedata_end_addr>
 326:	00b57763          	bgeu	a0,a1,334 <_mtvec_set+0x80>
 32a:	00052023          	sw	zero,0(a0)
 32e:	0511                	c.addi	a0,4
 330:	feb56de3          	bltu	a0,a1,32a <_mtvec_set+0x76>
 334:	3d1020ef          	jal	ra,2f04 <reset_handler>
 338:	a001                	c.j	338 <_mtvec_set+0x84>
 33a:	8082                	c.jr	ra
 33c:	00000013          	addi	zero,zero,0

00000340 <__global_pointer_addr>:
 340:	24d8                	c.fld	fa4,136(s1)
 342:	0020                	c.addi4spn	s0,sp,8
 344:	0000                	c.unimp
	...

00000348 <_stack_addr>:
 348:	0000                	c.unimp
 34a:	0028                	c.addi4spn	a0,sp,8
 34c:	0000                	c.unimp
	...

00000350 <__data_start_addr>:
 350:	0c00                	c.addi4spn	s0,sp,528
 352:	0020                	c.addi4spn	s0,sp,8
 354:	0000                	c.unimp
	...

00000358 <_edata_addr>:
 358:	1d08                	c.addi4spn	a0,sp,688
 35a:	0020                	c.addi4spn	s0,sp,8
 35c:	0000                	c.unimp
	...

00000360 <_end_addr>:
 360:	1fa0                	c.addi4spn	s0,sp,1016
 362:	0020                	c.addi4spn	s0,sp,8
 364:	0000                	c.unimp
	...

00000368 <__sharedata_start_addr>:
 368:	0000                	c.unimp
 36a:	0030                	c.addi4spn	a2,sp,8
 36c:	0000                	c.unimp
	...

00000370 <__sharedata_end_addr>:
 370:	0000                	c.unimp
 372:	0030                	c.addi4spn	a2,sp,8
 374:	0000                	c.unimp
 376:	0000                	c.unimp
 378:	0001                	c.addi	zero,0
 37a:	00000013          	addi	zero,zero,0

Disassembly of section .text:

00001000 <m_trap_entry>:
    1000:	7119                	c.addi16sp	sp,-128
    1002:	c006                	c.swsp	ra,0(sp)
    1004:	c212                	c.swsp	tp,4(sp)
    1006:	c416                	c.swsp	t0,8(sp)
    1008:	c61a                	c.swsp	t1,12(sp)
    100a:	c81e                	c.swsp	t2,16(sp)
    100c:	ca2a                	c.swsp	a0,20(sp)
    100e:	cc2e                	c.swsp	a1,24(sp)
    1010:	ce32                	c.swsp	a2,28(sp)
    1012:	d036                	c.swsp	a3,32(sp)
    1014:	d23a                	c.swsp	a4,36(sp)
    1016:	d43e                	c.swsp	a5,40(sp)
    1018:	d642                	c.swsp	a6,44(sp)
    101a:	d846                	c.swsp	a7,48(sp)
    101c:	da72                	c.swsp	t3,52(sp)
    101e:	dc76                	c.swsp	t4,56(sp)
    1020:	de7a                	c.swsp	t5,60(sp)
    1022:	c0fe                	c.swsp	t6,64(sp)
    1024:	341022f3          	csrrs	t0,mepc,zero
    1028:	30002373          	csrrs	t1,mstatus,zero
    102c:	7c4023f3          	csrrs	t2,mxstatus,zero
    1030:	c296                	c.swsp	t0,68(sp)
    1032:	c49a                	c.swsp	t1,72(sp)
    1034:	c69e                	c.swsp	t2,76(sp)
    1036:	34202573          	csrrs	a0,mcause,zero
    103a:	858a                	c.mv	a1,sp
    103c:	69b010ef          	jal	ra,2ed6 <trap_handler>
    1040:	300477f3          	csrrci	a5,mstatus,8
    1044:	4296                	c.lwsp	t0,68(sp)
    1046:	4326                	c.lwsp	t1,72(sp)
    1048:	43b6                	c.lwsp	t2,76(sp)
    104a:	34129073          	csrrw	zero,mepc,t0
    104e:	30031073          	csrrw	zero,mstatus,t1
    1052:	7c439073          	csrrw	zero,mxstatus,t2
    1056:	4082                	c.lwsp	ra,0(sp)
    1058:	4212                	c.lwsp	tp,4(sp)
    105a:	42a2                	c.lwsp	t0,8(sp)
    105c:	4332                	c.lwsp	t1,12(sp)
    105e:	43c2                	c.lwsp	t2,16(sp)
    1060:	4552                	c.lwsp	a0,20(sp)
    1062:	45e2                	c.lwsp	a1,24(sp)
    1064:	4672                	c.lwsp	a2,28(sp)
    1066:	5682                	c.lwsp	a3,32(sp)
    1068:	5712                	c.lwsp	a4,36(sp)
    106a:	57a2                	c.lwsp	a5,40(sp)
    106c:	5832                	c.lwsp	a6,44(sp)
    106e:	58c2                	c.lwsp	a7,48(sp)
    1070:	5e52                	c.lwsp	t3,52(sp)
    1072:	5ee2                	c.lwsp	t4,56(sp)
    1074:	5f72                	c.lwsp	t5,60(sp)
    1076:	4f86                	c.lwsp	t6,64(sp)
    1078:	08010113          	addi	sp,sp,128
    107c:	30200073          	mret

00001080 <s_trap_entry>:
    1080:	7119                	c.addi16sp	sp,-128
    1082:	c006                	c.swsp	ra,0(sp)
    1084:	c212                	c.swsp	tp,4(sp)
    1086:	c416                	c.swsp	t0,8(sp)
    1088:	c61a                	c.swsp	t1,12(sp)
    108a:	c81e                	c.swsp	t2,16(sp)
    108c:	ca2a                	c.swsp	a0,20(sp)
    108e:	cc2e                	c.swsp	a1,24(sp)
    1090:	ce32                	c.swsp	a2,28(sp)
    1092:	d036                	c.swsp	a3,32(sp)
    1094:	d23a                	c.swsp	a4,36(sp)
    1096:	d43e                	c.swsp	a5,40(sp)
    1098:	d642                	c.swsp	a6,44(sp)
    109a:	d846                	c.swsp	a7,48(sp)
    109c:	da72                	c.swsp	t3,52(sp)
    109e:	dc76                	c.swsp	t4,56(sp)
    10a0:	de7a                	c.swsp	t5,60(sp)
    10a2:	c0fe                	c.swsp	t6,64(sp)
    10a4:	141022f3          	csrrs	t0,sepc,zero
    10a8:	10002373          	csrrs	t1,sstatus,zero
    10ac:	c296                	c.swsp	t0,68(sp)
    10ae:	c49a                	c.swsp	t1,72(sp)
    10b0:	14202573          	csrrs	a0,scause,zero
    10b4:	858a                	c.mv	a1,sp
    10b6:	621010ef          	jal	ra,2ed6 <trap_handler>
    10ba:	100177f3          	csrrci	a5,sstatus,2
    10be:	4296                	c.lwsp	t0,68(sp)
    10c0:	4326                	c.lwsp	t1,72(sp)
    10c2:	14129073          	csrrw	zero,sepc,t0
    10c6:	10031073          	csrrw	zero,sstatus,t1
    10ca:	4082                	c.lwsp	ra,0(sp)
    10cc:	4212                	c.lwsp	tp,4(sp)
    10ce:	42a2                	c.lwsp	t0,8(sp)
    10d0:	4332                	c.lwsp	t1,12(sp)
    10d2:	43c2                	c.lwsp	t2,16(sp)
    10d4:	4552                	c.lwsp	a0,20(sp)
    10d6:	45e2                	c.lwsp	a1,24(sp)
    10d8:	4672                	c.lwsp	a2,28(sp)
    10da:	5682                	c.lwsp	a3,32(sp)
    10dc:	5712                	c.lwsp	a4,36(sp)
    10de:	57a2                	c.lwsp	a5,40(sp)
    10e0:	5832                	c.lwsp	a6,44(sp)
    10e2:	58c2                	c.lwsp	a7,48(sp)
    10e4:	5e52                	c.lwsp	t3,52(sp)
    10e6:	5ee2                	c.lwsp	t4,56(sp)
    10e8:	5f72                	c.lwsp	t5,60(sp)
    10ea:	4f86                	c.lwsp	t6,64(sp)
    10ec:	6109                	c.addi16sp	sp,128
    10ee:	10200073          	sret
    10f2:	a001                	c.j	10f2 <s_trap_entry+0x72>

000010f4 <nmi_handler>:
    10f4:	a001                	c.j	10f4 <nmi_handler>

000010f6 <machine_ei_handler>:
    10f6:	a001                	c.j	10f6 <machine_ei_handler>

000010f8 <_EI_10_HANDLER_WRAPPER>:
    10f8:	7119                	c.addi16sp	sp,-128
    10fa:	c006                	c.swsp	ra,0(sp)
    10fc:	c212                	c.swsp	tp,4(sp)
    10fe:	c416                	c.swsp	t0,8(sp)
    1100:	c61a                	c.swsp	t1,12(sp)
    1102:	c81e                	c.swsp	t2,16(sp)
    1104:	ca2a                	c.swsp	a0,20(sp)
    1106:	cc2e                	c.swsp	a1,24(sp)
    1108:	ce32                	c.swsp	a2,28(sp)
    110a:	d036                	c.swsp	a3,32(sp)
    110c:	d23a                	c.swsp	a4,36(sp)
    110e:	d43e                	c.swsp	a5,40(sp)
    1110:	d642                	c.swsp	a6,44(sp)
    1112:	d846                	c.swsp	a7,48(sp)
    1114:	da72                	c.swsp	t3,52(sp)
    1116:	dc76                	c.swsp	t4,56(sp)
    1118:	de7a                	c.swsp	t5,60(sp)
    111a:	c0fe                	c.swsp	t6,64(sp)
    111c:	341022f3          	csrrs	t0,mepc,zero
    1120:	30002373          	csrrs	t1,mstatus,zero
    1124:	7c4023f3          	csrrs	t2,mxstatus,zero
    1128:	c296                	c.swsp	t0,68(sp)
    112a:	c49a                	c.swsp	t1,72(sp)
    112c:	c69e                	c.swsp	t2,76(sp)
    112e:	34202573          	csrrs	a0,mcause,zero
    1132:	305025f3          	csrrs	a1,mtvec,zero
    1136:	898d                	c.andi	a1,3
    1138:	c581                	c.beqz	a1,1140 <_EI_10_HANDLER_WRAPPER+0x48>
    113a:	3ff57513          	andi	a0,a0,1023
    113e:	1539                	c.addi	a0,-18
    1140:	3f5d                	c.jal	10f6 <machine_ei_handler>
    1142:	300477f3          	csrrci	a5,mstatus,8
    1146:	4296                	c.lwsp	t0,68(sp)
    1148:	4326                	c.lwsp	t1,72(sp)
    114a:	43b6                	c.lwsp	t2,76(sp)
    114c:	34129073          	csrrw	zero,mepc,t0
    1150:	30031073          	csrrw	zero,mstatus,t1
    1154:	7c439073          	csrrw	zero,mxstatus,t2
    1158:	4082                	c.lwsp	ra,0(sp)
    115a:	4212                	c.lwsp	tp,4(sp)
    115c:	42a2                	c.lwsp	t0,8(sp)
    115e:	4332                	c.lwsp	t1,12(sp)
    1160:	43c2                	c.lwsp	t2,16(sp)
    1162:	4552                	c.lwsp	a0,20(sp)
    1164:	45e2                	c.lwsp	a1,24(sp)
    1166:	4672                	c.lwsp	a2,28(sp)
    1168:	5682                	c.lwsp	a3,32(sp)
    116a:	5712                	c.lwsp	a4,36(sp)
    116c:	57a2                	c.lwsp	a5,40(sp)
    116e:	5832                	c.lwsp	a6,44(sp)
    1170:	58c2                	c.lwsp	a7,48(sp)
    1172:	5e52                	c.lwsp	t3,52(sp)
    1174:	5ee2                	c.lwsp	t4,56(sp)
    1176:	5f72                	c.lwsp	t5,60(sp)
    1178:	4f86                	c.lwsp	t6,64(sp)
    117a:	6109                	c.addi16sp	sp,128
    117c:	30200073          	mret
    1180:	00000013          	addi	zero,zero,0
    1184:	00000013          	addi	zero,zero,0
    1188:	00000013          	addi	zero,zero,0
    118c:	00000013          	addi	zero,zero,0
    1190:	00000013          	addi	zero,zero,0
    1194:	00000013          	addi	zero,zero,0
    1198:	00000013          	addi	zero,zero,0
    119c:	00000013          	addi	zero,zero,0
    11a0:	00000013          	addi	zero,zero,0
    11a4:	00000013          	addi	zero,zero,0
    11a8:	00000013          	addi	zero,zero,0
    11ac:	00000013          	addi	zero,zero,0
    11b0:	00000013          	addi	zero,zero,0
    11b4:	00000013          	addi	zero,zero,0
    11b8:	00000013          	addi	zero,zero,0
    11bc:	00000013          	addi	zero,zero,0
    11c0:	00000013          	addi	zero,zero,0
    11c4:	00000013          	addi	zero,zero,0
    11c8:	00000013          	addi	zero,zero,0
    11cc:	00000013          	addi	zero,zero,0
    11d0:	00000013          	addi	zero,zero,0
    11d4:	00000013          	addi	zero,zero,0
    11d8:	00000013          	addi	zero,zero,0
    11dc:	00000013          	addi	zero,zero,0
    11e0:	00000013          	addi	zero,zero,0
    11e4:	00000013          	addi	zero,zero,0
    11e8:	00000013          	addi	zero,zero,0
    11ec:	00000013          	addi	zero,zero,0
    11f0:	00000013          	addi	zero,zero,0
    11f4:	00000013          	addi	zero,zero,0
    11f8:	00000013          	addi	zero,zero,0
    11fc:	00000013          	addi	zero,zero,0
    1200:	00000013          	addi	zero,zero,0
    1204:	00000013          	addi	zero,zero,0
    1208:	00000013          	addi	zero,zero,0
    120c:	00000013          	addi	zero,zero,0
    1210:	00000013          	addi	zero,zero,0
    1214:	00000013          	addi	zero,zero,0
    1218:	00000013          	addi	zero,zero,0
    121c:	00000013          	addi	zero,zero,0
    1220:	00000013          	addi	zero,zero,0
    1224:	00000013          	addi	zero,zero,0
    1228:	00000013          	addi	zero,zero,0
    122c:	00000013          	addi	zero,zero,0
    1230:	00000013          	addi	zero,zero,0
    1234:	00000013          	addi	zero,zero,0
    1238:	00000013          	addi	zero,zero,0
    123c:	00000013          	addi	zero,zero,0
    1240:	00000013          	addi	zero,zero,0
    1244:	00000013          	addi	zero,zero,0
    1248:	00000013          	addi	zero,zero,0
    124c:	00000013          	addi	zero,zero,0
    1250:	00000013          	addi	zero,zero,0
    1254:	00000013          	addi	zero,zero,0
    1258:	00000013          	addi	zero,zero,0
    125c:	00000013          	addi	zero,zero,0
    1260:	00000013          	addi	zero,zero,0
    1264:	00000013          	addi	zero,zero,0
    1268:	00000013          	addi	zero,zero,0
    126c:	00000013          	addi	zero,zero,0
    1270:	00000013          	addi	zero,zero,0
    1274:	00000013          	addi	zero,zero,0
    1278:	00000013          	addi	zero,zero,0
    127c:	00000013          	addi	zero,zero,0
    1280:	00000013          	addi	zero,zero,0
    1284:	00000013          	addi	zero,zero,0
    1288:	00000013          	addi	zero,zero,0
    128c:	00000013          	addi	zero,zero,0
    1290:	00000013          	addi	zero,zero,0
    1294:	00000013          	addi	zero,zero,0
    1298:	00000013          	addi	zero,zero,0
    129c:	00000013          	addi	zero,zero,0
    12a0:	00000013          	addi	zero,zero,0
    12a4:	00000013          	addi	zero,zero,0
    12a8:	00000013          	addi	zero,zero,0
    12ac:	00000013          	addi	zero,zero,0
    12b0:	00000013          	addi	zero,zero,0
    12b4:	00000013          	addi	zero,zero,0
    12b8:	00000013          	addi	zero,zero,0
    12bc:	00000013          	addi	zero,zero,0
    12c0:	00000013          	addi	zero,zero,0
    12c4:	00000013          	addi	zero,zero,0
    12c8:	00000013          	addi	zero,zero,0
    12cc:	00000013          	addi	zero,zero,0
    12d0:	00000013          	addi	zero,zero,0
    12d4:	00000013          	addi	zero,zero,0
    12d8:	00000013          	addi	zero,zero,0
    12dc:	00000013          	addi	zero,zero,0
    12e0:	00000013          	addi	zero,zero,0
    12e4:	00000013          	addi	zero,zero,0
    12e8:	00000013          	addi	zero,zero,0
    12ec:	00000013          	addi	zero,zero,0
    12f0:	00000013          	addi	zero,zero,0
    12f4:	00000013          	addi	zero,zero,0
    12f8:	00000013          	addi	zero,zero,0
    12fc:	00000013          	addi	zero,zero,0
    1300:	00000013          	addi	zero,zero,0
    1304:	00000013          	addi	zero,zero,0
    1308:	00000013          	addi	zero,zero,0
    130c:	00000013          	addi	zero,zero,0
    1310:	00000013          	addi	zero,zero,0
    1314:	00000013          	addi	zero,zero,0
    1318:	00000013          	addi	zero,zero,0
    131c:	00000013          	addi	zero,zero,0
    1320:	00000013          	addi	zero,zero,0
    1324:	00000013          	addi	zero,zero,0
    1328:	00000013          	addi	zero,zero,0
    132c:	00000013          	addi	zero,zero,0
    1330:	00000013          	addi	zero,zero,0
    1334:	00000013          	addi	zero,zero,0
    1338:	00000013          	addi	zero,zero,0
    133c:	00000013          	addi	zero,zero,0
    1340:	00000013          	addi	zero,zero,0
    1344:	00000013          	addi	zero,zero,0
    1348:	00000013          	addi	zero,zero,0
    134c:	00000013          	addi	zero,zero,0
    1350:	00000013          	addi	zero,zero,0
    1354:	00000013          	addi	zero,zero,0
    1358:	00000013          	addi	zero,zero,0
    135c:	00000013          	addi	zero,zero,0
    1360:	00000013          	addi	zero,zero,0
    1364:	00000013          	addi	zero,zero,0
    1368:	00000013          	addi	zero,zero,0
    136c:	00000013          	addi	zero,zero,0
    1370:	00000013          	addi	zero,zero,0
    1374:	00000013          	addi	zero,zero,0
    1378:	00000013          	addi	zero,zero,0
    137c:	00000013          	addi	zero,zero,0
    1380:	00000013          	addi	zero,zero,0
    1384:	00000013          	addi	zero,zero,0
    1388:	00000013          	addi	zero,zero,0
    138c:	00000013          	addi	zero,zero,0
    1390:	00000013          	addi	zero,zero,0
    1394:	00000013          	addi	zero,zero,0
    1398:	00000013          	addi	zero,zero,0
    139c:	00000013          	addi	zero,zero,0
    13a0:	00000013          	addi	zero,zero,0
    13a4:	00000013          	addi	zero,zero,0
    13a8:	00000013          	addi	zero,zero,0
    13ac:	00000013          	addi	zero,zero,0
    13b0:	00000013          	addi	zero,zero,0
    13b4:	00000013          	addi	zero,zero,0
    13b8:	00000013          	addi	zero,zero,0
    13bc:	00000013          	addi	zero,zero,0
    13c0:	00000013          	addi	zero,zero,0
    13c4:	00000013          	addi	zero,zero,0
    13c8:	00000013          	addi	zero,zero,0
    13cc:	00000013          	addi	zero,zero,0
    13d0:	00000013          	addi	zero,zero,0
    13d4:	00000013          	addi	zero,zero,0
    13d8:	00000013          	addi	zero,zero,0
    13dc:	00000013          	addi	zero,zero,0
    13e0:	00000013          	addi	zero,zero,0
    13e4:	00000013          	addi	zero,zero,0
    13e8:	00000013          	addi	zero,zero,0
    13ec:	00000013          	addi	zero,zero,0
    13f0:	00000013          	addi	zero,zero,0
    13f4:	00000013          	addi	zero,zero,0
    13f8:	00000013          	addi	zero,zero,0
    13fc:	00000013          	addi	zero,zero,0
    1400:	00000013          	addi	zero,zero,0
    1404:	00000013          	addi	zero,zero,0
    1408:	00000013          	addi	zero,zero,0
    140c:	00000013          	addi	zero,zero,0
    1410:	00000013          	addi	zero,zero,0
    1414:	00000013          	addi	zero,zero,0
    1418:	00000013          	addi	zero,zero,0
    141c:	00000013          	addi	zero,zero,0
    1420:	00000013          	addi	zero,zero,0
    1424:	00000013          	addi	zero,zero,0
    1428:	00000013          	addi	zero,zero,0
    142c:	00000013          	addi	zero,zero,0
    1430:	00000013          	addi	zero,zero,0
    1434:	00000013          	addi	zero,zero,0
    1438:	00000013          	addi	zero,zero,0
    143c:	00000013          	addi	zero,zero,0
    1440:	00000013          	addi	zero,zero,0
    1444:	00000013          	addi	zero,zero,0
    1448:	00000013          	addi	zero,zero,0
    144c:	00000013          	addi	zero,zero,0
    1450:	00000013          	addi	zero,zero,0
    1454:	00000013          	addi	zero,zero,0
    1458:	00000013          	addi	zero,zero,0
    145c:	00000013          	addi	zero,zero,0
    1460:	00000013          	addi	zero,zero,0
    1464:	00000013          	addi	zero,zero,0
    1468:	00000013          	addi	zero,zero,0
    146c:	00000013          	addi	zero,zero,0
    1470:	00000013          	addi	zero,zero,0
    1474:	00000013          	addi	zero,zero,0
    1478:	00000013          	addi	zero,zero,0
    147c:	00000013          	addi	zero,zero,0
    1480:	00000013          	addi	zero,zero,0
    1484:	00000013          	addi	zero,zero,0
    1488:	00000013          	addi	zero,zero,0
    148c:	00000013          	addi	zero,zero,0
    1490:	00000013          	addi	zero,zero,0
    1494:	00000013          	addi	zero,zero,0
    1498:	00000013          	addi	zero,zero,0
    149c:	00000013          	addi	zero,zero,0
    14a0:	00000013          	addi	zero,zero,0
    14a4:	00000013          	addi	zero,zero,0
    14a8:	00000013          	addi	zero,zero,0
    14ac:	00000013          	addi	zero,zero,0
    14b0:	00000013          	addi	zero,zero,0
    14b4:	00000013          	addi	zero,zero,0
    14b8:	00000013          	addi	zero,zero,0
    14bc:	00000013          	addi	zero,zero,0
    14c0:	00000013          	addi	zero,zero,0
    14c4:	00000013          	addi	zero,zero,0
    14c8:	00000013          	addi	zero,zero,0
    14cc:	00000013          	addi	zero,zero,0
    14d0:	00000013          	addi	zero,zero,0
    14d4:	00000013          	addi	zero,zero,0
    14d8:	00000013          	addi	zero,zero,0
    14dc:	00000013          	addi	zero,zero,0
    14e0:	00000013          	addi	zero,zero,0
    14e4:	00000013          	addi	zero,zero,0
    14e8:	00000013          	addi	zero,zero,0
    14ec:	00000013          	addi	zero,zero,0
    14f0:	00000013          	addi	zero,zero,0
    14f4:	00000013          	addi	zero,zero,0
    14f8:	00000013          	addi	zero,zero,0
    14fc:	00000013          	addi	zero,zero,0
    1500:	00000013          	addi	zero,zero,0
    1504:	00000013          	addi	zero,zero,0
    1508:	00000013          	addi	zero,zero,0
    150c:	00000013          	addi	zero,zero,0
    1510:	00000013          	addi	zero,zero,0
    1514:	00000013          	addi	zero,zero,0
    1518:	00000013          	addi	zero,zero,0
    151c:	00000013          	addi	zero,zero,0
    1520:	00000013          	addi	zero,zero,0
    1524:	00000013          	addi	zero,zero,0
    1528:	00000013          	addi	zero,zero,0
    152c:	00000013          	addi	zero,zero,0
    1530:	00000013          	addi	zero,zero,0
    1534:	00000013          	addi	zero,zero,0
    1538:	00000013          	addi	zero,zero,0
    153c:	00000013          	addi	zero,zero,0
    1540:	00000013          	addi	zero,zero,0
    1544:	00000013          	addi	zero,zero,0
    1548:	00000013          	addi	zero,zero,0
    154c:	00000013          	addi	zero,zero,0
    1550:	00000013          	addi	zero,zero,0
    1554:	00000013          	addi	zero,zero,0
    1558:	00000013          	addi	zero,zero,0
    155c:	00000013          	addi	zero,zero,0
    1560:	00000013          	addi	zero,zero,0
    1564:	00000013          	addi	zero,zero,0
    1568:	00000013          	addi	zero,zero,0
    156c:	00000013          	addi	zero,zero,0
    1570:	00000013          	addi	zero,zero,0
    1574:	00000013          	addi	zero,zero,0
    1578:	00000013          	addi	zero,zero,0
    157c:	00000013          	addi	zero,zero,0
    1580:	00000013          	addi	zero,zero,0
    1584:	00000013          	addi	zero,zero,0
    1588:	00000013          	addi	zero,zero,0
    158c:	00000013          	addi	zero,zero,0
    1590:	00000013          	addi	zero,zero,0
    1594:	00000013          	addi	zero,zero,0
    1598:	00000013          	addi	zero,zero,0
    159c:	00000013          	addi	zero,zero,0
    15a0:	00000013          	addi	zero,zero,0
    15a4:	00000013          	addi	zero,zero,0
    15a8:	00000013          	addi	zero,zero,0
    15ac:	00000013          	addi	zero,zero,0
    15b0:	00000013          	addi	zero,zero,0
    15b4:	00000013          	addi	zero,zero,0
    15b8:	00000013          	addi	zero,zero,0
    15bc:	00000013          	addi	zero,zero,0
    15c0:	00000013          	addi	zero,zero,0
    15c4:	00000013          	addi	zero,zero,0
    15c8:	00000013          	addi	zero,zero,0
    15cc:	00000013          	addi	zero,zero,0
    15d0:	00000013          	addi	zero,zero,0
    15d4:	00000013          	addi	zero,zero,0
    15d8:	00000013          	addi	zero,zero,0
    15dc:	00000013          	addi	zero,zero,0
    15e0:	00000013          	addi	zero,zero,0
    15e4:	00000013          	addi	zero,zero,0
    15e8:	00000013          	addi	zero,zero,0
    15ec:	00000013          	addi	zero,zero,0
    15f0:	00000013          	addi	zero,zero,0
    15f4:	00000013          	addi	zero,zero,0
    15f8:	00000013          	addi	zero,zero,0
    15fc:	00000013          	addi	zero,zero,0
    1600:	00000013          	addi	zero,zero,0
    1604:	00000013          	addi	zero,zero,0
    1608:	00000013          	addi	zero,zero,0
    160c:	00000013          	addi	zero,zero,0
    1610:	00000013          	addi	zero,zero,0
    1614:	00000013          	addi	zero,zero,0
    1618:	00000013          	addi	zero,zero,0
    161c:	00000013          	addi	zero,zero,0
    1620:	00000013          	addi	zero,zero,0
    1624:	00000013          	addi	zero,zero,0
    1628:	00000013          	addi	zero,zero,0
    162c:	00000013          	addi	zero,zero,0
    1630:	00000013          	addi	zero,zero,0
    1634:	00000013          	addi	zero,zero,0
    1638:	00000013          	addi	zero,zero,0
    163c:	00000013          	addi	zero,zero,0
    1640:	00000013          	addi	zero,zero,0
    1644:	00000013          	addi	zero,zero,0
    1648:	00000013          	addi	zero,zero,0
    164c:	00000013          	addi	zero,zero,0
    1650:	00000013          	addi	zero,zero,0
    1654:	00000013          	addi	zero,zero,0
    1658:	00000013          	addi	zero,zero,0
    165c:	00000013          	addi	zero,zero,0
    1660:	00000013          	addi	zero,zero,0
    1664:	00000013          	addi	zero,zero,0
    1668:	00000013          	addi	zero,zero,0
    166c:	00000013          	addi	zero,zero,0
    1670:	00000013          	addi	zero,zero,0
    1674:	00000013          	addi	zero,zero,0
    1678:	00000013          	addi	zero,zero,0
    167c:	00000013          	addi	zero,zero,0
    1680:	00000013          	addi	zero,zero,0
    1684:	00000013          	addi	zero,zero,0
    1688:	00000013          	addi	zero,zero,0
    168c:	00000013          	addi	zero,zero,0
    1690:	00000013          	addi	zero,zero,0
    1694:	00000013          	addi	zero,zero,0
    1698:	00000013          	addi	zero,zero,0
    169c:	00000013          	addi	zero,zero,0
    16a0:	00000013          	addi	zero,zero,0
    16a4:	00000013          	addi	zero,zero,0
    16a8:	00000013          	addi	zero,zero,0
    16ac:	00000013          	addi	zero,zero,0
    16b0:	00000013          	addi	zero,zero,0
    16b4:	00000013          	addi	zero,zero,0
    16b8:	00000013          	addi	zero,zero,0
    16bc:	00000013          	addi	zero,zero,0
    16c0:	00000013          	addi	zero,zero,0
    16c4:	00000013          	addi	zero,zero,0
    16c8:	00000013          	addi	zero,zero,0
    16cc:	00000013          	addi	zero,zero,0
    16d0:	00000013          	addi	zero,zero,0
    16d4:	00000013          	addi	zero,zero,0
    16d8:	00000013          	addi	zero,zero,0
    16dc:	00000013          	addi	zero,zero,0
    16e0:	00000013          	addi	zero,zero,0
    16e4:	00000013          	addi	zero,zero,0
    16e8:	00000013          	addi	zero,zero,0
    16ec:	00000013          	addi	zero,zero,0
    16f0:	00000013          	addi	zero,zero,0
    16f4:	00000013          	addi	zero,zero,0
    16f8:	00000013          	addi	zero,zero,0
    16fc:	00000013          	addi	zero,zero,0
    1700:	00000013          	addi	zero,zero,0
    1704:	00000013          	addi	zero,zero,0
    1708:	00000013          	addi	zero,zero,0
    170c:	00000013          	addi	zero,zero,0
    1710:	00000013          	addi	zero,zero,0
    1714:	00000013          	addi	zero,zero,0
    1718:	00000013          	addi	zero,zero,0
    171c:	00000013          	addi	zero,zero,0
    1720:	00000013          	addi	zero,zero,0
    1724:	00000013          	addi	zero,zero,0
    1728:	00000013          	addi	zero,zero,0
    172c:	00000013          	addi	zero,zero,0
    1730:	00000013          	addi	zero,zero,0
    1734:	00000013          	addi	zero,zero,0
    1738:	00000013          	addi	zero,zero,0
    173c:	00000013          	addi	zero,zero,0
    1740:	00000013          	addi	zero,zero,0
    1744:	00000013          	addi	zero,zero,0
    1748:	00000013          	addi	zero,zero,0
    174c:	00000013          	addi	zero,zero,0
    1750:	00000013          	addi	zero,zero,0
    1754:	00000013          	addi	zero,zero,0
    1758:	00000013          	addi	zero,zero,0
    175c:	00000013          	addi	zero,zero,0
    1760:	00000013          	addi	zero,zero,0
    1764:	00000013          	addi	zero,zero,0
    1768:	00000013          	addi	zero,zero,0
    176c:	00000013          	addi	zero,zero,0
    1770:	00000013          	addi	zero,zero,0
    1774:	00000013          	addi	zero,zero,0
    1778:	00000013          	addi	zero,zero,0
    177c:	00000013          	addi	zero,zero,0
    1780:	00000013          	addi	zero,zero,0
    1784:	00000013          	addi	zero,zero,0
    1788:	00000013          	addi	zero,zero,0
    178c:	00000013          	addi	zero,zero,0
    1790:	00000013          	addi	zero,zero,0
    1794:	00000013          	addi	zero,zero,0
    1798:	00000013          	addi	zero,zero,0
    179c:	00000013          	addi	zero,zero,0
    17a0:	00000013          	addi	zero,zero,0
    17a4:	00000013          	addi	zero,zero,0
    17a8:	00000013          	addi	zero,zero,0
    17ac:	00000013          	addi	zero,zero,0
    17b0:	00000013          	addi	zero,zero,0
    17b4:	00000013          	addi	zero,zero,0
    17b8:	00000013          	addi	zero,zero,0
    17bc:	00000013          	addi	zero,zero,0
    17c0:	00000013          	addi	zero,zero,0
    17c4:	00000013          	addi	zero,zero,0
    17c8:	00000013          	addi	zero,zero,0
    17cc:	00000013          	addi	zero,zero,0
    17d0:	00000013          	addi	zero,zero,0
    17d4:	00000013          	addi	zero,zero,0
    17d8:	00000013          	addi	zero,zero,0
    17dc:	00000013          	addi	zero,zero,0
    17e0:	00000013          	addi	zero,zero,0
    17e4:	00000013          	addi	zero,zero,0
    17e8:	00000013          	addi	zero,zero,0
    17ec:	00000013          	addi	zero,zero,0
    17f0:	00000013          	addi	zero,zero,0
    17f4:	00000013          	addi	zero,zero,0
    17f8:	00000013          	addi	zero,zero,0
    17fc:	00000013          	addi	zero,zero,0
    1800:	00000013          	addi	zero,zero,0
    1804:	00000013          	addi	zero,zero,0
    1808:	00000013          	addi	zero,zero,0
    180c:	00000013          	addi	zero,zero,0
    1810:	00000013          	addi	zero,zero,0
    1814:	00000013          	addi	zero,zero,0
    1818:	00000013          	addi	zero,zero,0
    181c:	00000013          	addi	zero,zero,0
    1820:	00000013          	addi	zero,zero,0
    1824:	00000013          	addi	zero,zero,0
    1828:	00000013          	addi	zero,zero,0
    182c:	00000013          	addi	zero,zero,0
    1830:	00000013          	addi	zero,zero,0
    1834:	00000013          	addi	zero,zero,0
    1838:	00000013          	addi	zero,zero,0
    183c:	00000013          	addi	zero,zero,0
    1840:	00000013          	addi	zero,zero,0
    1844:	00000013          	addi	zero,zero,0
    1848:	00000013          	addi	zero,zero,0
    184c:	00000013          	addi	zero,zero,0
    1850:	00000013          	addi	zero,zero,0
    1854:	00000013          	addi	zero,zero,0
    1858:	00000013          	addi	zero,zero,0
    185c:	00000013          	addi	zero,zero,0
    1860:	00000013          	addi	zero,zero,0
    1864:	00000013          	addi	zero,zero,0
    1868:	00000013          	addi	zero,zero,0
    186c:	00000013          	addi	zero,zero,0
    1870:	00000013          	addi	zero,zero,0
    1874:	00000013          	addi	zero,zero,0
    1878:	00000013          	addi	zero,zero,0
    187c:	00000013          	addi	zero,zero,0
    1880:	00000013          	addi	zero,zero,0
    1884:	00000013          	addi	zero,zero,0
    1888:	00000013          	addi	zero,zero,0
    188c:	00000013          	addi	zero,zero,0
    1890:	00000013          	addi	zero,zero,0
    1894:	00000013          	addi	zero,zero,0
    1898:	00000013          	addi	zero,zero,0
    189c:	00000013          	addi	zero,zero,0
    18a0:	00000013          	addi	zero,zero,0
    18a4:	00000013          	addi	zero,zero,0
    18a8:	00000013          	addi	zero,zero,0
    18ac:	00000013          	addi	zero,zero,0
    18b0:	00000013          	addi	zero,zero,0
    18b4:	00000013          	addi	zero,zero,0
    18b8:	00000013          	addi	zero,zero,0
    18bc:	00000013          	addi	zero,zero,0
    18c0:	00000013          	addi	zero,zero,0
    18c4:	00000013          	addi	zero,zero,0
    18c8:	00000013          	addi	zero,zero,0
    18cc:	00000013          	addi	zero,zero,0
    18d0:	00000013          	addi	zero,zero,0
    18d4:	00000013          	addi	zero,zero,0
    18d8:	00000013          	addi	zero,zero,0
    18dc:	00000013          	addi	zero,zero,0
    18e0:	00000013          	addi	zero,zero,0
    18e4:	00000013          	addi	zero,zero,0
    18e8:	00000013          	addi	zero,zero,0
    18ec:	00000013          	addi	zero,zero,0
    18f0:	00000013          	addi	zero,zero,0
    18f4:	00000013          	addi	zero,zero,0
    18f8:	00000013          	addi	zero,zero,0
    18fc:	00000013          	addi	zero,zero,0
    1900:	00000013          	addi	zero,zero,0
    1904:	00000013          	addi	zero,zero,0
    1908:	00000013          	addi	zero,zero,0
    190c:	00000013          	addi	zero,zero,0
    1910:	00000013          	addi	zero,zero,0
    1914:	00000013          	addi	zero,zero,0
    1918:	00000013          	addi	zero,zero,0
    191c:	00000013          	addi	zero,zero,0
    1920:	00000013          	addi	zero,zero,0
    1924:	00000013          	addi	zero,zero,0
    1928:	00000013          	addi	zero,zero,0
    192c:	00000013          	addi	zero,zero,0
    1930:	00000013          	addi	zero,zero,0
    1934:	00000013          	addi	zero,zero,0
    1938:	00000013          	addi	zero,zero,0
    193c:	00000013          	addi	zero,zero,0
    1940:	00000013          	addi	zero,zero,0
    1944:	00000013          	addi	zero,zero,0
    1948:	00000013          	addi	zero,zero,0
    194c:	00000013          	addi	zero,zero,0
    1950:	00000013          	addi	zero,zero,0
    1954:	00000013          	addi	zero,zero,0
    1958:	00000013          	addi	zero,zero,0
    195c:	00000013          	addi	zero,zero,0
    1960:	00000013          	addi	zero,zero,0
    1964:	00000013          	addi	zero,zero,0
    1968:	00000013          	addi	zero,zero,0
    196c:	00000013          	addi	zero,zero,0
    1970:	00000013          	addi	zero,zero,0
    1974:	00000013          	addi	zero,zero,0
    1978:	00000013          	addi	zero,zero,0
    197c:	00000013          	addi	zero,zero,0
    1980:	00000013          	addi	zero,zero,0
    1984:	00000013          	addi	zero,zero,0
    1988:	00000013          	addi	zero,zero,0
    198c:	00000013          	addi	zero,zero,0
    1990:	00000013          	addi	zero,zero,0
    1994:	00000013          	addi	zero,zero,0
    1998:	00000013          	addi	zero,zero,0
    199c:	00000013          	addi	zero,zero,0
    19a0:	00000013          	addi	zero,zero,0
    19a4:	00000013          	addi	zero,zero,0
    19a8:	00000013          	addi	zero,zero,0
    19ac:	00000013          	addi	zero,zero,0
    19b0:	00000013          	addi	zero,zero,0
    19b4:	00000013          	addi	zero,zero,0
    19b8:	00000013          	addi	zero,zero,0
    19bc:	00000013          	addi	zero,zero,0
    19c0:	00000013          	addi	zero,zero,0
    19c4:	00000013          	addi	zero,zero,0
    19c8:	00000013          	addi	zero,zero,0
    19cc:	00000013          	addi	zero,zero,0
    19d0:	00000013          	addi	zero,zero,0
    19d4:	00000013          	addi	zero,zero,0
    19d8:	00000013          	addi	zero,zero,0
    19dc:	00000013          	addi	zero,zero,0
    19e0:	00000013          	addi	zero,zero,0
    19e4:	00000013          	addi	zero,zero,0
    19e8:	00000013          	addi	zero,zero,0
    19ec:	00000013          	addi	zero,zero,0
    19f0:	00000013          	addi	zero,zero,0
    19f4:	00000013          	addi	zero,zero,0
    19f8:	00000013          	addi	zero,zero,0
    19fc:	00000013          	addi	zero,zero,0
    1a00:	00000013          	addi	zero,zero,0
    1a04:	00000013          	addi	zero,zero,0
    1a08:	00000013          	addi	zero,zero,0
    1a0c:	00000013          	addi	zero,zero,0
    1a10:	00000013          	addi	zero,zero,0
    1a14:	00000013          	addi	zero,zero,0
    1a18:	00000013          	addi	zero,zero,0
    1a1c:	00000013          	addi	zero,zero,0
    1a20:	00000013          	addi	zero,zero,0
    1a24:	00000013          	addi	zero,zero,0
    1a28:	00000013          	addi	zero,zero,0
    1a2c:	00000013          	addi	zero,zero,0
    1a30:	00000013          	addi	zero,zero,0
    1a34:	00000013          	addi	zero,zero,0
    1a38:	00000013          	addi	zero,zero,0
    1a3c:	00000013          	addi	zero,zero,0
    1a40:	00000013          	addi	zero,zero,0
    1a44:	00000013          	addi	zero,zero,0
    1a48:	00000013          	addi	zero,zero,0
    1a4c:	00000013          	addi	zero,zero,0
    1a50:	00000013          	addi	zero,zero,0
    1a54:	00000013          	addi	zero,zero,0
    1a58:	00000013          	addi	zero,zero,0
    1a5c:	00000013          	addi	zero,zero,0
    1a60:	00000013          	addi	zero,zero,0
    1a64:	00000013          	addi	zero,zero,0
    1a68:	00000013          	addi	zero,zero,0
    1a6c:	00000013          	addi	zero,zero,0
    1a70:	00000013          	addi	zero,zero,0
    1a74:	00000013          	addi	zero,zero,0
    1a78:	00000013          	addi	zero,zero,0
    1a7c:	00000013          	addi	zero,zero,0
    1a80:	00000013          	addi	zero,zero,0
    1a84:	00000013          	addi	zero,zero,0
    1a88:	00000013          	addi	zero,zero,0
    1a8c:	00000013          	addi	zero,zero,0
    1a90:	00000013          	addi	zero,zero,0
    1a94:	00000013          	addi	zero,zero,0
    1a98:	00000013          	addi	zero,zero,0
    1a9c:	00000013          	addi	zero,zero,0
    1aa0:	00000013          	addi	zero,zero,0
    1aa4:	00000013          	addi	zero,zero,0
    1aa8:	00000013          	addi	zero,zero,0
    1aac:	00000013          	addi	zero,zero,0
    1ab0:	00000013          	addi	zero,zero,0
    1ab4:	00000013          	addi	zero,zero,0
    1ab8:	00000013          	addi	zero,zero,0
    1abc:	00000013          	addi	zero,zero,0
    1ac0:	00000013          	addi	zero,zero,0
    1ac4:	00000013          	addi	zero,zero,0
    1ac8:	00000013          	addi	zero,zero,0
    1acc:	00000013          	addi	zero,zero,0
    1ad0:	00000013          	addi	zero,zero,0
    1ad4:	00000013          	addi	zero,zero,0
    1ad8:	00000013          	addi	zero,zero,0
    1adc:	00000013          	addi	zero,zero,0
    1ae0:	00000013          	addi	zero,zero,0
    1ae4:	00000013          	addi	zero,zero,0
    1ae8:	00000013          	addi	zero,zero,0
    1aec:	00000013          	addi	zero,zero,0
    1af0:	00000013          	addi	zero,zero,0
    1af4:	00000013          	addi	zero,zero,0
    1af8:	00000013          	addi	zero,zero,0
    1afc:	00000013          	addi	zero,zero,0
    1b00:	00000013          	addi	zero,zero,0
    1b04:	00000013          	addi	zero,zero,0
    1b08:	00000013          	addi	zero,zero,0
    1b0c:	00000013          	addi	zero,zero,0
    1b10:	00000013          	addi	zero,zero,0
    1b14:	00000013          	addi	zero,zero,0
    1b18:	00000013          	addi	zero,zero,0
    1b1c:	00000013          	addi	zero,zero,0
    1b20:	00000013          	addi	zero,zero,0
    1b24:	00000013          	addi	zero,zero,0
    1b28:	00000013          	addi	zero,zero,0
    1b2c:	00000013          	addi	zero,zero,0
    1b30:	00000013          	addi	zero,zero,0
    1b34:	00000013          	addi	zero,zero,0
    1b38:	00000013          	addi	zero,zero,0
    1b3c:	00000013          	addi	zero,zero,0
    1b40:	00000013          	addi	zero,zero,0
    1b44:	00000013          	addi	zero,zero,0
    1b48:	00000013          	addi	zero,zero,0
    1b4c:	00000013          	addi	zero,zero,0
    1b50:	00000013          	addi	zero,zero,0
    1b54:	00000013          	addi	zero,zero,0
    1b58:	00000013          	addi	zero,zero,0
    1b5c:	00000013          	addi	zero,zero,0
    1b60:	00000013          	addi	zero,zero,0
    1b64:	00000013          	addi	zero,zero,0
    1b68:	00000013          	addi	zero,zero,0
    1b6c:	00000013          	addi	zero,zero,0
    1b70:	00000013          	addi	zero,zero,0
    1b74:	00000013          	addi	zero,zero,0
    1b78:	00000013          	addi	zero,zero,0
    1b7c:	00000013          	addi	zero,zero,0
    1b80:	00000013          	addi	zero,zero,0
    1b84:	00000013          	addi	zero,zero,0
    1b88:	00000013          	addi	zero,zero,0
    1b8c:	00000013          	addi	zero,zero,0
    1b90:	00000013          	addi	zero,zero,0
    1b94:	00000013          	addi	zero,zero,0
    1b98:	00000013          	addi	zero,zero,0
    1b9c:	00000013          	addi	zero,zero,0
    1ba0:	00000013          	addi	zero,zero,0
    1ba4:	00000013          	addi	zero,zero,0
    1ba8:	00000013          	addi	zero,zero,0
    1bac:	00000013          	addi	zero,zero,0
    1bb0:	00000013          	addi	zero,zero,0
    1bb4:	00000013          	addi	zero,zero,0
    1bb8:	00000013          	addi	zero,zero,0
    1bbc:	00000013          	addi	zero,zero,0
    1bc0:	00000013          	addi	zero,zero,0
    1bc4:	00000013          	addi	zero,zero,0
    1bc8:	00000013          	addi	zero,zero,0
    1bcc:	00000013          	addi	zero,zero,0
    1bd0:	00000013          	addi	zero,zero,0
    1bd4:	00000013          	addi	zero,zero,0
    1bd8:	00000013          	addi	zero,zero,0
    1bdc:	00000013          	addi	zero,zero,0
    1be0:	00000013          	addi	zero,zero,0
    1be4:	00000013          	addi	zero,zero,0
    1be8:	00000013          	addi	zero,zero,0
    1bec:	00000013          	addi	zero,zero,0
    1bf0:	00000013          	addi	zero,zero,0
    1bf4:	00000013          	addi	zero,zero,0
    1bf8:	00000013          	addi	zero,zero,0
    1bfc:	00000013          	addi	zero,zero,0
    1c00:	00000013          	addi	zero,zero,0
    1c04:	00000013          	addi	zero,zero,0
    1c08:	00000013          	addi	zero,zero,0
    1c0c:	00000013          	addi	zero,zero,0
    1c10:	00000013          	addi	zero,zero,0
    1c14:	00000013          	addi	zero,zero,0
    1c18:	00000013          	addi	zero,zero,0
    1c1c:	00000013          	addi	zero,zero,0
    1c20:	00000013          	addi	zero,zero,0
    1c24:	00000013          	addi	zero,zero,0
    1c28:	00000013          	addi	zero,zero,0
    1c2c:	00000013          	addi	zero,zero,0
    1c30:	00000013          	addi	zero,zero,0
    1c34:	00000013          	addi	zero,zero,0
    1c38:	00000013          	addi	zero,zero,0
    1c3c:	00000013          	addi	zero,zero,0
    1c40:	00000013          	addi	zero,zero,0
    1c44:	00000013          	addi	zero,zero,0
    1c48:	00000013          	addi	zero,zero,0
    1c4c:	00000013          	addi	zero,zero,0
    1c50:	00000013          	addi	zero,zero,0
    1c54:	00000013          	addi	zero,zero,0
    1c58:	00000013          	addi	zero,zero,0
    1c5c:	00000013          	addi	zero,zero,0
    1c60:	00000013          	addi	zero,zero,0
    1c64:	00000013          	addi	zero,zero,0
    1c68:	00000013          	addi	zero,zero,0
    1c6c:	00000013          	addi	zero,zero,0
    1c70:	00000013          	addi	zero,zero,0
    1c74:	00000013          	addi	zero,zero,0
    1c78:	00000013          	addi	zero,zero,0
    1c7c:	00000013          	addi	zero,zero,0
    1c80:	00000013          	addi	zero,zero,0
    1c84:	00000013          	addi	zero,zero,0
    1c88:	00000013          	addi	zero,zero,0
    1c8c:	00000013          	addi	zero,zero,0
    1c90:	00000013          	addi	zero,zero,0
    1c94:	00000013          	addi	zero,zero,0
    1c98:	00000013          	addi	zero,zero,0
    1c9c:	00000013          	addi	zero,zero,0
    1ca0:	00000013          	addi	zero,zero,0
    1ca4:	00000013          	addi	zero,zero,0
    1ca8:	00000013          	addi	zero,zero,0
    1cac:	00000013          	addi	zero,zero,0
    1cb0:	00000013          	addi	zero,zero,0
    1cb4:	00000013          	addi	zero,zero,0
    1cb8:	00000013          	addi	zero,zero,0
    1cbc:	00000013          	addi	zero,zero,0
    1cc0:	00000013          	addi	zero,zero,0
    1cc4:	00000013          	addi	zero,zero,0
    1cc8:	00000013          	addi	zero,zero,0
    1ccc:	00000013          	addi	zero,zero,0
    1cd0:	00000013          	addi	zero,zero,0
    1cd4:	00000013          	addi	zero,zero,0
    1cd8:	00000013          	addi	zero,zero,0
    1cdc:	00000013          	addi	zero,zero,0
    1ce0:	00000013          	addi	zero,zero,0
    1ce4:	00000013          	addi	zero,zero,0
    1ce8:	00000013          	addi	zero,zero,0
    1cec:	00000013          	addi	zero,zero,0
    1cf0:	00000013          	addi	zero,zero,0
    1cf4:	00000013          	addi	zero,zero,0
    1cf8:	00000013          	addi	zero,zero,0
    1cfc:	00000013          	addi	zero,zero,0
    1d00:	00000013          	addi	zero,zero,0
    1d04:	00000013          	addi	zero,zero,0
    1d08:	00000013          	addi	zero,zero,0
    1d0c:	00000013          	addi	zero,zero,0
    1d10:	00000013          	addi	zero,zero,0
    1d14:	00000013          	addi	zero,zero,0
    1d18:	00000013          	addi	zero,zero,0
    1d1c:	00000013          	addi	zero,zero,0
    1d20:	00000013          	addi	zero,zero,0
    1d24:	00000013          	addi	zero,zero,0
    1d28:	00000013          	addi	zero,zero,0
    1d2c:	00000013          	addi	zero,zero,0
    1d30:	00000013          	addi	zero,zero,0
    1d34:	00000013          	addi	zero,zero,0
    1d38:	00000013          	addi	zero,zero,0
    1d3c:	00000013          	addi	zero,zero,0
    1d40:	00000013          	addi	zero,zero,0
    1d44:	00000013          	addi	zero,zero,0
    1d48:	00000013          	addi	zero,zero,0
    1d4c:	00000013          	addi	zero,zero,0
    1d50:	00000013          	addi	zero,zero,0
    1d54:	00000013          	addi	zero,zero,0
    1d58:	00000013          	addi	zero,zero,0
    1d5c:	00000013          	addi	zero,zero,0
    1d60:	00000013          	addi	zero,zero,0
    1d64:	00000013          	addi	zero,zero,0
    1d68:	00000013          	addi	zero,zero,0
    1d6c:	00000013          	addi	zero,zero,0
    1d70:	00000013          	addi	zero,zero,0
    1d74:	00000013          	addi	zero,zero,0
    1d78:	00000013          	addi	zero,zero,0
    1d7c:	00000013          	addi	zero,zero,0
    1d80:	00000013          	addi	zero,zero,0
    1d84:	00000013          	addi	zero,zero,0
    1d88:	00000013          	addi	zero,zero,0
    1d8c:	00000013          	addi	zero,zero,0
    1d90:	00000013          	addi	zero,zero,0
    1d94:	00000013          	addi	zero,zero,0
    1d98:	00000013          	addi	zero,zero,0
    1d9c:	00000013          	addi	zero,zero,0
    1da0:	00000013          	addi	zero,zero,0
    1da4:	00000013          	addi	zero,zero,0
    1da8:	00000013          	addi	zero,zero,0
    1dac:	00000013          	addi	zero,zero,0
    1db0:	00000013          	addi	zero,zero,0
    1db4:	00000013          	addi	zero,zero,0
    1db8:	00000013          	addi	zero,zero,0
    1dbc:	00000013          	addi	zero,zero,0
    1dc0:	00000013          	addi	zero,zero,0
    1dc4:	00000013          	addi	zero,zero,0
    1dc8:	00000013          	addi	zero,zero,0
    1dcc:	00000013          	addi	zero,zero,0
    1dd0:	00000013          	addi	zero,zero,0
    1dd4:	00000013          	addi	zero,zero,0
    1dd8:	00000013          	addi	zero,zero,0
    1ddc:	00000013          	addi	zero,zero,0
    1de0:	00000013          	addi	zero,zero,0
    1de4:	00000013          	addi	zero,zero,0
    1de8:	00000013          	addi	zero,zero,0
    1dec:	00000013          	addi	zero,zero,0
    1df0:	00000013          	addi	zero,zero,0
    1df4:	00000013          	addi	zero,zero,0
    1df8:	00000013          	addi	zero,zero,0
    1dfc:	00000013          	addi	zero,zero,0
    1e00:	00000013          	addi	zero,zero,0
    1e04:	00000013          	addi	zero,zero,0
    1e08:	00000013          	addi	zero,zero,0
    1e0c:	00000013          	addi	zero,zero,0
    1e10:	00000013          	addi	zero,zero,0
    1e14:	00000013          	addi	zero,zero,0
    1e18:	00000013          	addi	zero,zero,0
    1e1c:	00000013          	addi	zero,zero,0
    1e20:	00000013          	addi	zero,zero,0
    1e24:	00000013          	addi	zero,zero,0
    1e28:	00000013          	addi	zero,zero,0
    1e2c:	00000013          	addi	zero,zero,0
    1e30:	00000013          	addi	zero,zero,0
    1e34:	00000013          	addi	zero,zero,0
    1e38:	00000013          	addi	zero,zero,0
    1e3c:	00000013          	addi	zero,zero,0
    1e40:	00000013          	addi	zero,zero,0
    1e44:	00000013          	addi	zero,zero,0
    1e48:	00000013          	addi	zero,zero,0
    1e4c:	00000013          	addi	zero,zero,0
    1e50:	00000013          	addi	zero,zero,0
    1e54:	00000013          	addi	zero,zero,0
    1e58:	00000013          	addi	zero,zero,0
    1e5c:	00000013          	addi	zero,zero,0
    1e60:	00000013          	addi	zero,zero,0
    1e64:	00000013          	addi	zero,zero,0
    1e68:	00000013          	addi	zero,zero,0
    1e6c:	00000013          	addi	zero,zero,0
    1e70:	00000013          	addi	zero,zero,0
    1e74:	00000013          	addi	zero,zero,0
    1e78:	00000013          	addi	zero,zero,0
    1e7c:	00000013          	addi	zero,zero,0
    1e80:	00000013          	addi	zero,zero,0
    1e84:	00000013          	addi	zero,zero,0
    1e88:	00000013          	addi	zero,zero,0
    1e8c:	00000013          	addi	zero,zero,0
    1e90:	00000013          	addi	zero,zero,0
    1e94:	00000013          	addi	zero,zero,0
    1e98:	00000013          	addi	zero,zero,0
    1e9c:	00000013          	addi	zero,zero,0
    1ea0:	00000013          	addi	zero,zero,0
    1ea4:	00000013          	addi	zero,zero,0
    1ea8:	00000013          	addi	zero,zero,0
    1eac:	00000013          	addi	zero,zero,0
    1eb0:	00000013          	addi	zero,zero,0
    1eb4:	00000013          	addi	zero,zero,0
    1eb8:	00000013          	addi	zero,zero,0
    1ebc:	00000013          	addi	zero,zero,0
    1ec0:	00000013          	addi	zero,zero,0
    1ec4:	00000013          	addi	zero,zero,0
    1ec8:	00000013          	addi	zero,zero,0
    1ecc:	00000013          	addi	zero,zero,0
    1ed0:	00000013          	addi	zero,zero,0
    1ed4:	00000013          	addi	zero,zero,0
    1ed8:	00000013          	addi	zero,zero,0
    1edc:	00000013          	addi	zero,zero,0
    1ee0:	00000013          	addi	zero,zero,0
    1ee4:	00000013          	addi	zero,zero,0
    1ee8:	00000013          	addi	zero,zero,0
    1eec:	00000013          	addi	zero,zero,0
    1ef0:	00000013          	addi	zero,zero,0
    1ef4:	00000013          	addi	zero,zero,0
    1ef8:	00000013          	addi	zero,zero,0
    1efc:	00000013          	addi	zero,zero,0
    1f00:	00000013          	addi	zero,zero,0
    1f04:	00000013          	addi	zero,zero,0
    1f08:	00000013          	addi	zero,zero,0
    1f0c:	00000013          	addi	zero,zero,0
    1f10:	00000013          	addi	zero,zero,0
    1f14:	00000013          	addi	zero,zero,0
    1f18:	00000013          	addi	zero,zero,0
    1f1c:	00000013          	addi	zero,zero,0
    1f20:	00000013          	addi	zero,zero,0
    1f24:	00000013          	addi	zero,zero,0
    1f28:	00000013          	addi	zero,zero,0
    1f2c:	00000013          	addi	zero,zero,0
    1f30:	00000013          	addi	zero,zero,0
    1f34:	00000013          	addi	zero,zero,0
    1f38:	00000013          	addi	zero,zero,0
    1f3c:	00000013          	addi	zero,zero,0
    1f40:	00000013          	addi	zero,zero,0
    1f44:	00000013          	addi	zero,zero,0
    1f48:	00000013          	addi	zero,zero,0
    1f4c:	00000013          	addi	zero,zero,0
    1f50:	00000013          	addi	zero,zero,0
    1f54:	00000013          	addi	zero,zero,0
    1f58:	00000013          	addi	zero,zero,0
    1f5c:	00000013          	addi	zero,zero,0
    1f60:	00000013          	addi	zero,zero,0
    1f64:	00000013          	addi	zero,zero,0
    1f68:	00000013          	addi	zero,zero,0
    1f6c:	00000013          	addi	zero,zero,0
    1f70:	00000013          	addi	zero,zero,0
    1f74:	00000013          	addi	zero,zero,0
    1f78:	00000013          	addi	zero,zero,0
    1f7c:	00000013          	addi	zero,zero,0
    1f80:	00000013          	addi	zero,zero,0
    1f84:	00000013          	addi	zero,zero,0
    1f88:	00000013          	addi	zero,zero,0
    1f8c:	00000013          	addi	zero,zero,0
    1f90:	00000013          	addi	zero,zero,0
    1f94:	00000013          	addi	zero,zero,0
    1f98:	00000013          	addi	zero,zero,0
    1f9c:	00000013          	addi	zero,zero,0
    1fa0:	00000013          	addi	zero,zero,0
    1fa4:	00000013          	addi	zero,zero,0
    1fa8:	00000013          	addi	zero,zero,0
    1fac:	00000013          	addi	zero,zero,0
    1fb0:	00000013          	addi	zero,zero,0
    1fb4:	00000013          	addi	zero,zero,0
    1fb8:	00000013          	addi	zero,zero,0
    1fbc:	00000013          	addi	zero,zero,0
    1fc0:	00000013          	addi	zero,zero,0
    1fc4:	00000013          	addi	zero,zero,0
    1fc8:	00000013          	addi	zero,zero,0
    1fcc:	00000013          	addi	zero,zero,0
    1fd0:	00000013          	addi	zero,zero,0
    1fd4:	00000013          	addi	zero,zero,0
    1fd8:	00000013          	addi	zero,zero,0
    1fdc:	00000013          	addi	zero,zero,0
    1fe0:	00000013          	addi	zero,zero,0
    1fe4:	00000013          	addi	zero,zero,0
    1fe8:	00000013          	addi	zero,zero,0
    1fec:	00000013          	addi	zero,zero,0
    1ff0:	00000013          	addi	zero,zero,0
    1ff4:	00000013          	addi	zero,zero,0
    1ff8:	00000013          	addi	zero,zero,0
    1ffc:	00000013          	addi	zero,zero,0

00002000 <_trap_entry_vclic>:
    2000:	1000                	c.addi4spn	s0,sp,32
    2002:	0000                	c.unimp
    2004:	1000                	c.addi4spn	s0,sp,32
    2006:	0000                	c.unimp
    2008:	1000                	c.addi4spn	s0,sp,32
    200a:	0000                	c.unimp
    200c:	1000                	c.addi4spn	s0,sp,32
    200e:	0000                	c.unimp
    2010:	1000                	c.addi4spn	s0,sp,32
    2012:	0000                	c.unimp
    2014:	1000                	c.addi4spn	s0,sp,32
    2016:	0000                	c.unimp
    2018:	1000                	c.addi4spn	s0,sp,32
    201a:	0000                	c.unimp
    201c:	1000                	c.addi4spn	s0,sp,32
    201e:	0000                	c.unimp
    2020:	1000                	c.addi4spn	s0,sp,32
    2022:	0000                	c.unimp
    2024:	1000                	c.addi4spn	s0,sp,32
    2026:	0000                	c.unimp
    2028:	1000                	c.addi4spn	s0,sp,32
    202a:	0000                	c.unimp
    202c:	1000                	c.addi4spn	s0,sp,32
    202e:	0000                	c.unimp
    2030:	1000                	c.addi4spn	s0,sp,32
    2032:	0000                	c.unimp
    2034:	1000                	c.addi4spn	s0,sp,32
    2036:	0000                	c.unimp
    2038:	1000                	c.addi4spn	s0,sp,32
    203a:	0000                	c.unimp
    203c:	1000                	c.addi4spn	s0,sp,32
    203e:	0000                	c.unimp
    2040:	1000                	c.addi4spn	s0,sp,32
    2042:	0000                	c.unimp
    2044:	1000                	c.addi4spn	s0,sp,32
    2046:	0000                	c.unimp
    2048:	1000                	c.addi4spn	s0,sp,32
    204a:	0000                	c.unimp
    204c:	10f8                	c.addi4spn	a4,sp,108
    204e:	0000                	c.unimp
    2050:	10f8                	c.addi4spn	a4,sp,108
    2052:	0000                	c.unimp
    2054:	10f8                	c.addi4spn	a4,sp,108
    2056:	0000                	c.unimp
    2058:	10f8                	c.addi4spn	a4,sp,108
    205a:	0000                	c.unimp
    205c:	10f8                	c.addi4spn	a4,sp,108
    205e:	0000                	c.unimp
    2060:	10f8                	c.addi4spn	a4,sp,108
    2062:	0000                	c.unimp
    2064:	10f8                	c.addi4spn	a4,sp,108
    2066:	0000                	c.unimp
    2068:	10f8                	c.addi4spn	a4,sp,108
    206a:	0000                	c.unimp
    206c:	10f8                	c.addi4spn	a4,sp,108
    206e:	0000                	c.unimp
    2070:	10f8                	c.addi4spn	a4,sp,108
    2072:	0000                	c.unimp
    2074:	10f8                	c.addi4spn	a4,sp,108
    2076:	0000                	c.unimp
    2078:	10f8                	c.addi4spn	a4,sp,108
    207a:	0000                	c.unimp
    207c:	10f8                	c.addi4spn	a4,sp,108
    207e:	0000                	c.unimp
    2080:	10f8                	c.addi4spn	a4,sp,108
    2082:	0000                	c.unimp
    2084:	10f8                	c.addi4spn	a4,sp,108
    2086:	0000                	c.unimp
    2088:	10f8                	c.addi4spn	a4,sp,108
    208a:	0000                	c.unimp
    208c:	10f8                	c.addi4spn	a4,sp,108
    208e:	0000                	c.unimp
    2090:	10f8                	c.addi4spn	a4,sp,108
    2092:	0000                	c.unimp
    2094:	10f8                	c.addi4spn	a4,sp,108
    2096:	0000                	c.unimp
    2098:	10f8                	c.addi4spn	a4,sp,108
    209a:	0000                	c.unimp
    209c:	10f8                	c.addi4spn	a4,sp,108
    209e:	0000                	c.unimp
    20a0:	10f8                	c.addi4spn	a4,sp,108
    20a2:	0000                	c.unimp
    20a4:	10f8                	c.addi4spn	a4,sp,108
    20a6:	0000                	c.unimp
    20a8:	10f8                	c.addi4spn	a4,sp,108
    20aa:	0000                	c.unimp
    20ac:	10f8                	c.addi4spn	a4,sp,108
    20ae:	0000                	c.unimp
    20b0:	10f8                	c.addi4spn	a4,sp,108
    20b2:	0000                	c.unimp
    20b4:	10f8                	c.addi4spn	a4,sp,108
    20b6:	0000                	c.unimp
    20b8:	10f8                	c.addi4spn	a4,sp,108
    20ba:	0000                	c.unimp
    20bc:	10f8                	c.addi4spn	a4,sp,108
    20be:	0000                	c.unimp
    20c0:	10f8                	c.addi4spn	a4,sp,108
    20c2:	0000                	c.unimp
    20c4:	10f8                	c.addi4spn	a4,sp,108
    20c6:	0000                	c.unimp
    20c8:	0001                	c.addi	zero,0
    20ca:	00000013          	addi	zero,zero,0
    20ce:	00000013          	addi	zero,zero,0
    20d2:	00000013          	addi	zero,zero,0
    20d6:	00000013          	addi	zero,zero,0
    20da:	00000013          	addi	zero,zero,0
    20de:	00000013          	addi	zero,zero,0
    20e2:	00000013          	addi	zero,zero,0
    20e6:	00000013          	addi	zero,zero,0
    20ea:	00000013          	addi	zero,zero,0
    20ee:	00000013          	addi	zero,zero,0
    20f2:	00000013          	addi	zero,zero,0
    20f6:	00000013          	addi	zero,zero,0
    20fa:	00000013          	addi	zero,zero,0
    20fe:	00000013          	addi	zero,zero,0
    2102:	00000013          	addi	zero,zero,0
    2106:	00000013          	addi	zero,zero,0
    210a:	00000013          	addi	zero,zero,0
    210e:	00000013          	addi	zero,zero,0
    2112:	00000013          	addi	zero,zero,0
    2116:	00000013          	addi	zero,zero,0
    211a:	00000013          	addi	zero,zero,0
    211e:	00000013          	addi	zero,zero,0
    2122:	00000013          	addi	zero,zero,0
    2126:	00000013          	addi	zero,zero,0
    212a:	00000013          	addi	zero,zero,0
    212e:	00000013          	addi	zero,zero,0
    2132:	00000013          	addi	zero,zero,0
    2136:	00000013          	addi	zero,zero,0
    213a:	00000013          	addi	zero,zero,0
    213e:	00000013          	addi	zero,zero,0
    2142:	00000013          	addi	zero,zero,0
    2146:	00000013          	addi	zero,zero,0
    214a:	00000013          	addi	zero,zero,0
    214e:	00000013          	addi	zero,zero,0
    2152:	00000013          	addi	zero,zero,0
    2156:	00000013          	addi	zero,zero,0
    215a:	00000013          	addi	zero,zero,0
    215e:	00000013          	addi	zero,zero,0
    2162:	00000013          	addi	zero,zero,0
    2166:	00000013          	addi	zero,zero,0
    216a:	00000013          	addi	zero,zero,0
    216e:	00000013          	addi	zero,zero,0
    2172:	00000013          	addi	zero,zero,0
    2176:	00000013          	addi	zero,zero,0
    217a:	00000013          	addi	zero,zero,0
    217e:	00000013          	addi	zero,zero,0
    2182:	00000013          	addi	zero,zero,0
    2186:	00000013          	addi	zero,zero,0
    218a:	00000013          	addi	zero,zero,0
    218e:	00000013          	addi	zero,zero,0
    2192:	00000013          	addi	zero,zero,0
    2196:	00000013          	addi	zero,zero,0
    219a:	00000013          	addi	zero,zero,0
    219e:	00000013          	addi	zero,zero,0
    21a2:	00000013          	addi	zero,zero,0
    21a6:	00000013          	addi	zero,zero,0
    21aa:	00000013          	addi	zero,zero,0
    21ae:	00000013          	addi	zero,zero,0
    21b2:	00000013          	addi	zero,zero,0
    21b6:	00000013          	addi	zero,zero,0
    21ba:	00000013          	addi	zero,zero,0
    21be:	00000013          	addi	zero,zero,0
    21c2:	00000013          	addi	zero,zero,0
    21c6:	00000013          	addi	zero,zero,0
    21ca:	00000013          	addi	zero,zero,0
    21ce:	00000013          	addi	zero,zero,0
    21d2:	00000013          	addi	zero,zero,0
    21d6:	00000013          	addi	zero,zero,0
    21da:	00000013          	addi	zero,zero,0
    21de:	00000013          	addi	zero,zero,0
    21e2:	00000013          	addi	zero,zero,0
    21e6:	00000013          	addi	zero,zero,0
    21ea:	00000013          	addi	zero,zero,0
    21ee:	00000013          	addi	zero,zero,0
    21f2:	00000013          	addi	zero,zero,0
    21f6:	00000013          	addi	zero,zero,0
    21fa:	00000013          	addi	zero,zero,0
    21fe:	00000013          	addi	zero,zero,0
    2202:	00000013          	addi	zero,zero,0
    2206:	00000013          	addi	zero,zero,0
    220a:	00000013          	addi	zero,zero,0
    220e:	00000013          	addi	zero,zero,0
    2212:	00000013          	addi	zero,zero,0
    2216:	00000013          	addi	zero,zero,0
    221a:	00000013          	addi	zero,zero,0
    221e:	00000013          	addi	zero,zero,0
    2222:	00000013          	addi	zero,zero,0
    2226:	00000013          	addi	zero,zero,0
    222a:	00000013          	addi	zero,zero,0
    222e:	00000013          	addi	zero,zero,0
    2232:	00000013          	addi	zero,zero,0
    2236:	00000013          	addi	zero,zero,0
    223a:	00000013          	addi	zero,zero,0
    223e:	00000013          	addi	zero,zero,0
    2242:	00000013          	addi	zero,zero,0
    2246:	00000013          	addi	zero,zero,0
    224a:	00000013          	addi	zero,zero,0
    224e:	00000013          	addi	zero,zero,0
    2252:	00000013          	addi	zero,zero,0
    2256:	00000013          	addi	zero,zero,0
    225a:	00000013          	addi	zero,zero,0
    225e:	00000013          	addi	zero,zero,0
    2262:	00000013          	addi	zero,zero,0
    2266:	00000013          	addi	zero,zero,0
    226a:	00000013          	addi	zero,zero,0
    226e:	00000013          	addi	zero,zero,0
    2272:	00000013          	addi	zero,zero,0
    2276:	00000013          	addi	zero,zero,0
    227a:	00000013          	addi	zero,zero,0
    227e:	00000013          	addi	zero,zero,0
    2282:	00000013          	addi	zero,zero,0
    2286:	00000013          	addi	zero,zero,0
    228a:	00000013          	addi	zero,zero,0
    228e:	00000013          	addi	zero,zero,0
    2292:	00000013          	addi	zero,zero,0
    2296:	00000013          	addi	zero,zero,0
    229a:	00000013          	addi	zero,zero,0
    229e:	00000013          	addi	zero,zero,0
    22a2:	00000013          	addi	zero,zero,0
    22a6:	00000013          	addi	zero,zero,0
    22aa:	00000013          	addi	zero,zero,0
    22ae:	00000013          	addi	zero,zero,0
    22b2:	00000013          	addi	zero,zero,0
    22b6:	00000013          	addi	zero,zero,0
    22ba:	00000013          	addi	zero,zero,0
    22be:	00000013          	addi	zero,zero,0
    22c2:	00000013          	addi	zero,zero,0
    22c6:	00000013          	addi	zero,zero,0
    22ca:	00000013          	addi	zero,zero,0
    22ce:	00000013          	addi	zero,zero,0
    22d2:	00000013          	addi	zero,zero,0
    22d6:	00000013          	addi	zero,zero,0
    22da:	00000013          	addi	zero,zero,0
    22de:	00000013          	addi	zero,zero,0
    22e2:	00000013          	addi	zero,zero,0
    22e6:	00000013          	addi	zero,zero,0
    22ea:	00000013          	addi	zero,zero,0
    22ee:	00000013          	addi	zero,zero,0
    22f2:	00000013          	addi	zero,zero,0
    22f6:	00000013          	addi	zero,zero,0
    22fa:	00000013          	addi	zero,zero,0
    22fe:	00000013          	addi	zero,zero,0
    2302:	00000013          	addi	zero,zero,0
    2306:	00000013          	addi	zero,zero,0
    230a:	00000013          	addi	zero,zero,0
    230e:	00000013          	addi	zero,zero,0
    2312:	00000013          	addi	zero,zero,0
    2316:	00000013          	addi	zero,zero,0
    231a:	00000013          	addi	zero,zero,0
    231e:	00000013          	addi	zero,zero,0
    2322:	00000013          	addi	zero,zero,0
    2326:	00000013          	addi	zero,zero,0
    232a:	00000013          	addi	zero,zero,0
    232e:	00000013          	addi	zero,zero,0
    2332:	00000013          	addi	zero,zero,0
    2336:	00000013          	addi	zero,zero,0
    233a:	00000013          	addi	zero,zero,0
    233e:	00000013          	addi	zero,zero,0
    2342:	00000013          	addi	zero,zero,0
    2346:	00000013          	addi	zero,zero,0
    234a:	00000013          	addi	zero,zero,0
    234e:	00000013          	addi	zero,zero,0
    2352:	00000013          	addi	zero,zero,0
    2356:	00000013          	addi	zero,zero,0
    235a:	00000013          	addi	zero,zero,0
    235e:	00000013          	addi	zero,zero,0
    2362:	00000013          	addi	zero,zero,0
    2366:	00000013          	addi	zero,zero,0
    236a:	00000013          	addi	zero,zero,0
    236e:	00000013          	addi	zero,zero,0
    2372:	00000013          	addi	zero,zero,0
    2376:	00000013          	addi	zero,zero,0
    237a:	00000013          	addi	zero,zero,0
    237e:	00000013          	addi	zero,zero,0
    2382:	00000013          	addi	zero,zero,0
    2386:	00000013          	addi	zero,zero,0
    238a:	00000013          	addi	zero,zero,0
    238e:	00000013          	addi	zero,zero,0
    2392:	00000013          	addi	zero,zero,0
    2396:	00000013          	addi	zero,zero,0
    239a:	00000013          	addi	zero,zero,0
    239e:	00000013          	addi	zero,zero,0
    23a2:	00000013          	addi	zero,zero,0
    23a6:	00000013          	addi	zero,zero,0
    23aa:	00000013          	addi	zero,zero,0
    23ae:	00000013          	addi	zero,zero,0
    23b2:	00000013          	addi	zero,zero,0
    23b6:	00000013          	addi	zero,zero,0
    23ba:	00000013          	addi	zero,zero,0
    23be:	00000013          	addi	zero,zero,0
    23c2:	00000013          	addi	zero,zero,0
    23c6:	00000013          	addi	zero,zero,0
    23ca:	00000013          	addi	zero,zero,0
    23ce:	00000013          	addi	zero,zero,0
    23d2:	00000013          	addi	zero,zero,0
    23d6:	00000013          	addi	zero,zero,0
    23da:	00000013          	addi	zero,zero,0
    23de:	00000013          	addi	zero,zero,0
    23e2:	00000013          	addi	zero,zero,0
    23e6:	00000013          	addi	zero,zero,0
    23ea:	00000013          	addi	zero,zero,0
    23ee:	00000013          	addi	zero,zero,0
    23f2:	00000013          	addi	zero,zero,0
    23f6:	00000013          	addi	zero,zero,0
    23fa:	00000013          	addi	zero,zero,0
    23fe:	00000013          	addi	zero,zero,0
    2402:	00000013          	addi	zero,zero,0
    2406:	00000013          	addi	zero,zero,0
    240a:	00000013          	addi	zero,zero,0
    240e:	00000013          	addi	zero,zero,0
    2412:	00000013          	addi	zero,zero,0
    2416:	00000013          	addi	zero,zero,0
    241a:	00000013          	addi	zero,zero,0
    241e:	00000013          	addi	zero,zero,0
    2422:	00000013          	addi	zero,zero,0
    2426:	00000013          	addi	zero,zero,0
    242a:	00000013          	addi	zero,zero,0
    242e:	00000013          	addi	zero,zero,0
    2432:	00000013          	addi	zero,zero,0
    2436:	00000013          	addi	zero,zero,0
    243a:	00000013          	addi	zero,zero,0
    243e:	00000013          	addi	zero,zero,0
    2442:	00000013          	addi	zero,zero,0
    2446:	00000013          	addi	zero,zero,0
    244a:	00000013          	addi	zero,zero,0
    244e:	00000013          	addi	zero,zero,0
    2452:	00000013          	addi	zero,zero,0
    2456:	00000013          	addi	zero,zero,0
    245a:	00000013          	addi	zero,zero,0
    245e:	00000013          	addi	zero,zero,0
    2462:	00000013          	addi	zero,zero,0
    2466:	00000013          	addi	zero,zero,0
    246a:	00000013          	addi	zero,zero,0
    246e:	00000013          	addi	zero,zero,0
    2472:	00000013          	addi	zero,zero,0
    2476:	00000013          	addi	zero,zero,0
    247a:	00000013          	addi	zero,zero,0
    247e:	00000013          	addi	zero,zero,0
    2482:	00000013          	addi	zero,zero,0
    2486:	00000013          	addi	zero,zero,0
    248a:	00000013          	addi	zero,zero,0
    248e:	00000013          	addi	zero,zero,0
    2492:	00000013          	addi	zero,zero,0
    2496:	00000013          	addi	zero,zero,0
    249a:	00000013          	addi	zero,zero,0
    249e:	00000013          	addi	zero,zero,0
    24a2:	00000013          	addi	zero,zero,0
    24a6:	00000013          	addi	zero,zero,0
    24aa:	00000013          	addi	zero,zero,0
    24ae:	00000013          	addi	zero,zero,0
    24b2:	00000013          	addi	zero,zero,0
    24b6:	00000013          	addi	zero,zero,0
    24ba:	00000013          	addi	zero,zero,0
    24be:	00000013          	addi	zero,zero,0
    24c2:	00000013          	addi	zero,zero,0
    24c6:	00000013          	addi	zero,zero,0
    24ca:	00000013          	addi	zero,zero,0
    24ce:	00000013          	addi	zero,zero,0
    24d2:	00000013          	addi	zero,zero,0
    24d6:	00000013          	addi	zero,zero,0
    24da:	00000013          	addi	zero,zero,0
    24de:	00000013          	addi	zero,zero,0
    24e2:	00000013          	addi	zero,zero,0
    24e6:	00000013          	addi	zero,zero,0
    24ea:	00000013          	addi	zero,zero,0
    24ee:	00000013          	addi	zero,zero,0
    24f2:	00000013          	addi	zero,zero,0
    24f6:	00000013          	addi	zero,zero,0
    24fa:	00000013          	addi	zero,zero,0
    24fe:	00000013          	addi	zero,zero,0
    2502:	00000013          	addi	zero,zero,0
    2506:	00000013          	addi	zero,zero,0
    250a:	00000013          	addi	zero,zero,0
    250e:	00000013          	addi	zero,zero,0
    2512:	00000013          	addi	zero,zero,0
    2516:	00000013          	addi	zero,zero,0
    251a:	00000013          	addi	zero,zero,0
    251e:	00000013          	addi	zero,zero,0
    2522:	00000013          	addi	zero,zero,0
    2526:	00000013          	addi	zero,zero,0
    252a:	00000013          	addi	zero,zero,0
    252e:	00000013          	addi	zero,zero,0
    2532:	00000013          	addi	zero,zero,0
    2536:	00000013          	addi	zero,zero,0
    253a:	00000013          	addi	zero,zero,0
    253e:	00000013          	addi	zero,zero,0
    2542:	00000013          	addi	zero,zero,0
    2546:	00000013          	addi	zero,zero,0
    254a:	00000013          	addi	zero,zero,0
    254e:	00000013          	addi	zero,zero,0
    2552:	00000013          	addi	zero,zero,0
    2556:	00000013          	addi	zero,zero,0
    255a:	00000013          	addi	zero,zero,0
    255e:	00000013          	addi	zero,zero,0
    2562:	00000013          	addi	zero,zero,0
    2566:	00000013          	addi	zero,zero,0
    256a:	00000013          	addi	zero,zero,0
    256e:	00000013          	addi	zero,zero,0
    2572:	00000013          	addi	zero,zero,0
    2576:	00000013          	addi	zero,zero,0
    257a:	00000013          	addi	zero,zero,0
    257e:	00000013          	addi	zero,zero,0
    2582:	00000013          	addi	zero,zero,0
    2586:	00000013          	addi	zero,zero,0
    258a:	00000013          	addi	zero,zero,0
    258e:	00000013          	addi	zero,zero,0
    2592:	00000013          	addi	zero,zero,0
    2596:	00000013          	addi	zero,zero,0
    259a:	00000013          	addi	zero,zero,0
    259e:	00000013          	addi	zero,zero,0
    25a2:	00000013          	addi	zero,zero,0
    25a6:	00000013          	addi	zero,zero,0
    25aa:	00000013          	addi	zero,zero,0
    25ae:	00000013          	addi	zero,zero,0
    25b2:	00000013          	addi	zero,zero,0
    25b6:	00000013          	addi	zero,zero,0
    25ba:	00000013          	addi	zero,zero,0
    25be:	00000013          	addi	zero,zero,0
    25c2:	00000013          	addi	zero,zero,0
    25c6:	00000013          	addi	zero,zero,0
    25ca:	00000013          	addi	zero,zero,0
    25ce:	00000013          	addi	zero,zero,0
    25d2:	00000013          	addi	zero,zero,0
    25d6:	00000013          	addi	zero,zero,0
    25da:	00000013          	addi	zero,zero,0
    25de:	00000013          	addi	zero,zero,0
    25e2:	00000013          	addi	zero,zero,0
    25e6:	00000013          	addi	zero,zero,0
    25ea:	00000013          	addi	zero,zero,0
    25ee:	00000013          	addi	zero,zero,0
    25f2:	00000013          	addi	zero,zero,0
    25f6:	00000013          	addi	zero,zero,0
    25fa:	00000013          	addi	zero,zero,0
    25fe:	00000013          	addi	zero,zero,0
    2602:	00000013          	addi	zero,zero,0
    2606:	00000013          	addi	zero,zero,0
    260a:	00000013          	addi	zero,zero,0
    260e:	00000013          	addi	zero,zero,0
    2612:	00000013          	addi	zero,zero,0
    2616:	00000013          	addi	zero,zero,0
    261a:	00000013          	addi	zero,zero,0
    261e:	00000013          	addi	zero,zero,0
    2622:	00000013          	addi	zero,zero,0
    2626:	00000013          	addi	zero,zero,0
    262a:	00000013          	addi	zero,zero,0
    262e:	00000013          	addi	zero,zero,0
    2632:	00000013          	addi	zero,zero,0
    2636:	00000013          	addi	zero,zero,0
    263a:	00000013          	addi	zero,zero,0
    263e:	00000013          	addi	zero,zero,0
    2642:	00000013          	addi	zero,zero,0
    2646:	00000013          	addi	zero,zero,0
    264a:	00000013          	addi	zero,zero,0
    264e:	00000013          	addi	zero,zero,0
    2652:	00000013          	addi	zero,zero,0
    2656:	00000013          	addi	zero,zero,0
    265a:	00000013          	addi	zero,zero,0
    265e:	00000013          	addi	zero,zero,0
    2662:	00000013          	addi	zero,zero,0
    2666:	00000013          	addi	zero,zero,0
    266a:	00000013          	addi	zero,zero,0
    266e:	00000013          	addi	zero,zero,0
    2672:	00000013          	addi	zero,zero,0
    2676:	00000013          	addi	zero,zero,0
    267a:	00000013          	addi	zero,zero,0
    267e:	00000013          	addi	zero,zero,0
    2682:	00000013          	addi	zero,zero,0
    2686:	00000013          	addi	zero,zero,0
    268a:	00000013          	addi	zero,zero,0
    268e:	00000013          	addi	zero,zero,0
    2692:	00000013          	addi	zero,zero,0
    2696:	00000013          	addi	zero,zero,0
    269a:	00000013          	addi	zero,zero,0
    269e:	00000013          	addi	zero,zero,0
    26a2:	00000013          	addi	zero,zero,0
    26a6:	00000013          	addi	zero,zero,0
    26aa:	00000013          	addi	zero,zero,0
    26ae:	00000013          	addi	zero,zero,0
    26b2:	00000013          	addi	zero,zero,0
    26b6:	00000013          	addi	zero,zero,0
    26ba:	00000013          	addi	zero,zero,0
    26be:	00000013          	addi	zero,zero,0
    26c2:	00000013          	addi	zero,zero,0
    26c6:	00000013          	addi	zero,zero,0
    26ca:	00000013          	addi	zero,zero,0
    26ce:	00000013          	addi	zero,zero,0
    26d2:	00000013          	addi	zero,zero,0
    26d6:	00000013          	addi	zero,zero,0
    26da:	00000013          	addi	zero,zero,0
    26de:	00000013          	addi	zero,zero,0
    26e2:	00000013          	addi	zero,zero,0
    26e6:	00000013          	addi	zero,zero,0
    26ea:	00000013          	addi	zero,zero,0
    26ee:	00000013          	addi	zero,zero,0
    26f2:	00000013          	addi	zero,zero,0
    26f6:	00000013          	addi	zero,zero,0
    26fa:	00000013          	addi	zero,zero,0
    26fe:	00000013          	addi	zero,zero,0
    2702:	00000013          	addi	zero,zero,0
    2706:	00000013          	addi	zero,zero,0
    270a:	00000013          	addi	zero,zero,0
    270e:	00000013          	addi	zero,zero,0
    2712:	00000013          	addi	zero,zero,0
    2716:	00000013          	addi	zero,zero,0
    271a:	00000013          	addi	zero,zero,0
    271e:	00000013          	addi	zero,zero,0
    2722:	00000013          	addi	zero,zero,0
    2726:	00000013          	addi	zero,zero,0
    272a:	00000013          	addi	zero,zero,0
    272e:	00000013          	addi	zero,zero,0
    2732:	00000013          	addi	zero,zero,0
    2736:	00000013          	addi	zero,zero,0
    273a:	00000013          	addi	zero,zero,0
    273e:	00000013          	addi	zero,zero,0
    2742:	00000013          	addi	zero,zero,0
    2746:	00000013          	addi	zero,zero,0
    274a:	00000013          	addi	zero,zero,0
    274e:	00000013          	addi	zero,zero,0
    2752:	00000013          	addi	zero,zero,0
    2756:	00000013          	addi	zero,zero,0
    275a:	00000013          	addi	zero,zero,0
    275e:	00000013          	addi	zero,zero,0
    2762:	00000013          	addi	zero,zero,0
    2766:	00000013          	addi	zero,zero,0
    276a:	00000013          	addi	zero,zero,0
    276e:	00000013          	addi	zero,zero,0
    2772:	00000013          	addi	zero,zero,0
    2776:	00000013          	addi	zero,zero,0
    277a:	00000013          	addi	zero,zero,0
    277e:	00000013          	addi	zero,zero,0
    2782:	00000013          	addi	zero,zero,0
    2786:	00000013          	addi	zero,zero,0
    278a:	00000013          	addi	zero,zero,0
    278e:	00000013          	addi	zero,zero,0
    2792:	00000013          	addi	zero,zero,0
    2796:	00000013          	addi	zero,zero,0
    279a:	00000013          	addi	zero,zero,0
    279e:	00000013          	addi	zero,zero,0
    27a2:	00000013          	addi	zero,zero,0
    27a6:	00000013          	addi	zero,zero,0
    27aa:	00000013          	addi	zero,zero,0
    27ae:	00000013          	addi	zero,zero,0
    27b2:	00000013          	addi	zero,zero,0
    27b6:	00000013          	addi	zero,zero,0
    27ba:	00000013          	addi	zero,zero,0
    27be:	00000013          	addi	zero,zero,0
    27c2:	00000013          	addi	zero,zero,0
    27c6:	00000013          	addi	zero,zero,0
    27ca:	00000013          	addi	zero,zero,0
    27ce:	00000013          	addi	zero,zero,0
    27d2:	00000013          	addi	zero,zero,0
    27d6:	00000013          	addi	zero,zero,0
    27da:	00000013          	addi	zero,zero,0
    27de:	00000013          	addi	zero,zero,0
    27e2:	00000013          	addi	zero,zero,0
    27e6:	00000013          	addi	zero,zero,0
    27ea:	00000013          	addi	zero,zero,0
    27ee:	00000013          	addi	zero,zero,0
    27f2:	00000013          	addi	zero,zero,0
    27f6:	00000013          	addi	zero,zero,0
    27fa:	00000013          	addi	zero,zero,0
    27fe:	00000013          	addi	zero,zero,0
    2802:	00000013          	addi	zero,zero,0
    2806:	00000013          	addi	zero,zero,0
    280a:	00000013          	addi	zero,zero,0
    280e:	00000013          	addi	zero,zero,0
    2812:	00000013          	addi	zero,zero,0
    2816:	00000013          	addi	zero,zero,0
    281a:	00000013          	addi	zero,zero,0
    281e:	00000013          	addi	zero,zero,0
    2822:	00000013          	addi	zero,zero,0
    2826:	00000013          	addi	zero,zero,0
    282a:	00000013          	addi	zero,zero,0
    282e:	00000013          	addi	zero,zero,0
    2832:	00000013          	addi	zero,zero,0
    2836:	00000013          	addi	zero,zero,0
    283a:	00000013          	addi	zero,zero,0
    283e:	00000013          	addi	zero,zero,0
    2842:	00000013          	addi	zero,zero,0
    2846:	00000013          	addi	zero,zero,0
    284a:	00000013          	addi	zero,zero,0
    284e:	00000013          	addi	zero,zero,0
    2852:	00000013          	addi	zero,zero,0
    2856:	00000013          	addi	zero,zero,0
    285a:	00000013          	addi	zero,zero,0
    285e:	00000013          	addi	zero,zero,0
    2862:	00000013          	addi	zero,zero,0
    2866:	00000013          	addi	zero,zero,0
    286a:	00000013          	addi	zero,zero,0
    286e:	00000013          	addi	zero,zero,0
    2872:	00000013          	addi	zero,zero,0
    2876:	00000013          	addi	zero,zero,0
    287a:	00000013          	addi	zero,zero,0
    287e:	00000013          	addi	zero,zero,0
    2882:	00000013          	addi	zero,zero,0
    2886:	00000013          	addi	zero,zero,0
    288a:	00000013          	addi	zero,zero,0
    288e:	00000013          	addi	zero,zero,0
    2892:	00000013          	addi	zero,zero,0
    2896:	00000013          	addi	zero,zero,0
    289a:	00000013          	addi	zero,zero,0
    289e:	00000013          	addi	zero,zero,0
    28a2:	00000013          	addi	zero,zero,0
    28a6:	00000013          	addi	zero,zero,0
    28aa:	00000013          	addi	zero,zero,0
    28ae:	00000013          	addi	zero,zero,0
    28b2:	00000013          	addi	zero,zero,0
    28b6:	00000013          	addi	zero,zero,0
    28ba:	00000013          	addi	zero,zero,0
    28be:	00000013          	addi	zero,zero,0
    28c2:	00000013          	addi	zero,zero,0
    28c6:	00000013          	addi	zero,zero,0
    28ca:	00000013          	addi	zero,zero,0
    28ce:	00000013          	addi	zero,zero,0
    28d2:	00000013          	addi	zero,zero,0
    28d6:	00000013          	addi	zero,zero,0
    28da:	00000013          	addi	zero,zero,0
    28de:	00000013          	addi	zero,zero,0
    28e2:	00000013          	addi	zero,zero,0
    28e6:	00000013          	addi	zero,zero,0
    28ea:	00000013          	addi	zero,zero,0
    28ee:	00000013          	addi	zero,zero,0
    28f2:	00000013          	addi	zero,zero,0
    28f6:	00000013          	addi	zero,zero,0
    28fa:	00000013          	addi	zero,zero,0
    28fe:	00000013          	addi	zero,zero,0
    2902:	00000013          	addi	zero,zero,0
    2906:	00000013          	addi	zero,zero,0
    290a:	00000013          	addi	zero,zero,0
    290e:	00000013          	addi	zero,zero,0
    2912:	00000013          	addi	zero,zero,0
    2916:	00000013          	addi	zero,zero,0
    291a:	00000013          	addi	zero,zero,0
    291e:	00000013          	addi	zero,zero,0
    2922:	00000013          	addi	zero,zero,0
    2926:	00000013          	addi	zero,zero,0
    292a:	00000013          	addi	zero,zero,0
    292e:	00000013          	addi	zero,zero,0
    2932:	00000013          	addi	zero,zero,0
    2936:	00000013          	addi	zero,zero,0
    293a:	00000013          	addi	zero,zero,0
    293e:	00000013          	addi	zero,zero,0
    2942:	00000013          	addi	zero,zero,0
    2946:	00000013          	addi	zero,zero,0
    294a:	00000013          	addi	zero,zero,0
    294e:	00000013          	addi	zero,zero,0
    2952:	00000013          	addi	zero,zero,0
    2956:	00000013          	addi	zero,zero,0
    295a:	00000013          	addi	zero,zero,0
    295e:	00000013          	addi	zero,zero,0
    2962:	00000013          	addi	zero,zero,0
    2966:	00000013          	addi	zero,zero,0
    296a:	00000013          	addi	zero,zero,0
    296e:	00000013          	addi	zero,zero,0
    2972:	00000013          	addi	zero,zero,0
    2976:	00000013          	addi	zero,zero,0
    297a:	00000013          	addi	zero,zero,0
    297e:	00000013          	addi	zero,zero,0
    2982:	00000013          	addi	zero,zero,0
    2986:	00000013          	addi	zero,zero,0
    298a:	00000013          	addi	zero,zero,0
    298e:	00000013          	addi	zero,zero,0
    2992:	00000013          	addi	zero,zero,0
    2996:	00000013          	addi	zero,zero,0
    299a:	00000013          	addi	zero,zero,0
    299e:	00000013          	addi	zero,zero,0
    29a2:	00000013          	addi	zero,zero,0
    29a6:	00000013          	addi	zero,zero,0
    29aa:	00000013          	addi	zero,zero,0
    29ae:	00000013          	addi	zero,zero,0
    29b2:	00000013          	addi	zero,zero,0
    29b6:	00000013          	addi	zero,zero,0
    29ba:	00000013          	addi	zero,zero,0
    29be:	00000013          	addi	zero,zero,0
    29c2:	00000013          	addi	zero,zero,0
    29c6:	00000013          	addi	zero,zero,0
    29ca:	00000013          	addi	zero,zero,0
    29ce:	00000013          	addi	zero,zero,0
    29d2:	00000013          	addi	zero,zero,0
    29d6:	00000013          	addi	zero,zero,0
    29da:	00000013          	addi	zero,zero,0
    29de:	00000013          	addi	zero,zero,0
    29e2:	00000013          	addi	zero,zero,0
    29e6:	00000013          	addi	zero,zero,0
    29ea:	00000013          	addi	zero,zero,0
    29ee:	00000013          	addi	zero,zero,0
    29f2:	00000013          	addi	zero,zero,0
    29f6:	00000013          	addi	zero,zero,0
    29fa:	00000013          	addi	zero,zero,0
    29fe:	00000013          	addi	zero,zero,0
    2a02:	00000013          	addi	zero,zero,0
    2a06:	00000013          	addi	zero,zero,0
    2a0a:	00000013          	addi	zero,zero,0
    2a0e:	00000013          	addi	zero,zero,0
    2a12:	00000013          	addi	zero,zero,0
    2a16:	00000013          	addi	zero,zero,0
    2a1a:	00000013          	addi	zero,zero,0
    2a1e:	00000013          	addi	zero,zero,0
    2a22:	00000013          	addi	zero,zero,0
    2a26:	00000013          	addi	zero,zero,0
    2a2a:	00000013          	addi	zero,zero,0
    2a2e:	00000013          	addi	zero,zero,0
    2a32:	00000013          	addi	zero,zero,0
    2a36:	00000013          	addi	zero,zero,0
    2a3a:	00000013          	addi	zero,zero,0
    2a3e:	00000013          	addi	zero,zero,0
    2a42:	00000013          	addi	zero,zero,0
    2a46:	00000013          	addi	zero,zero,0
    2a4a:	00000013          	addi	zero,zero,0
    2a4e:	00000013          	addi	zero,zero,0
    2a52:	00000013          	addi	zero,zero,0
    2a56:	00000013          	addi	zero,zero,0
    2a5a:	00000013          	addi	zero,zero,0
    2a5e:	00000013          	addi	zero,zero,0
    2a62:	00000013          	addi	zero,zero,0
    2a66:	00000013          	addi	zero,zero,0
    2a6a:	00000013          	addi	zero,zero,0
    2a6e:	00000013          	addi	zero,zero,0
    2a72:	00000013          	addi	zero,zero,0
    2a76:	00000013          	addi	zero,zero,0
    2a7a:	00000013          	addi	zero,zero,0
    2a7e:	00000013          	addi	zero,zero,0
    2a82:	00000013          	addi	zero,zero,0
    2a86:	00000013          	addi	zero,zero,0
    2a8a:	00000013          	addi	zero,zero,0
    2a8e:	00000013          	addi	zero,zero,0
    2a92:	00000013          	addi	zero,zero,0
    2a96:	00000013          	addi	zero,zero,0
    2a9a:	00000013          	addi	zero,zero,0
    2a9e:	00000013          	addi	zero,zero,0
    2aa2:	00000013          	addi	zero,zero,0
    2aa6:	00000013          	addi	zero,zero,0
    2aaa:	00000013          	addi	zero,zero,0
    2aae:	00000013          	addi	zero,zero,0
    2ab2:	00000013          	addi	zero,zero,0
    2ab6:	00000013          	addi	zero,zero,0
    2aba:	00000013          	addi	zero,zero,0
    2abe:	00000013          	addi	zero,zero,0
    2ac2:	00000013          	addi	zero,zero,0
    2ac6:	00000013          	addi	zero,zero,0
    2aca:	00000013          	addi	zero,zero,0
    2ace:	00000013          	addi	zero,zero,0
    2ad2:	00000013          	addi	zero,zero,0
    2ad6:	00000013          	addi	zero,zero,0
    2ada:	00000013          	addi	zero,zero,0
    2ade:	00000013          	addi	zero,zero,0
    2ae2:	00000013          	addi	zero,zero,0
    2ae6:	00000013          	addi	zero,zero,0
    2aea:	00000013          	addi	zero,zero,0
    2aee:	00000013          	addi	zero,zero,0
    2af2:	00000013          	addi	zero,zero,0
    2af6:	00000013          	addi	zero,zero,0
    2afa:	00000013          	addi	zero,zero,0
    2afe:	00000013          	addi	zero,zero,0
    2b02:	00000013          	addi	zero,zero,0
    2b06:	00000013          	addi	zero,zero,0
    2b0a:	00000013          	addi	zero,zero,0
    2b0e:	00000013          	addi	zero,zero,0
    2b12:	00000013          	addi	zero,zero,0
    2b16:	00000013          	addi	zero,zero,0
    2b1a:	00000013          	addi	zero,zero,0
    2b1e:	00000013          	addi	zero,zero,0
    2b22:	00000013          	addi	zero,zero,0
    2b26:	00000013          	addi	zero,zero,0
    2b2a:	00000013          	addi	zero,zero,0
    2b2e:	00000013          	addi	zero,zero,0
    2b32:	00000013          	addi	zero,zero,0
    2b36:	00000013          	addi	zero,zero,0
    2b3a:	00000013          	addi	zero,zero,0
    2b3e:	00000013          	addi	zero,zero,0
    2b42:	00000013          	addi	zero,zero,0
    2b46:	00000013          	addi	zero,zero,0
    2b4a:	00000013          	addi	zero,zero,0
    2b4e:	00000013          	addi	zero,zero,0
    2b52:	00000013          	addi	zero,zero,0
    2b56:	00000013          	addi	zero,zero,0
    2b5a:	00000013          	addi	zero,zero,0
    2b5e:	00000013          	addi	zero,zero,0
    2b62:	00000013          	addi	zero,zero,0
    2b66:	00000013          	addi	zero,zero,0
    2b6a:	00000013          	addi	zero,zero,0
    2b6e:	00000013          	addi	zero,zero,0
    2b72:	00000013          	addi	zero,zero,0
    2b76:	00000013          	addi	zero,zero,0
    2b7a:	00000013          	addi	zero,zero,0
    2b7e:	00000013          	addi	zero,zero,0
    2b82:	00000013          	addi	zero,zero,0
    2b86:	00000013          	addi	zero,zero,0
    2b8a:	00000013          	addi	zero,zero,0
    2b8e:	00000013          	addi	zero,zero,0
    2b92:	00000013          	addi	zero,zero,0
    2b96:	00000013          	addi	zero,zero,0
    2b9a:	00000013          	addi	zero,zero,0
    2b9e:	00000013          	addi	zero,zero,0
    2ba2:	00000013          	addi	zero,zero,0
    2ba6:	00000013          	addi	zero,zero,0
    2baa:	00000013          	addi	zero,zero,0
    2bae:	00000013          	addi	zero,zero,0
    2bb2:	00000013          	addi	zero,zero,0
    2bb6:	00000013          	addi	zero,zero,0
    2bba:	00000013          	addi	zero,zero,0
    2bbe:	00000013          	addi	zero,zero,0
    2bc2:	00000013          	addi	zero,zero,0
    2bc6:	00000013          	addi	zero,zero,0
    2bca:	00000013          	addi	zero,zero,0
    2bce:	00000013          	addi	zero,zero,0
    2bd2:	00000013          	addi	zero,zero,0
    2bd6:	00000013          	addi	zero,zero,0
    2bda:	00000013          	addi	zero,zero,0
    2bde:	00000013          	addi	zero,zero,0
    2be2:	00000013          	addi	zero,zero,0
    2be6:	00000013          	addi	zero,zero,0
    2bea:	00000013          	addi	zero,zero,0
    2bee:	00000013          	addi	zero,zero,0
    2bf2:	00000013          	addi	zero,zero,0
    2bf6:	00000013          	addi	zero,zero,0
    2bfa:	00000013          	addi	zero,zero,0
    2bfe:	00000013          	addi	zero,zero,0
    2c02:	00000013          	addi	zero,zero,0
    2c06:	00000013          	addi	zero,zero,0
    2c0a:	00000013          	addi	zero,zero,0
    2c0e:	00000013          	addi	zero,zero,0
    2c12:	00000013          	addi	zero,zero,0
    2c16:	00000013          	addi	zero,zero,0
    2c1a:	00000013          	addi	zero,zero,0
    2c1e:	00000013          	addi	zero,zero,0
    2c22:	00000013          	addi	zero,zero,0
    2c26:	00000013          	addi	zero,zero,0
    2c2a:	00000013          	addi	zero,zero,0
    2c2e:	00000013          	addi	zero,zero,0
    2c32:	00000013          	addi	zero,zero,0
    2c36:	00000013          	addi	zero,zero,0
    2c3a:	00000013          	addi	zero,zero,0
    2c3e:	00000013          	addi	zero,zero,0
    2c42:	00000013          	addi	zero,zero,0
    2c46:	00000013          	addi	zero,zero,0
    2c4a:	00000013          	addi	zero,zero,0
    2c4e:	00000013          	addi	zero,zero,0
    2c52:	00000013          	addi	zero,zero,0
    2c56:	00000013          	addi	zero,zero,0
    2c5a:	00000013          	addi	zero,zero,0
    2c5e:	00000013          	addi	zero,zero,0
    2c62:	00000013          	addi	zero,zero,0
    2c66:	00000013          	addi	zero,zero,0
    2c6a:	00000013          	addi	zero,zero,0
    2c6e:	00000013          	addi	zero,zero,0
    2c72:	00000013          	addi	zero,zero,0
    2c76:	00000013          	addi	zero,zero,0
    2c7a:	00000013          	addi	zero,zero,0
    2c7e:	00000013          	addi	zero,zero,0
    2c82:	00000013          	addi	zero,zero,0
    2c86:	00000013          	addi	zero,zero,0
    2c8a:	00000013          	addi	zero,zero,0
    2c8e:	00000013          	addi	zero,zero,0
    2c92:	00000013          	addi	zero,zero,0
    2c96:	00000013          	addi	zero,zero,0
    2c9a:	00000013          	addi	zero,zero,0
    2c9e:	00000013          	addi	zero,zero,0
    2ca2:	00000013          	addi	zero,zero,0
    2ca6:	00000013          	addi	zero,zero,0
    2caa:	00000013          	addi	zero,zero,0
    2cae:	00000013          	addi	zero,zero,0
    2cb2:	00000013          	addi	zero,zero,0
    2cb6:	00000013          	addi	zero,zero,0
    2cba:	00000013          	addi	zero,zero,0
    2cbe:	00000013          	addi	zero,zero,0
    2cc2:	00000013          	addi	zero,zero,0
    2cc6:	00000013          	addi	zero,zero,0
    2cca:	00000013          	addi	zero,zero,0
    2cce:	00000013          	addi	zero,zero,0
    2cd2:	00000013          	addi	zero,zero,0
    2cd6:	00000013          	addi	zero,zero,0
    2cda:	00000013          	addi	zero,zero,0
    2cde:	00000013          	addi	zero,zero,0
    2ce2:	00000013          	addi	zero,zero,0
    2ce6:	00000013          	addi	zero,zero,0
    2cea:	00000013          	addi	zero,zero,0
    2cee:	00000013          	addi	zero,zero,0
    2cf2:	00000013          	addi	zero,zero,0
    2cf6:	00000013          	addi	zero,zero,0
    2cfa:	00000013          	addi	zero,zero,0
    2cfe:	00000013          	addi	zero,zero,0
    2d02:	00000013          	addi	zero,zero,0
    2d06:	00000013          	addi	zero,zero,0
    2d0a:	00000013          	addi	zero,zero,0
    2d0e:	00000013          	addi	zero,zero,0
    2d12:	00000013          	addi	zero,zero,0
    2d16:	00000013          	addi	zero,zero,0
    2d1a:	00000013          	addi	zero,zero,0
    2d1e:	00000013          	addi	zero,zero,0
    2d22:	00000013          	addi	zero,zero,0
    2d26:	00000013          	addi	zero,zero,0
    2d2a:	00000013          	addi	zero,zero,0
    2d2e:	00000013          	addi	zero,zero,0
    2d32:	00000013          	addi	zero,zero,0
    2d36:	00000013          	addi	zero,zero,0
    2d3a:	00000013          	addi	zero,zero,0
    2d3e:	00000013          	addi	zero,zero,0
    2d42:	00000013          	addi	zero,zero,0
    2d46:	00000013          	addi	zero,zero,0
    2d4a:	00000013          	addi	zero,zero,0
    2d4e:	00000013          	addi	zero,zero,0
    2d52:	00000013          	addi	zero,zero,0
    2d56:	00000013          	addi	zero,zero,0
    2d5a:	00000013          	addi	zero,zero,0
    2d5e:	00000013          	addi	zero,zero,0
    2d62:	00000013          	addi	zero,zero,0
    2d66:	00000013          	addi	zero,zero,0
    2d6a:	00000013          	addi	zero,zero,0
    2d6e:	00000013          	addi	zero,zero,0
    2d72:	00000013          	addi	zero,zero,0
    2d76:	00000013          	addi	zero,zero,0
    2d7a:	00000013          	addi	zero,zero,0
    2d7e:	00000013          	addi	zero,zero,0
    2d82:	00000013          	addi	zero,zero,0
    2d86:	00000013          	addi	zero,zero,0
    2d8a:	00000013          	addi	zero,zero,0
    2d8e:	00000013          	addi	zero,zero,0
    2d92:	00000013          	addi	zero,zero,0
    2d96:	00000013          	addi	zero,zero,0
    2d9a:	00000013          	addi	zero,zero,0
    2d9e:	00000013          	addi	zero,zero,0
    2da2:	00000013          	addi	zero,zero,0
    2da6:	00000013          	addi	zero,zero,0
    2daa:	00000013          	addi	zero,zero,0
    2dae:	00000013          	addi	zero,zero,0
    2db2:	00000013          	addi	zero,zero,0
    2db6:	00000013          	addi	zero,zero,0
    2dba:	00000013          	addi	zero,zero,0
    2dbe:	00000013          	addi	zero,zero,0
    2dc2:	00000013          	addi	zero,zero,0
    2dc6:	00000013          	addi	zero,zero,0
    2dca:	00000013          	addi	zero,zero,0
    2dce:	00000013          	addi	zero,zero,0
    2dd2:	00000013          	addi	zero,zero,0
    2dd6:	00000013          	addi	zero,zero,0
    2dda:	00000013          	addi	zero,zero,0
    2dde:	00000013          	addi	zero,zero,0
    2de2:	00000013          	addi	zero,zero,0
    2de6:	00000013          	addi	zero,zero,0
    2dea:	00000013          	addi	zero,zero,0
    2dee:	00000013          	addi	zero,zero,0
    2df2:	00000013          	addi	zero,zero,0
    2df6:	00000013          	addi	zero,zero,0
    2dfa:	00000013          	addi	zero,zero,0
    2dfe:	00000013          	addi	zero,zero,0
    2e02:	00000013          	addi	zero,zero,0
    2e06:	00000013          	addi	zero,zero,0
    2e0a:	00000013          	addi	zero,zero,0
    2e0e:	00000013          	addi	zero,zero,0
    2e12:	00000013          	addi	zero,zero,0
    2e16:	00000013          	addi	zero,zero,0
    2e1a:	00000013          	addi	zero,zero,0
    2e1e:	00000013          	addi	zero,zero,0
    2e22:	00000013          	addi	zero,zero,0
    2e26:	00000013          	addi	zero,zero,0
    2e2a:	00000013          	addi	zero,zero,0
    2e2e:	00000013          	addi	zero,zero,0
    2e32:	00000013          	addi	zero,zero,0
	...

00002e38 <__platform_init>:
    2e38:	f14022f3          	csrrs	t0,mhartid,zero
    2e3c:	00028c63          	beq	t0,zero,2e54 <ilm_check>
    2e40:	e00802b7          	lui	t0,0xe0080
    2e44:	01234337          	lui	t1,0x1234
    2e48:	56830313          	addi	t1,t1,1384 # 1234568 <VPE_PASS>
    2e4c:	0062a023          	sw	t1,0(t0) # e0080000 <__start_addr+0x6007fff0>
    2e50:	10500073          	wfi

00002e54 <ilm_check>:
    2e54:	fc0022f3          	csrrs	t0,micm_cfg,zero
    2e58:	00f2d293          	srli	t0,t0,0xf
    2e5c:	03f2f293          	andi	t0,t0,63
    2e60:	00028463          	beq	t0,zero,2e68 <dlm_check>

00002e64 <ilm_tunon>:
    2e64:	7c00e073          	csrrsi	zero,milmb,1

00002e68 <dlm_check>:
    2e68:	fc1022f3          	csrrs	t0,mdcm_cfg,zero
    2e6c:	00f2d293          	srli	t0,t0,0xf
    2e70:	03f2f293          	andi	t0,t0,63
    2e74:	00028463          	beq	t0,zero,2e7c <init_rodata>

00002e78 <dlm_tunon>:
    2e78:	7c10e073          	csrrsi	zero,mdlmb,1

00002e7c <init_rodata>:
    2e7c:	b29b928b          	addigp	t0,-9432 # 200000 <__DATA_BASE>
    2e80:	00006317          	auipc	t1,0x6
    2e84:	76830313          	addi	t1,t1,1896 # 95e8 <rodata_lma>
    2e88:	c88d950b          	addigp	a0,-7032 # 200960 <rodata_end>
    2e8c:	00032403          	lw	s0,0(t1)
    2e90:	0082a023          	sw	s0,0(t0)
    2e94:	0311                	c.addi	t1,4
    2e96:	0291                	c.addi	t0,4
    2e98:	fea2cae3          	blt	t0,a0,2e8c <init_rodata+0x10>

00002e9c <ic_check>:
    2e9c:	fc0022f3          	csrrs	t0,micm_cfg,zero
    2ea0:	0062d293          	srli	t0,t0,0x6
    2ea4:	0072f293          	andi	t0,t0,7
    2ea8:	00028863          	beq	t0,zero,2eb8 <dc_check>

00002eac <ic_turnon>:
    2eac:	7ca022f3          	csrrs	t0,mcache_ctl,zero
    2eb0:	0012e293          	ori	t0,t0,1
    2eb4:	7ca29073          	csrrw	zero,mcache_ctl,t0

00002eb8 <dc_check>:
    2eb8:	fc1022f3          	csrrs	t0,mdcm_cfg,zero
    2ebc:	0062d293          	srli	t0,t0,0x6
    2ec0:	0072f293          	andi	t0,t0,7
    2ec4:	00028863          	beq	t0,zero,2ed4 <end_of_cacheset>

00002ec8 <dc_turnon>:
    2ec8:	7ca022f3          	csrrs	t0,mcache_ctl,zero
    2ecc:	0022e293          	ori	t0,t0,2
    2ed0:	7ca29073          	csrrw	zero,mcache_ctl,t0

00002ed4 <end_of_cacheset>:
    2ed4:	8082                	c.jr	ra

00002ed6 <trap_handler>:
    2ed6:	e00802b7          	lui	t0,0xe0080
    2eda:	01234337          	lui	t1,0x1234
    2ede:	56930313          	addi	t1,t1,1385 # 1234569 <VPE_FAIL>
    2ee2:	0062a023          	sw	t1,0(t0) # e0080000 <__start_addr+0x6007fff0>
    2ee6:	a001                	c.j	2ee6 <trap_handler+0x10>

00002ee8 <printf>:
    2ee8:	00008067          	jalr	zero,0(ra)

00002eec <iprintf>:
    2eec:	00008067          	jalr	zero,0(ra)

00002ef0 <puts>:
    2ef0:	00008067          	jalr	zero,0(ra)

00002ef4 <putchar>:
    2ef4:	00008067          	jalr	zero,0(ra)

00002ef8 <scanf>:
    2ef8:	06400513          	addi	a0,zero,100
    2efc:	c188                	c.sw	a0,0(a1)
    2efe:	8082                	c.jr	ra

00002f00 <time>:
    2f00:	00008067          	jalr	zero,0(ra)

00002f04 <reset_handler>:
    2f04:	f28f950b          	addigp	a0,-2264 # 201c00 <cst_libm_sincosf>
    2f08:	812a                	c.mv	sp,a0
    2f0a:	301022f3          	csrrs	t0,misa,zero
    2f0e:	0282f293          	andi	t0,t0,40
    2f12:	0a028963          	beq	t0,zero,2fc4 <program_skip>
    2f16:	300022f3          	csrrs	t0,mstatus,zero
    2f1a:	6319                	c.lui	t1,0x6
    2f1c:	fff34313          	xori	t1,t1,-1
    2f20:	0062f2b3          	and	t0,t0,t1
    2f24:	6309                	c.lui	t1,0x2
    2f26:	0062c2b3          	xor	t0,t0,t1
    2f2a:	30029073          	csrrw	zero,mstatus,t0

00002f2e <init_extension_end>:
    2f2e:	f0000053          	fmv.w.x	ft0,zero
    2f32:	f00000d3          	fmv.w.x	ft1,zero
    2f36:	f0000153          	fmv.w.x	ft2,zero
    2f3a:	f00001d3          	fmv.w.x	ft3,zero
    2f3e:	f0000253          	fmv.w.x	ft4,zero
    2f42:	f00002d3          	fmv.w.x	ft5,zero
    2f46:	f0000353          	fmv.w.x	ft6,zero
    2f4a:	f00003d3          	fmv.w.x	ft7,zero
    2f4e:	f0000453          	fmv.w.x	fs0,zero
    2f52:	f00004d3          	fmv.w.x	fs1,zero
    2f56:	f0000553          	fmv.w.x	fa0,zero
    2f5a:	f00005d3          	fmv.w.x	fa1,zero
    2f5e:	f0000653          	fmv.w.x	fa2,zero
    2f62:	f00006d3          	fmv.w.x	fa3,zero
    2f66:	f0000753          	fmv.w.x	fa4,zero
    2f6a:	f00007d3          	fmv.w.x	fa5,zero
    2f6e:	f0000853          	fmv.w.x	fa6,zero
    2f72:	f00008d3          	fmv.w.x	fa7,zero
    2f76:	f0000953          	fmv.w.x	fs2,zero
    2f7a:	f00009d3          	fmv.w.x	fs3,zero
    2f7e:	f0000a53          	fmv.w.x	fs4,zero
    2f82:	f0000ad3          	fmv.w.x	fs5,zero
    2f86:	f0000b53          	fmv.w.x	fs6,zero
    2f8a:	f0000bd3          	fmv.w.x	fs7,zero
    2f8e:	f0000c53          	fmv.w.x	fs8,zero
    2f92:	f0000cd3          	fmv.w.x	fs9,zero
    2f96:	f0000d53          	fmv.w.x	fs10,zero
    2f9a:	f0000dd3          	fmv.w.x	fs11,zero
    2f9e:	f0000e53          	fmv.w.x	ft8,zero
    2fa2:	f0000ed3          	fmv.w.x	ft9,zero
    2fa6:	f0000f53          	fmv.w.x	ft10,zero
    2faa:	f0000fd3          	fmv.w.x	ft11,zero
    2fae:	337010ef          	jal	ra,4ae4 <main>

00002fb2 <program_end>:
    2fb2:	e00802b7          	lui	t0,0xe0080
    2fb6:	01234337          	lui	t1,0x1234
    2fba:	56830313          	addi	t1,t1,1384 # 1234568 <VPE_PASS>
    2fbe:	0062a023          	sw	t1,0(t0) # e0080000 <__start_addr+0x6007fff0>
    2fc2:	a001                	c.j	2fc2 <program_end+0x10>

00002fc4 <program_skip>:
    2fc4:	7bd010ef          	jal	ra,4f80 <ProgramSkipUser>

00002fc8 <pout.constprop.0>:
    2fc8:	00202737          	lui	a4,0x202
    2fcc:	d1472787          	flw	fa5,-748(a4) # 201d14 <Check>
    2fd0:	1101                	c.addi	sp,-32
    2fd2:	47c9                	c.li	a5,18
    2fd4:	00b7f053          	fadd.s	ft0,fa5,fa1
    2fd8:	ce06                	c.swsp	ra,28(sp)
    2fda:	02f600b3          	mul	ra,a2,a5
    2fde:	85aa                	c.mv	a1,a0
    2fe0:	899f928b          	addigp	t0,-1896 # 201d70 <headings>
    2fe4:	00128533          	add	a0,t0,ra
    2fe8:	cc22                	c.swsp	s0,24(sp)
    2fea:	ca26                	c.swsp	s1,20(sp)
    2fec:	e0058453          	fmv.x.w	s0,fa1
    2ff0:	84b2                	c.mv	s1,a2
    2ff2:	a422                	c.fsdsp	fs0,8(sp)
    2ff4:	d0072a27          	fsw	ft0,-748(a4)
    2ff8:	20c60453          	fsgnj.s	fs0,fa2,fa2
    2ffc:	599020ef          	jal	ra,5d94 <strcpy>
    3000:	002026b7          	lui	a3,0x202
    3004:	d1c6a087          	flw	ft1,-740(a3) # 201d1c <TimeUsed>
    3008:	b85b938b          	addigp	t2,-9340 # 20005c <refarr>
    300c:	0080f153          	fadd.s	ft2,ft1,fs0
    3010:	0c9385db          	lea.w	a1,t2,s1
    3014:	0005a803          	lw	a6,0(a1)
    3018:	410408b3          	sub	a7,s0,a6
    301c:	00188e13          	addi	t3,a7,1
    3020:	00200613          	addi	a2,zero,2
    3024:	d026ae27          	fsw	ft2,-740(a3)
    3028:	828fcbab          	swgp	s0,-1996 # 201d0c <unit_result>
    302c:	830fc9ab          	swgp	a6,-2000 # 201d08 <unit_ref>
    3030:	831fcdab          	swgp	a7,-1992 # 201d10 <unit_diff>
    3034:	01c66863          	bltu	a2,t3,3044 <pout.constprop.0+0x7c>
    3038:	00088863          	beq	a7,zero,3048 <pout.constprop.0+0x80>
    303c:	0084d65b          	beqc	s1,8,3048 <pout.constprop.0+0x80>
    3040:	0054d45b          	beqc	s1,5,3048 <pout.constprop.0+0x80>
    3044:	e93ff06f          	jal	zero,2ed6 <trap_handler>
    3048:	40f2                	c.lwsp	ra,28(sp)
    304a:	4462                	c.lwsp	s0,24(sp)
    304c:	2422                	c.fldsp	fs0,8(sp)
    304e:	44d2                	c.lwsp	s1,20(sp)
    3050:	6105                	c.addi16sp	sp,32
    3052:	8082                	c.jr	ra

00003054 <what_date>:
    3054:	1101                	c.addi	sp,-32
    3056:	4501                	c.li	a0,0
    3058:	ce06                	c.swsp	ra,28(sp)
    305a:	355d                	c.jal	2f00 <time>
    305c:	87aa                	c.mv	a5,a0
    305e:	0068                	c.addi4spn	a0,sp,12
    3060:	00f12623          	sw	a5,12(sp)
    3064:	2a3020ef          	jal	ra,5b06 <localtime>
    3068:	40f2                	c.lwsp	ra,28(sp)
    306a:	6105                	c.addi16sp	sp,32
    306c:	00008067          	jalr	zero,0(ra)

00003070 <pa>:
    3070:	615c                	c.flw	fa5,4(a0)
    3072:	6118                	c.flw	fa4,0(a0)
    3074:	6510                	c.flw	fa2,8(a0)
    3076:	6554                	c.flw	fa3,12(a0)
    3078:	00e7f053          	fadd.s	ft0,fa5,fa4
    307c:	00c070d3          	fadd.s	ft1,ft0,fa2
    3080:	08d0f153          	fsub.s	ft2,ft1,fa3
    3084:	782571c3          	fmadd.s	ft3,fa0,ft2,fa5
    3088:	08c1f253          	fsub.s	ft4,ft3,fa2
    308c:	00d272d3          	fadd.s	ft5,ft4,fa3
    3090:	10a2f353          	fmul.s	ft6,ft5,fa0
    3094:	302573c7          	fmsub.s	ft7,fa0,ft2,ft6
    3098:	3025784b          	fnmsub.s	fa6,fa0,ft2,ft6
    309c:	302578c3          	fmadd.s	fa7,fa0,ft2,ft6
    30a0:	00767e53          	fadd.s	ft8,fa2,ft7
    30a4:	00de7ed3          	fadd.s	ft9,ft8,fa3
    30a8:	81d57f43          	fmadd.s	ft10,fa0,ft9,fa6
    30ac:	89d57fc3          	fmadd.s	ft11,fa0,ft9,fa7
    30b0:	01e6f7d3          	fadd.s	fa5,fa3,ft10
    30b4:	18b7f6d3          	fdiv.s	fa3,fa5,fa1
    30b8:	08dff753          	fsub.s	fa4,ft11,fa3
    30bc:	30e57643          	fmadd.s	fa2,fa0,fa4,ft6
    30c0:	61d5704b          	fnmsub.s	ft0,fa0,ft9,fa2
    30c4:	00d070d3          	fadd.s	ft1,ft0,fa3
    30c8:	10a0f153          	fmul.s	ft2,ft1,fa0
    30cc:	10e571c7          	fmsub.s	ft3,fa0,fa4,ft2
    30d0:	10e5724b          	fnmsub.s	ft4,fa0,fa4,ft2
    30d4:	10e572c3          	fmadd.s	ft5,fa0,fa4,ft2
    30d8:	19d57343          	fmadd.s	ft6,fa0,ft9,ft3
    30dc:	00d373d3          	fadd.s	ft7,ft6,fa3
    30e0:	20757843          	fmadd.s	fa6,fa0,ft7,ft4
    30e4:	287578c3          	fmadd.s	fa7,fa0,ft7,ft5
    30e8:	0106fe53          	fadd.s	ft8,fa3,fa6
    30ec:	18be7ed3          	fdiv.s	ft9,ft8,fa1
    30f0:	09d8ff53          	fsub.s	ft10,fa7,ft9
    30f4:	11e57fc3          	fmadd.s	ft11,fa0,ft10,ft2
    30f8:	f87577cb          	fnmsub.s	fa5,fa0,ft7,ft11
    30fc:	00fef6d3          	fadd.s	fa3,ft9,fa5
    3100:	10a6f153          	fmul.s	ft2,fa3,fa0
    3104:	11e57647          	fmsub.s	fa2,fa0,ft10,ft2
    3108:	11e5704b          	fnmsub.s	ft0,fa0,ft10,ft2
    310c:	11e57743          	fmadd.s	fa4,fa0,ft10,ft2
    3110:	607570c3          	fmadd.s	ft1,fa0,ft7,fa2
    3114:	001ef1d3          	fadd.s	ft3,ft9,ft1
    3118:	00357243          	fmadd.s	ft4,fa0,ft3,ft0
    311c:	703572c3          	fmadd.s	ft5,fa0,ft3,fa4
    3120:	004ef353          	fadd.s	ft6,ft9,ft4
    3124:	18b373d3          	fdiv.s	ft7,ft6,fa1
    3128:	0872f853          	fsub.s	fa6,ft5,ft7
    312c:	110578c3          	fmadd.s	fa7,fa0,fa6,ft2
    3130:	88357e4b          	fnmsub.s	ft8,fa0,ft3,fa7
    3134:	01c3fed3          	fadd.s	ft9,ft7,ft8
    3138:	10aeff53          	fmul.s	ft10,ft9,fa0
    313c:	f1057fc7          	fmsub.s	ft11,fa0,fa6,ft10
    3140:	f10577cb          	fnmsub.s	fa5,fa0,fa6,ft10
    3144:	f1057143          	fmadd.s	ft2,fa0,fa6,ft10
    3148:	f83576c3          	fmadd.s	fa3,fa0,ft3,ft11
    314c:	00d3f653          	fadd.s	fa2,ft7,fa3
    3150:	78c57043          	fmadd.s	ft0,fa0,fa2,fa5
    3154:	10c57743          	fmadd.s	fa4,fa0,fa2,ft2
    3158:	0003f0d3          	fadd.s	ft1,ft7,ft0
    315c:	18b0f1d3          	fdiv.s	ft3,ft1,fa1
    3160:	08377253          	fsub.s	ft4,fa4,ft3
    3164:	f04572c3          	fmadd.s	ft5,fa0,ft4,ft10
    3168:	28c5734b          	fnmsub.s	ft6,fa0,fa2,ft5
    316c:	0061f3d3          	fadd.s	ft7,ft3,ft6
    3170:	10a3f853          	fmul.s	fa6,ft7,fa0
    3174:	804578c7          	fmsub.s	fa7,fa0,ft4,fa6
    3178:	80457e4b          	fnmsub.s	ft8,fa0,ft4,fa6
    317c:	80457ec3          	fmadd.s	ft9,fa0,ft4,fa6
    3180:	88c57f43          	fmadd.s	ft10,fa0,fa2,fa7
    3184:	01e1ffd3          	fadd.s	ft11,ft3,ft10
    3188:	e1f577c3          	fmadd.s	fa5,fa0,ft11,ft8
    318c:	e9f57143          	fmadd.s	ft2,fa0,ft11,ft9
    3190:	00f1f6d3          	fadd.s	fa3,ft3,fa5
    3194:	18b6f053          	fdiv.s	ft0,fa3,fa1
    3198:	08017653          	fsub.s	fa2,ft2,ft0
    319c:	10a670d3          	fmul.s	ft1,fa2,fa0
    31a0:	0100f753          	fadd.s	fa4,ft1,fa6
    31a4:	00152027          	fsw	ft1,0(a0)
    31a8:	71f571cb          	fnmsub.s	ft3,fa0,ft11,fa4
    31ac:	0001f253          	fadd.s	ft4,ft3,ft0
    31b0:	10a272d3          	fmul.s	ft5,ft4,fa0
    31b4:	0850f353          	fsub.s	ft6,ft1,ft5
    31b8:	00552227          	fsw	ft5,4(a0)
    31bc:	0812f3d3          	fsub.s	ft7,ft5,ft1
    31c0:	31f57843          	fmadd.s	fa6,fa0,ft11,ft6
    31c4:	000878d3          	fadd.s	fa7,fa6,ft0
    31c8:	10a8f553          	fmul.s	fa0,fa7,fa0
    31cc:	00a3fe53          	fadd.s	ft8,ft7,fa0
    31d0:	e508                	c.fsw	fa0,8(a0)
    31d2:	000e7ed3          	fadd.s	ft9,ft8,ft0
    31d6:	18bef5d3          	fdiv.s	fa1,ft9,fa1
    31da:	e54c                	c.fsw	fa1,12(a0)
    31dc:	00008067          	jalr	zero,0(ra)

000031e0 <po>:
    31e0:	0cc5065b          	lea.w	a2,a0,a2
    31e4:	0cb505db          	lea.w	a1,a0,a1
    31e8:	421c                	c.lw	a5,0(a2)
    31ea:	0cd5055b          	lea.w	a0,a0,a3
    31ee:	c19c                	c.sw	a5,0(a1)
    31f0:	00052283          	lw	t0,0(a0)
    31f4:	00562023          	sw	t0,0(a2)
    31f8:	0005a303          	lw	t1,0(a1)
    31fc:	00652023          	sw	t1,0(a0)
    3200:	00008067          	jalr	zero,0(ra)

00003204 <p3>:
    3204:	419c                	c.lw	a5,0(a1)
    3206:	c11c                	c.sw	a5,0(a0)
    3208:	621c                	c.flw	fa5,0(a2)
    320a:	e19c                	c.fsw	fa5,0(a1)
    320c:	6118                	c.flw	fa4,0(a0)
    320e:	00e7f053          	fadd.s	ft0,fa5,fa4
    3212:	10a07553          	fmul.s	fa0,ft0,fa0
    3216:	e108                	c.fsw	fa0,0(a0)
    3218:	0005a087          	flw	ft1,0(a1)
    321c:	00157153          	fadd.s	ft2,fa0,ft1
    3220:	10b175d3          	fmul.s	fa1,ft2,fa1
    3224:	e18c                	c.fsw	fa1,0(a1)
    3226:	00052187          	flw	ft3,0(a0)
    322a:	0035f253          	fadd.s	ft4,fa1,ft3
    322e:	18c272d3          	fdiv.s	ft5,ft4,fa2
    3232:	00562027          	fsw	ft5,0(a2)
    3236:	8082                	c.jr	ra

00003238 <pout>:
    3238:	00202737          	lui	a4,0x202
    323c:	d1472787          	flw	fa5,-748(a4) # 201d14 <Check>
    3240:	1101                	c.addi	sp,-32
    3242:	47c9                	c.li	a5,18
    3244:	00b7f053          	fadd.s	ft0,fa5,fa1
    3248:	ce06                	c.swsp	ra,28(sp)
    324a:	02f680b3          	mul	ra,a3,a5
    324e:	85aa                	c.mv	a1,a0
    3250:	899f928b          	addigp	t0,-1896 # 201d70 <headings>
    3254:	00128533          	add	a0,t0,ra
    3258:	cc22                	c.swsp	s0,24(sp)
    325a:	ca26                	c.swsp	s1,20(sp)
    325c:	c84a                	c.swsp	s2,16(sp)
    325e:	a422                	c.fsdsp	fs0,8(sp)
    3260:	e0058453          	fmv.x.w	s0,fa1
    3264:	20c60453          	fsgnj.s	fs0,fa2,fa2
    3268:	84b6                	c.mv	s1,a3
    326a:	8932                	c.mv	s2,a2
    326c:	d0072a27          	fsw	ft0,-748(a4)
    3270:	325020ef          	jal	ra,5d94 <strcpy>
    3274:	00202337          	lui	t1,0x202
    3278:	d1c32087          	flw	ft1,-740(t1) # 201d1c <TimeUsed>
    327c:	0080f153          	fadd.s	ft2,ft1,fs0
    3280:	d0232e27          	fsw	ft2,-740(t1)
    3284:	02091863          	bne	s2,zero,32b4 <pout+0x7c>
    3288:	b85b958b          	addigp	a1,-9340 # 20005c <refarr>
    328c:	0c95865b          	lea.w	a2,a1,s1
    3290:	00062803          	lw	a6,0(a2)
    3294:	410408b3          	sub	a7,s0,a6
    3298:	00188e13          	addi	t3,a7,1
    329c:	00200693          	addi	a3,zero,2
    32a0:	828fcbab          	swgp	s0,-1996 # 201d0c <unit_result>
    32a4:	830fc9ab          	swgp	a6,-2000 # 201d08 <unit_ref>
    32a8:	831fcdab          	swgp	a7,-1992 # 201d10 <unit_diff>
    32ac:	01c6fc63          	bgeu	a3,t3,32c4 <pout+0x8c>
    32b0:	c27ff06f          	jal	zero,2ed6 <trap_handler>
    32b4:	40f2                	c.lwsp	ra,28(sp)
    32b6:	4462                	c.lwsp	s0,24(sp)
    32b8:	2422                	c.fldsp	fs0,8(sp)
    32ba:	44d2                	c.lwsp	s1,20(sp)
    32bc:	4942                	c.lwsp	s2,16(sp)
    32be:	6105                	c.addi16sp	sp,32
    32c0:	00008067          	jalr	zero,0(ra)
    32c4:	fe0888e3          	beq	a7,zero,32b4 <pout+0x7c>
    32c8:	be84d65b          	beqc	s1,8,32b4 <pout+0x7c>
    32cc:	be54d45b          	beqc	s1,5,32b4 <pout+0x7c>
    32d0:	c07ff06f          	jal	zero,2ed6 <trap_handler>
    32d4:	fe1ff06f          	jal	zero,32b4 <pout+0x7c>

000032d8 <dtime>:
    32d8:	0001                	c.addi	zero,0
    32da:	f0000553          	fmv.w.x	fa0,zero
    32de:	8082                	c.jr	ra

000032e0 <whetstones>:
    32e0:	7131                	c.addi16sp	sp,-192
    32e2:	47b9                	c.li	a5,14
    32e4:	15900813          	addi	a6,zero,345
    32e8:	0d200713          	addi	a4,zero,210
    32ec:	002026b7          	lui	a3,0x202
    32f0:	d94a                	c.swsp	s2,176(sp)
    32f2:	d74e                	c.swsp	s3,172(sp)
    32f4:	d552                	c.swsp	s4,168(sp)
    32f6:	38300993          	addi	s3,zero,899
    32fa:	26800a13          	addi	s4,zero,616
    32fe:	05d00913          	addi	s2,zero,93
    3302:	033589b3          	mul	s3,a1,s3
    3306:	03458a33          	mul	s4,a1,s4
    330a:	03258933          	mul	s2,a1,s2
    330e:	dd22                	c.swsp	s0,184(sp)
    3310:	db26                	c.swsp	s1,180(sp)
    3312:	d356                	c.swsp	s5,164(sp)
    3314:	d15a                	c.swsp	s6,160(sp)
    3316:	8aae                	c.mv	s5,a1
    3318:	8b2a                	c.mv	s6,a0
    331a:	cf5e                	c.swsp	s7,156(sp)
    331c:	cd62                	c.swsp	s8,152(sp)
    331e:	8bb2                	c.mv	s7,a2
    3320:	02e58c33          	mul	s8,a1,a4
    3324:	cb66                	c.swsp	s9,148(sp)
    3326:	c96a                	c.swsp	s10,144(sp)
    3328:	c76e                	c.swsp	s11,140(sp)
    332a:	02f58d33          	mul	s10,a1,a5
    332e:	03058db3          	mul	s11,a1,a6
    3332:	b8a6                	c.fsdsp	fs1,112(sp)
    3334:	df06                	c.swsp	ra,188(sp)
    3336:	bca2                	c.fsdsp	fs0,120(sp)
    3338:	b4ca                	c.fsdsp	fs2,104(sp)
    333a:	b0ce                	c.fsdsp	fs3,96(sp)
    333c:	acd2                	c.fsdsp	fs4,88(sp)
    333e:	a8d6                	c.fsdsp	fs5,80(sp)
    3340:	a4da                	c.fsdsp	fs6,72(sp)
    3342:	a0de                	c.fsdsp	fs7,64(sp)
    3344:	bc62                	c.fsdsp	fs8,56(sp)
    3346:	820fcfab          	swgp	zero,-1988 # 201d14 <Check>
    334a:	3779                	c.jal	32d8 <dtime>
    334c:	6285                	c.lui	t0,0x1
    334e:	40b00c93          	addi	s9,zero,1035
    3352:	51228613          	addi	a2,t0,1298 # 1512 <_EI_10_HANDLER_WRAPPER+0x41a>
    3356:	c4e28313          	addi	t1,t0,-946
    335a:	73800593          	addi	a1,zero,1848
    335e:	34000413          	addi	s0,zero,832
    3362:	026a88b3          	mul	a7,s5,t1
    3366:	039a8e33          	mul	t3,s5,s9
    336a:	02ba84b3          	mul	s1,s5,a1
    336e:	02ca83b3          	mul	t2,s5,a2
    3372:	028a8533          	mul	a0,s5,s0
    3376:	54000e93          	addi	t4,zero,1344
    337a:	0c000f13          	addi	t5,zero,192
    337e:	cc46                	c.swsp	a7,24(sp)
    3380:	c626                	c.swsp	s1,12(sp)
    3382:	c81e                	c.swsp	t2,16(sp)
    3384:	ca2a                	c.swsp	a0,20(sp)
    3386:	ce72                	c.swsp	t3,28(sp)
    3388:	20a504d3          	fsgnj.s	fs1,fa0,fa0
    338c:	03da8cb3          	mul	s9,s5,t4
    3390:	03ea88b3          	mul	a7,s5,t5
    3394:	2f6050e3          	bge	zero,s6,3e74 <whetstones+0xb94>
    3398:	002000b7          	lui	ra,0x200
    339c:	002005b7          	lui	a1,0x200
    33a0:	0000aa07          	flw	fs4,0(ra) # 200000 <__DATA_BASE>
    33a4:	0045ab87          	flw	fs7,4(a1) # 200004 <__DATA_BASE+0x4>
    33a8:	002003b7          	lui	t2,0x200
    33ac:	214a09d3          	fsgnj.s	fs3,fs4,fs4
    33b0:	214a0453          	fsgnj.s	fs0,fs4,fs4
    33b4:	0083a687          	flw	fa3,8(t2) # 200008 <__DATA_BASE+0x8>
    33b8:	217b83d3          	fsgnj.s	ft7,fs7,fs7
    33bc:	07800493          	addi	s1,zero,120
    33c0:	029a8e33          	mul	t3,s5,s1
    33c4:	005a9413          	slli	s0,s5,0x5
    33c8:	00000493          	addi	s1,zero,0
    33cc:	00000513          	addi	a0,zero,0
    33d0:	11c05663          	bge	zero,t3,34dc <whetstones+0x1fc>
    33d4:	01747853          	fadd.s	fa6,fs0,fs7
    33d8:	00450513          	addi	a0,a0,4
    33dc:	013878d3          	fadd.s	fa7,fa6,fs3
    33e0:	0948fc53          	fsub.s	fs8,fa7,fs4
    33e4:	10dc7e53          	fmul.s	ft8,fs8,fa3
    33e8:	008e7ed3          	fadd.s	ft9,ft8,fs0
    33ec:	093eff53          	fsub.s	ft10,ft9,fs3
    33f0:	014f7fd3          	fadd.s	ft11,ft10,fs4
    33f4:	10dff553          	fmul.s	fa0,ft11,fa3
    33f8:	08ae7053          	fsub.s	ft0,ft8,fa0
    33fc:	09c57653          	fsub.s	fa2,fa0,ft8
    3400:	01c57453          	fadd.s	fs0,fa0,ft8
    3404:	013077d3          	fadd.s	fa5,ft0,fs3
    3408:	0147f953          	fadd.s	fs2,fa5,fs4
    340c:	10d970d3          	fmul.s	ft1,fs2,fa3
    3410:	001679d3          	fadd.s	fs3,fa2,ft1
    3414:	00147753          	fadd.s	fa4,fs0,ft1
    3418:	0149f153          	fadd.s	ft2,fs3,fs4
    341c:	10d171d3          	fmul.s	ft3,ft2,fa3
    3420:	083775d3          	fsub.s	fa1,fa4,ft3
    3424:	10d5fa53          	fmul.s	fs4,fa1,fa3
    3428:	00aa7253          	fadd.s	ft4,fs4,fa0
    342c:	08127ad3          	fsub.s	fs5,ft4,ft1
    3430:	003af2d3          	fadd.s	ft5,fs5,ft3
    3434:	10d2fb53          	fmul.s	fs6,ft5,fa3
    3438:	096a7353          	fsub.s	ft6,fs4,fs6
    343c:	094b7bd3          	fsub.s	fs7,fs6,fs4
    3440:	014b7853          	fadd.s	fa6,fs6,fs4
    3444:	001378d3          	fadd.s	fa7,ft6,ft1
    3448:	0038fc53          	fadd.s	fs8,fa7,ft3
    344c:	10dc7e53          	fmul.s	ft8,fs8,fa3
    3450:	01cbfed3          	fadd.s	ft9,fs7,ft8
    3454:	01c87f53          	fadd.s	ft10,fa6,ft8
    3458:	003effd3          	fadd.s	ft11,ft9,ft3
    345c:	10dff553          	fmul.s	fa0,ft11,fa3
    3460:	08af7053          	fsub.s	ft0,ft10,fa0
    3464:	10d07453          	fmul.s	fs0,ft0,fa3
    3468:	01647653          	fadd.s	fa2,fs0,fs6
    346c:	09c677d3          	fsub.s	fa5,fa2,ft8
    3470:	00a7f953          	fadd.s	fs2,fa5,fa0
    3474:	10d970d3          	fmul.s	ft1,fs2,fa3
    3478:	081479d3          	fsub.s	fs3,fs0,ft1
    347c:	0880f153          	fsub.s	ft2,ft1,fs0
    3480:	0080f753          	fadd.s	fa4,ft1,fs0
    3484:	01c9f1d3          	fadd.s	ft3,fs3,ft8
    3488:	00a1f5d3          	fadd.s	fa1,ft3,fa0
    348c:	10d5fa53          	fmul.s	fs4,fa1,fa3
    3490:	01417253          	fadd.s	ft4,ft2,fs4
    3494:	01477ad3          	fadd.s	fs5,fa4,fs4
    3498:	00a272d3          	fadd.s	ft5,ft4,fa0
    349c:	10d2fb53          	fmul.s	fs6,ft5,fa3
    34a0:	096af353          	fsub.s	ft6,fs5,fs6
    34a4:	10d37bd3          	fmul.s	fs7,ft6,fa3
    34a8:	001bf853          	fadd.s	fa6,fs7,ft1
    34ac:	094878d3          	fsub.s	fa7,fa6,fs4
    34b0:	0168fc53          	fadd.s	fs8,fa7,fs6
    34b4:	10dc7453          	fmul.s	fs0,fs8,fa3
    34b8:	088bfe53          	fsub.s	ft8,fs7,fs0
    34bc:	09747ed3          	fsub.s	ft9,fs0,fs7
    34c0:	014e7f53          	fadd.s	ft10,ft8,fs4
    34c4:	016f7fd3          	fadd.s	ft11,ft10,fs6
    34c8:	10dff9d3          	fmul.s	fs3,ft11,fa3
    34cc:	013ef553          	fadd.s	fa0,ft9,fs3
    34d0:	01657053          	fadd.s	ft0,fa0,fs6
    34d4:	10d07a53          	fmul.s	fs4,ft0,fa3
    34d8:	efc51ee3          	bne	a0,t3,33d4 <whetstones+0xf4>
    34dc:	00148e93          	addi	t4,s1,1
    34e0:	08d3f6d3          	fsub.s	fa3,ft7,fa3
    34e4:	01db0463          	beq	s6,t4,34ec <whetstones+0x20c>
    34e8:	84f6                	c.mv	s1,t4
    34ea:	b5cd                	c.j	33cc <whetstones+0xec>
    34ec:	d246                	c.swsp	a7,36(sp)
    34ee:	f05e                	c.fswsp	fs7,32(sp)
    34f0:	de9ff0ef          	jal	ra,32d8 <dtime>
    34f4:	089573d3          	fsub.s	ft7,fa0,fs1
    34f8:	00200fb7          	lui	t6,0x200
    34fc:	024fa607          	flw	fa2,36(t6) # 200024 <__DATA_BASE+0x24>
    3500:	5792                	c.lwsp	a5,36(sp)
    3502:	d00b74d3          	fcvt.s.w	fs1,s6
    3506:	214a05d3          	fsgnj.s	fa1,fs4,fs4
    350a:	18c3f653          	fdiv.s	fa2,ft7,fa2
    350e:	b85b9b0b          	addigp	s6,-9340 # 20005c <refarr>
    3512:	4685                	c.li	a3,1
    3514:	865e                	c.mv	a2,s7
    3516:	4585                	c.li	a1,1
    3518:	0b0b0513          	addi	a0,s6,176
    351c:	d007f7d3          	fcvt.s.w	fa5,a5
    3520:	1097f553          	fmul.s	fa0,fa5,fs1
    3524:	d15ff0ef          	jal	ra,3238 <pout>
    3528:	db1ff0ef          	jal	ra,32d8 <dtime>
    352c:	00200837          	lui	a6,0x200
    3530:	00200737          	lui	a4,0x200
    3534:	002006b7          	lui	a3,0x200
    3538:	00882187          	flw	ft3,8(a6) # 200008 <__DATA_BASE+0x8>
    353c:	00c72207          	flw	ft4,12(a4) # 20000c <__DATA_BASE+0xc>
    3540:	20a50953          	fsgnj.s	fs2,fa0,fa0
    3544:	0046aa87          	flw	fs5,4(a3) # 200004 <__DATA_BASE+0x4>
    3548:	7102                	c.flwsp	ft2,32(sp)
    354a:	4281                	c.li	t0,0
    354c:	00000613          	addi	a2,zero,0
    3550:	15a05863          	bge	zero,s10,36a0 <whetstones+0x3c0>
    3554:	002470d3          	fadd.s	ft1,fs0,ft2
    3558:	00160613          	addi	a2,a2,1
    355c:	0130f753          	fadd.s	fa4,ft1,fs3
    3560:	094775d3          	fsub.s	fa1,fa4,fs4
    3564:	4035f2c3          	fmadd.s	ft5,fa1,ft3,fs0
    3568:	0932fb53          	fsub.s	fs6,ft5,fs3
    356c:	014b7353          	fadd.s	ft6,fs6,fs4
    3570:	10337bd3          	fmul.s	fs7,ft6,ft3
    3574:	b835f847          	fmsub.s	fa6,fa1,ft3,fs7
    3578:	b835f8cb          	fnmsub.s	fa7,fa1,ft3,fs7
    357c:	b835fc43          	fmadd.s	fs8,fa1,ft3,fs7
    3580:	0109f453          	fadd.s	fs0,fs3,fa6
    3584:	01447e53          	fadd.s	ft8,fs0,fs4
    3588:	883e7ec3          	fmadd.s	ft9,ft8,ft3,fa7
    358c:	c03e7f43          	fmadd.s	ft10,ft8,ft3,fs8
    3590:	01da7fd3          	fadd.s	ft11,fs4,ft9
    3594:	f04ff9cb          	fnmsub.s	fs3,ft11,ft4,ft10
    3598:	b839f543          	fmadd.s	fa0,fs3,ft3,fs7
    359c:	503e704b          	fnmsub.s	ft0,ft8,ft3,fa0
    35a0:	004ffa43          	fmadd.s	fs4,ft11,ft4,ft0
    35a4:	103a76d3          	fmul.s	fa3,fs4,ft3
    35a8:	6839f3c7          	fmsub.s	ft7,fs3,ft3,fa3
    35ac:	6839f64b          	fnmsub.s	fa2,fs3,ft3,fa3
    35b0:	6839f7c3          	fmadd.s	fa5,fs3,ft3,fa3
    35b4:	383e7143          	fmadd.s	ft2,ft8,ft3,ft7
    35b8:	104ff5c3          	fmadd.s	fa1,ft11,ft4,ft2
    35bc:	6035f0c3          	fmadd.s	ft1,fa1,ft3,fa2
    35c0:	7835f743          	fmadd.s	fa4,fa1,ft3,fa5
    35c4:	084ff2c3          	fmadd.s	ft5,ft11,ft4,ft1
    35c8:	7042fb4b          	fnmsub.s	fs6,ft5,ft4,fa4
    35cc:	6961f343          	fmadd.s	ft6,ft3,fs6,fa3
    35d0:	3035fbcb          	fnmsub.s	fs7,fa1,ft3,ft6
    35d4:	b842f843          	fmadd.s	fa6,ft5,ft4,fs7
    35d8:	1101f8d3          	fmul.s	fa7,ft3,fa6
    35dc:	8961fc47          	fmsub.s	fs8,ft3,fs6,fa7
    35e0:	8961f44b          	fnmsub.s	fs0,ft3,fs6,fa7
    35e4:	8961fe43          	fmadd.s	ft8,ft3,fs6,fa7
    35e8:	c035fec3          	fmadd.s	ft9,fa1,ft3,fs8
    35ec:	e842ff43          	fmadd.s	ft10,ft5,ft4,ft9
    35f0:	41e1ffc3          	fmadd.s	ft11,ft3,ft10,fs0
    35f4:	e1e1f9c3          	fmadd.s	fs3,ft3,ft10,ft8
    35f8:	f842f543          	fmadd.s	fa0,ft5,ft4,ft11
    35fc:	98457a4b          	fnmsub.s	fs4,fa0,ft4,fs3
    3600:	8941f043          	fmadd.s	ft0,ft3,fs4,fa7
    3604:	01e1f6cb          	fnmsub.s	fa3,ft3,ft10,ft0
    3608:	684573c3          	fmadd.s	ft7,fa0,ft4,fa3
    360c:	1071f653          	fmul.s	fa2,ft3,ft7
    3610:	6141f7c7          	fmsub.s	fa5,ft3,fs4,fa2
    3614:	6141f14b          	fnmsub.s	ft2,ft3,fs4,fa2
    3618:	6141f0c3          	fmadd.s	ft1,ft3,fs4,fa2
    361c:	79e1f5c3          	fmadd.s	fa1,ft3,ft10,fa5
    3620:	584572c3          	fmadd.s	ft5,fa0,ft4,fa1
    3624:	1051fb43          	fmadd.s	fs6,ft3,ft5,ft2
    3628:	0851f743          	fmadd.s	fa4,ft3,ft5,ft1
    362c:	b0457343          	fmadd.s	ft6,fa0,ft4,fs6
    3630:	70437bcb          	fnmsub.s	fs7,ft6,ft4,fa4
    3634:	6171f843          	fmadd.s	fa6,ft3,fs7,fa2
    3638:	8051f8cb          	fnmsub.s	fa7,ft3,ft5,fa6
    363c:	88437c43          	fmadd.s	fs8,ft6,ft4,fa7
    3640:	1181f453          	fmul.s	fs0,ft3,fs8
    3644:	4171fe47          	fmsub.s	ft8,ft3,fs7,fs0
    3648:	4171fecb          	fnmsub.s	ft9,ft3,fs7,fs0
    364c:	4171ff43          	fmadd.s	ft10,ft3,fs7,fs0
    3650:	e051ffc3          	fmadd.s	ft11,ft3,ft5,ft8
    3654:	f84379c3          	fmadd.s	fs3,ft6,ft4,ft11
    3658:	e931f543          	fmadd.s	fa0,ft3,fs3,ft9
    365c:	f131fa43          	fmadd.s	fs4,ft3,fs3,ft10
    3660:	504376c3          	fmadd.s	fa3,ft6,ft4,fa0
    3664:	a046f04b          	fnmsub.s	ft0,fa3,ft4,fs4
    3668:	1001f153          	fmul.s	ft2,ft3,ft0
    366c:	002473d3          	fadd.s	ft7,fs0,ft2
    3670:	3931f64b          	fnmsub.s	fa2,ft3,fs3,ft7
    3674:	6046f7c3          	fmadd.s	fa5,fa3,ft4,fa2
    3678:	10f1f453          	fmul.s	fs0,ft3,fa5
    367c:	088170d3          	fsub.s	ft1,ft2,fs0
    3680:	082475d3          	fsub.s	fa1,fs0,ft2
    3684:	0931f2c3          	fmadd.s	ft5,ft3,fs3,ft1
    3688:	2846fb43          	fmadd.s	fs6,fa3,ft4,ft5
    368c:	1161f9d3          	fmul.s	fs3,ft3,fs6
    3690:	0135f753          	fadd.s	fa4,fa1,fs3
    3694:	7046f343          	fmadd.s	ft6,fa3,ft4,fa4
    3698:	10437a53          	fmul.s	fs4,ft6,ft4
    369c:	eacd1ce3          	bne	s10,a2,3554 <whetstones+0x274>
    36a0:	083af1d3          	fsub.s	ft3,fs5,ft3
    36a4:	00128313          	addi	t1,t0,1
    36a8:	00928463          	beq	t0,s1,36b0 <whetstones+0x3d0>
    36ac:	829a                	c.mv	t0,t1
    36ae:	bd79                	c.j	354c <whetstones+0x26c>
    36b0:	c29ff0ef          	jal	ra,32d8 <dtime>
    36b4:	d00cf1d3          	fcvt.s.w	ft3,s9
    36b8:	214a05d3          	fsgnj.s	fa1,fs4,fs4
    36bc:	4689                	c.li	a3,2
    36be:	09257653          	fsub.s	fa2,fa0,fs2
    36c2:	865e                	c.mv	a2,s7
    36c4:	4585                	c.li	a1,1
    36c6:	1091f553          	fmul.s	fa0,ft3,fs1
    36ca:	09cb0513          	addi	a0,s6,156
    36ce:	4c85                	c.li	s9,1
    36d0:	b69ff0ef          	jal	ra,3238 <pout>
    36d4:	c05ff0ef          	jal	ra,32d8 <dtime>
    36d8:	20a50953          	fsgnj.s	fs2,fa0,fa0
    36dc:	00000393          	addi	t2,zero,0
    36e0:	00038093          	addi	ra,t2,0
    36e4:	0bb05863          	bge	zero,s11,3794 <whetstones+0x4b4>
    36e8:	241cda5b          	beqc	s9,1,393c <whetstones+0x65c>
    36ec:	419d8533          	sub	a0,s11,s9
    36f0:	ffe57e13          	andi	t3,a0,-2
    36f4:	0c1e28db          	bfoz	a7,t3,3,1
    36f8:	019e0d33          	add	s10,t3,s9
    36fc:	04088863          	beq	a7,zero,374c <whetstones+0x46c>
    3700:	002c8c93          	addi	s9,s9,2
    3704:	09bcd663          	bge	s9,s11,3790 <whetstones+0x4b0>
    3708:	0418d25b          	beqc	a7,1,374c <whetstones+0x46c>
    370c:	0228dc5b          	beqc	a7,2,3744 <whetstones+0x464>
    3710:	0238d65b          	beqc	a7,3,373c <whetstones+0x45c>
    3714:	0248d05b          	beqc	a7,4,3734 <whetstones+0x454>
    3718:	0058da5b          	beqc	a7,5,372c <whetstones+0x44c>
    371c:	0068d45b          	beqc	a7,6,3724 <whetstones+0x444>
    3720:	1250006f          	jal	zero,4044 <whetstones+0xd64>
    3724:	002c8c93          	addi	s9,s9,2
    3728:	07bcd463          	bge	s9,s11,3790 <whetstones+0x4b0>
    372c:	002c8c93          	addi	s9,s9,2
    3730:	07bcd063          	bge	s9,s11,3790 <whetstones+0x4b0>
    3734:	002c8c93          	addi	s9,s9,2
    3738:	05bcdc63          	bge	s9,s11,3790 <whetstones+0x4b0>
    373c:	002c8c93          	addi	s9,s9,2
    3740:	05bcd863          	bge	s9,s11,3790 <whetstones+0x4b0>
    3744:	002c8c93          	addi	s9,s9,2
    3748:	05bcd463          	bge	s9,s11,3790 <whetstones+0x4b0>
    374c:	002c8e93          	addi	t4,s9,2
    3750:	004c8f13          	addi	t5,s9,4
    3754:	006c8f93          	addi	t6,s9,6
    3758:	008c8793          	addi	a5,s9,8
    375c:	00ac8813          	addi	a6,s9,10
    3760:	00cc8713          	addi	a4,s9,12
    3764:	00ec8693          	addi	a3,s9,14
    3768:	0fac84e3          	beq	s9,s10,4050 <whetstones+0xd70>
    376c:	010c8c93          	addi	s9,s9,16
    3770:	03bed063          	bge	t4,s11,3790 <whetstones+0x4b0>
    3774:	01bf5e63          	bge	t5,s11,3790 <whetstones+0x4b0>
    3778:	01bfdc63          	bge	t6,s11,3790 <whetstones+0x4b0>
    377c:	01b7da63          	bge	a5,s11,3790 <whetstones+0x4b0>
    3780:	01b85863          	bge	a6,s11,3790 <whetstones+0x4b0>
    3784:	01b75663          	bge	a4,s11,3790 <whetstones+0x4b0>
    3788:	01b6d463          	bge	a3,s11,3790 <whetstones+0x4b0>
    378c:	fdbcc0e3          	blt	s9,s11,374c <whetstones+0x46c>
    3790:	809e                	c.mv	ra,t2
    3792:	4c81                	c.li	s9,0
    3794:	00138393          	addi	t2,t2,1
    3798:	f41494e3          	bne	s1,ra,36e0 <whetstones+0x400>
    379c:	b3dff0ef          	jal	ra,32d8 <dtime>
    37a0:	4df2                	c.lwsp	s11,28(sp)
    37a2:	d00cf5d3          	fcvt.s.w	fa1,s9
    37a6:	865e                	c.mv	a2,s7
    37a8:	468d                	c.li	a3,3
    37aa:	d00df253          	fcvt.s.w	ft4,s11
    37ae:	4589                	c.li	a1,2
    37b0:	088b0513          	addi	a0,s6,136
    37b4:	09257653          	fsub.s	fa2,fa0,fs2
    37b8:	00200db7          	lui	s11,0x200
    37bc:	f0000b53          	fmv.w.x	fs6,zero
    37c0:	10927553          	fmul.s	fa0,ft4,fs1
    37c4:	216b09d3          	fsgnj.s	fs3,fs6,fs6
    37c8:	a71ff0ef          	jal	ra,3238 <pout>
    37cc:	b0dff0ef          	jal	ra,32d8 <dtime>
    37d0:	002002b7          	lui	t0,0x200
    37d4:	00200637          	lui	a2,0x200
    37d8:	00200337          	lui	t1,0x200
    37dc:	0042aa87          	flw	fs5,4(t0) # 200004 <__DATA_BASE+0x4>
    37e0:	20a50bd3          	fsgnj.s	fs7,fa0,fa0
    37e4:	01462107          	flw	ft2,20(a2) # 200014 <__DATA_BASE+0x14>
    37e8:	010da807          	flw	fa6,16(s11) # 200010 <__DATA_BASE+0x10>
    37ec:	01c32887          	flw	fa7,28(t1) # 20001c <__DATA_BASE+0x1c>
    37f0:	00000393          	addi	t2,zero,0
    37f4:	4581                	c.li	a1,0
    37f6:	13805d63          	bge	zero,s8,3930 <whetstones+0x650>
    37fa:	006c7093          	andi	ra,s8,6
    37fe:	0a008563          	beq	ra,zero,38a8 <whetstones+0x5c8>
    3802:	0810d75b          	beqc	ra,1,3890 <whetstones+0x5b0>
    3806:	0620db5b          	beqc	ra,2,387c <whetstones+0x59c>
    380a:	0430df5b          	beqc	ra,3,3868 <whetstones+0x588>
    380e:	0440d35b          	beqc	ra,4,3854 <whetstones+0x574>
    3812:	0250d75b          	beqc	ra,5,3840 <whetstones+0x560>
    3816:	0060db5b          	beqc	ra,6,382c <whetstones+0x54c>
    381a:	015b7c53          	fadd.s	fs8,fs6,fs5
    381e:	4585                	c.li	a1,1
    3820:	0119f9d3          	fadd.s	fs3,fs3,fa7
    3824:	002c7453          	fadd.s	fs0,fs8,ft2
    3828:	01047b53          	fadd.s	fs6,fs0,fa6
    382c:	00158593          	addi	a1,a1,1
    3830:	015b7e53          	fadd.s	ft8,fs6,fs5
    3834:	0119f9d3          	fadd.s	fs3,fs3,fa7
    3838:	002e7ed3          	fadd.s	ft9,ft8,ft2
    383c:	010efb53          	fadd.s	fs6,ft9,fa6
    3840:	00158593          	addi	a1,a1,1
    3844:	015b7f53          	fadd.s	ft10,fs6,fs5
    3848:	0119f9d3          	fadd.s	fs3,fs3,fa7
    384c:	002f7fd3          	fadd.s	ft11,ft10,ft2
    3850:	010ffb53          	fadd.s	fs6,ft11,fa6
    3854:	00158593          	addi	a1,a1,1
    3858:	015b7553          	fadd.s	fa0,fs6,fs5
    385c:	0119f9d3          	fadd.s	fs3,fs3,fa7
    3860:	00257a53          	fadd.s	fs4,fa0,ft2
    3864:	010a7b53          	fadd.s	fs6,fs4,fa6
    3868:	00158593          	addi	a1,a1,1
    386c:	015b76d3          	fadd.s	fa3,fs6,fs5
    3870:	0119f9d3          	fadd.s	fs3,fs3,fa7
    3874:	0026f053          	fadd.s	ft0,fa3,ft2
    3878:	01007b53          	fadd.s	fs6,ft0,fa6
    387c:	00158593          	addi	a1,a1,1
    3880:	015b73d3          	fadd.s	ft7,fs6,fs5
    3884:	0119f9d3          	fadd.s	fs3,fs3,fa7
    3888:	0023f653          	fadd.s	fa2,ft7,ft2
    388c:	01067b53          	fadd.s	fs6,fa2,fa6
    3890:	00158593          	addi	a1,a1,1
    3894:	015b77d3          	fadd.s	fa5,fs6,fs5
    3898:	0119f9d3          	fadd.s	fs3,fs3,fa7
    389c:	0027f0d3          	fadd.s	ft1,fa5,ft2
    38a0:	0100fb53          	fadd.s	fs6,ft1,fa6
    38a4:	08bc0663          	beq	s8,a1,3930 <whetstones+0x650>
    38a8:	015b72d3          	fadd.s	ft5,fs6,fs5
    38ac:	00858593          	addi	a1,a1,8
    38b0:	0119f5d3          	fadd.s	fa1,fs3,fa7
    38b4:	0022f753          	fadd.s	fa4,ft5,ft2
    38b8:	0115f353          	fadd.s	ft6,fa1,fa7
    38bc:	010771d3          	fadd.s	ft3,fa4,fa6
    38c0:	01137953          	fadd.s	fs2,ft6,fa7
    38c4:	0151f253          	fadd.s	ft4,ft3,fs5
    38c8:	01197c53          	fadd.s	fs8,fs2,fa7
    38cc:	00227453          	fadd.s	fs0,ft4,ft2
    38d0:	011c7e53          	fadd.s	ft8,fs8,fa7
    38d4:	01047ed3          	fadd.s	ft9,fs0,fa6
    38d8:	011e7f53          	fadd.s	ft10,ft8,fa7
    38dc:	015effd3          	fadd.s	ft11,ft9,fs5
    38e0:	011f7553          	fadd.s	fa0,ft10,fa7
    38e4:	002ffa53          	fadd.s	fs4,ft11,ft2
    38e8:	011579d3          	fadd.s	fs3,fa0,fa7
    38ec:	010a76d3          	fadd.s	fa3,fs4,fa6
    38f0:	0156f053          	fadd.s	ft0,fa3,fs5
    38f4:	002073d3          	fadd.s	ft7,ft0,ft2
    38f8:	0103f653          	fadd.s	fa2,ft7,fa6
    38fc:	015677d3          	fadd.s	fa5,fa2,fs5
    3900:	0027f0d3          	fadd.s	ft1,fa5,ft2
    3904:	0100fb53          	fadd.s	fs6,ft1,fa6
    3908:	015b72d3          	fadd.s	ft5,fs6,fs5
    390c:	0022f5d3          	fadd.s	fa1,ft5,ft2
    3910:	0105f753          	fadd.s	fa4,fa1,fa6
    3914:	01577353          	fadd.s	ft6,fa4,fs5
    3918:	002371d3          	fadd.s	ft3,ft6,ft2
    391c:	0101f953          	fadd.s	fs2,ft3,fa6
    3920:	01597253          	fadd.s	ft4,fs2,fs5
    3924:	00227c53          	fadd.s	fs8,ft4,ft2
    3928:	010c7b53          	fadd.s	fs6,fs8,fa6
    392c:	f6bc1ee3          	bne	s8,a1,38a8 <whetstones+0x5c8>
    3930:	00138513          	addi	a0,t2,1
    3934:	00938e63          	beq	t2,s1,3950 <whetstones+0x670>
    3938:	83aa                	c.mv	t2,a0
    393a:	bd6d                	c.j	37f4 <whetstones+0x514>
    393c:	9a1de85b          	bnec	s11,1,36ec <whetstones+0x40c>
    3940:	00138593          	addi	a1,t2,1
    3944:	70748e63          	beq	s1,t2,4060 <whetstones+0xd80>
    3948:	83ae                	c.mv	t2,a1
    394a:	4c81                	c.li	s9,0
    394c:	da1ff06f          	jal	zero,36ec <whetstones+0x40c>
    3950:	989ff0ef          	jal	ra,32d8 <dtime>
    3954:	d00c7ad3          	fcvt.s.w	fs5,s8
    3958:	4c62                	c.lwsp	s8,24(sp)
    395a:	4691                	c.li	a3,4
    395c:	013b7153          	fadd.s	ft2,fs6,fs3
    3960:	865e                	c.mv	a2,s7
    3962:	d00c7853          	fcvt.s.w	fa6,s8
    3966:	4589                	c.li	a1,2
    3968:	074b0513          	addi	a0,s6,116
    396c:	195178d3          	fdiv.s	fa7,ft2,fs5
    3970:	00200d37          	lui	s10,0x200
    3974:	4c01                	c.li	s8,0
    3976:	4c85                	c.li	s9,1
    3978:	09757653          	fsub.s	fa2,fa0,fs7
    397c:	10987553          	fmul.s	fa0,fa6,fs1
    3980:	1898f5d3          	fdiv.s	fa1,fa7,fs1
    3984:	8b5ff0ef          	jal	ra,3238 <pout>
    3988:	951ff0ef          	jal	ra,32d8 <dtime>
    398c:	00200e37          	lui	t3,0x200
    3990:	00ce2907          	flw	fs2,12(t3) # 20000c <__DATA_BASE+0xc>
    3994:	002008b7          	lui	a7,0x200
    3998:	0088aa07          	flw	fs4,8(a7) # 200008 <__DATA_BASE+0x8>
    399c:	20a50ad3          	fsgnj.s	fs5,fa0,fa0
    39a0:	212909d3          	fsgnj.s	fs3,fs2,fs2
    39a4:	004d2407          	flw	fs0,4(s10) # 200004 <__DATA_BASE+0x4>
    39a8:	00100d13          	addi	s10,zero,1
    39ac:	088cda63          	bge	s9,s0,3a40 <whetstones+0x760>
    39b0:	21290553          	fsgnj.s	fa0,fs2,fs2
    39b4:	102c                	c.addi4spn	a1,sp,40
    39b6:	1068                	c.addi4spn	a0,sp,44
    39b8:	521010ef          	jal	ra,56d8 <sincosf>
    39bc:	21398553          	fsgnj.s	fa0,fs3,fs3
    39c0:	102c                	c.addi4spn	a1,sp,40
    39c2:	1068                	c.addi4spn	a0,sp,44
    39c4:	7c22                	c.flwsp	fs8,40(sp)
    39c6:	7b32                	c.flwsp	fs6,44(sp)
    39c8:	511010ef          	jal	ra,56d8 <sincosf>
    39cc:	0129f553          	fadd.s	fa0,fs3,fs2
    39d0:	7bb2                	c.flwsp	fs7,44(sp)
    39d2:	0d05                	c.addi	s10,1
    39d4:	5bc010ef          	jal	ra,4f90 <cosf>
    39d8:	20a50e53          	fsgnj.s	ft8,fa0,fa0
    39dc:	0929f553          	fsub.s	fa0,fs3,fs2
    39e0:	21ce09d3          	fsgnj.s	fs3,ft8,ft8
    39e4:	5ac010ef          	jal	ra,4f90 <cosf>
    39e8:	017bfed3          	fadd.s	ft9,fs7,fs7
    39ec:	7fa2                	c.flwsp	ft11,40(sp)
    39ee:	00a9ff53          	fadd.s	ft10,fs3,fa0
    39f2:	11fef553          	fmul.s	fa0,ft9,ft11
    39f6:	088f76d3          	fsub.s	fa3,ft10,fs0
    39fa:	18d57553          	fdiv.s	fa0,fa0,fa3
    39fe:	03f010ef          	jal	ra,523c <atanf>
    3a02:	0001                	c.addi	zero,0
    3a04:	114579d3          	fmul.s	fs3,fa0,fs4
    3a08:	0129f553          	fadd.s	fa0,fs3,fs2
    3a0c:	584010ef          	jal	ra,4f90 <cosf>
    3a10:	20a50053          	fsgnj.s	ft0,fa0,fa0
    3a14:	0929f553          	fsub.s	fa0,fs3,fs2
    3a18:	20000953          	fsgnj.s	fs2,ft0,ft0
    3a1c:	574010ef          	jal	ra,4f90 <cosf>
    3a20:	016b73d3          	fadd.s	ft7,fs6,fs6
    3a24:	00a97653          	fadd.s	fa2,fs2,fa0
    3a28:	1183f7d3          	fmul.s	fa5,ft7,fs8
    3a2c:	088670d3          	fsub.s	ft1,fa2,fs0
    3a30:	1817f553          	fdiv.s	fa0,fa5,ft1
    3a34:	009010ef          	jal	ra,523c <atanf>
    3a38:	11457953          	fmul.s	fs2,fa0,fs4
    3a3c:	f7a41ae3          	bne	s0,s10,39b0 <whetstones+0x6d0>
    3a40:	09447a53          	fsub.s	fs4,fs0,fs4
    3a44:	001c0e93          	addi	t4,s8,1
    3a48:	009c0463          	beq	s8,s1,3a50 <whetstones+0x770>
    3a4c:	8c76                	c.mv	s8,t4
    3a4e:	bfa9                	c.j	39a8 <whetstones+0x6c8>
    3a50:	889ff0ef          	jal	ra,32d8 <dtime>
    3a54:	4452                	c.lwsp	s0,20(sp)
    3a56:	09557653          	fsub.s	fa2,fa0,fs5
    3a5a:	212905d3          	fsgnj.s	fa1,fs2,fs2
    3a5e:	d00472d3          	fcvt.s.w	ft5,s0
    3a62:	4695                	c.li	a3,5
    3a64:	865e                	c.mv	a2,s7
    3a66:	4589                	c.li	a1,2
    3a68:	060b0513          	addi	a0,s6,96
    3a6c:	1092f553          	fmul.s	fa0,ft5,fs1
    3a70:	fc8ff0ef          	jal	ra,3238 <pout>
    3a74:	865ff0ef          	jal	ra,32d8 <dtime>
    3a78:	00200f37          	lui	t5,0x200
    3a7c:	00200fb7          	lui	t6,0x200
    3a80:	002007b7          	lui	a5,0x200
    3a84:	20840653          	fsgnj.s	fa2,fs0,fs0
    3a88:	20a50a53          	fsgnj.s	fs4,fa0,fa0
    3a8c:	008f2307          	flw	ft6,8(t5) # 200008 <__DATA_BASE+0x8>
    3a90:	020fa187          	flw	ft3,32(t6) # 200020 <__DATA_BASE+0x20>
    3a94:	00c7a587          	flw	fa1,12(a5) # 20000c <__DATA_BASE+0xc>
    3a98:	00000813          	addi	a6,zero,0
    3a9c:	4681                	c.li	a3,0
    3a9e:	17305b63          	bge	zero,s3,3c14 <whetstones+0x934>
    3aa2:	0079f713          	andi	a4,s3,7
    3aa6:	c379                	c.beqz	a4,3b6c <whetstones+0x88c>
    3aa8:	0a17545b          	beqc	a4,1,3b50 <whetstones+0x870>
    3aac:	0827565b          	beqc	a4,2,3b38 <whetstones+0x858>
    3ab0:	0637585b          	beqc	a4,3,3b20 <whetstones+0x840>
    3ab4:	04475a5b          	beqc	a4,4,3b08 <whetstones+0x828>
    3ab8:	02575c5b          	beqc	a4,5,3af0 <whetstones+0x810>
    3abc:	00675e5b          	beqc	a4,6,3ad8 <whetstones+0x7f8>
    3ac0:	00867253          	fadd.s	ft4,fa2,fs0
    3ac4:	00100693          	addi	a3,zero,1
    3ac8:	40627443          	fmadd.s	fs0,ft4,ft6,fs0
    3acc:	10347653          	fmul.s	fa2,fs0,ft3
    3ad0:	60627143          	fmadd.s	ft2,ft4,ft6,fa2
    3ad4:	10b17453          	fmul.s	fs0,ft2,fa1
    3ad8:	00168693          	addi	a3,a3,1
    3adc:	00867853          	fadd.s	fa6,fa2,fs0
    3ae0:	40687743          	fmadd.s	fa4,fa6,ft6,fs0
    3ae4:	10377653          	fmul.s	fa2,fa4,ft3
    3ae8:	606878c3          	fmadd.s	fa7,fa6,ft6,fa2
    3aec:	10b8f453          	fmul.s	fs0,fa7,fa1
    3af0:	00168693          	addi	a3,a3,1
    3af4:	00867ad3          	fadd.s	fs5,fa2,fs0
    3af8:	406afc43          	fmadd.s	fs8,fs5,ft6,fs0
    3afc:	103c7653          	fmul.s	fa2,fs8,ft3
    3b00:	606afb43          	fmadd.s	fs6,fs5,ft6,fa2
    3b04:	10bb7453          	fmul.s	fs0,fs6,fa1
    3b08:	00168693          	addi	a3,a3,1
    3b0c:	00867bd3          	fadd.s	fs7,fa2,fs0
    3b10:	406bfe43          	fmadd.s	ft8,fs7,ft6,fs0
    3b14:	103e7653          	fmul.s	fa2,ft8,ft3
    3b18:	606bf9c3          	fmadd.s	fs3,fs7,ft6,fa2
    3b1c:	10b9f453          	fmul.s	fs0,fs3,fa1
    3b20:	00168693          	addi	a3,a3,1
    3b24:	00867ed3          	fadd.s	ft9,fa2,fs0
    3b28:	406eff43          	fmadd.s	ft10,ft9,ft6,fs0
    3b2c:	103f7653          	fmul.s	fa2,ft10,ft3
    3b30:	606effc3          	fmadd.s	ft11,ft9,ft6,fa2
    3b34:	10bff453          	fmul.s	fs0,ft11,fa1
    3b38:	00168693          	addi	a3,a3,1
    3b3c:	00867553          	fadd.s	fa0,fa2,fs0
    3b40:	406576c3          	fmadd.s	fa3,fa0,ft6,fs0
    3b44:	1036f653          	fmul.s	fa2,fa3,ft3
    3b48:	60657043          	fmadd.s	ft0,fa0,ft6,fa2
    3b4c:	10b07453          	fmul.s	fs0,ft0,fa1
    3b50:	00168693          	addi	a3,a3,1
    3b54:	00867953          	fadd.s	fs2,fa2,fs0
    3b58:	406973c3          	fmadd.s	ft7,fs2,ft6,fs0
    3b5c:	1033f653          	fmul.s	fa2,ft7,ft3
    3b60:	606977c3          	fmadd.s	fa5,fs2,ft6,fa2
    3b64:	10b7f453          	fmul.s	fs0,fa5,fa1
    3b68:	0ad98663          	beq	s3,a3,3c14 <whetstones+0x934>
    3b6c:	008670d3          	fadd.s	ft1,fa2,fs0
    3b70:	00868693          	addi	a3,a3,8
    3b74:	4060f2c3          	fmadd.s	ft5,ft1,ft6,fs0
    3b78:	1032f253          	fmul.s	ft4,ft5,ft3
    3b7c:	2060f143          	fmadd.s	ft2,ft1,ft6,ft4
    3b80:	10b17853          	fmul.s	fa6,ft2,fa1
    3b84:	010278d3          	fadd.s	fa7,ft4,fa6
    3b88:	8068f743          	fmadd.s	fa4,fa7,ft6,fa6
    3b8c:	10377ad3          	fmul.s	fs5,fa4,ft3
    3b90:	a868fc43          	fmadd.s	fs8,fa7,ft6,fs5
    3b94:	10bc7b53          	fmul.s	fs6,fs8,fa1
    3b98:	016afbd3          	fadd.s	fs7,fs5,fs6
    3b9c:	b06bfe43          	fmadd.s	ft8,fs7,ft6,fs6
    3ba0:	103e79d3          	fmul.s	fs3,ft8,ft3
    3ba4:	986bfec3          	fmadd.s	ft9,fs7,ft6,fs3
    3ba8:	10beff53          	fmul.s	ft10,ft9,fa1
    3bac:	01e9ffd3          	fadd.s	ft11,fs3,ft10
    3bb0:	f06ff543          	fmadd.s	fa0,ft11,ft6,ft10
    3bb4:	103576d3          	fmul.s	fa3,fa0,ft3
    3bb8:	686ff043          	fmadd.s	ft0,ft11,ft6,fa3
    3bbc:	10b07953          	fmul.s	fs2,ft0,fa1
    3bc0:	0126f3d3          	fadd.s	ft7,fa3,fs2
    3bc4:	9063f643          	fmadd.s	fa2,ft7,ft6,fs2
    3bc8:	103677d3          	fmul.s	fa5,fa2,ft3
    3bcc:	7863f443          	fmadd.s	fs0,ft7,ft6,fa5
    3bd0:	10b470d3          	fmul.s	ft1,fs0,fa1
    3bd4:	0017f2d3          	fadd.s	ft5,fa5,ft1
    3bd8:	0862f243          	fmadd.s	ft4,ft5,ft6,ft1
    3bdc:	10327153          	fmul.s	ft2,ft4,ft3
    3be0:	1062f843          	fmadd.s	fa6,ft5,ft6,ft2
    3be4:	10b878d3          	fmul.s	fa7,fa6,fa1
    3be8:	01117753          	fadd.s	fa4,ft2,fa7
    3bec:	88677ac3          	fmadd.s	fs5,fa4,ft6,fa7
    3bf0:	103afc53          	fmul.s	fs8,fs5,ft3
    3bf4:	c0677b43          	fmadd.s	fs6,fa4,ft6,fs8
    3bf8:	10bb7bd3          	fmul.s	fs7,fs6,fa1
    3bfc:	017c7e53          	fadd.s	ft8,fs8,fs7
    3c00:	b86e79c3          	fmadd.s	fs3,ft8,ft6,fs7
    3c04:	1039f653          	fmul.s	fa2,fs3,ft3
    3c08:	606e7ec3          	fmadd.s	ft9,ft8,ft6,fa2
    3c0c:	10bef453          	fmul.s	fs0,ft9,fa1
    3c10:	f4d99ee3          	bne	s3,a3,3b6c <whetstones+0x88c>
    3c14:	00180293          	addi	t0,a6,1
    3c18:	01048463          	beq	s1,a6,3c20 <whetstones+0x940>
    3c1c:	8816                	c.mv	a6,t0
    3c1e:	bdbd                	c.j	3a9c <whetstones+0x7bc>
    3c20:	eb8ff0ef          	jal	ra,32d8 <dtime>
    3c24:	49c2                	c.lwsp	s3,16(sp)
    3c26:	09457653          	fsub.s	fa2,fa0,fs4
    3c2a:	208405d3          	fsgnj.s	fa1,fs0,fs0
    3c2e:	d009f353          	fcvt.s.w	ft6,s3
    3c32:	865e                	c.mv	a2,s7
    3c34:	4699                	c.li	a3,6
    3c36:	4585                	c.li	a1,1
    3c38:	04cb0513          	addi	a0,s6,76
    3c3c:	10937553          	fmul.s	fa0,ft6,fs1
    3c40:	df8ff0ef          	jal	ra,3238 <pout>
    3c44:	e94ff0ef          	jal	ra,32d8 <dtime>
    3c48:	010daa07          	flw	fs4,16(s11)
    3c4c:	00200db7          	lui	s11,0x200
    3c50:	014da187          	flw	ft3,20(s11) # 200014 <__DATA_BASE+0x14>
    3c54:	20a50953          	fsgnj.s	fs2,fa0,fa0
    3c58:	00000613          	addi	a2,zero,0
    3c5c:	09405c63          	bge	zero,s4,3cf4 <whetstones+0xa14>
    3c60:	431d                	c.li	t1,7
    3c62:	214a03d3          	fsgnj.s	ft7,fs4,fs4
    3c66:	20318653          	fsgnj.s	fa2,ft3,ft3
    3c6a:	4385                	c.li	t2,1
    3c6c:	06135a5b          	beqc	t1,1,3ce0 <whetstones+0xa00>
    3c70:	0623505b          	beqc	t1,2,3cd0 <whetstones+0x9f0>
    3c74:	0433565b          	beqc	t1,3,3cc0 <whetstones+0x9e0>
    3c78:	02435c5b          	beqc	t1,4,3cb0 <whetstones+0x9d0>
    3c7c:	0253525b          	beqc	t1,5,3ca0 <whetstones+0x9c0>
    3c80:	0063585b          	beqc	t1,6,3c90 <whetstones+0x9b0>
    3c84:	203183d3          	fsgnj.s	ft7,ft3,ft3
    3c88:	214a0653          	fsgnj.s	fa2,fs4,fs4
    3c8c:	00200393          	addi	t2,zero,2
    3c90:	20738f53          	fsgnj.s	ft10,ft7,ft7
    3c94:	20c603d3          	fsgnj.s	ft7,fa2,fa2
    3c98:	00138393          	addi	t2,t2,1
    3c9c:	21ef0653          	fsgnj.s	fa2,ft10,ft10
    3ca0:	20738fd3          	fsgnj.s	ft11,ft7,ft7
    3ca4:	20c603d3          	fsgnj.s	ft7,fa2,fa2
    3ca8:	00138393          	addi	t2,t2,1
    3cac:	21ff8653          	fsgnj.s	fa2,ft11,ft11
    3cb0:	20738553          	fsgnj.s	fa0,ft7,ft7
    3cb4:	20c603d3          	fsgnj.s	ft7,fa2,fa2
    3cb8:	00138393          	addi	t2,t2,1
    3cbc:	20a50653          	fsgnj.s	fa2,fa0,fa0
    3cc0:	207386d3          	fsgnj.s	fa3,ft7,ft7
    3cc4:	20c603d3          	fsgnj.s	ft7,fa2,fa2
    3cc8:	00138393          	addi	t2,t2,1
    3ccc:	20d68653          	fsgnj.s	fa2,fa3,fa3
    3cd0:	20738053          	fsgnj.s	ft0,ft7,ft7
    3cd4:	20c603d3          	fsgnj.s	ft7,fa2,fa2
    3cd8:	00138393          	addi	t2,t2,1
    3cdc:	20000653          	fsgnj.s	fa2,ft0,ft0
    3ce0:	00138093          	addi	ra,t2,1
    3ce4:	00838393          	addi	t2,t2,8
    3ce8:	fe1a1ce3          	bne	s4,ra,3ce0 <whetstones+0xa00>
    3cec:	20c601d3          	fsgnj.s	ft3,fa2,fa2
    3cf0:	20738a53          	fsgnj.s	fs4,ft7,ft7
    3cf4:	00160593          	addi	a1,a2,1
    3cf8:	00c48463          	beq	s1,a2,3d00 <whetstones+0xa20>
    3cfc:	862e                	c.mv	a2,a1
    3cfe:	bfb9                	c.j	3c5c <whetstones+0x97c>
    3d00:	dd8ff0ef          	jal	ra,32d8 <dtime>
    3d04:	4a32                	c.lwsp	s4,12(sp)
    3d06:	09257653          	fsub.s	fa2,fa0,fs2
    3d0a:	214a05d3          	fsgnj.s	fa1,fs4,fs4
    3d0e:	d00a77d3          	fcvt.s.w	fa5,s4
    3d12:	038b0513          	addi	a0,s6,56
    3d16:	469d                	c.li	a3,7
    3d18:	865e                	c.mv	a2,s7
    3d1a:	4589                	c.li	a1,2
    3d1c:	00200cb7          	lui	s9,0x200
    3d20:	1097f553          	fmul.s	fa0,fa5,fs1
    3d24:	00000c13          	addi	s8,zero,0
    3d28:	f0000ad3          	fmv.w.x	fs5,zero
    3d2c:	d0cff0ef          	jal	ra,3238 <pout>
    3d30:	da8ff0ef          	jal	ra,32d8 <dtime>
    3d34:	00200537          	lui	a0,0x200
    3d38:	20a50bd3          	fsgnj.s	fs7,fa0,fa0
    3d3c:	01852b07          	flw	fs6,24(a0) # 200018 <__DATA_BASE+0x18>
    3d40:	020cac07          	flw	fs8,32(s9) # 200020 <__DATA_BASE+0x20>
    3d44:	00000d93          	addi	s11,zero,0
    3d48:	13205063          	bge	zero,s2,3e68 <whetstones+0xb88>
    3d4c:	00397e13          	andi	t3,s2,3
    3d50:	080e0463          	beq	t3,zero,3dd8 <whetstones+0xaf8>
    3d54:	041e5c5b          	beqc	t3,1,3dac <whetstones+0xacc>
    3d58:	022e565b          	beqc	t3,2,3d84 <whetstones+0xaa4>
    3d5c:	216b0553          	fsgnj.s	fa0,fs6,fs6
    3d60:	019010ef          	jal	ra,5578 <logf>
    3d64:	19857553          	fdiv.s	fa0,fa0,fs8
    3d68:	688010ef          	jal	ra,53f0 <expf>
    3d6c:	00102673          	frflags	a2
    3d70:	a15518d3          	flt.s	a7,fa0,fs5
    3d74:	00161073          	fsflags	a2
    3d78:	2e089c63          	bne	a7,zero,4070 <whetstones+0xd90>
    3d7c:	58057b53          	fsqrt.s	fs6,fa0
    3d80:	00100d93          	addi	s11,zero,1
    3d84:	216b0553          	fsgnj.s	fa0,fs6,fs6
    3d88:	7f0010ef          	jal	ra,5578 <logf>
    3d8c:	19857553          	fdiv.s	fa0,fa0,fs8
    3d90:	660010ef          	jal	ra,53f0 <expf>
    3d94:	00102673          	frflags	a2
    3d98:	a1551d53          	flt.s	s10,fa0,fs5
    3d9c:	00161073          	fsflags	a2
    3da0:	2e0d1c63          	bne	s10,zero,4098 <whetstones+0xdb8>
    3da4:	58057b53          	fsqrt.s	fs6,fa0
    3da8:	001d8d93          	addi	s11,s11,1
    3dac:	216b0553          	fsgnj.s	fa0,fs6,fs6
    3db0:	7c8010ef          	jal	ra,5578 <logf>
    3db4:	19857553          	fdiv.s	fa0,fa0,fs8
    3db8:	638010ef          	jal	ra,53f0 <expf>
    3dbc:	00102673          	frflags	a2
    3dc0:	a1551ed3          	flt.s	t4,fa0,fs5
    3dc4:	00161073          	fsflags	a2
    3dc8:	2c0e9263          	bne	t4,zero,408c <whetstones+0xdac>
    3dcc:	58057b53          	fsqrt.s	fs6,fa0
    3dd0:	001d8d93          	addi	s11,s11,1
    3dd4:	09b90a63          	beq	s2,s11,3e68 <whetstones+0xb88>
    3dd8:	216b0553          	fsgnj.s	fa0,fs6,fs6
    3ddc:	79c010ef          	jal	ra,5578 <logf>
    3de0:	19857553          	fdiv.s	fa0,fa0,fs8
    3de4:	60c010ef          	jal	ra,53f0 <expf>
    3de8:	00102773          	frflags	a4
    3dec:	a1551453          	flt.s	s0,fa0,fs5
    3df0:	00171073          	fsflags	a4
    3df4:	28041863          	bne	s0,zero,4084 <whetstones+0xda4>
    3df8:	58057553          	fsqrt.s	fa0,fa0
    3dfc:	77c010ef          	jal	ra,5578 <logf>
    3e00:	001d8993          	addi	s3,s11,1
    3e04:	19857553          	fdiv.s	fa0,fa0,fs8
    3e08:	5e8010ef          	jal	ra,53f0 <expf>
    3e0c:	00102773          	frflags	a4
    3e10:	a1551f53          	flt.s	t5,fa0,fs5
    3e14:	00171073          	fsflags	a4
    3e18:	260f1263          	bne	t5,zero,407c <whetstones+0xd9c>
    3e1c:	58057553          	fsqrt.s	fa0,fa0
    3e20:	758010ef          	jal	ra,5578 <logf>
    3e24:	19857553          	fdiv.s	fa0,fa0,fs8
    3e28:	5c8010ef          	jal	ra,53f0 <expf>
    3e2c:	00102773          	frflags	a4
    3e30:	a1551fd3          	flt.s	t6,fa0,fs5
    3e34:	00171073          	fsflags	a4
    3e38:	220f9863          	bne	t6,zero,4068 <whetstones+0xd88>
    3e3c:	58057553          	fsqrt.s	fa0,fa0
    3e40:	738010ef          	jal	ra,5578 <logf>
    3e44:	19857553          	fdiv.s	fa0,fa0,fs8
    3e48:	5a8010ef          	jal	ra,53f0 <expf>
    3e4c:	00102773          	frflags	a4
    3e50:	a15517d3          	flt.s	a5,fa0,fs5
    3e54:	00171073          	fsflags	a4
    3e58:	24079663          	bne	a5,zero,40a4 <whetstones+0xdc4>
    3e5c:	58057b53          	fsqrt.s	fs6,fa0
    3e60:	00398d93          	addi	s11,s3,3
    3e64:	f7b91ae3          	bne	s2,s11,3dd8 <whetstones+0xaf8>
    3e68:	001c0813          	addi	a6,s8,1
    3e6c:	19848063          	beq	s1,s8,3fec <whetstones+0xd0c>
    3e70:	8c42                	c.mv	s8,a6
    3e72:	bdc9                	c.j	3d44 <whetstones+0xa64>
    3e74:	03112023          	sw	a7,32(sp)
    3e78:	c60ff0ef          	jal	ra,32d8 <dtime>
    3e7c:	08957553          	fsub.s	fa0,fa0,fs1
    3e80:	00200db7          	lui	s11,0x200
    3e84:	024da607          	flw	fa2,36(s11) # 200024 <__DATA_BASE+0x24>
    3e88:	5782                	c.lwsp	a5,32(sp)
    3e8a:	d00b74d3          	fcvt.s.w	fs1,s6
    3e8e:	00200b37          	lui	s6,0x200
    3e92:	18c57653          	fdiv.s	fa2,fa0,fa2
    3e96:	b2bbad2b          	lwgp	s10,-9432 # 200000 <__DATA_BASE>
    3e9a:	b85b9b0b          	addigp	s6,-9340 # 20005c <refarr>
    3e9e:	f00d05d3          	fmv.w.x	fa1,s10
    3ea2:	4685                	c.li	a3,1
    3ea4:	865e                	c.mv	a2,s7
    3ea6:	4585                	c.li	a1,1
    3ea8:	0b0b0513          	addi	a0,s6,176 # 2000b0 <refarr+0x54>
    3eac:	00200937          	lui	s2,0x200
    3eb0:	d007f053          	fcvt.s.w	ft0,a5
    3eb4:	10907553          	fmul.s	fa0,ft0,fs1
    3eb8:	b80ff0ef          	jal	ra,3238 <pout>
    3ebc:	c1cff0ef          	jal	ra,32d8 <dtime>
    3ec0:	20a50453          	fsgnj.s	fs0,fa0,fa0
    3ec4:	c14ff0ef          	jal	ra,32d8 <dtime>
    3ec8:	d00cf7d3          	fcvt.s.w	fa5,s9
    3ecc:	f00d05d3          	fmv.w.x	fa1,s10
    3ed0:	4689                	c.li	a3,2
    3ed2:	08857653          	fsub.s	fa2,fa0,fs0
    3ed6:	865e                	c.mv	a2,s7
    3ed8:	00100593          	addi	a1,zero,1
    3edc:	1097f553          	fmul.s	fa0,fa5,fs1
    3ee0:	09cb0513          	addi	a0,s6,156
    3ee4:	b54ff0ef          	jal	ra,3238 <pout>
    3ee8:	bf0ff0ef          	jal	ra,32d8 <dtime>
    3eec:	20a50953          	fsgnj.s	fs2,fa0,fa0
    3ef0:	be8ff0ef          	jal	ra,32d8 <dtime>
    3ef4:	4872                	c.lwsp	a6,28(sp)
    3ef6:	09257653          	fsub.s	fa2,fa0,fs2
    3efa:	00200737          	lui	a4,0x200
    3efe:	d00870d3          	fcvt.s.w	ft1,a6
    3f02:	b2fba9ab          	lwgp	s3,-9428 # 200004 <__DATA_BASE+0x4>
    3f06:	468d                	c.li	a3,3
    3f08:	f00985d3          	fmv.w.x	fa1,s3
    3f0c:	865e                	c.mv	a2,s7
    3f0e:	4589                	c.li	a1,2
    3f10:	1090f553          	fmul.s	fa0,ft1,fs1
    3f14:	088b0513          	addi	a0,s6,136
    3f18:	b20ff0ef          	jal	ra,3238 <pout>
    3f1c:	bbcff0ef          	jal	ra,32d8 <dtime>
    3f20:	20a509d3          	fsgnj.s	fs3,fa0,fa0
    3f24:	bb4ff0ef          	jal	ra,32d8 <dtime>
    3f28:	d00c7753          	fcvt.s.w	fa4,s8
    3f2c:	f00005d3          	fmv.w.x	fa1,zero
    3f30:	4c62                	c.lwsp	s8,24(sp)
    3f32:	09357653          	fsub.s	fa2,fa0,fs3
    3f36:	4691                	c.li	a3,4
    3f38:	d00c7153          	fcvt.s.w	ft2,s8
    3f3c:	865e                	c.mv	a2,s7
    3f3e:	4589                	c.li	a1,2
    3f40:	18e5f1d3          	fdiv.s	ft3,fa1,fa4
    3f44:	074b0513          	addi	a0,s6,116
    3f48:	10917553          	fmul.s	fa0,ft2,fs1
    3f4c:	1891f5d3          	fdiv.s	fa1,ft3,fs1
    3f50:	ae8ff0ef          	jal	ra,3238 <pout>
    3f54:	b84ff0ef          	jal	ra,32d8 <dtime>
    3f58:	20a50a53          	fsgnj.s	fs4,fa0,fa0
    3f5c:	b7cff0ef          	jal	ra,32d8 <dtime>
    3f60:	4a52                	c.lwsp	s4,20(sp)
    3f62:	09457653          	fsub.s	fa2,fa0,fs4
    3f66:	00c92587          	flw	fa1,12(s2) # 20000c <__DATA_BASE+0xc>
    3f6a:	d00a7253          	fcvt.s.w	ft4,s4
    3f6e:	4695                	c.li	a3,5
    3f70:	865e                	c.mv	a2,s7
    3f72:	4589                	c.li	a1,2
    3f74:	060b0513          	addi	a0,s6,96
    3f78:	10927553          	fmul.s	fa0,ft4,fs1
    3f7c:	abcff0ef          	jal	ra,3238 <pout>
    3f80:	b58ff0ef          	jal	ra,32d8 <dtime>
    3f84:	20a50ad3          	fsgnj.s	fs5,fa0,fa0
    3f88:	b50ff0ef          	jal	ra,32d8 <dtime>
    3f8c:	46c2                	c.lwsp	a3,16(sp)
    3f8e:	09557653          	fsub.s	fa2,fa0,fs5
    3f92:	f00985d3          	fmv.w.x	fa1,s3
    3f96:	d006f2d3          	fcvt.s.w	ft5,a3
    3f9a:	865e                	c.mv	a2,s7
    3f9c:	4699                	c.li	a3,6
    3f9e:	4585                	c.li	a1,1
    3fa0:	04cb0513          	addi	a0,s6,76
    3fa4:	1092f553          	fmul.s	fa0,ft5,fs1
    3fa8:	a90ff0ef          	jal	ra,3238 <pout>
    3fac:	b2cff0ef          	jal	ra,32d8 <dtime>
    3fb0:	20a50b53          	fsgnj.s	fs6,fa0,fa0
    3fb4:	b24ff0ef          	jal	ra,32d8 <dtime>
    3fb8:	42b2                	c.lwsp	t0,12(sp)
    3fba:	09657653          	fsub.s	fa2,fa0,fs6
    3fbe:	00200637          	lui	a2,0x200
    3fc2:	d002f353          	fcvt.s.w	ft6,t0
    3fc6:	01062587          	flw	fa1,16(a2) # 200010 <__DATA_BASE+0x10>
    3fca:	469d                	c.li	a3,7
    3fcc:	865e                	c.mv	a2,s7
    3fce:	4589                	c.li	a1,2
    3fd0:	038b0513          	addi	a0,s6,56
    3fd4:	10937553          	fmul.s	fa0,ft6,fs1
    3fd8:	a60ff0ef          	jal	ra,3238 <pout>
    3fdc:	afcff0ef          	jal	ra,32d8 <dtime>
    3fe0:	00200337          	lui	t1,0x200
    3fe4:	01832b07          	flw	fs6,24(t1) # 200018 <__DATA_BASE+0x18>
    3fe8:	20a50bd3          	fsgnj.s	fs7,fa0,fa0
    3fec:	17400493          	addi	s1,zero,372
    3ff0:	029a8933          	mul	s2,s5,s1
    3ff4:	ae4ff0ef          	jal	ra,32d8 <dtime>
    3ff8:	09757653          	fsub.s	fa2,fa0,fs7
    3ffc:	3466                	c.fldsp	fs0,120(sp)
    3ffe:	d0097bd3          	fcvt.s.w	fs7,s2
    4002:	3926                	c.fldsp	fs2,104(sp)
    4004:	3986                	c.fldsp	fs3,96(sp)
    4006:	2a66                	c.fldsp	fs4,88(sp)
    4008:	2ac6                	c.fldsp	fs5,80(sp)
    400a:	3c62                	c.fldsp	fs8,56(sp)
    400c:	109bf553          	fmul.s	fa0,fs7,fs1
    4010:	546a                	c.lwsp	s0,184(sp)
    4012:	34c6                	c.fldsp	fs1,112(sp)
    4014:	2b86                	c.fldsp	fs7,64(sp)
    4016:	216b05d3          	fsgnj.s	fa1,fs6,fs6
    401a:	2b26                	c.fldsp	fs6,72(sp)
    401c:	50fa                	c.lwsp	ra,188(sp)
    401e:	54da                	c.lwsp	s1,180(sp)
    4020:	594a                	c.lwsp	s2,176(sp)
    4022:	59ba                	c.lwsp	s3,172(sp)
    4024:	5a2a                	c.lwsp	s4,168(sp)
    4026:	5a9a                	c.lwsp	s5,164(sp)
    4028:	4c6a                	c.lwsp	s8,152(sp)
    402a:	4cda                	c.lwsp	s9,148(sp)
    402c:	4d4a                	c.lwsp	s10,144(sp)
    402e:	4dba                	c.lwsp	s11,140(sp)
    4030:	865e                	c.mv	a2,s7
    4032:	024b0513          	addi	a0,s6,36
    4036:	4bfa                	c.lwsp	s7,156(sp)
    4038:	5b0a                	c.lwsp	s6,160(sp)
    403a:	46a1                	c.li	a3,8
    403c:	4589                	c.li	a1,2
    403e:	6129                	c.addi16sp	sp,192
    4040:	9f8ff06f          	jal	zero,3238 <pout>
    4044:	002c8c93          	addi	s9,s9,2
    4048:	edbcce63          	blt	s9,s11,3724 <whetstones+0x444>
    404c:	f44ff06f          	jal	zero,3790 <whetstones+0x4b0>
    4050:	809e                	c.mv	ra,t2
    4052:	4c85                	c.li	s9,1
    4054:	00138393          	addi	t2,t2,1
    4058:	e8149463          	bne	s1,ra,36e0 <whetstones+0x400>
    405c:	f40ff06f          	jal	zero,379c <whetstones+0x4bc>
    4060:	00000c93          	addi	s9,zero,0
    4064:	f38ff06f          	jal	zero,379c <whetstones+0x4bc>
    4068:	141010ef          	jal	ra,59a8 <sqrtf>
    406c:	dd5ff06f          	jal	zero,3e40 <whetstones+0xb60>
    4070:	139010ef          	jal	ra,59a8 <sqrtf>
    4074:	20a50b53          	fsgnj.s	fs6,fa0,fa0
    4078:	d09ff06f          	jal	zero,3d80 <whetstones+0xaa0>
    407c:	12d010ef          	jal	ra,59a8 <sqrtf>
    4080:	da1ff06f          	jal	zero,3e20 <whetstones+0xb40>
    4084:	125010ef          	jal	ra,59a8 <sqrtf>
    4088:	d75ff06f          	jal	zero,3dfc <whetstones+0xb1c>
    408c:	11d010ef          	jal	ra,59a8 <sqrtf>
    4090:	20a50b53          	fsgnj.s	fs6,fa0,fa0
    4094:	d3dff06f          	jal	zero,3dd0 <whetstones+0xaf0>
    4098:	111010ef          	jal	ra,59a8 <sqrtf>
    409c:	20a50b53          	fsgnj.s	fs6,fa0,fa0
    40a0:	d09ff06f          	jal	zero,3da8 <whetstones+0xac8>
    40a4:	105010ef          	jal	ra,59a8 <sqrtf>
    40a8:	20a50b53          	fsgnj.s	fs6,fa0,fa0
    40ac:	db5ff06f          	jal	zero,3e60 <whetstones+0xb80>

000040b0 <whetstones.constprop.0>:
    40b0:	7159                	c.addi16sp	sp,-112
    40b2:	002027b7          	lui	a5,0x202
    40b6:	d2a6                	c.swsp	s1,100(sp)
    40b8:	d0ca                	c.swsp	s2,96(sp)
    40ba:	a4a2                	c.fsdsp	fs0,72(sp)
    40bc:	a0a6                	c.fsdsp	fs1,64(sp)
    40be:	bc4a                	c.fsdsp	fs2,56(sp)
    40c0:	b84e                	c.fsdsp	fs3,48(sp)
    40c2:	b452                	c.fsdsp	fs4,40(sp)
    40c4:	d686                	c.swsp	ra,108(sp)
    40c6:	d4a2                	c.swsp	s0,104(sp)
    40c8:	cece                	c.swsp	s3,92(sp)
    40ca:	ccd2                	c.swsp	s4,88(sp)
    40cc:	cad6                	c.swsp	s5,84(sp)
    40ce:	05612823          	sw	s6,80(sp)
    40d2:	b056                	c.fsdsp	fs5,32(sp)
    40d4:	ac5a                	c.fsdsp	fs6,24(sp)
    40d6:	a85e                	c.fsdsp	fs7,16(sp)
    40d8:	820fcfab          	swgp	zero,-1988 # 201d14 <Check>
    40dc:	9fcff0ef          	jal	ra,32d8 <dtime>
    40e0:	00200937          	lui	s2,0x200
    40e4:	002002b7          	lui	t0,0x200
    40e8:	0002a987          	flw	fs3,0(t0) # 200000 <__DATA_BASE>
    40ec:	00492487          	flw	fs1,4(s2) # 200004 <__DATA_BASE+0x4>
    40f0:	002004b7          	lui	s1,0x200
    40f4:	20a50953          	fsgnj.s	fs2,fa0,fa0
    40f8:	21398a53          	fsgnj.s	fs4,fs3,fs3
    40fc:	21398453          	fsgnj.s	fs0,fs3,fs3
    4100:	0084a687          	flw	fa3,8(s1) # 200008 <__DATA_BASE+0x8>
    4104:	209480d3          	fsgnj.s	ft1,fs1,fs1
    4108:	00a00713          	addi	a4,zero,10
    410c:	07800093          	addi	ra,zero,120
    4110:	00947753          	fadd.s	fa4,fs0,fs1
    4114:	10f1                	c.addi	ra,-4
    4116:	01477053          	fadd.s	ft0,fa4,fs4
    411a:	09307153          	fsub.s	ft2,ft0,fs3
    411e:	10d171d3          	fmul.s	ft3,ft2,fa3
    4122:	0081f7d3          	fadd.s	fa5,ft3,fs0
    4126:	0947f253          	fsub.s	ft4,fa5,fs4
    412a:	013272d3          	fadd.s	ft5,ft4,fs3
    412e:	10d2f353          	fmul.s	ft6,ft5,fa3
    4132:	0861f653          	fsub.s	fa2,ft3,ft6
    4136:	08337553          	fsub.s	fa0,ft6,ft3
    413a:	003373d3          	fadd.s	ft7,ft6,ft3
    413e:	01467453          	fadd.s	fs0,fa2,fs4
    4142:	013474d3          	fadd.s	fs1,fs0,fs3
    4146:	10d4f853          	fmul.s	fa6,fs1,fa3
    414a:	010575d3          	fadd.s	fa1,fa0,fa6
    414e:	0103f8d3          	fadd.s	fa7,ft7,fa6
    4152:	0135f9d3          	fadd.s	fs3,fa1,fs3
    4156:	10d9fa53          	fmul.s	fs4,fs3,fa3
    415a:	0948fad3          	fsub.s	fs5,fa7,fs4
    415e:	10dafb53          	fmul.s	fs6,fs5,fa3
    4162:	006b7bd3          	fadd.s	fs7,fs6,ft6
    4166:	090bfe53          	fsub.s	ft8,fs7,fa6
    416a:	014e7ed3          	fadd.s	ft9,ft8,fs4
    416e:	10deff53          	fmul.s	ft10,ft9,fa3
    4172:	09eb7fd3          	fsub.s	ft11,fs6,ft10
    4176:	096f7153          	fsub.s	ft2,ft10,fs6
    417a:	016f7753          	fadd.s	fa4,ft10,fs6
    417e:	010ff053          	fadd.s	ft0,ft11,fa6
    4182:	014071d3          	fadd.s	ft3,ft0,fs4
    4186:	10d1f253          	fmul.s	ft4,ft3,fa3
    418a:	004177d3          	fadd.s	fa5,ft2,ft4
    418e:	004772d3          	fadd.s	ft5,fa4,ft4
    4192:	0147f353          	fadd.s	ft6,fa5,fs4
    4196:	10d37553          	fmul.s	fa0,ft6,fa3
    419a:	08a2f653          	fsub.s	fa2,ft5,fa0
    419e:	10d673d3          	fmul.s	ft7,fa2,fa3
    41a2:	01e3f453          	fadd.s	fs0,ft7,ft10
    41a6:	084474d3          	fsub.s	fs1,fs0,ft4
    41aa:	00a4f853          	fadd.s	fa6,fs1,fa0
    41ae:	10d878d3          	fmul.s	fa7,fa6,fa3
    41b2:	0913f5d3          	fsub.s	fa1,ft7,fa7
    41b6:	0878f9d3          	fsub.s	fs3,fa7,ft7
    41ba:	0078fa53          	fadd.s	fs4,fa7,ft7
    41be:	0045fad3          	fadd.s	fs5,fa1,ft4
    41c2:	00aafb53          	fadd.s	fs6,fs5,fa0
    41c6:	10db7bd3          	fmul.s	fs7,fs6,fa3
    41ca:	0179fe53          	fadd.s	ft8,fs3,fs7
    41ce:	017a7ed3          	fadd.s	ft9,fs4,fs7
    41d2:	00ae7f53          	fadd.s	ft10,ft8,fa0
    41d6:	10df7fd3          	fmul.s	ft11,ft10,fa3
    41da:	09fef153          	fsub.s	ft2,ft9,ft11
    41de:	10d174d3          	fmul.s	fs1,ft2,fa3
    41e2:	0114f753          	fadd.s	fa4,fs1,fa7
    41e6:	09777053          	fsub.s	ft0,fa4,fs7
    41ea:	01f071d3          	fadd.s	ft3,ft0,ft11
    41ee:	10d1f453          	fmul.s	fs0,ft3,fa3
    41f2:	0884f253          	fsub.s	ft4,fs1,fs0
    41f6:	089477d3          	fsub.s	fa5,fs0,fs1
    41fa:	017272d3          	fadd.s	ft5,ft4,fs7
    41fe:	01f2f353          	fadd.s	ft6,ft5,ft11
    4202:	10d37a53          	fmul.s	fs4,ft6,fa3
    4206:	0147f553          	fadd.s	fa0,fa5,fs4
    420a:	01f57653          	fadd.s	fa2,fa0,ft11
    420e:	10d679d3          	fmul.s	fs3,fa2,fa3
    4212:	ee009fe3          	bne	ra,zero,4110 <whetstones.constprop.0+0x60>
    4216:	177d                	c.addi	a4,-1
    4218:	08d0f6d3          	fsub.s	fa3,ft1,fa3
    421c:	ee0718e3          	bne	a4,zero,410c <whetstones.constprop.0+0x5c>
    4220:	8b8ff0ef          	jal	ra,32d8 <dtime>
    4224:	09257953          	fsub.s	fs2,fa0,fs2
    4228:	00200a37          	lui	s4,0x200
    422c:	024a2087          	flw	ft1,36(s4) # 200024 <__DATA_BASE+0x24>
    4230:	00200337          	lui	t1,0x200
    4234:	213985d3          	fsgnj.s	fa1,fs3,fs3
    4238:	18197653          	fdiv.s	fa2,fs2,ft1
    423c:	02c32507          	flw	fa0,44(t1) # 20002c <__DATA_BASE+0x2c>
    4240:	b85b940b          	addigp	s0,-9340 # 20005c <refarr>
    4244:	0b040513          	addi	a0,s0,176
    4248:	4605                	c.li	a2,1
    424a:	4585                	c.li	a1,1
    424c:	002009b7          	lui	s3,0x200
    4250:	d79fe0ef          	jal	ra,2fc8 <pout.constprop.0>
    4254:	884ff0ef          	jal	ra,32d8 <dtime>
    4258:	0084a687          	flw	fa3,8(s1)
    425c:	00c9a387          	flw	ft7,12(s3) # 20000c <__DATA_BASE+0xc>
    4260:	20a50ad3          	fsgnj.s	fs5,fa0,fa0
    4264:	00492807          	flw	fa6,4(s2)
    4268:	00a00513          	addi	a0,zero,10
    426c:	00e00393          	addi	t2,zero,14
    4270:	0084f4d3          	fadd.s	fs1,fs1,fs0
    4274:	13fd                	c.addi	t2,-1
    4276:	0144f8d3          	fadd.s	fa7,fs1,fs4
    427a:	0938fb53          	fsub.s	fs6,fa7,fs3
    427e:	40db7443          	fmadd.s	fs0,fs6,fa3,fs0
    4282:	094475d3          	fsub.s	fa1,fs0,fs4
    4286:	0135fbd3          	fadd.s	fs7,fa1,fs3
    428a:	10dbfe53          	fmul.s	ft8,fs7,fa3
    428e:	e0db7ec7          	fmsub.s	ft9,fs6,fa3,ft8
    4292:	e0db7f4b          	fnmsub.s	ft10,fs6,fa3,ft8
    4296:	e0db7fc3          	fmadd.s	ft11,fs6,fa3,ft8
    429a:	014efa53          	fadd.s	fs4,ft9,fs4
    429e:	013a7053          	fadd.s	ft0,fs4,fs3
    42a2:	f0d07143          	fmadd.s	ft2,ft0,fa3,ft10
    42a6:	f8d07743          	fmadd.s	fa4,ft0,fa3,ft11
    42aa:	013179d3          	fadd.s	fs3,ft2,fs3
    42ae:	7079f1cb          	fnmsub.s	ft3,fs3,ft7,fa4
    42b2:	e0d1f243          	fmadd.s	ft4,ft3,fa3,ft8
    42b6:	20d077cb          	fnmsub.s	fa5,ft0,fa3,ft4
    42ba:	7879f2c3          	fmadd.s	ft5,fs3,ft7,fa5
    42be:	10d2f353          	fmul.s	ft6,ft5,fa3
    42c2:	30d1f547          	fmsub.s	fa0,ft3,fa3,ft6
    42c6:	30d1f0cb          	fnmsub.s	ft1,ft3,fa3,ft6
    42ca:	30d1f943          	fmadd.s	fs2,ft3,fa3,ft6
    42ce:	50d07643          	fmadd.s	fa2,ft0,fa3,fa0
    42d2:	6079f4c3          	fmadd.s	fs1,fs3,ft7,fa2
    42d6:	08d4f8c3          	fmadd.s	fa7,fs1,fa3,ft1
    42da:	90d4fb43          	fmadd.s	fs6,fs1,fa3,fs2
    42de:	8879f443          	fmadd.s	fs0,fs3,ft7,fa7
    42e2:	b07475cb          	fnmsub.s	fa1,fs0,ft7,fs6
    42e6:	30d5fbc3          	fmadd.s	fs7,fa1,fa3,ft6
    42ea:	b8d4fe4b          	fnmsub.s	ft8,fs1,fa3,fs7
    42ee:	e0747ec3          	fmadd.s	ft9,fs0,ft7,ft8
    42f2:	10deff53          	fmul.s	ft10,ft9,fa3
    42f6:	f0d5ffc7          	fmsub.s	ft11,fa1,fa3,ft10
    42fa:	f0d5fa4b          	fnmsub.s	fs4,fa1,fa3,ft10
    42fe:	f0d5f043          	fmadd.s	ft0,fa1,fa3,ft10
    4302:	f8d4f143          	fmadd.s	ft2,fs1,fa3,ft11
    4306:	107479c3          	fmadd.s	fs3,fs0,ft7,ft2
    430a:	a0d9f1c3          	fmadd.s	ft3,fs3,fa3,fs4
    430e:	00d9f743          	fmadd.s	fa4,fs3,fa3,ft0
    4312:	18747243          	fmadd.s	ft4,fs0,ft7,ft3
    4316:	707272cb          	fnmsub.s	ft5,ft4,ft7,fa4
    431a:	f0d2f7c3          	fmadd.s	fa5,ft5,fa3,ft10
    431e:	78d9f34b          	fnmsub.s	ft6,fs3,fa3,fa5
    4322:	30727543          	fmadd.s	fa0,ft4,ft7,ft6
    4326:	10d57953          	fmul.s	fs2,fa0,fa3
    432a:	90d2f647          	fmsub.s	fa2,ft5,fa3,fs2
    432e:	90d2f0cb          	fnmsub.s	ft1,ft5,fa3,fs2
    4332:	90d2f4c3          	fmadd.s	fs1,ft5,fa3,fs2
    4336:	60d9f8c3          	fmadd.s	fa7,fs3,fa3,fa2
    433a:	88727b43          	fmadd.s	fs6,ft4,ft7,fa7
    433e:	08db7443          	fmadd.s	fs0,fs6,fa3,ft1
    4342:	48db7bc3          	fmadd.s	fs7,fs6,fa3,fs1
    4346:	407275c3          	fmadd.s	fa1,ft4,ft7,fs0
    434a:	b875fe4b          	fnmsub.s	ft8,fa1,ft7,fs7
    434e:	90de7ec3          	fmadd.s	ft9,ft8,fa3,fs2
    4352:	e8db7f4b          	fnmsub.s	ft10,fs6,fa3,ft9
    4356:	f075ffc3          	fmadd.s	ft11,fa1,ft7,ft10
    435a:	10dffa53          	fmul.s	fs4,ft11,fa3
    435e:	a0de7047          	fmsub.s	ft0,ft8,fa3,fs4
    4362:	a0de714b          	fnmsub.s	ft2,ft8,fa3,fs4
    4366:	a0de79c3          	fmadd.s	fs3,ft8,fa3,fs4
    436a:	00db71c3          	fmadd.s	ft3,fs6,fa3,ft0
    436e:	1875f743          	fmadd.s	fa4,fa1,ft7,ft3
    4372:	10d77243          	fmadd.s	ft4,fa4,fa3,ft2
    4376:	98d772c3          	fmadd.s	ft5,fa4,fa3,fs3
    437a:	2075f343          	fmadd.s	ft6,fa1,ft7,ft4
    437e:	287377cb          	fnmsub.s	fa5,ft6,ft7,ft5
    4382:	10d7f4d3          	fmul.s	fs1,fa5,fa3
    4386:	009a7553          	fadd.s	fa0,fs4,fs1
    438a:	50d7794b          	fnmsub.s	fs2,fa4,fa3,fa0
    438e:	90737643          	fmadd.s	fa2,ft6,ft7,fs2
    4392:	10d67453          	fmul.s	fs0,fa2,fa3
    4396:	0884f0d3          	fsub.s	ft1,fs1,fs0
    439a:	089478d3          	fsub.s	fa7,fs0,fs1
    439e:	08d77b43          	fmadd.s	fs6,fa4,fa3,ft1
    43a2:	b0737bc3          	fmadd.s	fs7,ft6,ft7,fs6
    43a6:	10dbfa53          	fmul.s	fs4,fs7,fa3
    43aa:	0148f5d3          	fadd.s	fa1,fa7,fs4
    43ae:	58737e43          	fmadd.s	ft8,ft6,ft7,fa1
    43b2:	107e79d3          	fmul.s	fs3,ft8,ft7
    43b6:	ea039de3          	bne	t2,zero,4270 <whetstones.constprop.0+0x1c0>
    43ba:	157d                	c.addi	a0,-1
    43bc:	08d876d3          	fsub.s	fa3,fa6,fa3
    43c0:	ea0516e3          	bne	a0,zero,426c <whetstones.constprop.0+0x1bc>
    43c4:	f15fe0ef          	jal	ra,32d8 <dtime>
    43c8:	09557653          	fsub.s	fa2,fa0,fs5
    43cc:	002005b7          	lui	a1,0x200
    43d0:	0305a507          	flw	fa0,48(a1) # 200030 <__DATA_BASE+0x30>
    43d4:	213985d3          	fsgnj.s	fa1,fs3,fs3
    43d8:	4609                	c.li	a2,2
    43da:	4585                	c.li	a1,1
    43dc:	09c40513          	addi	a0,s0,156
    43e0:	be9fe0ef          	jal	ra,2fc8 <pout.constprop.0>
    43e4:	ef5fe0ef          	jal	ra,32d8 <dtime>
    43e8:	20a50ad3          	fsgnj.s	fs5,fa0,fa0
    43ec:	4629                	c.li	a2,10
    43ee:	4a85                	c.li	s5,1
    43f0:	15800b13          	addi	s6,zero,344
    43f4:	15900f13          	addi	t5,zero,345
    43f8:	001a8693          	addi	a3,s5,1
    43fc:	40df0833          	sub	a6,t5,a3
    4400:	415b08b3          	sub	a7,s6,s5
    4404:	ffe80e13          	addi	t3,a6,-2
    4408:	ffe8fe93          	andi	t4,a7,-2
    440c:	0c1e2fdb          	bfoz	t6,t3,3,1
    4410:	00de87b3          	add	a5,t4,a3
    4414:	040f8863          	beq	t6,zero,4464 <whetstones.constprop.0+0x3b4>
    4418:	003a8693          	addi	a3,s5,3
    441c:	08d78663          	beq	a5,a3,44a8 <whetstones.constprop.0+0x3f8>
    4420:	041fd25b          	beqc	t6,1,4464 <whetstones.constprop.0+0x3b4>
    4424:	022fdc5b          	beqc	t6,2,445c <whetstones.constprop.0+0x3ac>
    4428:	023fd65b          	beqc	t6,3,4454 <whetstones.constprop.0+0x3a4>
    442c:	024fd05b          	beqc	t6,4,444c <whetstones.constprop.0+0x39c>
    4430:	005fda5b          	beqc	t6,5,4444 <whetstones.constprop.0+0x394>
    4434:	006fd45b          	beqc	t6,6,443c <whetstones.constprop.0+0x38c>
    4438:	6480006f          	jal	zero,4a80 <whetstones.constprop.0+0x9d0>
    443c:	00268693          	addi	a3,a3,2
    4440:	06d78463          	beq	a5,a3,44a8 <whetstones.constprop.0+0x3f8>
    4444:	00268693          	addi	a3,a3,2
    4448:	06d78063          	beq	a5,a3,44a8 <whetstones.constprop.0+0x3f8>
    444c:	00268693          	addi	a3,a3,2
    4450:	04d78c63          	beq	a5,a3,44a8 <whetstones.constprop.0+0x3f8>
    4454:	00268693          	addi	a3,a3,2
    4458:	04d78863          	beq	a5,a3,44a8 <whetstones.constprop.0+0x3f8>
    445c:	00268693          	addi	a3,a3,2
    4460:	04d78463          	beq	a5,a3,44a8 <whetstones.constprop.0+0x3f8>
    4464:	00268a93          	addi	s5,a3,2
    4468:	00468293          	addi	t0,a3,4
    446c:	00668093          	addi	ra,a3,6
    4470:	00868313          	addi	t1,a3,8
    4474:	61ea8c63          	beq	s5,t5,4a8c <whetstones.constprop.0+0x9dc>
    4478:	00a68393          	addi	t2,a3,10
    447c:	03578663          	beq	a5,s5,44a8 <whetstones.constprop.0+0x3f8>
    4480:	00c68513          	addi	a0,a3,12
    4484:	02578263          	beq	a5,t0,44a8 <whetstones.constprop.0+0x3f8>
    4488:	00e68713          	addi	a4,a3,14
    448c:	00178e63          	beq	a5,ra,44a8 <whetstones.constprop.0+0x3f8>
    4490:	01068693          	addi	a3,a3,16
    4494:	00678a63          	beq	a5,t1,44a8 <whetstones.constprop.0+0x3f8>
    4498:	00778863          	beq	a5,t2,44a8 <whetstones.constprop.0+0x3f8>
    449c:	00a78663          	beq	a5,a0,44a8 <whetstones.constprop.0+0x3f8>
    44a0:	00e78463          	beq	a5,a4,44a8 <whetstones.constprop.0+0x3f8>
    44a4:	fcd790e3          	bne	a5,a3,4464 <whetstones.constprop.0+0x3b4>
    44a8:	00000a93          	addi	s5,zero,0
    44ac:	167d                	c.addi	a2,-1
    44ae:	f629                	c.bnez	a2,43f8 <whetstones.constprop.0+0x348>
    44b0:	e29fe0ef          	jal	ra,32d8 <dtime>
    44b4:	20a503d3          	fsgnj.s	ft7,fa0,fa0
    44b8:	d00af5d3          	fcvt.s.w	fa1,s5
    44bc:	002005b7          	lui	a1,0x200
    44c0:	0345a507          	flw	fa0,52(a1) # 200034 <__DATA_BASE+0x34>
    44c4:	0953f653          	fsub.s	fa2,ft7,fs5
    44c8:	460d                	c.li	a2,3
    44ca:	4589                	c.li	a1,2
    44cc:	08840513          	addi	a0,s0,136
    44d0:	00200ab7          	lui	s5,0x200
    44d4:	af5fe0ef          	jal	ra,2fc8 <pout.constprop.0>
    44d8:	e01fe0ef          	jal	ra,32d8 <dtime>
    44dc:	00200b37          	lui	s6,0x200
    44e0:	00492487          	flw	fs1,4(s2)
    44e4:	f0000a53          	fmv.w.x	fs4,zero
    44e8:	00200937          	lui	s2,0x200
    44ec:	20a50b53          	fsgnj.s	fs6,fa0,fa0
    44f0:	014aa807          	flw	fa6,20(s5) # 200014 <__DATA_BASE+0x14>
    44f4:	010b2e87          	flw	ft9,16(s6) # 200010 <__DATA_BASE+0x10>
    44f8:	01c92f07          	flw	ft10,28(s2) # 20001c <__DATA_BASE+0x1c>
    44fc:	214a09d3          	fsgnj.s	fs3,fs4,fs4
    4500:	00a00813          	addi	a6,zero,10
    4504:	0d200f13          	addi	t5,zero,210
    4508:	009a7fd3          	fadd.s	ft11,fs4,fs1
    450c:	1f59                	c.addi	t5,-10
    450e:	01e9f053          	fadd.s	ft0,fs3,ft10
    4512:	010ff153          	fadd.s	ft2,ft11,fa6
    4516:	01e071d3          	fadd.s	ft3,ft0,ft10
    451a:	01d17753          	fadd.s	fa4,ft2,ft9
    451e:	01e1f253          	fadd.s	ft4,ft3,ft10
    4522:	009772d3          	fadd.s	ft5,fa4,fs1
    4526:	01e27353          	fadd.s	ft6,ft4,ft10
    452a:	0102f553          	fadd.s	fa0,ft5,fa6
    452e:	01e377d3          	fadd.s	fa5,ft6,ft10
    4532:	01d57953          	fadd.s	fs2,fa0,ft9
    4536:	01e7f653          	fadd.s	fa2,fa5,ft10
    453a:	00997453          	fadd.s	fs0,fs2,fs1
    453e:	01e670d3          	fadd.s	ft1,fa2,ft10
    4542:	010478d3          	fadd.s	fa7,fs0,fa6
    4546:	01e0fbd3          	fadd.s	fs7,ft1,ft10
    454a:	01d8fa53          	fadd.s	fs4,fa7,ft9
    454e:	01ebf5d3          	fadd.s	fa1,fs7,ft10
    4552:	009a7e53          	fadd.s	ft8,fs4,fs1
    4556:	01e5f9d3          	fadd.s	fs3,fa1,ft10
    455a:	010e76d3          	fadd.s	fa3,ft8,fa6
    455e:	01d6fad3          	fadd.s	fs5,fa3,ft9
    4562:	009af3d3          	fadd.s	ft7,fs5,fs1
    4566:	0103ffd3          	fadd.s	ft11,ft7,fa6
    456a:	01dff053          	fadd.s	ft0,ft11,ft9
    456e:	00907153          	fadd.s	ft2,ft0,fs1
    4572:	010171d3          	fadd.s	ft3,ft2,fa6
    4576:	01d1f753          	fadd.s	fa4,ft3,ft9
    457a:	00977253          	fadd.s	ft4,fa4,fs1
    457e:	010272d3          	fadd.s	ft5,ft4,fa6
    4582:	01d2f353          	fadd.s	ft6,ft5,ft9
    4586:	00937553          	fadd.s	fa0,ft6,fs1
    458a:	010577d3          	fadd.s	fa5,fa0,fa6
    458e:	01d7f953          	fadd.s	fs2,fa5,ft9
    4592:	00997653          	fadd.s	fa2,fs2,fs1
    4596:	01067453          	fadd.s	fs0,fa2,fa6
    459a:	01d470d3          	fadd.s	ft1,fs0,ft9
    459e:	0090f8d3          	fadd.s	fa7,ft1,fs1
    45a2:	0108fbd3          	fadd.s	fs7,fa7,fa6
    45a6:	01dbfa53          	fadd.s	fs4,fs7,ft9
    45aa:	f40f1fe3          	bne	t5,zero,4508 <whetstones.constprop.0+0x458>
    45ae:	187d                	c.addi	a6,-1
    45b0:	f4081ae3          	bne	a6,zero,4504 <whetstones.constprop.0+0x454>
    45b4:	d25fe0ef          	jal	ra,32d8 <dtime>
    45b8:	013a7853          	fadd.s	fa6,fs4,fs3
    45bc:	002008b7          	lui	a7,0x200
    45c0:	0388af07          	flw	ft10,56(a7) # 200038 <__DATA_BASE+0x38>
    45c4:	09657653          	fsub.s	fa2,fa0,fs6
    45c8:	024a2e87          	flw	ft9,36(s4)
    45cc:	19e87b53          	fdiv.s	fs6,fa6,ft10
    45d0:	00200e37          	lui	t3,0x200
    45d4:	03ce2507          	flw	fa0,60(t3) # 20003c <__DATA_BASE+0x3c>
    45d8:	4611                	c.li	a2,4
    45da:	4589                	c.li	a1,2
    45dc:	07440513          	addi	a0,s0,116
    45e0:	20948453          	fsgnj.s	fs0,fs1,fs1
    45e4:	00a00913          	addi	s2,zero,10
    45e8:	19db75d3          	fdiv.s	fa1,fs6,ft9
    45ec:	9ddfe0ef          	jal	ra,2fc8 <pout.constprop.0>
    45f0:	ce9fe0ef          	jal	ra,32d8 <dtime>
    45f4:	00200eb7          	lui	t4,0x200
    45f8:	20a50b53          	fsgnj.s	fs6,fa0,fa0
    45fc:	0084aa87          	flw	fs5,8(s1)
    4600:	028ea507          	flw	fa0,40(t4) # 200028 <__DATA_BASE+0x28>
    4604:	109af4d3          	fmul.s	fs1,fs5,fs1
    4608:	01e00a13          	addi	s4,zero,30
    460c:	10aaf953          	fmul.s	fs2,fs5,fa0
    4610:	21290553          	fsgnj.s	fa0,fs2,fs2
    4614:	002c                	c.addi4spn	a1,sp,8
    4616:	0068                	c.addi4spn	a0,sp,12
    4618:	0c0010ef          	jal	ra,56d8 <sincosf>
    461c:	00997553          	fadd.s	fa0,fs2,fs1
    4620:	6ba2                	c.flwsp	fs7,8(sp)
    4622:	6a32                	c.flwsp	fs4,12(sp)
    4624:	fffa0a13          	addi	s4,s4,-1
    4628:	169000ef          	jal	ra,4f90 <cosf>
    462c:	20a509d3          	fsgnj.s	fs3,fa0,fa0
    4630:	0924f553          	fsub.s	fa0,fs1,fs2
    4634:	15d000ef          	jal	ra,4f90 <cosf>
    4638:	20a505d3          	fsgnj.s	fa1,fa0,fa0
    463c:	20948553          	fsgnj.s	fa0,fs1,fs1
    4640:	002c                	c.addi4spn	a1,sp,8
    4642:	0068                	c.addi4spn	a0,sp,12
    4644:	20b584d3          	fsgnj.s	fs1,fa1,fa1
    4648:	090010ef          	jal	ra,56d8 <sincosf>
    464c:	6e32                	c.flwsp	ft8,12(sp)
    464e:	0099f6d3          	fadd.s	fa3,fs3,fs1
    4652:	6022                	c.flwsp	ft0,8(sp)
    4654:	01ce73d3          	fadd.s	ft7,ft8,ft8
    4658:	0886ffd3          	fsub.s	ft11,fa3,fs0
    465c:	1003f153          	fmul.s	ft2,ft7,ft0
    4660:	19f17553          	fdiv.s	fa0,ft2,ft11
    4664:	3d9000ef          	jal	ra,523c <atanf>
    4668:	10aaf4d3          	fmul.s	fs1,fs5,fa0
    466c:	00997553          	fadd.s	fa0,fs2,fs1
    4670:	121000ef          	jal	ra,4f90 <cosf>
    4674:	20a501d3          	fsgnj.s	ft3,fa0,fa0
    4678:	0924f553          	fsub.s	fa0,fs1,fs2
    467c:	20318953          	fsgnj.s	fs2,ft3,ft3
    4680:	111000ef          	jal	ra,4f90 <cosf>
    4684:	014a7753          	fadd.s	fa4,fs4,fs4
    4688:	00a97253          	fadd.s	ft4,fs2,fa0
    468c:	117772d3          	fmul.s	ft5,fa4,fs7
    4690:	08827353          	fsub.s	ft6,ft4,fs0
    4694:	1862f553          	fdiv.s	fa0,ft5,ft6
    4698:	3a5000ef          	jal	ra,523c <atanf>
    469c:	10aaf953          	fmul.s	fs2,fs5,fa0
    46a0:	f60a18e3          	bne	s4,zero,4610 <whetstones.constprop.0+0x560>
    46a4:	197d                	c.addi	s2,-1
    46a6:	09547ad3          	fsub.s	fs5,fs0,fs5
    46aa:	08090963          	beq	s2,zero,473c <whetstones.constprop.0+0x68c>
    46ae:	21290553          	fsgnj.s	fa0,fs2,fs2
    46b2:	002c                	c.addi4spn	a1,sp,8
    46b4:	00c10513          	addi	a0,sp,12
    46b8:	020010ef          	jal	ra,56d8 <sincosf>
    46bc:	20948553          	fsgnj.s	fa0,fs1,fs1
    46c0:	002c                	c.addi4spn	a1,sp,8
    46c2:	0068                	c.addi4spn	a0,sp,12
    46c4:	6ba2                	c.flwsp	fs7,8(sp)
    46c6:	69b2                	c.flwsp	fs3,12(sp)
    46c8:	010010ef          	jal	ra,56d8 <sincosf>
    46cc:	00997553          	fadd.s	fa0,fs2,fs1
    46d0:	6a32                	c.flwsp	fs4,12(sp)
    46d2:	0bf000ef          	jal	ra,4f90 <cosf>
    46d6:	0001                	c.addi	zero,0
    46d8:	20a503d3          	fsgnj.s	ft7,fa0,fa0
    46dc:	0924f553          	fsub.s	fa0,fs1,fs2
    46e0:	207384d3          	fsgnj.s	fs1,ft7,ft7
    46e4:	0ad000ef          	jal	ra,4f90 <cosf>
    46e8:	014a7fd3          	fadd.s	ft11,fs4,fs4
    46ec:	6122                	c.flwsp	ft2,8(sp)
    46ee:	00a4f053          	fadd.s	ft0,fs1,fa0
    46f2:	102ff1d3          	fmul.s	ft3,ft11,ft2
    46f6:	08807253          	fsub.s	ft4,ft0,fs0
    46fa:	1841f553          	fdiv.s	fa0,ft3,ft4
    46fe:	33f000ef          	jal	ra,523c <atanf>
    4702:	0001                	c.addi	zero,0
    4704:	0139f2d3          	fadd.s	ft5,fs3,fs3
    4708:	20a504d3          	fsgnj.s	fs1,fa0,fa0
    470c:	90aaf543          	fmadd.s	fa0,fs5,fa0,fs2
    4710:	1172fbd3          	fmul.s	fs7,ft5,fs7
    4714:	07d000ef          	jal	ra,4f90 <cosf>
    4718:	20a50353          	fsgnj.s	ft6,fa0,fa0
    471c:	909af547          	fmsub.s	fa0,fs5,fs1,fs2
    4720:	20630953          	fsgnj.s	fs2,ft6,ft6
    4724:	06d000ef          	jal	ra,4f90 <cosf>
    4728:	00a97553          	fadd.s	fa0,fs2,fa0
    472c:	088570d3          	fsub.s	ft1,fa0,fs0
    4730:	181bf553          	fdiv.s	fa0,fs7,ft1
    4734:	309000ef          	jal	ra,523c <atanf>
    4738:	ecdff06f          	jal	zero,4604 <whetstones.constprop.0+0x554>
    473c:	b9dfe0ef          	jal	ra,32d8 <dtime>
    4740:	09657653          	fsub.s	fa2,fa0,fs6
    4744:	00200fb7          	lui	t6,0x200
    4748:	212905d3          	fsgnj.s	fa1,fs2,fs2
    474c:	040fa507          	flw	fa0,64(t6) # 200040 <__DATA_BASE+0x40>
    4750:	4615                	c.li	a2,5
    4752:	4589                	c.li	a1,2
    4754:	06040513          	addi	a0,s0,96
    4758:	871fe0ef          	jal	ra,2fc8 <pout.constprop.0>
    475c:	b7dfe0ef          	jal	ra,32d8 <dtime>
    4760:	00200a37          	lui	s4,0x200
    4764:	20a504d3          	fsgnj.s	fs1,fa0,fa0
    4768:	20840e53          	fsgnj.s	ft8,fs0,fs0
    476c:	0084a687          	flw	fa3,8(s1)
    4770:	020a2607          	flw	fa2,32(s4) # 200020 <__DATA_BASE+0x20>
    4774:	00c9a587          	flw	fa1,12(s3)
    4778:	00a00293          	addi	t0,zero,10
    477c:	008e7553          	fadd.s	fa0,ft8,fs0
    4780:	38000793          	addi	a5,zero,896
    4784:	40d577c3          	fmadd.s	fa5,fa0,fa3,fs0
    4788:	10c7f453          	fmul.s	fs0,fa5,fa2
    478c:	40d570c3          	fmadd.s	ft1,fa0,fa3,fs0
    4790:	10b0f8d3          	fmul.s	fa7,ft1,fa1
    4794:	01147853          	fadd.s	fa6,fs0,fa7
    4798:	88d87ec3          	fmadd.s	ft9,fa6,fa3,fa7
    479c:	10ceff53          	fmul.s	ft10,ft9,fa2
    47a0:	f0d87b43          	fmadd.s	fs6,fa6,fa3,ft10
    47a4:	10bb7bd3          	fmul.s	fs7,fs6,fa1
    47a8:	017f7a53          	fadd.s	fs4,ft10,fs7
    47ac:	b8da79c3          	fmadd.s	fs3,fs4,fa3,fs7
    47b0:	10c9fe53          	fmul.s	ft8,fs3,fa2
    47b4:	e0da73c3          	fmadd.s	ft7,fs4,fa3,ft8
    47b8:	10b3f453          	fmul.s	fs0,ft7,fa1
    47bc:	17e1                	c.addi	a5,-8
    47be:	008e7fd3          	fadd.s	ft11,ft8,fs0
    47c2:	40dff043          	fmadd.s	ft0,ft11,fa3,fs0
    47c6:	10c07153          	fmul.s	ft2,ft0,fa2
    47ca:	10dff1c3          	fmadd.s	ft3,ft11,fa3,ft2
    47ce:	10b1f953          	fmul.s	fs2,ft3,fa1
    47d2:	01217753          	fadd.s	fa4,ft2,fs2
    47d6:	90d77243          	fmadd.s	ft4,fa4,fa3,fs2
    47da:	10c272d3          	fmul.s	ft5,ft4,fa2
    47de:	28d77343          	fmadd.s	ft6,fa4,fa3,ft5
    47e2:	10b37ad3          	fmul.s	fs5,ft6,fa1
    47e6:	0152f553          	fadd.s	fa0,ft5,fs5
    47ea:	a8d577c3          	fmadd.s	fa5,fa0,fa3,fs5
    47ee:	10c7f0d3          	fmul.s	ft1,fa5,fa2
    47f2:	08d578c3          	fmadd.s	fa7,fa0,fa3,ft1
    47f6:	10b8f853          	fmul.s	fa6,fa7,fa1
    47fa:	0100fed3          	fadd.s	ft9,ft1,fa6
    47fe:	80deff43          	fmadd.s	ft10,ft9,fa3,fa6
    4802:	10cf7b53          	fmul.s	fs6,ft10,fa2
    4806:	b0defbc3          	fmadd.s	fs7,ft9,fa3,fs6
    480a:	10bbfa53          	fmul.s	fs4,fs7,fa1
    480e:	014b79d3          	fadd.s	fs3,fs6,fs4
    4812:	a0d9fe43          	fmadd.s	ft8,fs3,fa3,fs4
    4816:	10ce73d3          	fmul.s	ft7,ft8,fa2
    481a:	38d9f443          	fmadd.s	fs0,fs3,fa3,ft7
    481e:	10b47fd3          	fmul.s	ft11,fs0,fa1
    4822:	01f3f053          	fadd.s	ft0,ft7,ft11
    4826:	f8d07143          	fmadd.s	ft2,ft0,fa3,ft11
    482a:	10c171d3          	fmul.s	ft3,ft2,fa2
    482e:	18d07943          	fmadd.s	fs2,ft0,fa3,ft3
    4832:	10b97753          	fmul.s	fa4,fs2,fa1
    4836:	00e1f253          	fadd.s	ft4,ft3,fa4
    483a:	70d272c3          	fmadd.s	ft5,ft4,fa3,fa4
    483e:	10c2f353          	fmul.s	ft6,ft5,fa2
    4842:	30d27ac3          	fmadd.s	fs5,ft4,fa3,ft6
    4846:	10baf553          	fmul.s	fa0,fs5,fa1
    484a:	00a370d3          	fadd.s	ft1,ft6,fa0
    484e:	50d0f7c3          	fmadd.s	fa5,ft1,fa3,fa0
    4852:	10c7fe53          	fmul.s	ft8,fa5,fa2
    4856:	e0d0f8c3          	fmadd.s	fa7,ft1,fa3,ft8
    485a:	10b8f453          	fmul.s	fs0,fa7,fa1
    485e:	ffb9                	c.bnez	a5,47bc <whetstones.constprop.0+0x70c>
    4860:	fff28293          	addi	t0,t0,-1
    4864:	f0029ce3          	bne	t0,zero,477c <whetstones.constprop.0+0x6cc>
    4868:	a71fe0ef          	jal	ra,32d8 <dtime>
    486c:	08957653          	fsub.s	fa2,fa0,fs1
    4870:	00200337          	lui	t1,0x200
    4874:	208405d3          	fsgnj.s	fa1,fs0,fs0
    4878:	04432507          	flw	fa0,68(t1) # 200044 <__DATA_BASE+0x44>
    487c:	4619                	c.li	a2,6
    487e:	4585                	c.li	a1,1
    4880:	04c40513          	addi	a0,s0,76
    4884:	f44fe0ef          	jal	ra,2fc8 <pout.constprop.0>
    4888:	a51fe0ef          	jal	ra,32d8 <dtime>
    488c:	014aa707          	flw	fa4,20(s5)
    4890:	010b2b07          	flw	fs6,16(s6)
    4894:	20a50ad3          	fsgnj.s	fs5,fa0,fa0
    4898:	00a00393          	addi	t2,zero,10
    489c:	26500093          	addi	ra,zero,613
    48a0:	0100006f          	jal	zero,48b0 <whetstones.constprop.0+0x800>
    48a4:	20e70b53          	fsgnj.s	fs6,fa4,fa4
    48a8:	20b58753          	fsgnj.s	fa4,fa1,fa1
    48ac:	ff708093          	addi	ra,ra,-9
    48b0:	216b05d3          	fsgnj.s	fa1,fs6,fs6
    48b4:	be10e85b          	bnec	ra,1,48a4 <whetstones.constprop.0+0x7f4>
    48b8:	fff38393          	addi	t2,t2,-1
    48bc:	fe0390e3          	bne	t2,zero,489c <whetstones.constprop.0+0x7ec>
    48c0:	a19fe0ef          	jal	ra,32d8 <dtime>
    48c4:	09557653          	fsub.s	fa2,fa0,fs5
    48c8:	00200537          	lui	a0,0x200
    48cc:	04852507          	flw	fa0,72(a0) # 200048 <__DATA_BASE+0x48>
    48d0:	216b05d3          	fsgnj.s	fa1,fs6,fs6
    48d4:	461d                	c.li	a2,7
    48d6:	4589                	c.li	a1,2
    48d8:	03840513          	addi	a0,s0,56
    48dc:	eecfe0ef          	jal	ra,2fc8 <pout.constprop.0>
    48e0:	9f9fe0ef          	jal	ra,32d8 <dtime>
    48e4:	00200737          	lui	a4,0x200
    48e8:	01872407          	flw	fs0,24(a4) # 200018 <__DATA_BASE+0x18>
    48ec:	20a509d3          	fsgnj.s	fs3,fa0,fa0
    48f0:	020a2907          	flw	fs2,32(s4)
    48f4:	00a00493          	addi	s1,zero,10
    48f8:	f00004d3          	fmv.w.x	fs1,zero
    48fc:	20840553          	fsgnj.s	fa0,fs0,fs0
    4900:	479000ef          	jal	ra,5578 <logf>
    4904:	19257553          	fdiv.s	fa0,fa0,fs2
    4908:	2e9000ef          	jal	ra,53f0 <expf>
    490c:	001026f3          	frflags	a3
    4910:	a0951653          	flt.s	a2,fa0,fs1
    4914:	00169073          	fsflags	a3
    4918:	1c061063          	bne	a2,zero,4ad8 <whetstones.constprop.0+0xa28>
    491c:	58057553          	fsqrt.s	fa0,fa0
    4920:	459000ef          	jal	ra,5578 <logf>
    4924:	19257553          	fdiv.s	fa0,fa0,fs2
    4928:	2c9000ef          	jal	ra,53f0 <expf>
    492c:	00102673          	frflags	a2
    4930:	a09516d3          	flt.s	a3,fa0,fs1
    4934:	00161073          	fsflags	a2
    4938:	18069a63          	bne	a3,zero,4acc <whetstones.constprop.0+0xa1c>
    493c:	58057453          	fsqrt.s	fs0,fa0
    4940:	05b00913          	addi	s2,zero,91
    4944:	20840553          	fsgnj.s	fa0,fs0,fs0
    4948:	431000ef          	jal	ra,5578 <logf>
    494c:	19257553          	fdiv.s	fa0,fa0,fs2
    4950:	2a1000ef          	jal	ra,53f0 <expf>
    4954:	00102673          	frflags	a2
    4958:	a09515d3          	flt.s	a1,fa0,fs1
    495c:	00161073          	fsflags	a2
    4960:	16059263          	bne	a1,zero,4ac4 <whetstones.constprop.0+0xa14>
    4964:	58057553          	fsqrt.s	fa0,fa0
    4968:	411000ef          	jal	ra,5578 <logf>
    496c:	fff90a13          	addi	s4,s2,-1
    4970:	19257553          	fdiv.s	fa0,fa0,fs2
    4974:	27d000ef          	jal	ra,53f0 <expf>
    4978:	00102673          	frflags	a2
    497c:	a0951f53          	flt.s	t5,fa0,fs1
    4980:	00161073          	fsflags	a2
    4984:	120f1c63          	bne	t5,zero,4abc <whetstones.constprop.0+0xa0c>
    4988:	58057553          	fsqrt.s	fa0,fa0
    498c:	3ed000ef          	jal	ra,5578 <logf>
    4990:	19257553          	fdiv.s	fa0,fa0,fs2
    4994:	25d000ef          	jal	ra,53f0 <expf>
    4998:	00102673          	frflags	a2
    499c:	a0951853          	flt.s	a6,fa0,fs1
    49a0:	00161073          	fsflags	a2
    49a4:	10081863          	bne	a6,zero,4ab4 <whetstones.constprop.0+0xa04>
    49a8:	58057553          	fsqrt.s	fa0,fa0
    49ac:	3cd000ef          	jal	ra,5578 <logf>
    49b0:	19257553          	fdiv.s	fa0,fa0,fs2
    49b4:	23d000ef          	jal	ra,53f0 <expf>
    49b8:	001026f3          	frflags	a3
    49bc:	a09518d3          	flt.s	a7,fa0,fs1
    49c0:	00169073          	fsflags	a3
    49c4:	0e089463          	bne	a7,zero,4aac <whetstones.constprop.0+0x9fc>
    49c8:	58057553          	fsqrt.s	fa0,fa0
    49cc:	3ad000ef          	jal	ra,5578 <logf>
    49d0:	19257553          	fdiv.s	fa0,fa0,fs2
    49d4:	21d000ef          	jal	ra,53f0 <expf>
    49d8:	00102673          	frflags	a2
    49dc:	a0951e53          	flt.s	t3,fa0,fs1
    49e0:	00161073          	fsflags	a2
    49e4:	0c0e1063          	bne	t3,zero,4aa4 <whetstones.constprop.0+0x9f4>
    49e8:	58057553          	fsqrt.s	fa0,fa0
    49ec:	38d000ef          	jal	ra,5578 <logf>
    49f0:	19257553          	fdiv.s	fa0,fa0,fs2
    49f4:	1fd000ef          	jal	ra,53f0 <expf>
    49f8:	001026f3          	frflags	a3
    49fc:	a0951ed3          	flt.s	t4,fa0,fs1
    4a00:	00169073          	fsflags	a3
    4a04:	080e9c63          	bne	t4,zero,4a9c <whetstones.constprop.0+0x9ec>
    4a08:	58057553          	fsqrt.s	fa0,fa0
    4a0c:	36d000ef          	jal	ra,5578 <logf>
    4a10:	19257553          	fdiv.s	fa0,fa0,fs2
    4a14:	1dd000ef          	jal	ra,53f0 <expf>
    4a18:	00102673          	frflags	a2
    4a1c:	a09519d3          	flt.s	s3,fa0,fs1
    4a20:	00161073          	fsflags	a2
    4a24:	06099663          	bne	s3,zero,4a90 <whetstones.constprop.0+0x9e0>
    4a28:	58057453          	fsqrt.s	fs0,fa0
    4a2c:	ffaa0913          	addi	s2,s4,-6
    4a30:	f0091ae3          	bne	s2,zero,4944 <whetstones.constprop.0+0x894>
    4a34:	fff48493          	addi	s1,s1,-1
    4a38:	ec0492e3          	bne	s1,zero,48fc <whetstones.constprop.0+0x84c>
    4a3c:	89dfe0ef          	jal	ra,32d8 <dtime>
    4a40:	00200fb7          	lui	t6,0x200
    4a44:	2486                	c.fldsp	fs1,64(sp)
    4a46:	3962                	c.fldsp	fs2,56(sp)
    4a48:	3a22                	c.fldsp	fs4,40(sp)
    4a4a:	3a82                	c.fldsp	fs5,32(sp)
    4a4c:	2b62                	c.fldsp	fs6,24(sp)
    4a4e:	2bc2                	c.fldsp	fs7,16(sp)
    4a50:	208405d3          	fsgnj.s	fa1,fs0,fs0
    4a54:	02440513          	addi	a0,s0,36
    4a58:	2426                	c.fldsp	fs0,72(sp)
    4a5a:	5426                	c.lwsp	s0,104(sp)
    4a5c:	50b6                	c.lwsp	ra,108(sp)
    4a5e:	5496                	c.lwsp	s1,100(sp)
    4a60:	5906                	c.lwsp	s2,96(sp)
    4a62:	49f6                	c.lwsp	s3,92(sp)
    4a64:	4a66                	c.lwsp	s4,88(sp)
    4a66:	4ad6                	c.lwsp	s5,84(sp)
    4a68:	4b46                	c.lwsp	s6,80(sp)
    4a6a:	4621                	c.li	a2,8
    4a6c:	4589                	c.li	a1,2
    4a6e:	09357653          	fsub.s	fa2,fa0,fs3
    4a72:	39c2                	c.fldsp	fs3,48(sp)
    4a74:	04cfa507          	flw	fa0,76(t6) # 20004c <__DATA_BASE+0x4c>
    4a78:	07010113          	addi	sp,sp,112
    4a7c:	d4cfe06f          	jal	zero,2fc8 <pout.constprop.0>
    4a80:	005a8693          	addi	a3,s5,5
    4a84:	9ad79ce3          	bne	a5,a3,443c <whetstones.constprop.0+0x38c>
    4a88:	a21ff06f          	jal	zero,44a8 <whetstones.constprop.0+0x3f8>
    4a8c:	4a85                	c.li	s5,1
    4a8e:	bc39                	c.j	44ac <whetstones.constprop.0+0x3fc>
    4a90:	719000ef          	jal	ra,59a8 <sqrtf>
    4a94:	20a50453          	fsgnj.s	fs0,fa0,fa0
    4a98:	f95ff06f          	jal	zero,4a2c <whetstones.constprop.0+0x97c>
    4a9c:	70d000ef          	jal	ra,59a8 <sqrtf>
    4aa0:	f6dff06f          	jal	zero,4a0c <whetstones.constprop.0+0x95c>
    4aa4:	705000ef          	jal	ra,59a8 <sqrtf>
    4aa8:	f45ff06f          	jal	zero,49ec <whetstones.constprop.0+0x93c>
    4aac:	6fd000ef          	jal	ra,59a8 <sqrtf>
    4ab0:	f1dff06f          	jal	zero,49cc <whetstones.constprop.0+0x91c>
    4ab4:	6f5000ef          	jal	ra,59a8 <sqrtf>
    4ab8:	ef5ff06f          	jal	zero,49ac <whetstones.constprop.0+0x8fc>
    4abc:	6ed000ef          	jal	ra,59a8 <sqrtf>
    4ac0:	ecdff06f          	jal	zero,498c <whetstones.constprop.0+0x8dc>
    4ac4:	6e5000ef          	jal	ra,59a8 <sqrtf>
    4ac8:	ea1ff06f          	jal	zero,4968 <whetstones.constprop.0+0x8b8>
    4acc:	6dd000ef          	jal	ra,59a8 <sqrtf>
    4ad0:	20a50453          	fsgnj.s	fs0,fa0,fa0
    4ad4:	e6dff06f          	jal	zero,4940 <whetstones.constprop.0+0x890>
    4ad8:	6d1000ef          	jal	ra,59a8 <sqrtf>
    4adc:	e45ff06f          	jal	zero,4920 <whetstones.constprop.0+0x870>

00004ae0 <init_cycle>:
    4ae0:	8082                	c.jr	ra
    4ae2:	0001                	c.addi	zero,0

00004ae4 <main>:
    4ae4:	cd010113          	addi	sp,sp,-816
    4ae8:	32000613          	addi	a2,zero,800
    4aec:	4581                	c.li	a1,0
    4aee:	850a                	c.mv	a0,sp
    4af0:	32112623          	sw	ra,812(sp)
    4af4:	32812423          	sw	s0,808(sp)
    4af8:	1f8010ef          	jal	ra,5cf0 <memset>
    4afc:	02000793          	addi	a5,zero,32
    4b00:	04c00613          	addi	a2,zero,76
    4b04:	4581                	c.li	a1,0
    4b06:	0048                	c.addi4spn	a0,sp,4
    4b08:	00f12023          	sw	a5,0(sp)
    4b0c:	1e4010ef          	jal	ra,5cf0 <memset>
    4b10:	4605                	c.li	a2,1
    4b12:	b7db958b          	addigp	a1,-9348 # 200054 <__DATA_BASE+0x54>
    4b16:	1988                	c.addi4spn	a0,sp,240
    4b18:	25e010ef          	jal	ra,5d76 <siprintf>
    4b1c:	00202437          	lui	s0,0x202
    4b20:	840fc3ab          	swgp	zero,-1980 # 201d1c <TimeUsed>
    4b24:	d8cff0ef          	jal	ra,40b0 <whetstones.constprop.0>
    4b28:	d88ff0ef          	jal	ra,40b0 <whetstones.constprop.0>
    4b2c:	d1c42707          	flw	fa4,-740(s0) # 201d1c <TimeUsed>
    4b30:	f00007d3          	fmv.w.x	fa5,zero
    4b34:	f0000153          	fmv.w.x	ft2,zero
    4b38:	a0e792d3          	flt.s	t0,fa5,fa4
    4b3c:	00028a63          	beq	t0,zero,4b50 <main+0x6c>
    4b40:	002000b7          	lui	ra,0x200
    4b44:	0240a007          	flw	ft0,36(ra) # 200024 <__DATA_BASE+0x24>
    4b48:	100770d3          	fmul.s	ft1,fa4,ft0
    4b4c:	18107153          	fdiv.s	ft2,ft0,ft1
    4b50:	00200337          	lui	t1,0x200
    4b54:	05032187          	flw	ft3,80(t1) # 200050 <__DATA_BASE+0x50>
    4b58:	32c12083          	lw	ra,812(sp)
    4b5c:	32812403          	lw	s0,808(sp)
    4b60:	002023b7          	lui	t2,0x202
    4b64:	4501                	c.li	a0,0
    4b66:	10317253          	fmul.s	ft4,ft2,ft3
    4b6a:	d043ac27          	fsw	ft4,-744(t2) # 201d18 <mwips>
    4b6e:	33010113          	addi	sp,sp,816
    4b72:	8082                	c.jr	ra
    4b74:	0001                	c.addi	zero,0
	...

00004b78 <outbyte>:
    4b78:	00d55a5b          	beqc	a0,13,4b8c <outbyte+0x14>
    4b7c:	00a55a5b          	beqc	a0,10,4b90 <outbyte+0x18>
    4b80:	0ff57793          	andi	a5,a0,255
    4b84:	e0080737          	lui	a4,0xe0080
    4b88:	00f70223          	sb	a5,4(a4) # e0080004 <__start_addr+0x6007fff4>
    4b8c:	00008067          	jalr	zero,0(ra)
    4b90:	ddddf337          	lui	t1,0xddddf
    4b94:	e00802b7          	lui	t0,0xe0080
    4b98:	eee30393          	addi	t2,t1,-274 # ddddeeee <__start_addr+0x5dddeede>
    4b9c:	0072a023          	sw	t2,0(t0) # e0080000 <__start_addr+0x6007fff0>
    4ba0:	00008067          	jalr	zero,0(ra)

00004ba4 <_fstat>:
    4ba4:	4501                	c.li	a0,0
    4ba6:	8082                	c.jr	ra

00004ba8 <_write>:
    4ba8:	157d                	c.addi	a0,-1
    4baa:	4785                	c.li	a5,1
    4bac:	00a7f463          	bgeu	a5,a0,4bb4 <_write+0xc>
    4bb0:	4501                	c.li	a0,0
    4bb2:	8082                	c.jr	ra
    4bb4:	fec05ee3          	bge	zero,a2,4bb0 <_write+0x8>
    4bb8:	ddddf737          	lui	a4,0xddddf
    4bbc:	00767693          	andi	a3,a2,7
    4bc0:	00c582b3          	add	t0,a1,a2
    4bc4:	e0080337          	lui	t1,0xe0080
    4bc8:	eee70393          	addi	t2,a4,-274 # ddddeeee <__start_addr+0x5dddeede>
    4bcc:	c6c5                	c.beqz	a3,4c74 <_write+0xcc>
    4bce:	0816d75b          	beqc	a3,1,4c5c <_write+0xb4>
    4bd2:	0626db5b          	beqc	a3,2,4c48 <_write+0xa0>
    4bd6:	0436df5b          	beqc	a3,3,4c34 <_write+0x8c>
    4bda:	0446d35b          	beqc	a3,4,4c20 <_write+0x78>
    4bde:	0256d75b          	beqc	a3,5,4c0c <_write+0x64>
    4be2:	0066db5b          	beqc	a3,6,4bf8 <_write+0x50>
    4be6:	0585                	c.addi	a1,1
    4be8:	fff5c803          	lbu	a6,-1(a1)
    4bec:	00d8565b          	beqc	a6,13,4bf8 <_write+0x50>
    4bf0:	16a85a5b          	beqc	a6,10,4d64 <_write+0x1bc>
    4bf4:	01030223          	sb	a6,4(t1) # e0080004 <__start_addr+0x6007fff4>
    4bf8:	00158593          	addi	a1,a1,1
    4bfc:	fff5c883          	lbu	a7,-1(a1)
    4c00:	00d8d65b          	beqc	a7,13,4c0c <_write+0x64>
    4c04:	14a8d45b          	beqc	a7,10,4d4c <_write+0x1a4>
    4c08:	01130223          	sb	a7,4(t1)
    4c0c:	00158593          	addi	a1,a1,1
    4c10:	fff5ce03          	lbu	t3,-1(a1)
    4c14:	00de565b          	beqc	t3,13,4c20 <_write+0x78>
    4c18:	14ae525b          	beqc	t3,10,4d5c <_write+0x1b4>
    4c1c:	01c30223          	sb	t3,4(t1)
    4c20:	00158593          	addi	a1,a1,1
    4c24:	fff5ce83          	lbu	t4,-1(a1)
    4c28:	00ded65b          	beqc	t4,13,4c34 <_write+0x8c>
    4c2c:	12aed45b          	beqc	t4,10,4d54 <_write+0x1ac>
    4c30:	01d30223          	sb	t4,4(t1)
    4c34:	00158593          	addi	a1,a1,1
    4c38:	fff5cf03          	lbu	t5,-1(a1)
    4c3c:	00df565b          	beqc	t5,13,4c48 <_write+0xa0>
    4c40:	10af525b          	beqc	t5,10,4d44 <_write+0x19c>
    4c44:	01e30223          	sb	t5,4(t1)
    4c48:	00158593          	addi	a1,a1,1
    4c4c:	fff5cf83          	lbu	t6,-1(a1)
    4c50:	00dfd65b          	beqc	t6,13,4c5c <_write+0xb4>
    4c54:	0eafd45b          	beqc	t6,10,4d3c <_write+0x194>
    4c58:	01f30223          	sb	t6,4(t1)
    4c5c:	00158593          	addi	a1,a1,1
    4c60:	fff5ce83          	lbu	t4,-1(a1)
    4c64:	00ded65b          	beqc	t4,13,4c70 <_write+0xc8>
    4c68:	08aed85b          	beqc	t4,10,4cf8 <_write+0x150>
    4c6c:	01d30223          	sb	t4,4(t1)
    4c70:	08b28863          	beq	t0,a1,4d00 <_write+0x158>
    4c74:	0005c503          	lbu	a0,0(a1)
    4c78:	00158593          	addi	a1,a1,1
    4c7c:	00d5565b          	beqc	a0,13,4c88 <_write+0xe0>
    4c80:	08a5565b          	beqc	a0,10,4d0c <_write+0x164>
    4c84:	00a30223          	sb	a0,4(t1)
    4c88:	0005c783          	lbu	a5,0(a1)
    4c8c:	00d7d65b          	beqc	a5,13,4c98 <_write+0xf0>
    4c90:	0aa7d25b          	beqc	a5,10,4d34 <_write+0x18c>
    4c94:	00f30223          	sb	a5,4(t1)
    4c98:	0015c683          	lbu	a3,1(a1)
    4c9c:	00d6d65b          	beqc	a3,13,4ca8 <_write+0x100>
    4ca0:	06a6de5b          	beqc	a3,10,4d1c <_write+0x174>
    4ca4:	00d30223          	sb	a3,4(t1)
    4ca8:	0025c703          	lbu	a4,2(a1)
    4cac:	00d7565b          	beqc	a4,13,4cb8 <_write+0x110>
    4cb0:	06a75e5b          	beqc	a4,10,4d2c <_write+0x184>
    4cb4:	00e30223          	sb	a4,4(t1)
    4cb8:	0035c803          	lbu	a6,3(a1)
    4cbc:	00d8565b          	beqc	a6,13,4cc8 <_write+0x120>
    4cc0:	06a8525b          	beqc	a6,10,4d24 <_write+0x17c>
    4cc4:	01030223          	sb	a6,4(t1)
    4cc8:	0045c883          	lbu	a7,4(a1)
    4ccc:	00d8d65b          	beqc	a7,13,4cd8 <_write+0x130>
    4cd0:	04a8d25b          	beqc	a7,10,4d14 <_write+0x16c>
    4cd4:	01130223          	sb	a7,4(t1)
    4cd8:	0055ce03          	lbu	t3,5(a1)
    4cdc:	00de565b          	beqc	t3,13,4ce8 <_write+0x140>
    4ce0:	02ae525b          	beqc	t3,10,4d04 <_write+0x15c>
    4ce4:	01c30223          	sb	t3,4(t1)
    4ce8:	0065ce83          	lbu	t4,6(a1)
    4cec:	00758593          	addi	a1,a1,7
    4cf0:	b8ded05b          	beqc	t4,13,4c70 <_write+0xc8>
    4cf4:	b6aeec5b          	bnec	t4,10,4c6c <_write+0xc4>
    4cf8:	00732023          	sw	t2,0(t1)
    4cfc:	f75ff06f          	jal	zero,4c70 <_write+0xc8>
    4d00:	8532                	c.mv	a0,a2
    4d02:	8082                	c.jr	ra
    4d04:	00732023          	sw	t2,0(t1)
    4d08:	fe1ff06f          	jal	zero,4ce8 <_write+0x140>
    4d0c:	00732023          	sw	t2,0(t1)
    4d10:	f79ff06f          	jal	zero,4c88 <_write+0xe0>
    4d14:	00732023          	sw	t2,0(t1)
    4d18:	fc1ff06f          	jal	zero,4cd8 <_write+0x130>
    4d1c:	00732023          	sw	t2,0(t1)
    4d20:	f89ff06f          	jal	zero,4ca8 <_write+0x100>
    4d24:	00732023          	sw	t2,0(t1)
    4d28:	fa1ff06f          	jal	zero,4cc8 <_write+0x120>
    4d2c:	00732023          	sw	t2,0(t1)
    4d30:	f89ff06f          	jal	zero,4cb8 <_write+0x110>
    4d34:	00732023          	sw	t2,0(t1)
    4d38:	f61ff06f          	jal	zero,4c98 <_write+0xf0>
    4d3c:	00732023          	sw	t2,0(t1)
    4d40:	f1dff06f          	jal	zero,4c5c <_write+0xb4>
    4d44:	00732023          	sw	t2,0(t1)
    4d48:	f01ff06f          	jal	zero,4c48 <_write+0xa0>
    4d4c:	00732023          	sw	t2,0(t1)
    4d50:	ebdff06f          	jal	zero,4c0c <_write+0x64>
    4d54:	00732023          	sw	t2,0(t1)
    4d58:	eddff06f          	jal	zero,4c34 <_write+0x8c>
    4d5c:	00732023          	sw	t2,0(t1)
    4d60:	ec1ff06f          	jal	zero,4c20 <_write+0x78>
    4d64:	00732023          	sw	t2,0(t1)
    4d68:	e91ff06f          	jal	zero,4bf8 <_write+0x50>

00004d6c <nds_write>:
    4d6c:	14b05a63          	bge	zero,a1,4ec0 <nds_write+0x154>
    4d70:	0075f613          	andi	a2,a1,7
    4d74:	ddddf6b7          	lui	a3,0xddddf
    4d78:	8faa                	c.mv	t6,a0
    4d7a:	95aa                	c.add	a1,a0
    4d7c:	e0080737          	lui	a4,0xe0080
    4d80:	eee68293          	addi	t0,a3,-274 # ddddeeee <__start_addr+0x5dddeede>
    4d84:	0a060663          	beq	a2,zero,4e30 <nds_write+0xc4>
    4d88:	0816585b          	beqc	a2,1,4e18 <nds_write+0xac>
    4d8c:	06265c5b          	beqc	a2,2,4e04 <nds_write+0x98>
    4d90:	0636505b          	beqc	a2,3,4df0 <nds_write+0x84>
    4d94:	0446545b          	beqc	a2,4,4ddc <nds_write+0x70>
    4d98:	0256585b          	beqc	a2,5,4dc8 <nds_write+0x5c>
    4d9c:	00665c5b          	beqc	a2,6,4db4 <nds_write+0x48>
    4da0:	00054783          	lbu	a5,0(a0)
    4da4:	00d7d65b          	beqc	a5,13,4db0 <nds_write+0x44>
    4da8:	18a7d85b          	beqc	a5,10,4f38 <nds_write+0x1cc>
    4dac:	00f70223          	sb	a5,4(a4) # e0080004 <__start_addr+0x6007fff4>
    4db0:	00150f93          	addi	t6,a0,1
    4db4:	000fc303          	lbu	t1,0(t6)
    4db8:	00d3565b          	beqc	t1,13,4dc4 <nds_write+0x58>
    4dbc:	18a3545b          	beqc	t1,10,4f44 <nds_write+0x1d8>
    4dc0:	00670223          	sb	t1,4(a4)
    4dc4:	001f8f93          	addi	t6,t6,1
    4dc8:	000fc383          	lbu	t2,0(t6)
    4dcc:	00d3d65b          	beqc	t2,13,4dd8 <nds_write+0x6c>
    4dd0:	14a3d85b          	beqc	t2,10,4f20 <nds_write+0x1b4>
    4dd4:	00770223          	sb	t2,4(a4)
    4dd8:	001f8f93          	addi	t6,t6,1
    4ddc:	000fc503          	lbu	a0,0(t6)
    4de0:	00d5565b          	beqc	a0,13,4dec <nds_write+0x80>
    4de4:	12a5585b          	beqc	a0,10,4f14 <nds_write+0x1a8>
    4de8:	00a70223          	sb	a0,4(a4)
    4dec:	001f8f93          	addi	t6,t6,1
    4df0:	000fc803          	lbu	a6,0(t6)
    4df4:	00d8565b          	beqc	a6,13,4e00 <nds_write+0x94>
    4df8:	12a85c5b          	beqc	a6,10,4f30 <nds_write+0x1c4>
    4dfc:	01070223          	sb	a6,4(a4)
    4e00:	001f8f93          	addi	t6,t6,1
    4e04:	000fc883          	lbu	a7,0(t6)
    4e08:	00d8d65b          	beqc	a7,13,4e14 <nds_write+0xa8>
    4e0c:	10a8de5b          	beqc	a7,10,4f28 <nds_write+0x1bc>
    4e10:	01170223          	sb	a7,4(a4)
    4e14:	001f8f93          	addi	t6,t6,1
    4e18:	000fce03          	lbu	t3,0(t6)
    4e1c:	00de565b          	beqc	t3,13,4e28 <nds_write+0xbc>
    4e20:	0eae545b          	beqc	t3,10,4f08 <nds_write+0x19c>
    4e24:	01c70223          	sb	t3,4(a4)
    4e28:	001f8f93          	addi	t6,t6,1
    4e2c:	0ebf8863          	beq	t6,a1,4f1c <nds_write+0x1b0>
    4e30:	000fce83          	lbu	t4,0(t6)
    4e34:	00ded65b          	beqc	t4,13,4e40 <nds_write+0xd4>
    4e38:	08aede5b          	beqc	t4,10,4ed4 <nds_write+0x168>
    4e3c:	01d70223          	sb	t4,4(a4)
    4e40:	001fcf03          	lbu	t5,1(t6)
    4e44:	001f8f93          	addi	t6,t6,1
    4e48:	00df565b          	beqc	t5,13,4e54 <nds_write+0xe8>
    4e4c:	08af505b          	beqc	t5,10,4ecc <nds_write+0x160>
    4e50:	01e70223          	sb	t5,4(a4)
    4e54:	001fc603          	lbu	a2,1(t6)
    4e58:	00d6565b          	beqc	a2,13,4e64 <nds_write+0xf8>
    4e5c:	06a6545b          	beqc	a2,10,4ec4 <nds_write+0x158>
    4e60:	00c70223          	sb	a2,4(a4)
    4e64:	002fc683          	lbu	a3,2(t6)
    4e68:	00d6d65b          	beqc	a3,13,4e74 <nds_write+0x108>
    4e6c:	08a6d05b          	beqc	a3,10,4eec <nds_write+0x180>
    4e70:	00d70223          	sb	a3,4(a4)
    4e74:	003fc783          	lbu	a5,3(t6)
    4e78:	00d7d65b          	beqc	a5,13,4e84 <nds_write+0x118>
    4e7c:	06a7d45b          	beqc	a5,10,4ee4 <nds_write+0x178>
    4e80:	00f70223          	sb	a5,4(a4)
    4e84:	004fc303          	lbu	t1,4(t6)
    4e88:	00d3565b          	beqc	t1,13,4e94 <nds_write+0x128>
    4e8c:	04a3585b          	beqc	t1,10,4edc <nds_write+0x170>
    4e90:	00670223          	sb	t1,4(a4)
    4e94:	005fc383          	lbu	t2,5(t6)
    4e98:	00d3d65b          	beqc	t2,13,4ea4 <nds_write+0x138>
    4e9c:	06a3d25b          	beqc	t2,10,4f00 <nds_write+0x194>
    4ea0:	00770223          	sb	t2,4(a4)
    4ea4:	006fc503          	lbu	a0,6(t6)
    4ea8:	00d5565b          	beqc	a0,13,4eb4 <nds_write+0x148>
    4eac:	04a5545b          	beqc	a0,10,4ef4 <nds_write+0x188>
    4eb0:	00a70223          	sb	a0,4(a4)
    4eb4:	007f8f93          	addi	t6,t6,7
    4eb8:	f6bf9ce3          	bne	t6,a1,4e30 <nds_write+0xc4>
    4ebc:	00008067          	jalr	zero,0(ra)
    4ec0:	00008067          	jalr	zero,0(ra)
    4ec4:	00572023          	sw	t0,0(a4)
    4ec8:	f9dff06f          	jal	zero,4e64 <nds_write+0xf8>
    4ecc:	00572023          	sw	t0,0(a4)
    4ed0:	f85ff06f          	jal	zero,4e54 <nds_write+0xe8>
    4ed4:	00572023          	sw	t0,0(a4)
    4ed8:	f69ff06f          	jal	zero,4e40 <nds_write+0xd4>
    4edc:	00572023          	sw	t0,0(a4)
    4ee0:	fb5ff06f          	jal	zero,4e94 <nds_write+0x128>
    4ee4:	00572023          	sw	t0,0(a4)
    4ee8:	f9dff06f          	jal	zero,4e84 <nds_write+0x118>
    4eec:	00572023          	sw	t0,0(a4)
    4ef0:	f85ff06f          	jal	zero,4e74 <nds_write+0x108>
    4ef4:	0f9d                	c.addi	t6,7
    4ef6:	00572023          	sw	t0,0(a4)
    4efa:	f2bf9be3          	bne	t6,a1,4e30 <nds_write+0xc4>
    4efe:	bf7d                	c.j	4ebc <nds_write+0x150>
    4f00:	00572023          	sw	t0,0(a4)
    4f04:	fa1ff06f          	jal	zero,4ea4 <nds_write+0x138>
    4f08:	0f85                	c.addi	t6,1
    4f0a:	00572023          	sw	t0,0(a4)
    4f0e:	f2bf91e3          	bne	t6,a1,4e30 <nds_write+0xc4>
    4f12:	a029                	c.j	4f1c <nds_write+0x1b0>
    4f14:	0f85                	c.addi	t6,1
    4f16:	00572023          	sw	t0,0(a4)
    4f1a:	bdd9                	c.j	4df0 <nds_write+0x84>
    4f1c:	00008067          	jalr	zero,0(ra)
    4f20:	0f85                	c.addi	t6,1
    4f22:	00572023          	sw	t0,0(a4)
    4f26:	bd5d                	c.j	4ddc <nds_write+0x70>
    4f28:	00572023          	sw	t0,0(a4)
    4f2c:	ee9ff06f          	jal	zero,4e14 <nds_write+0xa8>
    4f30:	00572023          	sw	t0,0(a4)
    4f34:	ecdff06f          	jal	zero,4e00 <nds_write+0x94>
    4f38:	00150f93          	addi	t6,a0,1
    4f3c:	00572023          	sw	t0,0(a4)
    4f40:	e75ff06f          	jal	zero,4db4 <nds_write+0x48>
    4f44:	00572023          	sw	t0,0(a4)
    4f48:	bdb5                	c.j	4dc4 <nds_write+0x58>
	...

00004f4c <skip>:
    4f4c:	7139                	c.addi16sp	sp,-64
    4f4e:	02410313          	addi	t1,sp,36
    4f52:	d22e                	c.swsp	a1,36(sp)
    4f54:	859a                	c.mv	a1,t1
    4f56:	d83a                	c.swsp	a4,48(sp)
    4f58:	da3e                	c.swsp	a5,52(sp)
    4f5a:	ce06                	c.swsp	ra,28(sp)
    4f5c:	d432                	c.swsp	a2,40(sp)
    4f5e:	d636                	c.swsp	a3,44(sp)
    4f60:	dc42                	c.swsp	a6,56(sp)
    4f62:	de46                	c.swsp	a7,60(sp)
    4f64:	00612623          	sw	t1,12(sp)
    4f68:	2f2010ef          	jal	ra,625a <viprintf>
    4f6c:	012347b7          	lui	a5,0x1234
    4f70:	e0080737          	lui	a4,0xe0080
    4f74:	57178293          	addi	t0,a5,1393 # 1234571 <VPE_SKIP>
    4f78:	00572023          	sw	t0,0(a4) # e0080000 <__start_addr+0x6007fff0>
    4f7c:	0000006f          	jal	zero,4f7c <skip+0x30>

00004f80 <ProgramSkipUser>:
    4f80:	1141                	c.addi	sp,-16
    4f82:	c49b950b          	addigp	a0,-9144 # 200120 <refarr+0xc4>
    4f86:	c606                	c.swsp	ra,12(sp)
    4f88:	fc5ff0ef          	jal	ra,4f4c <skip>
    4f8c:	0001                	c.addi	zero,0
	...

00004f90 <cosf>:
    4f90:	3f4917b7          	lui	a5,0x3f491
    4f94:	fda78793          	addi	a5,a5,-38 # 3f490fda <VPE_SKIP+0x3e25ca69>
    4f98:	e00505d3          	fmv.x.w	a1,fa0
    4f9c:	7805a75b          	bfoz	a4,a1,30,0
    4fa0:	02e7e663          	bltu	a5,a4,4fcc <cosf+0x3c>
    4fa4:	398007b7          	lui	a5,0x39800
    4fa8:	0cf76663          	bltu	a4,a5,5074 <cosf+0xe4>
    4fac:	10a57553          	fmul.s	fa0,fa0,fa0
    4fb0:	f28f978b          	addigp	a5,-2264 # 201c00 <cst_libm_sincosf>
    4fb4:	6f9c                	c.flw	fa5,24(a5)
    4fb6:	6bd0                	c.flw	fa2,20(a5)
    4fb8:	6b94                	c.flw	fa3,16(a5)
    4fba:	67d8                	c.flw	fa4,12(a5)
    4fbc:	60a7f7c3          	fmadd.s	fa5,fa5,fa0,fa2
    4fc0:	68a7f7c3          	fmadd.s	fa5,fa5,fa0,fa3
    4fc4:	70a7f543          	fmadd.s	fa0,fa5,fa0,fa4
    4fc8:	00008067          	jalr	zero,0(ra)
    4fcc:	1101                	c.addi	sp,-32
    4fce:	464917b7          	lui	a5,0x46491
    4fd2:	e4878793          	addi	a5,a5,-440 # 46490e48 <VPE_SKIP+0x4525c8d7>
    4fd6:	ce06                	c.swsp	ra,28(sp)
    4fd8:	0ce7ea63          	bltu	a5,a4,50ac <cosf+0x11c>
    4fdc:	ca9b978b          	addigp	a5,-9048 # 200180 <cst_libm_rredf>
    4fe0:	00200737          	lui	a4,0x200
    4fe4:	16872587          	flw	fa1,360(a4) # 200168 <refarr+0x10c>
    4fe8:	639c                	c.flw	fa5,0(a5)
    4fea:	6790                	c.flw	fa2,8(a5)
    4fec:	67d4                	c.flw	fa3,12(a5)
    4fee:	58f577c3          	fmadd.s	fa5,fa0,fa5,fa1
    4ff2:	6b98                	c.flw	fa4,16(a5)
    4ff4:	6bc8                	c.flw	fa0,20(a5)
    4ff6:	08b7f7d3          	fsub.s	fa5,fa5,fa1
    4ffa:	f00585d3          	fmv.w.x	fa1,a1
    4ffe:	58c7f64b          	fnmsub.s	fa2,fa5,fa2,fa1
    5002:	c0079753          	fcvt.w.s	a4,fa5,rtz
    5006:	60d7f6cb          	fnmsub.s	fa3,fa5,fa3,fa2
    500a:	00177793          	andi	a5,a4,1
    500e:	8b09                	c.andi	a4,2
    5010:	68e7f74b          	fnmsub.s	fa4,fa5,fa4,fa3
    5014:	70a7f64b          	fnmsub.s	fa2,fa5,fa0,fa4
    5018:	e00605d3          	fmv.x.w	a1,fa2
    501c:	f0058653          	fmv.w.x	fa2,a1
    5020:	10c677d3          	fmul.s	fa5,fa2,fa2
    5024:	c785                	c.beqz	a5,504c <cosf+0xbc>
    5026:	f28f978b          	addigp	a5,-2264 # 201c00 <cst_libm_sincosf>
    502a:	6788                	c.flw	fa0,8(a5)
    502c:	63d4                	c.flw	fa3,4(a5)
    502e:	6398                	c.flw	fa4,0(a5)
    5030:	68f57543          	fmadd.s	fa0,fa0,fa5,fa3
    5034:	70f57543          	fmadd.s	fa0,fa0,fa5,fa4
    5038:	10f57553          	fmul.s	fa0,fa0,fa5
    503c:	60c57543          	fmadd.s	fa0,fa0,fa2,fa2
    5040:	02070463          	beq	a4,zero,5068 <cosf+0xd8>
    5044:	40f2                	c.lwsp	ra,28(sp)
    5046:	6105                	c.addi16sp	sp,32
    5048:	00008067          	jalr	zero,0(ra)
    504c:	f28f978b          	addigp	a5,-2264 # 201c00 <cst_libm_sincosf>
    5050:	6f88                	c.flw	fa0,24(a5)
    5052:	6bd0                	c.flw	fa2,20(a5)
    5054:	6b94                	c.flw	fa3,16(a5)
    5056:	67d8                	c.flw	fa4,12(a5)
    5058:	60f57543          	fmadd.s	fa0,fa0,fa5,fa2
    505c:	68f57543          	fmadd.s	fa0,fa0,fa5,fa3
    5060:	70f57543          	fmadd.s	fa0,fa0,fa5,fa4
    5064:	fe0700e3          	beq	a4,zero,5044 <cosf+0xb4>
    5068:	40f2                	c.lwsp	ra,28(sp)
    506a:	20a51553          	fsgnjn.s	fa0,fa0,fa0
    506e:	6105                	c.addi16sp	sp,32
    5070:	00008067          	jalr	zero,0(ra)
    5074:	00159693          	slli	a3,a1,0x1
    5078:	ff0007b7          	lui	a5,0xff000
    507c:	02f6e263          	bltu	a3,a5,50a0 <cosf+0x110>
    5080:	00f68663          	beq	a3,a5,508c <cosf+0xfc>
    5084:	00a57553          	fadd.s	fa0,fa0,fa0
    5088:	00008067          	jalr	zero,0(ra)
    508c:	02100713          	addi	a4,zero,33
    5090:	f0000553          	fmv.w.x	fa0,zero
    5094:	18a57553          	fdiv.s	fa0,fa0,fa0
    5098:	84efc5ab          	swgp	a4,-1976 # 201d20 <__mculib_REENT_errno>
    509c:	00008067          	jalr	zero,0(ra)
    50a0:	002007b7          	lui	a5,0x200
    50a4:	0047a507          	flw	fa0,4(a5) # 200004 <__DATA_BASE+0x4>
    50a8:	00008067          	jalr	zero,0(ra)
    50ac:	0068                	c.addi4spn	a0,sp,12
    50ae:	20a9                	c.jal	50f8 <ref__mathlib_rredf2>
    50b0:	4732                	c.lwsp	a4,12(sp)
    50b2:	e00505d3          	fmv.x.w	a1,fa0
    50b6:	02075d63          	bge	a4,zero,50f0 <cosf+0x160>
    50ba:	00159693          	slli	a3,a1,0x1
    50be:	ff0007b7          	lui	a5,0xff000
    50c2:	00f6e763          	bltu	a3,a5,50d0 <cosf+0x140>
    50c6:	00f68b63          	beq	a3,a5,50dc <cosf+0x14c>
    50ca:	00a57553          	fadd.s	fa0,fa0,fa0
    50ce:	bf9d                	c.j	5044 <cosf+0xb4>
    50d0:	002007b7          	lui	a5,0x200
    50d4:	0047a507          	flw	fa0,4(a5) # 200004 <__DATA_BASE+0x4>
    50d8:	f6dff06f          	jal	zero,5044 <cosf+0xb4>
    50dc:	f0000553          	fmv.w.x	fa0,zero
    50e0:	02100713          	addi	a4,zero,33
    50e4:	18a57553          	fdiv.s	fa0,fa0,fa0
    50e8:	84efc5ab          	swgp	a4,-1976 # 201d20 <__mculib_REENT_errno>
    50ec:	f59ff06f          	jal	zero,5044 <cosf+0xb4>
    50f0:	00177793          	andi	a5,a4,1
    50f4:	8b09                	c.andi	a4,2
    50f6:	b71d                	c.j	501c <cosf+0x8c>

000050f8 <ref__mathlib_rredf2>:
    50f8:	00159713          	slli	a4,a1,0x1
    50fc:	ff0007b7          	lui	a5,0xff000
    5100:	12f77a63          	bgeu	a4,a5,5234 <ref__mathlib_rredf2+0x13c>
    5104:	7975a75b          	bfoz	a4,a1,30,23
    5108:	f8870713          	addi	a4,a4,-120
    510c:	40575313          	srai	t1,a4,0x5
    5110:	cc1b988b          	addigp	a7,-9024 # 200198 <twooverpi.0>
    5114:	0c68885b          	lea.w	a6,a7,t1
    5118:	87c2                	c.mv	a5,a6
    511a:	86c2                	c.mv	a3,a6
    511c:	00859613          	slli	a2,a1,0x8
    5120:	80000e37          	lui	t3,0x80000
    5124:	8b7d                	c.andi	a4,31
    5126:	00082803          	lw	a6,0(a6)
    512a:	43dc                	c.lw	a5,4(a5)
    512c:	4694                	c.lw	a3,8(a3)
    512e:	01c66633          	or	a2,a2,t3
    5132:	cb1d                	c.beqz	a4,5168 <ref__mathlib_rredf2+0x70>
    5134:	0c6888db          	lea.w	a7,a7,t1
    5138:	00c8a303          	lw	t1,12(a7)
    513c:	02000893          	addi	a7,zero,32
    5140:	40e888b3          	sub	a7,a7,a4
    5144:	0117deb3          	srl	t4,a5,a7
    5148:	0116de33          	srl	t3,a3,a7
    514c:	00e81833          	sll	a6,a6,a4
    5150:	00e797b3          	sll	a5,a5,a4
    5154:	00e696b3          	sll	a3,a3,a4
    5158:	011358b3          	srl	a7,t1,a7
    515c:	010ee833          	or	a6,t4,a6
    5160:	00fe67b3          	or	a5,t3,a5
    5164:	00d8e6b3          	or	a3,a7,a3
    5168:	02d636b3          	mulhu	a3,a2,a3
    516c:	02f608b3          	mul	a7,a2,a5
    5170:	02c80733          	mul	a4,a6,a2
    5174:	02f637b3          	mulhu	a5,a2,a5
    5178:	98b6                	c.add	a7,a3
    517a:	00d8b333          	sltu	t1,a7,a3
    517e:	973e                	c.add	a4,a5
    5180:	02c83633          	mulhu	a2,a6,a2
    5184:	00670733          	add	a4,a4,t1
    5188:	0ad8e063          	bltu	a7,a3,5228 <ref__mathlib_rredf2+0x130>
    518c:	00f737b3          	sltu	a5,a4,a5
    5190:	97b2                	c.add	a5,a2
    5192:	01375693          	srli	a3,a4,0x13
    5196:	01a79613          	slli	a2,a5,0x1a
    519a:	06b6                	c.slli	a3,0xd
    519c:	8ed1                	c.or	a3,a2
    519e:	0736                	c.slli	a4,0xd
    51a0:	d006f6d3          	fcvt.s.w	fa3,a3
    51a4:	002006b7          	lui	a3,0x200
    51a8:	16c6a587          	flw	fa1,364(a3) # 20016c <refarr+0x110>
    51ac:	d0177753          	fcvt.s.wu	fa4,a4
    51b0:	00200737          	lui	a4,0x200
    51b4:	17072607          	flw	fa2,368(a4) # 200170 <refarr+0x114>
    51b8:	d018f553          	fcvt.s.wu	fa0,a7
    51bc:	6685                	c.lui	a3,0x1
    51be:	80068693          	addi	a3,a3,-2048 # 800 <__sharedata_end_addr+0x490>
    51c2:	68b777c3          	fmadd.s	fa5,fa4,fa1,fa3
    51c6:	02078793          	addi	a5,a5,32 # ff000020 <__start_addr+0x7f000010>
    51ca:	8399                	c.srli	a5,0x6
    51cc:	78c577c3          	fmadd.s	fa5,fa0,fa2,fa5
    51d0:	e0078753          	fmv.x.w	a4,fa5
    51d4:	9736                	c.add	a4,a3
    51d6:	76fd                	c.lui	a3,0xfffff
    51d8:	00d77733          	and	a4,a4,a3
    51dc:	f00707d3          	fmv.w.x	fa5,a4
    51e0:	08d7f6d3          	fsub.s	fa3,fa5,fa3
    51e4:	002006b7          	lui	a3,0x200
    51e8:	1746a787          	flw	fa5,372(a3) # 200174 <refarr+0x118>
    51ec:	002006b7          	lui	a3,0x200
    51f0:	68b7774b          	fnmsub.s	fa4,fa4,fa1,fa3
    51f4:	70c57547          	fmsub.s	fa0,fa0,fa2,fa4
    51f8:	f0070653          	fmv.w.x	fa2,a4
    51fc:	10f57553          	fmul.s	fa0,fa0,fa5
    5200:	1786a787          	flw	fa5,376(a3) # 200178 <refarr+0x11c>
    5204:	002006b7          	lui	a3,0x200
    5208:	50c7f7c3          	fmadd.s	fa5,fa5,fa2,fa0
    520c:	17c6a507          	flw	fa0,380(a3) # 20017c <refarr+0x120>
    5210:	78c57543          	fmadd.s	fa0,fa0,fa2,fa5
    5214:	0005d863          	bge	a1,zero,5224 <ref__mathlib_rredf2+0x12c>
    5218:	20a51553          	fsgnjn.s	fa0,fa0,fa0
    521c:	10000737          	lui	a4,0x10000
    5220:	40f707b3          	sub	a5,a4,a5
    5224:	c11c                	c.sw	a5,0(a0)
    5226:	8082                	c.jr	ra
    5228:	00e7b7b3          	sltu	a5,a5,a4
    522c:	0017c793          	xori	a5,a5,1
    5230:	f61ff06f          	jal	zero,5190 <ref__mathlib_rredf2+0x98>
    5234:	57fd                	c.li	a5,-1
    5236:	c11c                	c.sw	a5,0(a0)
    5238:	8082                	c.jr	ra
    523a:	0001                	c.addi	zero,0

0000523c <atanf>:
    523c:	002007b7          	lui	a5,0x200
    5240:	1c07a787          	flw	fa5,448(a5) # 2001c0 <twooverpi.0+0x28>
    5244:	20a52753          	fsgnjx.s	fa4,fa0,fa0
    5248:	a0f717d3          	flt.s	a5,fa4,fa5
    524c:	0a078663          	beq	a5,zero,52f8 <atanf+0xbc>
    5250:	002007b7          	lui	a5,0x200
    5254:	1c47a787          	flw	fa5,452(a5) # 2001c4 <twooverpi.0+0x2c>
    5258:	a0f717d3          	flt.s	a5,fa4,fa5
    525c:	14079263          	bne	a5,zero,53a0 <atanf+0x164>
    5260:	20a505d3          	fsgnj.s	fa1,fa0,fa0
    5264:	fff00713          	addi	a4,zero,-1
    5268:	d09b978b          	addigp	a5,-8952 # 2001e0 <aT>
    526c:	0007a087          	flw	ft1,0(a5)
    5270:	0047a107          	flw	ft2,4(a5)
    5274:	0087a187          	flw	ft3,8(a5)
    5278:	67dc                	c.flw	fa5,12(a5)
    527a:	0107a207          	flw	ft4,16(a5)
    527e:	0147a287          	flw	ft5,20(a5)
    5282:	0187a307          	flw	ft6,24(a5)
    5286:	01c7a387          	flw	ft7,28(a5)
    528a:	0207a807          	flw	fa6,32(a5)
    528e:	73d4                	c.flw	fa3,36(a5)
    5290:	7798                	c.flw	fa4,40(a5)
    5292:	10b5f053          	fmul.s	ft0,fa1,fa1
    5296:	57fd                	c.li	a5,-1
    5298:	10007653          	fmul.s	fa2,ft0,ft0
    529c:	80e67743          	fmadd.s	fa4,fa2,fa4,fa6
    52a0:	38d676c3          	fmadd.s	fa3,fa2,fa3,ft7
    52a4:	30c77743          	fmadd.s	fa4,fa4,fa2,ft6
    52a8:	28c6f6c3          	fmadd.s	fa3,fa3,fa2,ft5
    52ac:	20c77743          	fmadd.s	fa4,fa4,fa2,ft4
    52b0:	78c6f7c3          	fmadd.s	fa5,fa3,fa2,fa5
    52b4:	18c77743          	fmadd.s	fa4,fa4,fa2,ft3
    52b8:	10c7f7c3          	fmadd.s	fa5,fa5,fa2,ft2
    52bc:	08c77743          	fmadd.s	fa4,fa4,fa2,ft1
    52c0:	10c7f7d3          	fmul.s	fa5,fa5,fa2
    52c4:	780777c3          	fmadd.s	fa5,fa4,ft0,fa5
    52c8:	10f5f7d3          	fmul.s	fa5,fa1,fa5
    52cc:	08f70a63          	beq	a4,a5,5360 <atanf+0x124>
    52d0:	d45b978b          	addigp	a5,-8892 # 20021c <atanlo>
    52d4:	0ce787db          	lea.w	a5,a5,a4
    52d8:	6398                	c.flw	fa4,0(a5)
    52da:	d35b978b          	addigp	a5,-8908 # 20020c <atanhi>
    52de:	08e7f7d3          	fsub.s	fa5,fa5,fa4
    52e2:	0ce7875b          	lea.w	a4,a5,a4
    52e6:	6314                	c.flw	fa3,0(a4)
    52e8:	08b7f7d3          	fsub.s	fa5,fa5,fa1
    52ec:	08f6f7d3          	fsub.s	fa5,fa3,fa5
    52f0:	20a78553          	fsgnj.s	fa0,fa5,fa0
    52f4:	00008067          	jalr	zero,0(ra)
    52f8:	002007b7          	lui	a5,0x200
    52fc:	1cc7a787          	flw	fa5,460(a5) # 2001cc <twooverpi.0+0x34>
    5300:	a0f717d3          	flt.s	a5,fa4,fa5
    5304:	cb85                	c.beqz	a5,5334 <atanf+0xf8>
    5306:	002007b7          	lui	a5,0x200
    530a:	1d07a787          	flw	fa5,464(a5) # 2001d0 <twooverpi.0+0x38>
    530e:	a0f717d3          	flt.s	a5,fa4,fa5
    5312:	cbb9                	c.beqz	a5,5368 <atanf+0x12c>
    5314:	002007b7          	lui	a5,0x200
    5318:	0147a687          	flw	fa3,20(a5) # 200014 <__DATA_BASE+0x14>
    531c:	002007b7          	lui	a5,0x200
    5320:	0007a787          	flw	fa5,0(a5) # 200000 <__DATA_BASE>
    5324:	00d775d3          	fadd.s	fa1,fa4,fa3
    5328:	4701                	c.li	a4,0
    532a:	78d776c3          	fmadd.s	fa3,fa4,fa3,fa5
    532e:	18b6f5d3          	fdiv.s	fa1,fa3,fa1
    5332:	bf1d                	c.j	5268 <atanf+0x2c>
    5334:	002007b7          	lui	a5,0x200
    5338:	1d47a787          	flw	fa5,468(a5) # 2001d4 <twooverpi.0+0x3c>
    533c:	a0f717d3          	flt.s	a5,fa4,fa5
    5340:	e3a1                	c.bnez	a5,5380 <atanf+0x144>
    5342:	002007b7          	lui	a5,0x200
    5346:	1dc7a787          	flw	fa5,476(a5) # 2001dc <twooverpi.0+0x44>
    534a:	a0e787d3          	fle.s	a5,fa5,fa4
    534e:	ebad                	c.bnez	a5,53c0 <atanf+0x184>
    5350:	002007b7          	lui	a5,0x200
    5354:	0007a587          	flw	fa1,0(a5) # 200000 <__DATA_BASE>
    5358:	470d                	c.li	a4,3
    535a:	18e5f5d3          	fdiv.s	fa1,fa1,fa4
    535e:	b729                	c.j	5268 <atanf+0x2c>
    5360:	08f5f553          	fsub.s	fa0,fa1,fa5
    5364:	00008067          	jalr	zero,0(ra)
    5368:	002007b7          	lui	a5,0x200
    536c:	0047a687          	flw	fa3,4(a5) # 200004 <__DATA_BASE+0x4>
    5370:	4705                	c.li	a4,1
    5372:	08d775d3          	fsub.s	fa1,fa4,fa3
    5376:	00d776d3          	fadd.s	fa3,fa4,fa3
    537a:	18d5f5d3          	fdiv.s	fa1,fa1,fa3
    537e:	b5ed                	c.j	5268 <atanf+0x2c>
    5380:	002007b7          	lui	a5,0x200
    5384:	1d87a687          	flw	fa3,472(a5) # 2001d8 <twooverpi.0+0x40>
    5388:	002007b7          	lui	a5,0x200
    538c:	0047a787          	flw	fa5,4(a5) # 200004 <__DATA_BASE+0x4>
    5390:	08d775d3          	fsub.s	fa1,fa4,fa3
    5394:	4709                	c.li	a4,2
    5396:	78d776c3          	fmadd.s	fa3,fa4,fa3,fa5
    539a:	18d5f5d3          	fdiv.s	fa1,fa1,fa3
    539e:	b5e9                	c.j	5268 <atanf+0x2c>
    53a0:	002007b7          	lui	a5,0x200
    53a4:	1c87a787          	flw	fa5,456(a5) # 2001c8 <twooverpi.0+0x30>
    53a8:	002007b7          	lui	a5,0x200
    53ac:	0047a707          	flw	fa4,4(a5) # 200004 <__DATA_BASE+0x4>
    53b0:	00f577d3          	fadd.s	fa5,fa0,fa5
    53b4:	a0f717d3          	flt.s	a5,fa4,fa5
    53b8:	ea0784e3          	beq	a5,zero,5260 <atanf+0x24>
    53bc:	00008067          	jalr	zero,0(ra)
    53c0:	a0e727d3          	feq.s	a5,fa4,fa4
    53c4:	c395                	c.beqz	a5,53e8 <atanf+0x1ac>
    53c6:	f00007d3          	fmv.w.x	fa5,zero
    53ca:	a0a797d3          	flt.s	a5,fa5,fa0
    53ce:	c799                	c.beqz	a5,53dc <atanf+0x1a0>
    53d0:	002007b7          	lui	a5,0x200
    53d4:	1b87a507          	flw	fa0,440(a5) # 2001b8 <twooverpi.0+0x20>
    53d8:	00008067          	jalr	zero,0(ra)
    53dc:	002007b7          	lui	a5,0x200
    53e0:	1bc7a507          	flw	fa0,444(a5) # 2001bc <twooverpi.0+0x24>
    53e4:	00008067          	jalr	zero,0(ra)
    53e8:	00e77553          	fadd.s	fa0,fa4,fa4
    53ec:	8082                	c.jr	ra
	...

000053f0 <expf>:
    53f0:	002007b7          	lui	a5,0x200
    53f4:	22c7a707          	flw	fa4,556(a5) # 20022c <atanlo+0x10>
    53f8:	20a527d3          	fsgnjx.s	fa5,fa0,fa0
    53fc:	4501                	c.li	a0,0
    53fe:	a0e787d3          	fle.s	a5,fa5,fa4
    5402:	c7dd                	c.beqz	a5,54b0 <expf+0xc0>
    5404:	002007b7          	lui	a5,0x200
    5408:	23c7a787          	flw	fa5,572(a5) # 20023c <atanlo+0x20>
    540c:	00200737          	lui	a4,0x200
    5410:	10f577d3          	fmul.s	fa5,fa0,fa5
    5414:	c00787d3          	fcvt.w.s	a5,fa5,rne
    5418:	d007f753          	fcvt.s.w	fa4,a5
    541c:	24072787          	flw	fa5,576(a4) # 200240 <atanlo+0x24>
    5420:	00200737          	lui	a4,0x200
    5424:	0837a5db          	bfoz	a1,a5,2,3
    5428:	d8db960b          	addigp	a2,-8820 # 200264 <twotokover4all>
    542c:	50f7754b          	fnmsub.s	fa0,fa4,fa5,fa0
    5430:	24472787          	flw	fa5,580(a4) # 200244 <atanlo+0x28>
    5434:	00200737          	lui	a4,0x200
    5438:	d9db968b          	addigp	a3,-8804 # 200274 <twotokover4bot>
    543c:	962e                	c.add	a2,a1
    543e:	50f7774b          	fnmsub.s	fa4,fa4,fa5,fa0
    5442:	24872507          	flw	fa0,584(a4) # 200248 <atanlo+0x2c>
    5446:	00200737          	lui	a4,0x200
    544a:	24c72787          	flw	fa5,588(a4) # 20024c <atanlo+0x30>
    544e:	00200737          	lui	a4,0x200
    5452:	96ae                	c.add	a3,a1
    5454:	78a77543          	fmadd.s	fa0,fa4,fa0,fa5
    5458:	25072787          	flw	fa5,592(a4) # 200250 <atanlo+0x34>
    545c:	00200737          	lui	a4,0x200
    5460:	25472687          	flw	fa3,596(a4) # 200254 <atanlo+0x38>
    5464:	6290                	c.flw	fa2,0(a3)
    5466:	78e57543          	fmadd.s	fa0,fa0,fa4,fa5
    546a:	621c                	c.flw	fa5,0(a2)
    546c:	dadb970b          	addigp	a4,-8788 # 200284 <twotokover4top>
    5470:	972e                	c.add	a4,a1
    5472:	68e57543          	fmadd.s	fa0,fa0,fa4,fa3
    5476:	6314                	c.flw	fa3,0(a4)
    5478:	8789                	c.srai	a5,0x2
    547a:	10e57553          	fmul.s	fa0,fa0,fa4
    547e:	60a7f543          	fmadd.s	fa0,fa5,fa0,fa2
    5482:	00d57553          	fadd.s	fa0,fa0,fa3
    5486:	e92d                	c.bnez	a0,54f8 <expf+0x108>
    5488:	d007f7d3          	fcvt.s.w	fa5,a5
    548c:	002007b7          	lui	a5,0x200
    5490:	25c7a687          	flw	fa3,604(a5) # 20025c <atanlo+0x40>
    5494:	002007b7          	lui	a5,0x200
    5498:	2607a707          	flw	fa4,608(a5) # 200260 <atanlo+0x44>
    549c:	70d7f7c3          	fmadd.s	fa5,fa5,fa3,fa4
    54a0:	c01797d3          	fcvt.wu.s	a5,fa5,rtz
    54a4:	f00785d3          	fmv.w.x	fa1,a5
    54a8:	10b57553          	fmul.s	fa0,fa0,fa1
    54ac:	00008067          	jalr	zero,0(ra)
    54b0:	e00797d3          	fclass.s	a5,fa5
    54b4:	cbc5                	c.beqz	a5,5564 <expf+0x174>
    54b6:	7007f793          	andi	a5,a5,1792
    54ba:	e3cd                	c.bnez	a5,555c <expf+0x16c>
    54bc:	002007b7          	lui	a5,0x200
    54c0:	2307a707          	flw	fa4,560(a5) # 200230 <atanlo+0x14>
    54c4:	a0e797d3          	flt.s	a5,fa5,fa4
    54c8:	e7c1                	c.bnez	a5,5550 <expf+0x160>
    54ca:	002007b7          	lui	a5,0x200
    54ce:	2347a707          	flw	fa4,564(a5) # 200234 <atanlo+0x18>
    54d2:	a0f717d3          	flt.s	a5,fa4,fa5
    54d6:	cfd9                	c.beqz	a5,5574 <expf+0x184>
    54d8:	f00007d3          	fmv.w.x	fa5,zero
    54dc:	a0f517d3          	flt.s	a5,fa0,fa5
    54e0:	02200693          	addi	a3,zero,34
    54e4:	84dfc5ab          	swgp	a3,-1976 # 201d20 <__mculib_REENT_errno>
    54e8:	efb5                	c.bnez	a5,5564 <expf+0x174>
    54ea:	002007b7          	lui	a5,0x200
    54ee:	2387a507          	flw	fa0,568(a5) # 200238 <atanlo+0x1c>
    54f2:	10a57553          	fmul.s	fa0,fa0,fa0
    54f6:	8082                	c.jr	ra
    54f8:	4709                	c.li	a4,2
    54fa:	02e7c733          	div	a4,a5,a4
    54fe:	3f800637          	lui	a2,0x3f800
    5502:	f00007d3          	fmv.w.x	fa5,zero
    5506:	01771693          	slli	a3,a4,0x17
    550a:	96b2                	c.add	a3,a2
    550c:	f00685d3          	fmv.w.x	fa1,a3
    5510:	10b57553          	fmul.s	fa0,fa0,fa1
    5514:	8f99                	c.sub	a5,a4
    5516:	07de                	c.slli	a5,0x17
    5518:	97b2                	c.add	a5,a2
    551a:	f00785d3          	fmv.w.x	fa1,a5
    551e:	10b57553          	fmul.s	fa0,fa0,fa1
    5522:	a0f527d3          	feq.s	a5,fa0,fa5
    5526:	e3b9                	c.bnez	a5,556c <expf+0x17c>
    5528:	002007b7          	lui	a5,0x200
    552c:	2587a787          	flw	fa5,600(a5) # 200258 <atanlo+0x3c>
    5530:	a0f527d3          	feq.s	a5,fa0,fa5
    5534:	02078263          	beq	a5,zero,5558 <expf+0x168>
    5538:	002007b7          	lui	a5,0x200
    553c:	2387a507          	flw	fa0,568(a5) # 200238 <atanlo+0x1c>
    5540:	10a57553          	fmul.s	fa0,fa0,fa0
    5544:	02200713          	addi	a4,zero,34
    5548:	84efc5ab          	swgp	a4,-1976 # 201d20 <__mculib_REENT_errno>
    554c:	00008067          	jalr	zero,0(ra)
    5550:	002007b7          	lui	a5,0x200
    5554:	0047a507          	flw	fa0,4(a5) # 200004 <__DATA_BASE+0x4>
    5558:	00008067          	jalr	zero,0(ra)
    555c:	00a57553          	fadd.s	fa0,fa0,fa0
    5560:	00008067          	jalr	zero,0(ra)
    5564:	f0000553          	fmv.w.x	fa0,zero
    5568:	00008067          	jalr	zero,0(ra)
    556c:	20f78553          	fsgnj.s	fa0,fa5,fa5
    5570:	fd5ff06f          	jal	zero,5544 <expf+0x154>
    5574:	4505                	c.li	a0,1
    5576:	b579                	c.j	5404 <expf+0x14>

00005578 <logf>:
    5578:	e00507d3          	fmv.x.w	a5,fa0
    557c:	ff800737          	lui	a4,0xff800
    5580:	7f000637          	lui	a2,0x7f000
    5584:	973e                	c.add	a4,a5
    5586:	4581                	c.li	a1,0
    5588:	00078693          	addi	a3,a5,0
    558c:	08c77a63          	bgeu	a4,a2,5620 <logf+0xa8>
    5590:	00080737          	lui	a4,0x80
    5594:	9736                	c.add	a4,a3
    5596:	41775793          	srai	a5,a4,0x17
    559a:	f8178793          	addi	a5,a5,-127
    559e:	5947275b          	bfoz	a4,a4,22,20
    55a2:	95be                	c.add	a1,a5
    55a4:	01471613          	slli	a2,a4,0x14
    55a8:	07de                	c.slli	a5,0x17
    55aa:	3f800837          	lui	a6,0x3f800
    55ae:	00b76533          	or	a0,a4,a1
    55b2:	9642                	c.add	a2,a6
    55b4:	8e9d                	c.sub	a3,a5
    55b6:	cd69                	c.beqz	a0,5690 <logf+0x118>
    55b8:	f00685d3          	fmv.w.x	fa1,a3
    55bc:	f0060653          	fmv.w.x	fa2,a2
    55c0:	08c5f7d3          	fsub.s	fa5,fa1,fa2
    55c4:	00c5f553          	fadd.s	fa0,fa1,fa2
    55c8:	18a7f7d3          	fdiv.s	fa5,fa5,fa0
    55cc:	e0db978b          	addigp	a5,-8692 # 2002e4 <logalo>
    55d0:	dedb960b          	addigp	a2,-8724 # 2002c4 <logahi>
    55d4:	dcdb968b          	addigp	a3,-8756 # 2002a4 <cst_libm_logf>
    55d8:	0ce6065b          	lea.w	a2,a2,a4
    55dc:	0ce7875b          	lea.w	a4,a5,a4
    55e0:	0106a087          	flw	ft1,16(a3)
    55e4:	0146a107          	flw	ft2,20(a3)
    55e8:	0186a007          	flw	ft0,24(a3)
    55ec:	6ed0                	c.flw	fa2,28(a3)
    55ee:	620c                	c.flw	fa1,0(a2)
    55f0:	6314                	c.flw	fa3,0(a4)
    55f2:	002007b7          	lui	a5,0x200
    55f6:	d005f553          	fcvt.s.w	fa0,a1
    55fa:	10f7f753          	fmul.s	fa4,fa5,fa5
    55fe:	68c57643          	fmadd.s	fa2,fa0,fa2,fa3
    5602:	10e7f6d3          	fmul.s	fa3,fa5,fa4
    5606:	08277743          	fmadd.s	fa4,fa4,ft2,ft1
    560a:	58057543          	fmadd.s	fa0,fa0,ft0,fa1
    560e:	60e6f743          	fmadd.s	fa4,fa3,fa4,fa2
    5612:	0147a687          	flw	fa3,20(a5) # 200014 <__DATA_BASE+0x14>
    5616:	70d7f7c3          	fmadd.s	fa5,fa5,fa3,fa4
    561a:	00f57553          	fadd.s	fa0,fa0,fa5
    561e:	8082                	c.jr	ra
    5620:	00179713          	slli	a4,a5,0x1
    5624:	ff000637          	lui	a2,0xff000
    5628:	04e66063          	bltu	a2,a4,5668 <logf+0xf0>
    562c:	7f800737          	lui	a4,0x7f800
    5630:	04e78063          	beq	a5,a4,5670 <logf+0xf8>
    5634:	f00007d3          	fmv.w.x	fa5,zero
    5638:	a0f51753          	flt.s	a4,fa0,fa5
    563c:	ef11                	c.bnez	a4,5658 <logf+0xe0>
    563e:	a0f52753          	feq.s	a4,fa0,fa5
    5642:	eb0d                	c.bnez	a4,5674 <logf+0xfc>
    5644:	00200737          	lui	a4,0x200
    5648:	25c72787          	flw	fa5,604(a4) # 20025c <atanlo+0x40>
    564c:	55a5                	c.li	a1,-23
    564e:	10f576d3          	fmul.s	fa3,fa0,fa5
    5652:	e00686d3          	fmv.x.w	a3,fa3
    5656:	bf2d                	c.j	5590 <logf+0x18>
    5658:	02100713          	addi	a4,zero,33
    565c:	18f7f553          	fdiv.s	fa0,fa5,fa5
    5660:	84efc5ab          	swgp	a4,-1976 # 201d20 <__mculib_REENT_errno>
    5664:	00008067          	jalr	zero,0(ra)
    5668:	00a57553          	fadd.s	fa0,fa0,fa0
    566c:	00008067          	jalr	zero,0(ra)
    5670:	00008067          	jalr	zero,0(ra)
    5674:	002007b7          	lui	a5,0x200
    5678:	0047a507          	flw	fa0,4(a5) # 200004 <__DATA_BASE+0x4>
    567c:	02200713          	addi	a4,zero,34
    5680:	18f57553          	fdiv.s	fa0,fa0,fa5
    5684:	84efc5ab          	swgp	a4,-1976 # 201d20 <__mculib_REENT_errno>
    5688:	20a51553          	fsgnjn.s	fa0,fa0,fa0
    568c:	00008067          	jalr	zero,0(ra)
    5690:	002007b7          	lui	a5,0x200
    5694:	0047a787          	flw	fa5,4(a5) # 200004 <__DATA_BASE+0x4>
    5698:	f00686d3          	fmv.w.x	fa3,a3
    569c:	002007b7          	lui	a5,0x200
    56a0:	08f6f7d3          	fsub.s	fa5,fa3,fa5
    56a4:	2947a707          	flw	fa4,660(a5) # 200294 <twotokover4top+0x10>
    56a8:	002007b7          	lui	a5,0x200
    56ac:	2987a687          	flw	fa3,664(a5) # 200298 <twotokover4top+0x14>
    56b0:	002007b7          	lui	a5,0x200
    56b4:	10f7f553          	fmul.s	fa0,fa5,fa5
    56b8:	68e7f743          	fmadd.s	fa4,fa5,fa4,fa3
    56bc:	29c7a687          	flw	fa3,668(a5) # 20029c <twotokover4top+0x18>
    56c0:	002007b7          	lui	a5,0x200
    56c4:	68f77743          	fmadd.s	fa4,fa4,fa5,fa3
    56c8:	2a07a687          	flw	fa3,672(a5) # 2002a0 <twotokover4top+0x1c>
    56cc:	68f77743          	fmadd.s	fa4,fa4,fa5,fa3
    56d0:	78e57543          	fmadd.s	fa0,fa0,fa4,fa5
    56d4:	8082                	c.jr	ra
	...

000056d8 <sincosf>:
    56d8:	1101                	c.addi	sp,-32
    56da:	3f491737          	lui	a4,0x3f491
    56de:	cc22                	c.swsp	s0,24(sp)
    56e0:	ca26                	c.swsp	s1,20(sp)
    56e2:	fda70713          	addi	a4,a4,-38 # 3f490fda <VPE_SKIP+0x3e25ca69>
    56e6:	ce06                	c.swsp	ra,28(sp)
    56e8:	e00507d3          	fmv.x.w	a5,fa0
    56ec:	842a                	c.mv	s0,a0
    56ee:	84ae                	c.mv	s1,a1
    56f0:	7807a6db          	bfoz	a3,a5,30,0
    56f4:	0ed76063          	bltu	a4,a3,57d4 <sincosf+0xfc>
    56f8:	39800737          	lui	a4,0x39800
    56fc:	863e                	c.mv	a2,a5
    56fe:	0ae6eb63          	bltu	a3,a4,57b4 <sincosf+0xdc>
    5702:	4701                	c.li	a4,0
    5704:	00000693          	addi	a3,zero,0
    5708:	f00785d3          	fmv.w.x	fa1,a5
    570c:	10b5f6d3          	fmul.s	fa3,fa1,fa1
    5710:	00200637          	lui	a2,0x200
    5714:	30462787          	flw	fa5,772(a2) # 200304 <logalo+0x20>
    5718:	00200637          	lui	a2,0x200
    571c:	30862707          	flw	fa4,776(a2) # 200308 <logalo+0x24>
    5720:	00200637          	lui	a2,0x200
    5724:	002007b7          	lui	a5,0x200
    5728:	70f6f7c3          	fmadd.s	fa5,fa3,fa5,fa4
    572c:	30c62707          	flw	fa4,780(a2) # 20030c <logalo+0x28>
    5730:	00200637          	lui	a2,0x200
    5734:	70d7f7c3          	fmadd.s	fa5,fa5,fa3,fa4
    5738:	31062707          	flw	fa4,784(a2) # 200310 <logalo+0x2c>
    573c:	00200637          	lui	a2,0x200
    5740:	31462607          	flw	fa2,788(a2) # 200314 <logalo+0x30>
    5744:	00200637          	lui	a2,0x200
    5748:	10d7f7d3          	fmul.s	fa5,fa5,fa3
    574c:	60e6f743          	fmadd.s	fa4,fa3,fa4,fa2
    5750:	31862607          	flw	fa2,792(a2) # 200318 <logalo+0x34>
    5754:	58b7f7c3          	fmadd.s	fa5,fa5,fa1,fa1
    5758:	60d77743          	fmadd.s	fa4,fa4,fa3,fa2
    575c:	0047a607          	flw	fa2,4(a5) # 200004 <__DATA_BASE+0x4>
    5760:	60d77743          	fmadd.s	fa4,fa4,fa3,fa2
    5764:	ce81                	c.beqz	a3,577c <sincosf+0xa4>
    5766:	cb0d                	c.beqz	a4,5798 <sincosf+0xc0>
    5768:	20e71753          	fsgnjn.s	fa4,fa4,fa4
    576c:	e018                	c.fsw	fa4,0(s0)
    576e:	e09c                	c.fsw	fa5,0(s1)
    5770:	40f2                	c.lwsp	ra,28(sp)
    5772:	4462                	c.lwsp	s0,24(sp)
    5774:	44d2                	c.lwsp	s1,20(sp)
    5776:	6105                	c.addi16sp	sp,32
    5778:	00008067          	jalr	zero,0(ra)
    577c:	00070663          	beq	a4,zero,5788 <sincosf+0xb0>
    5780:	20f797d3          	fsgnjn.s	fa5,fa5,fa5
    5784:	20e71753          	fsgnjn.s	fa4,fa4,fa4
    5788:	e01c                	c.fsw	fa5,0(s0)
    578a:	40f2                	c.lwsp	ra,28(sp)
    578c:	4462                	c.lwsp	s0,24(sp)
    578e:	e098                	c.fsw	fa4,0(s1)
    5790:	44d2                	c.lwsp	s1,20(sp)
    5792:	6105                	c.addi16sp	sp,32
    5794:	00008067          	jalr	zero,0(ra)
    5798:	20f797d3          	fsgnjn.s	fa5,fa5,fa5
    579c:	fd1ff06f          	jal	zero,576c <sincosf+0x94>
    57a0:	85be                	c.mv	a1,a5
    57a2:	0068                	c.addi4spn	a0,sp,12
    57a4:	955ff0ef          	jal	ra,50f8 <ref__mathlib_rredf2>
    57a8:	4732                	c.lwsp	a4,12(sp)
    57aa:	e00507d3          	fmv.x.w	a5,fa0
    57ae:	08075d63          	bge	a4,zero,5848 <sincosf+0x170>
    57b2:	863e                	c.mv	a2,a5
    57b4:	00161613          	slli	a2,a2,0x1
    57b8:	ff000737          	lui	a4,0xff000
    57bc:	06e66e63          	bltu	a2,a4,5838 <sincosf+0x160>
    57c0:	06e60263          	beq	a2,a4,5824 <sincosf+0x14c>
    57c4:	f00785d3          	fmv.w.x	fa1,a5
    57c8:	00b5f7d3          	fadd.s	fa5,fa1,fa1
    57cc:	e09c                	c.fsw	fa5,0(s1)
    57ce:	e01c                	c.fsw	fa5,0(s0)
    57d0:	fa1ff06f          	jal	zero,5770 <sincosf+0x98>
    57d4:	46491737          	lui	a4,0x46491
    57d8:	e4870713          	addi	a4,a4,-440 # 46490e48 <VPE_SKIP+0x4525c8d7>
    57dc:	fcd762e3          	bltu	a4,a3,57a0 <sincosf+0xc8>
    57e0:	ca9b970b          	addigp	a4,-9048 # 200180 <cst_libm_rredf>
    57e4:	002006b7          	lui	a3,0x200
    57e8:	1686a587          	flw	fa1,360(a3) # 200168 <refarr+0x10c>
    57ec:	631c                	c.flw	fa5,0(a4)
    57ee:	6710                	c.flw	fa2,8(a4)
    57f0:	6754                	c.flw	fa3,12(a4)
    57f2:	58f577c3          	fmadd.s	fa5,fa0,fa5,fa1
    57f6:	6b18                	c.flw	fa4,16(a4)
    57f8:	6b48                	c.flw	fa0,20(a4)
    57fa:	08b7f7d3          	fsub.s	fa5,fa5,fa1
    57fe:	f00785d3          	fmv.w.x	fa1,a5
    5802:	58c7f64b          	fnmsub.s	fa2,fa5,fa2,fa1
    5806:	c0079753          	fcvt.w.s	a4,fa5,rtz
    580a:	60d7f6cb          	fnmsub.s	fa3,fa5,fa3,fa2
    580e:	00177693          	andi	a3,a4,1
    5812:	8b09                	c.andi	a4,2
    5814:	68e7f74b          	fnmsub.s	fa4,fa5,fa4,fa3
    5818:	70a7f5cb          	fnmsub.s	fa1,fa5,fa0,fa4
    581c:	e00587d3          	fmv.x.w	a5,fa1
    5820:	ee9ff06f          	jal	zero,5708 <sincosf+0x30>
    5824:	f00007d3          	fmv.w.x	fa5,zero
    5828:	02100713          	addi	a4,zero,33
    582c:	18f7f7d3          	fdiv.s	fa5,fa5,fa5
    5830:	84efc5ab          	swgp	a4,-1976 # 201d20 <__mculib_REENT_errno>
    5834:	f99ff06f          	jal	zero,57cc <sincosf+0xf4>
    5838:	c01c                	c.sw	a5,0(s0)
    583a:	00200737          	lui	a4,0x200
    583e:	b2fba7ab          	lwgp	a5,-9428 # 200004 <__DATA_BASE+0x4>
    5842:	c09c                	c.sw	a5,0(s1)
    5844:	f2dff06f          	jal	zero,5770 <sincosf+0x98>
    5848:	00177693          	andi	a3,a4,1
    584c:	8b09                	c.andi	a4,2
    584e:	bd6d                	c.j	5708 <sincosf+0x30>
    5850:	0001                	c.addi	zero,0
	...

00005854 <sinf>:
    5854:	3f4917b7          	lui	a5,0x3f491
    5858:	fda78793          	addi	a5,a5,-38 # 3f490fda <VPE_SKIP+0x3e25ca69>
    585c:	e00505d3          	fmv.x.w	a1,fa0
    5860:	7805a75b          	bfoz	a4,a1,30,0
    5864:	02e7e863          	bltu	a5,a4,5894 <sinf+0x40>
    5868:	398007b7          	lui	a5,0x39800
    586c:	0cf76463          	bltu	a4,a5,5934 <sinf+0xe0>
    5870:	10a577d3          	fmul.s	fa5,fa0,fa0
    5874:	f28f978b          	addigp	a5,-2264 # 201c00 <cst_libm_sincosf>
    5878:	20a505d3          	fsgnj.s	fa1,fa0,fa0
    587c:	63d4                	c.flw	fa3,4(a5)
    587e:	6788                	c.flw	fa0,8(a5)
    5880:	6398                	c.flw	fa4,0(a5)
    5882:	68f57543          	fmadd.s	fa0,fa0,fa5,fa3
    5886:	70f57543          	fmadd.s	fa0,fa0,fa5,fa4
    588a:	10f57553          	fmul.s	fa0,fa0,fa5
    588e:	58a5f543          	fmadd.s	fa0,fa1,fa0,fa1
    5892:	8082                	c.jr	ra
    5894:	1101                	c.addi	sp,-32
    5896:	464917b7          	lui	a5,0x46491
    589a:	e4878793          	addi	a5,a5,-440 # 46490e48 <VPE_SKIP+0x4525c8d7>
    589e:	ce06                	c.swsp	ra,28(sp)
    58a0:	0ce7e263          	bltu	a5,a4,5964 <sinf+0x110>
    58a4:	ca9b978b          	addigp	a5,-9048 # 200180 <cst_libm_rredf>
    58a8:	00200737          	lui	a4,0x200
    58ac:	16872587          	flw	fa1,360(a4) # 200168 <refarr+0x10c>
    58b0:	639c                	c.flw	fa5,0(a5)
    58b2:	6790                	c.flw	fa2,8(a5)
    58b4:	67d4                	c.flw	fa3,12(a5)
    58b6:	58f577c3          	fmadd.s	fa5,fa0,fa5,fa1
    58ba:	6b98                	c.flw	fa4,16(a5)
    58bc:	6bc8                	c.flw	fa0,20(a5)
    58be:	08b7f7d3          	fsub.s	fa5,fa5,fa1
    58c2:	f00585d3          	fmv.w.x	fa1,a1
    58c6:	58c7f64b          	fnmsub.s	fa2,fa5,fa2,fa1
    58ca:	c0079753          	fcvt.w.s	a4,fa5,rtz
    58ce:	60d7f6cb          	fnmsub.s	fa3,fa5,fa3,fa2
    58d2:	00177793          	andi	a5,a4,1
    58d6:	8b09                	c.andi	a4,2
    58d8:	68e7f74b          	fnmsub.s	fa4,fa5,fa4,fa3
    58dc:	70a7f5cb          	fnmsub.s	fa1,fa5,fa0,fa4
    58e0:	e00585d3          	fmv.x.w	a1,fa1
    58e4:	f00585d3          	fmv.w.x	fa1,a1
    58e8:	10b5f7d3          	fmul.s	fa5,fa1,fa1
    58ec:	02078663          	beq	a5,zero,5918 <sinf+0xc4>
    58f0:	f28f978b          	addigp	a5,-2264 # 201c00 <cst_libm_sincosf>
    58f4:	6f88                	c.flw	fa0,24(a5)
    58f6:	6bd0                	c.flw	fa2,20(a5)
    58f8:	6b94                	c.flw	fa3,16(a5)
    58fa:	67d8                	c.flw	fa4,12(a5)
    58fc:	60f57543          	fmadd.s	fa0,fa0,fa5,fa2
    5900:	68f57543          	fmadd.s	fa0,fa0,fa5,fa3
    5904:	70f57543          	fmadd.s	fa0,fa0,fa5,fa4
    5908:	00070463          	beq	a4,zero,5910 <sinf+0xbc>
    590c:	20a51553          	fsgnjn.s	fa0,fa0,fa0
    5910:	40f2                	c.lwsp	ra,28(sp)
    5912:	6105                	c.addi16sp	sp,32
    5914:	00008067          	jalr	zero,0(ra)
    5918:	f28f978b          	addigp	a5,-2264 # 201c00 <cst_libm_sincosf>
    591c:	6788                	c.flw	fa0,8(a5)
    591e:	63d4                	c.flw	fa3,4(a5)
    5920:	6398                	c.flw	fa4,0(a5)
    5922:	68f57543          	fmadd.s	fa0,fa0,fa5,fa3
    5926:	70f57543          	fmadd.s	fa0,fa0,fa5,fa4
    592a:	10f57553          	fmul.s	fa0,fa0,fa5
    592e:	58b57543          	fmadd.s	fa0,fa0,fa1,fa1
    5932:	bfd9                	c.j	5908 <sinf+0xb4>
    5934:	00159693          	slli	a3,a1,0x1
    5938:	ff0007b7          	lui	a5,0xff000
    593c:	02f6e263          	bltu	a3,a5,5960 <sinf+0x10c>
    5940:	00f68663          	beq	a3,a5,594c <sinf+0xf8>
    5944:	00a57553          	fadd.s	fa0,fa0,fa0
    5948:	00008067          	jalr	zero,0(ra)
    594c:	02100713          	addi	a4,zero,33
    5950:	f0000553          	fmv.w.x	fa0,zero
    5954:	18a57553          	fdiv.s	fa0,fa0,fa0
    5958:	84efc5ab          	swgp	a4,-1976 # 201d20 <__mculib_REENT_errno>
    595c:	00008067          	jalr	zero,0(ra)
    5960:	00008067          	jalr	zero,0(ra)
    5964:	0068                	c.addi4spn	a0,sp,12
    5966:	f92ff0ef          	jal	ra,50f8 <ref__mathlib_rredf2>
    596a:	4732                	c.lwsp	a4,12(sp)
    596c:	e00505d3          	fmv.x.w	a1,fa0
    5970:	02075863          	bge	a4,zero,59a0 <sinf+0x14c>
    5974:	00159693          	slli	a3,a1,0x1
    5978:	ff0007b7          	lui	a5,0xff000
    597c:	f8f6eae3          	bltu	a3,a5,5910 <sinf+0xbc>
    5980:	00f68663          	beq	a3,a5,598c <sinf+0x138>
    5984:	00a57553          	fadd.s	fa0,fa0,fa0
    5988:	f89ff06f          	jal	zero,5910 <sinf+0xbc>
    598c:	f0000553          	fmv.w.x	fa0,zero
    5990:	02100713          	addi	a4,zero,33
    5994:	18a57553          	fdiv.s	fa0,fa0,fa0
    5998:	84efc5ab          	swgp	a4,-1976 # 201d20 <__mculib_REENT_errno>
    599c:	f75ff06f          	jal	zero,5910 <sinf+0xbc>
    59a0:	00177793          	andi	a5,a4,1
    59a4:	8b09                	c.andi	a4,2
    59a6:	bf3d                	c.j	58e4 <sinf+0x90>

000059a8 <sqrtf>:
    59a8:	715d                	c.addi16sp	sp,-80
    59aa:	bc22                	c.fsdsp	fs0,56(sp)
    59ac:	c686                	c.swsp	ra,76(sp)
    59ae:	20a50453          	fsgnj.s	fs0,fa0,fa0
    59b2:	2059                	c.jal	5a38 <__ieee754_sqrtf>
    59b4:	803fa7ab          	lwgp	a5,-2048 # 201cd8 <__fdlib_version>
    59b8:	577d                	c.li	a4,-1
    59ba:	00e78b63          	beq	a5,a4,59d0 <sqrtf+0x28>
    59be:	a0842753          	feq.s	a4,fs0,fs0
    59c2:	c719                	c.beqz	a4,59d0 <sqrtf+0x28>
    59c4:	f00007d3          	fmv.w.x	fa5,zero
    59c8:	a0f41753          	flt.s	a4,fs0,fa5
    59cc:	00071663          	bne	a4,zero,59d8 <sqrtf+0x30>
    59d0:	40b6                	c.lwsp	ra,76(sp)
    59d2:	3462                	c.fldsp	fs0,56(sp)
    59d4:	6161                	c.addi16sp	sp,80
    59d6:	8082                	c.jr	ra
    59d8:	42040453          	fcvt.d.s	fs0,fs0
    59dc:	4705                	c.li	a4,1
    59de:	c43a                	c.swsp	a4,8(sp)
    59e0:	e45b970b          	addigp	a4,-8636 # 20031c <logalo+0x38>
    59e4:	c63a                	c.swsp	a4,12(sp)
    59e6:	d402                	c.swsp	zero,40(sp)
    59e8:	ac22                	c.fsdsp	fs0,24(sp)
    59ea:	a822                	c.fsdsp	fs0,16(sp)
    59ec:	eb85                	c.bnez	a5,5a1c <sqrtf+0x74>
    59ee:	d002                	c.swsp	zero,32(sp)
    59f0:	02012223          	sw	zero,36(sp)
    59f4:	0028                	c.addi4spn	a0,sp,8
    59f6:	2219                	c.jal	5afc <matherr>
    59f8:	00051663          	bne	a0,zero,5a04 <sqrtf+0x5c>
    59fc:	02100713          	addi	a4,zero,33
    5a00:	84efc5ab          	swgp	a4,-1976 # 201d20 <__mculib_REENT_errno>
    5a04:	57a2                	c.lwsp	a5,40(sp)
    5a06:	3502                	c.fldsp	fa0,32(sp)
    5a08:	00078463          	beq	a5,zero,5a10 <sqrtf+0x68>
    5a0c:	84ffc5ab          	swgp	a5,-1976 # 201d20 <__mculib_REENT_errno>
    5a10:	40157553          	fcvt.s.d	fa0,fa0
    5a14:	40b6                	c.lwsp	ra,76(sp)
    5a16:	3462                	c.fldsp	fs0,56(sp)
    5a18:	6161                	c.addi16sp	sp,80
    5a1a:	8082                	c.jr	ra
    5a1c:	d2000553          	fcvt.d.w	fa0,zero
    5a20:	1aa57553          	fdiv.d	fa0,fa0,fa0
    5a24:	b02a                	c.fsdsp	fa0,32(sp)
    5a26:	bc27e75b          	bnec	a5,2,59f4 <sqrtf+0x4c>
    5a2a:	02100713          	addi	a4,zero,33
    5a2e:	40157553          	fcvt.s.d	fa0,fa0
    5a32:	84efc5ab          	swgp	a4,-1976 # 201d20 <__mculib_REENT_errno>
    5a36:	bff9                	c.j	5a14 <sqrtf+0x6c>

00005a38 <__ieee754_sqrtf>:
    5a38:	e0050753          	fmv.x.w	a4,fa0
    5a3c:	7f8006b7          	lui	a3,0x7f800
    5a40:	780727db          	bfoz	a5,a4,30,0
    5a44:	08d7f463          	bgeu	a5,a3,5acc <__ieee754_sqrtf+0x94>
    5a48:	cfb5                	c.beqz	a5,5ac4 <__ieee754_sqrtf+0x8c>
    5a4a:	87ba                	c.mv	a5,a4
    5a4c:	08074a63          	blt	a4,zero,5ae0 <__ieee754_sqrtf+0xa8>
    5a50:	8ef9                	c.and	a3,a4
    5a52:	41775613          	srai	a2,a4,0x17
    5a56:	ea99                	c.bnez	a3,5a6c <__ieee754_sqrtf+0x34>
    5a58:	008006b7          	lui	a3,0x800
    5a5c:	8f75                	c.and	a4,a3
    5a5e:	eb59                	c.bnez	a4,5af4 <__ieee754_sqrtf+0xbc>
    5a60:	0786                	c.slli	a5,0x1
    5a62:	86ba                	c.mv	a3,a4
    5a64:	0705                	c.addi	a4,1
    5a66:	bf77fd5b          	bbc	a5,23,5a60 <__ieee754_sqrtf+0x28>
    5a6a:	8e15                	c.sub	a2,a3
    5a6c:	5807a7db          	bfoz	a5,a5,22,0
    5a70:	008006b7          	lui	a3,0x800
    5a74:	f8160713          	addi	a4,a2,-127
    5a78:	00d7e7b3          	or	a5,a5,a3
    5a7c:	0606705b          	bbc	a2,0,5adc <__ieee754_sqrtf+0xa4>
    5a80:	40175513          	srai	a0,a4,0x1
    5a84:	0786                	c.slli	a5,0x1
    5a86:	46e5                	c.li	a3,25
    5a88:	4801                	c.li	a6,0
    5a8a:	4581                	c.li	a1,0
    5a8c:	01000737          	lui	a4,0x1000
    5a90:	00e58633          	add	a2,a1,a4
    5a94:	16fd                	c.addi	a3,-1
    5a96:	00c7c763          	blt	a5,a2,5aa4 <__ieee754_sqrtf+0x6c>
    5a9a:	00e605b3          	add	a1,a2,a4
    5a9e:	8f91                	c.sub	a5,a2
    5aa0:	00e80833          	add	a6,a6,a4
    5aa4:	0786                	c.slli	a5,0x1
    5aa6:	8305                	c.srli	a4,0x1
    5aa8:	f6e5                	c.bnez	a3,5a90 <__ieee754_sqrtf+0x58>
    5aaa:	c789                	c.beqz	a5,5ab4 <__ieee754_sqrtf+0x7c>
    5aac:	00180813          	addi	a6,a6,1 # 3f800001 <VPE_SKIP+0x3e5cba90>
    5ab0:	ffe87813          	andi	a6,a6,-2
    5ab4:	3f000737          	lui	a4,0x3f000
    5ab8:	40185813          	srai	a6,a6,0x1
    5abc:	983a                	c.add	a6,a4
    5abe:	01751713          	slli	a4,a0,0x17
    5ac2:	9742                	c.add	a4,a6
    5ac4:	f0070553          	fmv.w.x	fa0,a4
    5ac8:	00008067          	jalr	zero,0(ra)
    5acc:	50a57743          	fmadd.s	fa4,fa0,fa0,fa0
    5ad0:	e0070753          	fmv.x.w	a4,fa4
    5ad4:	f0070553          	fmv.w.x	fa0,a4
    5ad8:	00008067          	jalr	zero,0(ra)
    5adc:	0786                	c.slli	a5,0x1
    5ade:	b74d                	c.j	5a80 <__ieee754_sqrtf+0x48>
    5ae0:	08a577d3          	fsub.s	fa5,fa0,fa0
    5ae4:	18f7f5d3          	fdiv.s	fa1,fa5,fa5
    5ae8:	e0058753          	fmv.x.w	a4,fa1
    5aec:	f0070553          	fmv.w.x	fa0,a4
    5af0:	00008067          	jalr	zero,0(ra)
    5af4:	56fd                	c.li	a3,-1
    5af6:	8e15                	c.sub	a2,a3
    5af8:	bf95                	c.j	5a6c <__ieee754_sqrtf+0x34>
    5afa:	0001                	c.addi	zero,0

00005afc <matherr>:
    5afc:	4501                	c.li	a0,0
    5afe:	8082                	c.jr	ra

00005b00 <__errno>:
    5b00:	849f950b          	addigp	a0,-1976 # 201d20 <__mculib_REENT_errno>
    5b04:	8082                	c.jr	ra

00005b06 <localtime>:
    5b06:	93df958b          	addigp	a1,-1732 # 201e14 <__mculib_REENT_localtime_buf>
    5b0a:	a009                	c.j	5b0c <localtime_r>

00005b0c <localtime_r>:
    5b0c:	28d032ef          	jal	t0,9598 <__riscv_save_4>
    5b10:	1141                	c.addi	sp,-16
    5b12:	8a2a                	c.mv	s4,a0
    5b14:	c62e                	c.swsp	a1,12(sp)
    5b16:	051000ef          	jal	ra,6366 <__gettzinfo>
    5b1a:	45b2                	c.lwsp	a1,12(sp)
    5b1c:	892a                	c.mv	s2,a0
    5b1e:	8552                	c.mv	a0,s4
    5b20:	04d000ef          	jal	ra,636c <gmtime_r>
    5b24:	495c                	c.lw	a5,20(a0)
    5b26:	842a                	c.mv	s0,a0
    5b28:	76c78993          	addi	s3,a5,1900 # ff00076c <__start_addr+0x7f00075c>
    5b2c:	8b8d                	c.andi	a5,3
    5b2e:	e799                	c.bnez	a5,5b3c <localtime_r+0x30>
    5b30:	06400793          	addi	a5,zero,100
    5b34:	02f9e7b3          	rem	a5,s3,a5
    5b38:	4485                	c.li	s1,1
    5b3a:	e799                	c.bnez	a5,5b48 <localtime_r+0x3c>
    5b3c:	19000493          	addi	s1,zero,400
    5b40:	0299e4b3          	rem	s1,s3,s1
    5b44:	0014b493          	sltiu	s1,s1,1
    5b48:	03000793          	addi	a5,zero,48
    5b4c:	02f484b3          	mul	s1,s1,a5
    5b50:	e4db978b          	addigp	a5,-8628 # 200324 <__month_lengths>
    5b54:	94be                	c.add	s1,a5
    5b56:	2661                	c.jal	5ede <__tz_lock>
    5b58:	2669                	c.jal	5ee2 <_tzset_unlocked>
    5b5a:	857fa7ab          	lwgp	a5,-1964 # 201d2c <_daylight>
    5b5e:	c3a1                	c.beqz	a5,5b9e <localtime_r+0x92>
    5b60:	00492783          	lw	a5,4(s2)
    5b64:	03379563          	bne	a5,s3,5b8e <localtime_r+0x82>
    5b68:	00092683          	lw	a3,0(s2)
    5b6c:	000a2783          	lw	a5,0(s4)
    5b70:	01c92703          	lw	a4,28(s2)
    5b74:	e29d                	c.bnez	a3,5b9a <localtime_r+0x8e>
    5b76:	02e7db63          	bge	a5,a4,5bac <localtime_r+0xa0>
    5b7a:	03892703          	lw	a4,56(s2)
    5b7e:	00e7a6b3          	slt	a3,a5,a4
    5b82:	d014                	c.sw	a3,32(s0)
    5b84:	02e7c663          	blt	a5,a4,5bb0 <localtime_r+0xa4>
    5b88:	02092703          	lw	a4,32(s2)
    5b8c:	a025                	c.j	5bb4 <localtime_r+0xa8>
    5b8e:	854e                	c.mv	a0,s3
    5b90:	2c2d                	c.jal	5dca <__tzcalc_limits>
    5b92:	f979                	c.bnez	a0,5b68 <localtime_r+0x5c>
    5b94:	57fd                	c.li	a5,-1
    5b96:	d01c                	c.sw	a5,32(s0)
    5b98:	bfc5                	c.j	5b88 <localtime_r+0x7c>
    5b9a:	00e7d563          	bge	a5,a4,5ba4 <localtime_r+0x98>
    5b9e:	02042023          	sw	zero,32(s0)
    5ba2:	b7dd                	c.j	5b88 <localtime_r+0x7c>
    5ba4:	03892703          	lw	a4,56(s2)
    5ba8:	fee7dbe3          	bge	a5,a4,5b9e <localtime_r+0x92>
    5bac:	4785                	c.li	a5,1
    5bae:	d01c                	c.sw	a5,32(s0)
    5bb0:	03c92703          	lw	a4,60(s2)
    5bb4:	6605                	c.lui	a2,0x1
    5bb6:	e1060613          	addi	a2,a2,-496 # e10 <__sharedata_end_addr+0xaa0>
    5bba:	02c766b3          	rem	a3,a4,a2
    5bbe:	03c00593          	addi	a1,zero,60
    5bc2:	401c                	c.lw	a5,0(s0)
    5bc4:	02c74633          	div	a2,a4,a2
    5bc8:	4418                	c.lw	a4,8(s0)
    5bca:	02b6e533          	rem	a0,a3,a1
    5bce:	8f11                	c.sub	a4,a2
    5bd0:	c418                	c.sw	a4,8(s0)
    5bd2:	03b00613          	addi	a2,zero,59
    5bd6:	02b6c5b3          	div	a1,a3,a1
    5bda:	4054                	c.lw	a3,4(s0)
    5bdc:	8f89                	c.sub	a5,a0
    5bde:	c01c                	c.sw	a5,0(s0)
    5be0:	8e8d                	c.sub	a3,a1
    5be2:	c054                	c.sw	a3,4(s0)
    5be4:	06f65563          	bge	a2,a5,5c4e <localtime_r+0x142>
    5be8:	0685                	c.addi	a3,1
    5bea:	fc478793          	addi	a5,a5,-60
    5bee:	c054                	c.sw	a3,4(s0)
    5bf0:	c01c                	c.sw	a5,0(s0)
    5bf2:	405c                	c.lw	a5,4(s0)
    5bf4:	03b00693          	addi	a3,zero,59
    5bf8:	06f6d263          	bge	a3,a5,5c5c <localtime_r+0x150>
    5bfc:	0705                	c.addi	a4,1
    5bfe:	fc478793          	addi	a5,a5,-60
    5c02:	c418                	c.sw	a4,8(s0)
    5c04:	c05c                	c.sw	a5,4(s0)
    5c06:	441c                	c.lw	a5,8(s0)
    5c08:	475d                	c.li	a4,23
    5c0a:	06f75b63          	bge	a4,a5,5c80 <localtime_r+0x174>
    5c0e:	4c58                	c.lw	a4,28(s0)
    5c10:	4699                	c.li	a3,6
    5c12:	0705                	c.addi	a4,1
    5c14:	cc58                	c.sw	a4,28(s0)
    5c16:	4c18                	c.lw	a4,24(s0)
    5c18:	0705                	c.addi	a4,1
    5c1a:	04e6c863          	blt	a3,a4,5c6a <localtime_r+0x15e>
    5c1e:	cc18                	c.sw	a4,24(s0)
    5c20:	17a1                	c.addi	a5,-24
    5c22:	4458                	c.lw	a4,12(s0)
    5c24:	c41c                	c.sw	a5,8(s0)
    5c26:	481c                	c.lw	a5,16(s0)
    5c28:	0705                	c.addi	a4,1
    5c2a:	0cf484db          	lea.w	s1,s1,a5
    5c2e:	c458                	c.sw	a4,12(s0)
    5c30:	4094                	c.lw	a3,0(s1)
    5c32:	00e6d963          	bge	a3,a4,5c44 <localtime_r+0x138>
    5c36:	8f15                	c.sub	a4,a3
    5c38:	c458                	c.sw	a4,12(s0)
    5c3a:	00178713          	addi	a4,a5,1
    5c3e:	02b7d95b          	beqc	a5,11,5c70 <localtime_r+0x164>
    5c42:	c818                	c.sw	a4,16(s0)
    5c44:	2c71                	c.jal	5ee0 <__tz_unlock>
    5c46:	8522                	c.mv	a0,s0
    5c48:	0141                	c.addi	sp,16
    5c4a:	1830306f          	jal	zero,95cc <__riscv_restore_4>
    5c4e:	fa07d2e3          	bge	a5,zero,5bf2 <localtime_r+0xe6>
    5c52:	16fd                	c.addi	a3,-1
    5c54:	03c78793          	addi	a5,a5,60
    5c58:	c054                	c.sw	a3,4(s0)
    5c5a:	bf59                	c.j	5bf0 <localtime_r+0xe4>
    5c5c:	fa07d5e3          	bge	a5,zero,5c06 <localtime_r+0xfa>
    5c60:	177d                	c.addi	a4,-1
    5c62:	03c78793          	addi	a5,a5,60
    5c66:	c418                	c.sw	a4,8(s0)
    5c68:	bf71                	c.j	5c04 <localtime_r+0xf8>
    5c6a:	00042c23          	sw	zero,24(s0)
    5c6e:	bf4d                	c.j	5c20 <localtime_r+0x114>
    5c70:	485c                	c.lw	a5,20(s0)
    5c72:	00042823          	sw	zero,16(s0)
    5c76:	0785                	c.addi	a5,1
    5c78:	c85c                	c.sw	a5,20(s0)
    5c7a:	00042e23          	sw	zero,28(s0)
    5c7e:	b7d9                	c.j	5c44 <localtime_r+0x138>
    5c80:	fc07d2e3          	bge	a5,zero,5c44 <localtime_r+0x138>
    5c84:	4c58                	c.lw	a4,28(s0)
    5c86:	177d                	c.addi	a4,-1
    5c88:	cc58                	c.sw	a4,28(s0)
    5c8a:	4c18                	c.lw	a4,24(s0)
    5c8c:	177d                	c.addi	a4,-1
    5c8e:	02074463          	blt	a4,zero,5cb6 <localtime_r+0x1aa>
    5c92:	cc18                	c.sw	a4,24(s0)
    5c94:	4458                	c.lw	a4,12(s0)
    5c96:	07e1                	c.addi	a5,24
    5c98:	177d                	c.addi	a4,-1
    5c9a:	c458                	c.sw	a4,12(s0)
    5c9c:	c41c                	c.sw	a5,8(s0)
    5c9e:	f35d                	c.bnez	a4,5c44 <localtime_r+0x138>
    5ca0:	481c                	c.lw	a5,16(s0)
    5ca2:	17fd                	c.addi	a5,-1
    5ca4:	0007cb63          	blt	a5,zero,5cba <localtime_r+0x1ae>
    5ca8:	c81c                	c.sw	a5,16(s0)
    5caa:	481c                	c.lw	a5,16(s0)
    5cac:	0cf484db          	lea.w	s1,s1,a5
    5cb0:	409c                	c.lw	a5,0(s1)
    5cb2:	c45c                	c.sw	a5,12(s0)
    5cb4:	bf41                	c.j	5c44 <localtime_r+0x138>
    5cb6:	4719                	c.li	a4,6
    5cb8:	bfe9                	c.j	5c92 <localtime_r+0x186>
    5cba:	47ad                	c.li	a5,11
    5cbc:	c81c                	c.sw	a5,16(s0)
    5cbe:	485c                	c.lw	a5,20(s0)
    5cc0:	fff78713          	addi	a4,a5,-1
    5cc4:	76b78793          	addi	a5,a5,1899
    5cc8:	c858                	c.sw	a4,20(s0)
    5cca:	0037f713          	andi	a4,a5,3
    5cce:	e719                	c.bnez	a4,5cdc <localtime_r+0x1d0>
    5cd0:	06400693          	addi	a3,zero,100
    5cd4:	02d7e6b3          	rem	a3,a5,a3
    5cd8:	4705                	c.li	a4,1
    5cda:	e699                	c.bnez	a3,5ce8 <localtime_r+0x1dc>
    5cdc:	19000713          	addi	a4,zero,400
    5ce0:	02e7e7b3          	rem	a5,a5,a4
    5ce4:	0017b713          	sltiu	a4,a5,1
    5ce8:	16c70793          	addi	a5,a4,364 # 3f00016c <VPE_SKIP+0x3ddcbbfb>
    5cec:	cc5c                	c.sw	a5,28(s0)
    5cee:	bf75                	c.j	5caa <localtime_r+0x19e>

00005cf0 <memset>:
    5cf0:	832a                	c.mv	t1,a0
    5cf2:	00c503b3          	add	t2,a0,a2
    5cf6:	00357693          	andi	a3,a0,3
    5cfa:	ce81                	c.beqz	a3,5d12 <memset+0x22>
    5cfc:	ffc68693          	addi	a3,a3,-4 # 7ffffc <__SHAREDATA_BASE+0x4ffffc>
    5d00:	40d507b3          	sub	a5,a0,a3
    5d04:	06f3e463          	bltu	t2,a5,5d6c <memset+0x7c>
    5d08:	00b50023          	sb	a1,0(a0)
    5d0c:	0505                	c.addi	a0,1
    5d0e:	fea79de3          	bne	a5,a0,5d08 <memset+0x18>
    5d12:	04750d63          	beq	a0,t2,5d6c <memset+0x7c>
    5d16:	05e2                	c.slli	a1,0x18
    5d18:	0085d793          	srli	a5,a1,0x8
    5d1c:	95be                	c.add	a1,a5
    5d1e:	0105d793          	srli	a5,a1,0x10
    5d22:	95be                	c.add	a1,a5
    5d24:	40a38633          	sub	a2,t2,a0
    5d28:	02000713          	addi	a4,zero,32
    5d2c:	fe067693          	andi	a3,a2,-32
    5d30:	00a687b3          	add	a5,a3,a0
    5d34:	e285                	c.bnez	a3,5d54 <memset+0x64>
    5d36:	ffc67693          	andi	a3,a2,-4
    5d3a:	ca8d                	c.beqz	a3,5d6c <memset+0x7c>
    5d3c:	40d70633          	sub	a2,a4,a3
    5d40:	00a687b3          	add	a5,a3,a0
    5d44:	8736                	c.mv	a4,a3
    5d46:	8205                	c.srli	a2,0x1
    5d48:	00000697          	auipc	a3,0x0
    5d4c:	00c686b3          	add	a3,a3,a2
    5d50:	00c68067          	jalr	zero,12(a3) # 5d54 <memset+0x64>
    5d54:	cd4c                	c.sw	a1,28(a0)
    5d56:	cd0c                	c.sw	a1,24(a0)
    5d58:	c94c                	c.sw	a1,20(a0)
    5d5a:	c90c                	c.sw	a1,16(a0)
    5d5c:	c54c                	c.sw	a1,12(a0)
    5d5e:	c50c                	c.sw	a1,8(a0)
    5d60:	c14c                	c.sw	a1,4(a0)
    5d62:	c10c                	c.sw	a1,0(a0)
    5d64:	953a                	c.add	a0,a4
    5d66:	fef517e3          	bne	a0,a5,5d54 <memset+0x64>
    5d6a:	bf6d                	c.j	5d24 <memset+0x34>
    5d6c:	879e                	c.mv	a5,t2
    5d6e:	f8751de3          	bne	a0,t2,5d08 <memset+0x18>
    5d72:	851a                	c.mv	a0,t1
    5d74:	8082                	c.jr	ra

00005d76 <siprintf>:
    5d76:	7139                	c.addi16sp	sp,-64
    5d78:	d432                	c.swsp	a2,40(sp)
    5d7a:	1030                	c.addi4spn	a2,sp,40
    5d7c:	ce06                	c.swsp	ra,28(sp)
    5d7e:	d636                	c.swsp	a3,44(sp)
    5d80:	d83a                	c.swsp	a4,48(sp)
    5d82:	da3e                	c.swsp	a5,52(sp)
    5d84:	dc42                	c.swsp	a6,56(sp)
    5d86:	de46                	c.swsp	a7,60(sp)
    5d88:	c632                	c.swsp	a2,12(sp)
    5d8a:	2b15                	c.jal	62be <vsiprintf>
    5d8c:	40f2                	c.lwsp	ra,28(sp)
    5d8e:	6121                	c.addi16sp	sp,64
    5d90:	8082                	c.jr	ra
	...

00005d94 <strcpy>:
    5d94:	832a                	c.mv	t1,a0
    5d96:	00b566b3          	or	a3,a0,a1
    5d9a:	8a8d                	c.andi	a3,3
    5d9c:	ee91                	c.bnez	a3,5db8 <strcpy+0x24>
    5d9e:	419c                	c.lw	a5,0(a1)
    5da0:	2007875b          	ffb	a4,a5,zero
    5da4:	00071a63          	bne	a4,zero,5db8 <strcpy+0x24>
    5da8:	0591                	c.addi	a1,4
    5daa:	c11c                	c.sw	a5,0(a0)
    5dac:	0511                	c.addi	a0,4
    5dae:	419c                	c.lw	a5,0(a1)
    5db0:	2007875b          	ffb	a4,a5,zero
    5db4:	fe070ae3          	beq	a4,zero,5da8 <strcpy+0x14>
    5db8:	0005c683          	lbu	a3,0(a1)
    5dbc:	0585                	c.addi	a1,1
    5dbe:	00d50023          	sb	a3,0(a0)
    5dc2:	0505                	c.addi	a0,1
    5dc4:	faf5                	c.bnez	a3,5db8 <strcpy+0x24>
    5dc6:	851a                	c.mv	a0,t1
    5dc8:	8082                	c.jr	ra

00005dca <__tzcalc_limits>:
    5dca:	7e8032ef          	jal	t0,95b2 <__riscv_save_0>
    5dce:	842a                	c.mv	s0,a0
    5dd0:	2b59                	c.jal	6366 <__gettzinfo>
    5dd2:	7b100793          	addi	a5,zero,1969
    5dd6:	1087d263          	bge	a5,s0,5eda <__tzcalc_limits+0x110>
    5dda:	84e40693          	addi	a3,s0,-1970
    5dde:	16d00793          	addi	a5,zero,365
    5de2:	02f686b3          	mul	a3,a3,a5
    5de6:	84f40793          	addi	a5,s0,-1969
    5dea:	8789                	c.srai	a5,0x2
    5dec:	96be                	c.add	a3,a5
    5dee:	f9c00713          	addi	a4,zero,-100
    5df2:	89340793          	addi	a5,s0,-1901
    5df6:	02e7c7b3          	div	a5,a5,a4
    5dfa:	19000813          	addi	a6,zero,400
    5dfe:	06400893          	addi	a7,zero,100
    5e02:	6355                	c.lui	t1,0x15
    5e04:	c140                	c.sw	s0,4(a0)
    5e06:	00850613          	addi	a2,a0,8
    5e0a:	04050f13          	addi	t5,a0,64
    5e0e:	03000293          	addi	t0,zero,48
    5e12:	e4db9e0b          	addigp	t3,-8628 # 200324 <__month_lengths>
    5e16:	4e9d                	c.li	t4,7
    5e18:	18030313          	addi	t1,t1,384 # 15180 <__data_lmastart+0xad80>
    5e1c:	031468b3          	rem	a7,s0,a7
    5e20:	96be                	c.add	a3,a5
    5e22:	9bf40793          	addi	a5,s0,-1601
    5e26:	0307c7b3          	div	a5,a5,a6
    5e2a:	03046833          	rem	a6,s0,a6
    5e2e:	880d                	c.andi	s0,3
    5e30:	96be                	c.add	a3,a5
    5e32:	00183f93          	sltiu	t6,a6,1
    5e36:	00064783          	lbu	a5,0(a2)
    5e3a:	4658                	c.lw	a4,12(a2)
    5e3c:	44a7e25b          	bnec	a5,74,5e80 <__tzcalc_limits+0xb6>
    5e40:	00e687b3          	add	a5,a3,a4
    5e44:	e019                	c.bnez	s0,5e4a <__tzcalc_limits+0x80>
    5e46:	00089563          	bne	a7,zero,5e50 <__tzcalc_limits+0x86>
    5e4a:	4581                	c.li	a1,0
    5e4c:	00081663          	bne	a6,zero,5e58 <__tzcalc_limits+0x8e>
    5e50:	03c72713          	slti	a4,a4,60
    5e54:	00174593          	xori	a1,a4,1
    5e58:	97ae                	c.add	a5,a1
    5e5a:	17fd                	c.addi	a5,-1
    5e5c:	026787b3          	mul	a5,a5,t1
    5e60:	4a18                	c.lw	a4,16(a2)
    5e62:	97ba                	c.add	a5,a4
    5e64:	4e18                	c.lw	a4,24(a2)
    5e66:	97ba                	c.add	a5,a4
    5e68:	ca5c                	c.sw	a5,20(a2)
    5e6a:	0671                	c.addi	a2,28
    5e6c:	fccf15e3          	bne	t5,a2,5e36 <__tzcalc_limits+0x6c>
    5e70:	4d5c                	c.lw	a5,28(a0)
    5e72:	5d18                	c.lw	a4,56(a0)
    5e74:	00e7a7b3          	slt	a5,a5,a4
    5e78:	c11c                	c.sw	a5,0(a0)
    5e7a:	4505                	c.li	a0,1
    5e7c:	75a0306f          	jal	zero,95d6 <__riscv_restore_0>
    5e80:	4047e55b          	bnec	a5,68,5e8a <__tzcalc_limits+0xc0>
    5e84:	00e687b3          	add	a5,a3,a4
    5e88:	bfd1                	c.j	5e5c <__tzcalc_limits+0x92>
    5e8a:	87fe                	c.mv	a5,t6
    5e8c:	e401                	c.bnez	s0,5e94 <__tzcalc_limits+0xca>
    5e8e:	00088363          	beq	a7,zero,5e94 <__tzcalc_limits+0xca>
    5e92:	4785                	c.li	a5,1
    5e94:	00462903          	lw	s2,4(a2)
    5e98:	025783b3          	mul	t2,a5,t0
    5e9c:	4581                	c.li	a1,0
    5e9e:	87b6                	c.mv	a5,a3
    5ea0:	0585                	c.addi	a1,1
    5ea2:	0cb384db          	lea.w	s1,t2,a1
    5ea6:	94f2                	c.add	s1,t3
    5ea8:	ffc4a483          	lw	s1,-4(s1)
    5eac:	0325c363          	blt	a1,s2,5ed2 <__tzcalc_limits+0x108>
    5eb0:	00478593          	addi	a1,a5,4
    5eb4:	03d5e5b3          	rem	a1,a1,t4
    5eb8:	8f0d                	c.sub	a4,a1
    5eba:	00075363          	bge	a4,zero,5ec0 <__tzcalc_limits+0xf6>
    5ebe:	071d                	c.addi	a4,7
    5ec0:	460c                	c.lw	a1,8(a2)
    5ec2:	15fd                	c.addi	a1,-1
    5ec4:	03d585b3          	mul	a1,a1,t4
    5ec8:	972e                	c.add	a4,a1
    5eca:	00975663          	bge	a4,s1,5ed6 <__tzcalc_limits+0x10c>
    5ece:	97ba                	c.add	a5,a4
    5ed0:	b771                	c.j	5e5c <__tzcalc_limits+0x92>
    5ed2:	97a6                	c.add	a5,s1
    5ed4:	b7f1                	c.j	5ea0 <__tzcalc_limits+0xd6>
    5ed6:	1765                	c.addi	a4,-7
    5ed8:	bfcd                	c.j	5eca <__tzcalc_limits+0x100>
    5eda:	4501                	c.li	a0,0
    5edc:	b745                	c.j	5e7c <__tzcalc_limits+0xb2>

00005ede <__tz_lock>:
    5ede:	8082                	c.jr	ra

00005ee0 <__tz_unlock>:
    5ee0:	8082                	c.jr	ra

00005ee2 <_tzset_unlocked>:
    5ee2:	80ffa52b          	lwgp	a0,-2036 # 201ce4 <_impure_ptr>
    5ee6:	a811                	c.j	5efa <_tzset_unlocked_r>

00005ee8 <tzset>:
    5ee8:	6ca032ef          	jal	t0,95b2 <__riscv_save_0>
    5eec:	3fcd                	c.jal	5ede <__tz_lock>
    5eee:	80ffa52b          	lwgp	a0,-2036 # 201ce4 <_impure_ptr>
    5ef2:	2021                	c.jal	5efa <_tzset_unlocked_r>
    5ef4:	37f5                	c.jal	5ee0 <__tz_unlock>
    5ef6:	6e00306f          	jal	zero,95d6 <__riscv_restore_0>

00005efa <_tzset_unlocked_r>:
    5efa:	690032ef          	jal	t0,958a <__riscv_save_10>
    5efe:	1101                	c.addi	sp,-32
    5f00:	89aa                	c.mv	s3,a0
    5f02:	2195                	c.jal	6366 <__gettzinfo>
    5f04:	84aa                	c.mv	s1,a0
    5f06:	eadb958b          	addigp	a1,-8532 # 200384 <__month_lengths+0x60>
    5f0a:	854e                	c.mv	a0,s3
    5f0c:	21a9                	c.jal	6356 <_getenv_r>
    5f0e:	e11d                	c.bnez	a0,5f34 <_tzset_unlocked_r+0x3a>
    5f10:	840fc9ab          	swgp	zero,-1968 # 201d28 <_timezone>
    5f14:	840fcbab          	swgp	zero,-1964 # 201d2c <_daylight>
    5f18:	84ffa52b          	lwgp	a0,-1972 # 201d24 <prev_tzenv>
    5f1c:	805f978b          	addigp	a5,-2044 # 201cdc <_tzname>
    5f20:	eb1b970b          	addigp	a4,-8528 # 200388 <__month_lengths+0x64>
    5f24:	c398                	c.sw	a4,0(a5)
    5f26:	c3d8                	c.sw	a4,4(a5)
    5f28:	2359                	c.jal	64ae <free>
    5f2a:	840fc7ab          	swgp	zero,-1972 # 201d24 <prev_tzenv>
    5f2e:	6105                	c.addi16sp	sp,32
    5f30:	6920306f          	jal	zero,95c2 <__riscv_restore_10>
    5f34:	84ffa5ab          	lwgp	a1,-1972 # 201d24 <prev_tzenv>
    5f38:	842a                	c.mv	s0,a0
    5f3a:	0c059a63          	bne	a1,zero,600e <MSTATUS_FS_MASK+0xe>
    5f3e:	84ffa52b          	lwgp	a0,-1972 # 201d24 <prev_tzenv>
    5f42:	23b5                	c.jal	64ae <free>
    5f44:	8522                	c.mv	a0,s0
    5f46:	6da010ef          	jal	ra,7620 <strlen>
    5f4a:	00150593          	addi	a1,a0,1
    5f4e:	854e                	c.mv	a0,s3
    5f50:	2bdd                	c.jal	6546 <_malloc_r>
    5f52:	84afc7ab          	swgp	a0,-1972 # 201d24 <prev_tzenv>
    5f56:	e169                	c.bnez	a0,6018 <MSTATUS_FS_MASK+0x18>
    5f58:	00044783          	lbu	a5,0(s0)
    5f5c:	01a7e3db          	bnec	a5,58,5f62 <_tzset_unlocked_r+0x68>
    5f60:	0405                	c.addi	s0,1
    5f62:	0834                	c.addi4spn	a3,sp,24
    5f64:	96df960b          	addigp	a2,-1684 # 201e44 <__tzname_std>
    5f68:	eb5b958b          	addigp	a1,-8524 # 20038c <__month_lengths+0x68>
    5f6c:	8522                	c.mv	a0,s0
    5f6e:	4f2010ef          	jal	ra,7460 <siscanf>
    5f72:	faa05ee3          	bge	zero,a0,5f2e <_tzset_unlocked_r+0x34>
    5f76:	4562                	c.lwsp	a0,24(sp)
    5f78:	942a                	c.add	s0,a0
    5f7a:	00044783          	lbu	a5,0(s0)
    5f7e:	0ad7e0db          	bnec	a5,45,601e <MSTATUS_FS_MASK+0x1e>
    5f82:	0405                	c.addi	s0,1
    5f84:	597d                	c.li	s2,-1
    5f86:	01810893          	addi	a7,sp,24
    5f8a:	01010813          	addi	a6,sp,16
    5f8e:	87c6                	c.mv	a5,a7
    5f90:	00e10713          	addi	a4,sp,14
    5f94:	86c6                	c.mv	a3,a7
    5f96:	0070                	c.addi4spn	a2,sp,12
    5f98:	ec5b958b          	addigp	a1,-8508 # 20039c <__month_lengths+0x78>
    5f9c:	8522                	c.mv	a0,s0
    5f9e:	00011723          	sh	zero,14(sp)
    5fa2:	00011823          	sh	zero,16(sp)
    5fa6:	4ba010ef          	jal	ra,7460 <siscanf>
    5faa:	f8a052e3          	bge	zero,a0,5f2e <_tzset_unlocked_r+0x34>
    5fae:	00e15783          	lhu	a5,14(sp)
    5fb2:	03c00713          	addi	a4,zero,60
    5fb6:	02e787b3          	mul	a5,a5,a4
    5fba:	01015703          	lhu	a4,16(sp)
    5fbe:	6685                	c.lui	a3,0x1
    5fc0:	97ba                	c.add	a5,a4
    5fc2:	00c15703          	lhu	a4,12(sp)
    5fc6:	e1068693          	addi	a3,a3,-496 # e10 <__sharedata_end_addr+0xaa0>
    5fca:	02d70733          	mul	a4,a4,a3
    5fce:	4562                	c.lwsp	a0,24(sp)
    5fd0:	96df998b          	addigp	s3,-1684 # 201e44 <__tzname_std>
    5fd4:	97ba                	c.add	a5,a4
    5fd6:	032787b3          	mul	a5,a5,s2
    5fda:	805f990b          	addigp	s2,-2044 # 201cdc <_tzname>
    5fde:	942a                	c.add	s0,a0
    5fe0:	01392023          	sw	s3,0(s2)
    5fe4:	0834                	c.addi4spn	a3,sp,24
    5fe6:	961f960b          	addigp	a2,-1696 # 201e38 <__tzname_dst>
    5fea:	eb5b958b          	addigp	a1,-8524 # 20038c <__month_lengths+0x68>
    5fee:	8522                	c.mv	a0,s0
    5ff0:	d09c                	c.sw	a5,32(s1)
    5ff2:	46e010ef          	jal	ra,7460 <siscanf>
    5ff6:	02a04963          	blt	zero,a0,6028 <MSTATUS_FS_MASK+0x28>
    5ffa:	00092783          	lw	a5,0(s2)
    5ffe:	5098                	c.lw	a4,32(s1)
    6000:	00f92223          	sw	a5,4(s2)
    6004:	84efc9ab          	swgp	a4,-1968 # 201d28 <_timezone>
    6008:	840fcbab          	swgp	zero,-1964 # 201d2c <_daylight>
    600c:	b70d                	c.j	5f2e <_tzset_unlocked_r+0x34>
    600e:	5a2010ef          	jal	ra,75b0 <strcmp>
    6012:	f20516e3          	bne	a0,zero,5f3e <_tzset_unlocked_r+0x44>
    6016:	bf21                	c.j	5f2e <_tzset_unlocked_r+0x34>
    6018:	85a2                	c.mv	a1,s0
    601a:	3bad                	c.jal	5d94 <strcpy>
    601c:	bf35                	c.j	5f58 <_tzset_unlocked_r+0x5e>
    601e:	4905                	c.li	s2,1
    6020:	b6b7e3db          	bnec	a5,43,5f86 <_tzset_unlocked_r+0x8c>
    6024:	0405                	c.addi	s0,1
    6026:	b785                	c.j	5f86 <_tzset_unlocked_r+0x8c>
    6028:	47e2                	c.lwsp	a5,24(sp)
    602a:	961f998b          	addigp	s3,-1696 # 201e38 <__tzname_dst>
    602e:	943e                	c.add	s0,a5
    6030:	01392223          	sw	s3,4(s2)
    6034:	00044783          	lbu	a5,0(s0)
    6038:	14d7e0db          	bnec	a5,45,6178 <MSTATUS_FS_MASK+0x178>
    603c:	0405                	c.addi	s0,1
    603e:	597d                	c.li	s2,-1
    6040:	01810893          	addi	a7,sp,24
    6044:	01010813          	addi	a6,sp,16
    6048:	87c6                	c.mv	a5,a7
    604a:	00e10713          	addi	a4,sp,14
    604e:	86c6                	c.mv	a3,a7
    6050:	0070                	c.addi4spn	a2,sp,12
    6052:	ec5b958b          	addigp	a1,-8508 # 20039c <__month_lengths+0x78>
    6056:	8522                	c.mv	a0,s0
    6058:	00011623          	sh	zero,12(sp)
    605c:	00011723          	sh	zero,14(sp)
    6060:	00011823          	sh	zero,16(sp)
    6064:	cc02                	c.swsp	zero,24(sp)
    6066:	3fa010ef          	jal	ra,7460 <siscanf>
    606a:	10a04c63          	blt	zero,a0,6182 <MSTATUS_FS_MASK+0x182>
    606e:	509c                	c.lw	a5,32(s1)
    6070:	777d                	c.lui	a4,0xfffff
    6072:	1f070713          	addi	a4,a4,496 # fffff1f0 <__start_addr+0x7ffff1e0>
    6076:	97ba                	c.add	a5,a4
    6078:	dcdc                	c.sw	a5,60(s1)
    607a:	47e2                	c.lwsp	a5,24(sp)
    607c:	6b41                	c.lui	s6,0x10
    607e:	6a85                	c.lui	s5,0x1
    6080:	943e                	c.add	s0,a5
    6082:	00848913          	addi	s2,s1,8
    6086:	4a01                	c.li	s4,0
    6088:	1b7d                	c.addi	s6,-1
    608a:	e10a8a93          	addi	s5,s5,-496 # e10 <__sharedata_end_addr+0xaa0>
    608e:	00044783          	lbu	a5,0(s0)
    6092:	00c7e3db          	bnec	a5,44,6098 <MSTATUS_FS_MASK+0x98>
    6096:	0405                	c.addi	s0,1
    6098:	00044983          	lbu	s3,0(s0)
    609c:	50d9e95b          	bnec	s3,77,61ae <MSTATUS_FS_MASK+0x1ae>
    60a0:	01810893          	addi	a7,sp,24
    60a4:	01610813          	addi	a6,sp,22
    60a8:	87c6                	c.mv	a5,a7
    60aa:	0858                	c.addi4spn	a4,sp,20
    60ac:	86c6                	c.mv	a3,a7
    60ae:	01210613          	addi	a2,sp,18
    60b2:	ed9b958b          	addigp	a1,-8488 # 2003b0 <__month_lengths+0x8c>
    60b6:	8522                	c.mv	a0,s0
    60b8:	3a8010ef          	jal	ra,7460 <siscanf>
    60bc:	a635695b          	bnec	a0,3,5f2e <_tzset_unlocked_r+0x34>
    60c0:	01215683          	lhu	a3,18(sp)
    60c4:	472d                	c.li	a4,11
    60c6:	fff68793          	addi	a5,a3,-1
    60ca:	3c07a7db          	bfoz	a5,a5,15,0
    60ce:	e6f760e3          	bltu	a4,a5,5f2e <_tzset_unlocked_r+0x34>
    60d2:	01415703          	lhu	a4,20(sp)
    60d6:	4611                	c.li	a2,4
    60d8:	fff70793          	addi	a5,a4,-1
    60dc:	3c07a7db          	bfoz	a5,a5,15,0
    60e0:	e4f667e3          	bltu	a2,a5,5f2e <_tzset_unlocked_r+0x34>
    60e4:	01615783          	lhu	a5,22(sp)
    60e8:	4619                	c.li	a2,6
    60ea:	e4f662e3          	bltu	a2,a5,5f2e <_tzset_unlocked_r+0x34>
    60ee:	01390023          	sb	s3,0(s2)
    60f2:	00d92223          	sw	a3,4(s2)
    60f6:	00e92423          	sw	a4,8(s2)
    60fa:	00f92623          	sw	a5,12(s2)
    60fe:	49e2                	c.lwsp	s3,24(sp)
    6100:	99a2                	c.add	s3,s0
    6102:	4789                	c.li	a5,2
    6104:	00f11623          	sh	a5,12(sp)
    6108:	00011723          	sh	zero,14(sp)
    610c:	00011823          	sh	zero,16(sp)
    6110:	cc02                	c.swsp	zero,24(sp)
    6112:	0009c783          	lbu	a5,0(s3)
    6116:	02f7e0db          	bnec	a5,47,6136 <MSTATUS_FS_MASK+0x136>
    611a:	01810893          	addi	a7,sp,24
    611e:	01010813          	addi	a6,sp,16
    6122:	87c6                	c.mv	a5,a7
    6124:	00e10713          	addi	a4,sp,14
    6128:	86c6                	c.mv	a3,a7
    612a:	0070                	c.addi4spn	a2,sp,12
    612c:	eedb958b          	addigp	a1,-8468 # 2003c4 <__month_lengths+0xa0>
    6130:	854e                	c.mv	a0,s3
    6132:	32e010ef          	jal	ra,7460 <siscanf>
    6136:	00e15783          	lhu	a5,14(sp)
    613a:	03c00713          	addi	a4,zero,60
    613e:	02e787b3          	mul	a5,a5,a4
    6142:	01015703          	lhu	a4,16(sp)
    6146:	0971                	c.addi	s2,28
    6148:	97ba                	c.add	a5,a4
    614a:	00c15703          	lhu	a4,12(sp)
    614e:	03570733          	mul	a4,a4,s5
    6152:	97ba                	c.add	a5,a4
    6154:	fef92a23          	sw	a5,-12(s2)
    6158:	4462                	c.lwsp	s0,24(sp)
    615a:	944e                	c.add	s0,s3
    615c:	041a675b          	bnec	s4,1,61aa <MSTATUS_FS_MASK+0x1aa>
    6160:	40c8                	c.lw	a0,4(s1)
    6162:	31a5                	c.jal	5dca <__tzcalc_limits>
    6164:	5098                	c.lw	a4,32(s1)
    6166:	84efc9ab          	swgp	a4,-1968 # 201d28 <_timezone>
    616a:	5cdc                	c.lw	a5,60(s1)
    616c:	8f99                	c.sub	a5,a4
    616e:	00f037b3          	sltu	a5,zero,a5
    6172:	84ffcbab          	swgp	a5,-1964 # 201d2c <_daylight>
    6176:	bb65                	c.j	5f2e <_tzset_unlocked_r+0x34>
    6178:	4905                	c.li	s2,1
    617a:	acb7e3db          	bnec	a5,43,6040 <MSTATUS_FS_MASK+0x40>
    617e:	0405                	c.addi	s0,1
    6180:	b5c1                	c.j	6040 <MSTATUS_FS_MASK+0x40>
    6182:	00e15783          	lhu	a5,14(sp)
    6186:	03c00713          	addi	a4,zero,60
    618a:	02e787b3          	mul	a5,a5,a4
    618e:	01015703          	lhu	a4,16(sp)
    6192:	6685                	c.lui	a3,0x1
    6194:	97ba                	c.add	a5,a4
    6196:	00c15703          	lhu	a4,12(sp)
    619a:	e1068693          	addi	a3,a3,-496 # e10 <__sharedata_end_addr+0xaa0>
    619e:	02d70733          	mul	a4,a4,a3
    61a2:	97ba                	c.add	a5,a4
    61a4:	032787b3          	mul	a5,a5,s2
    61a8:	bdc1                	c.j	6078 <MSTATUS_FS_MASK+0x78>
    61aa:	4a05                	c.li	s4,1
    61ac:	b5cd                	c.j	608e <MSTATUS_FS_MASK+0x8e>
    61ae:	04400c93          	addi	s9,zero,68
    61b2:	40a9e55b          	bnec	s3,74,61bc <MSTATUS_FS_MASK+0x1bc>
    61b6:	0405                	c.addi	s0,1
    61b8:	04a00c93          	addi	s9,zero,74
    61bc:	4629                	c.li	a2,10
    61be:	086c                	c.addi4spn	a1,sp,28
    61c0:	8522                	c.mv	a0,s0
    61c2:	500010ef          	jal	ra,76c2 <strtoul>
    61c6:	49f2                	c.lwsp	s3,28(sp)
    61c8:	00a11b23          	sh	a0,22(sp)
    61cc:	02899863          	bne	s3,s0,61fc <MSTATUS_FS_MASK+0x1fc>
    61d0:	04d00793          	addi	a5,zero,77
    61d4:	000a1b63          	bne	s4,zero,61ea <MSTATUS_FS_MASK+0x1ea>
    61d8:	00f48423          	sb	a5,8(s1)
    61dc:	478d                	c.li	a5,3
    61de:	c4dc                	c.sw	a5,12(s1)
    61e0:	4789                	c.li	a5,2
    61e2:	c89c                	c.sw	a5,16(s1)
    61e4:	0004aa23          	sw	zero,20(s1)
    61e8:	bf29                	c.j	6102 <MSTATUS_FS_MASK+0x102>
    61ea:	02f48223          	sb	a5,36(s1)
    61ee:	47ad                	c.li	a5,11
    61f0:	d49c                	c.sw	a5,40(s1)
    61f2:	4785                	c.li	a5,1
    61f4:	d4dc                	c.sw	a5,44(s1)
    61f6:	0204a823          	sw	zero,48(s1)
    61fa:	b721                	c.j	6102 <MSTATUS_FS_MASK+0x102>
    61fc:	01657533          	and	a0,a0,s6
    6200:	01990023          	sb	s9,0(s2)
    6204:	00a92623          	sw	a0,12(s2)
    6208:	bded                	c.j	6102 <MSTATUS_FS_MASK+0x102>

0000620a <_tzset_r>:
    620a:	3a8032ef          	jal	t0,95b2 <__riscv_save_0>
    620e:	1141                	c.addi	sp,-16
    6210:	c62a                	c.swsp	a0,12(sp)
    6212:	31f1                	c.jal	5ede <__tz_lock>
    6214:	4532                	c.lwsp	a0,12(sp)
    6216:	31d5                	c.jal	5efa <_tzset_unlocked_r>
    6218:	31e1                	c.jal	5ee0 <__tz_unlock>
    621a:	0141                	c.addi	sp,16
    621c:	3ba0306f          	jal	zero,95d6 <__riscv_restore_0>

00006220 <__vprintf_help>:
    6220:	392032ef          	jal	t0,95b2 <__riscv_save_0>
    6224:	86ffa7ab          	lwgp	a5,-1940 # 201d44 <__printf_count>
    6228:	0785                	c.addi	a5,1
    622a:	86ffc7ab          	swgp	a5,-1940 # 201d44 <__printf_count>
    622e:	85ffa5ab          	lwgp	a1,-1956 # 201d34 <__vprintf_buf>
    6232:	85bfa7ab          	lwgp	a5,-1960 # 201d30 <__vprintf_buf_len>
    6236:	00178713          	addi	a4,a5,1
    623a:	97ae                	c.add	a5,a1
    623c:	84efcdab          	swgp	a4,-1960 # 201d30 <__vprintf_buf_len>
    6240:	00a78023          	sb	a0,0(a5)
    6244:	4007695b          	bnec	a4,64,6256 <__vprintf_help+0x36>
    6248:	04000613          	addi	a2,zero,64
    624c:	4505                	c.li	a0,1
    624e:	95bfe0ef          	jal	ra,4ba8 <_write>
    6252:	840fcdab          	swgp	zero,-1960 # 201d30 <__vprintf_buf_len>
    6256:	3800306f          	jal	zero,95d6 <__riscv_restore_0>

0000625a <viprintf>:
    625a:	1141                	c.addi	sp,-16
    625c:	c606                	c.swsp	ra,12(sp)
    625e:	c422                	c.swsp	s0,8(sp)
    6260:	c226                	c.swsp	s1,4(sp)
    6262:	0800                	c.addi4spn	s0,sp,16
    6264:	c04a                	c.swsp	s2,0(sp)
    6266:	715d                	c.addi16sp	sp,-80
    6268:	00f10793          	addi	a5,sp,15
    626c:	00006637          	lui	a2,0x6
    6270:	9bc1                	c.andi	a5,-16
    6272:	22060613          	addi	a2,a2,544 # 6220 <__vprintf_help>
    6276:	84ffcfab          	swgp	a5,-1956 # 201d34 <__vprintf_buf>
    627a:	840fcdab          	swgp	zero,-1960 # 201d30 <__vprintf_buf_len>
    627e:	2e6d                	c.jal	6638 <__printf_impl>
    6280:	85bfa62b          	lwgp	a2,-1960 # 201d30 <__vprintf_buf_len>
    6284:	85ffa5ab          	lwgp	a1,-1956 # 201d34 <__vprintf_buf>
    6288:	4505                	c.li	a0,1
    628a:	91ffe0ef          	jal	ra,4ba8 <_write>
    628e:	86ffa52b          	lwgp	a0,-1940 # 201d44 <__printf_count>
    6292:	ff040113          	addi	sp,s0,-16
    6296:	40b2                	c.lwsp	ra,12(sp)
    6298:	4422                	c.lwsp	s0,8(sp)
    629a:	4492                	c.lwsp	s1,4(sp)
    629c:	4902                	c.lwsp	s2,0(sp)
    629e:	0141                	c.addi	sp,16
    62a0:	8082                	c.jr	ra

000062a2 <__vsprintf_help>:
    62a2:	86ffa7ab          	lwgp	a5,-1940 # 201d44 <__printf_count>
    62a6:	0785                	c.addi	a5,1
    62a8:	86ffc7ab          	swgp	a5,-1940 # 201d44 <__printf_count>
    62ac:	863fa7ab          	lwgp	a5,-1952 # 201d38 <__vsprintf_buf>
    62b0:	00178693          	addi	a3,a5,1
    62b4:	86dfc1ab          	swgp	a3,-1952 # 201d38 <__vsprintf_buf>
    62b8:	00a78023          	sb	a0,0(a5)
    62bc:	8082                	c.jr	ra

000062be <vsiprintf>:
    62be:	2f4032ef          	jal	t0,95b2 <__riscv_save_0>
    62c2:	87ae                	c.mv	a5,a1
    62c4:	85b2                	c.mv	a1,a2
    62c6:	00006637          	lui	a2,0x6
    62ca:	86afc1ab          	swgp	a0,-1952 # 201d38 <__vsprintf_buf>
    62ce:	2a260613          	addi	a2,a2,674 # 62a2 <__vsprintf_help>
    62d2:	853e                	c.mv	a0,a5
    62d4:	188010ef          	jal	ra,745c <__printf_impl_lite_wrapped>
    62d8:	863fa7ab          	lwgp	a5,-1952 # 201d38 <__vsprintf_buf>
    62dc:	00078023          	sb	zero,0(a5)
    62e0:	86ffa52b          	lwgp	a0,-1940 # 201d44 <__printf_count>
    62e4:	2f20306f          	jal	zero,95d6 <__riscv_restore_0>

000062e8 <_findenv_r>:
    62e8:	2b0032ef          	jal	t0,9598 <__riscv_save_4>
    62ec:	8a2a                	c.mv	s4,a0
    62ee:	89ae                	c.mv	s3,a1
    62f0:	8b32                	c.mv	s6,a2
    62f2:	5f7010ef          	jal	ra,80e8 <__env_lock>
    62f6:	817fa42b          	lwgp	s0,-2028 # 201cec <environ>
    62fa:	ec11                	c.bnez	s0,6316 <_findenv_r+0x2e>
    62fc:	8552                	c.mv	a0,s4
    62fe:	5ed010ef          	jal	ra,80ea <__env_unlock>
    6302:	4501                	c.li	a0,0
    6304:	2c80306f          	jal	zero,95cc <__riscv_restore_4>
    6308:	0785                	c.addi	a5,1
    630a:	0007c703          	lbu	a4,0(a5)
    630e:	c329                	c.beqz	a4,6350 <_findenv_r+0x68>
    6310:	bfd76cdb          	bnec	a4,61,6308 <_findenv_r+0x20>
    6314:	b7e5                	c.j	62fc <_findenv_r+0x14>
    6316:	8abe                	c.mv	s5,a5
    6318:	87ce                	c.mv	a5,s3
    631a:	bfc5                	c.j	630a <_findenv_r+0x22>
    631c:	0411                	c.addi	s0,4
    631e:	4008                	c.lw	a0,0(s0)
    6320:	dd71                	c.beqz	a0,62fc <_findenv_r+0x14>
    6322:	864a                	c.mv	a2,s2
    6324:	85ce                	c.mv	a1,s3
    6326:	326010ef          	jal	ra,764c <strncmp>
    632a:	f96d                	c.bnez	a0,631c <_findenv_r+0x34>
    632c:	4004                	c.lw	s1,0(s0)
    632e:	94ca                	c.add	s1,s2
    6330:	0004c783          	lbu	a5,0(s1)
    6334:	bfd7e4db          	bnec	a5,61,631c <_findenv_r+0x34>
    6338:	817fa7ab          	lwgp	a5,-2028 # 201cec <environ>
    633c:	8552                	c.mv	a0,s4
    633e:	8c1d                	c.sub	s0,a5
    6340:	8409                	c.srai	s0,0x2
    6342:	008b2023          	sw	s0,0(s6) # 10000 <__data_lmastart+0x5c00>
    6346:	5a5010ef          	jal	ra,80ea <__env_unlock>
    634a:	00148513          	addi	a0,s1,1
    634e:	bf5d                	c.j	6304 <_findenv_r+0x1c>
    6350:	41378933          	sub	s2,a5,s3
    6354:	b7e9                	c.j	631e <_findenv_r+0x36>

00006356 <_getenv_r>:
    6356:	25c032ef          	jal	t0,95b2 <__riscv_save_0>
    635a:	1141                	c.addi	sp,-16
    635c:	0070                	c.addi4spn	a2,sp,12
    635e:	3769                	c.jal	62e8 <_findenv_r>
    6360:	0141                	c.addi	sp,16
    6362:	2740306f          	jal	zero,95d6 <__riscv_restore_0>

00006366 <__gettzinfo>:
    6366:	f44f950b          	addigp	a0,-2236 # 201c1c <tzinfo>
    636a:	8082                	c.jr	ra

0000636c <gmtime_r>:
    636c:	4118                	c.lw	a4,0(a0)
    636e:	67d5                	c.lui	a5,0x15
    6370:	18078793          	addi	a5,a5,384 # 15180 <__data_lmastart+0xad80>
    6374:	02f74633          	div	a2,a4,a5
    6378:	02f76733          	rem	a4,a4,a5
    637c:	0e074c63          	blt	a4,zero,6474 <gmtime_r+0x108>
    6380:	000b07b7          	lui	a5,0xb0
    6384:	a6c78793          	addi	a5,a5,-1428 # afa6c <__data_lmastart+0xa566c>
    6388:	6685                	c.lui	a3,0x1
    638a:	e1068693          	addi	a3,a3,-496 # e10 <__sharedata_end_addr+0xaa0>
    638e:	97b2                	c.add	a5,a2
    6390:	02d74633          	div	a2,a4,a3
    6394:	00024837          	lui	a6,0x24
    6398:	5b400893          	addi	a7,zero,1460
    639c:	02d76733          	rem	a4,a4,a3
    63a0:	03c00693          	addi	a3,zero,60
    63a4:	c590                	c.sw	a2,8(a1)
    63a6:	02d74633          	div	a2,a4,a3
    63aa:	02d76733          	rem	a4,a4,a3
    63ae:	469d                	c.li	a3,7
    63b0:	c1d0                	c.sw	a2,4(a1)
    63b2:	fffdc637          	lui	a2,0xfffdc
    63b6:	54f60613          	addi	a2,a2,1359 # fffdc54f <__start_addr+0x7ffdc53f>
    63ba:	c198                	c.sw	a4,0(a1)
    63bc:	00378713          	addi	a4,a5,3
    63c0:	02d76733          	rem	a4,a4,a3
    63c4:	66a5                	c.lui	a3,0x9
    63c6:	eac68693          	addi	a3,a3,-340 # 8eac <__udivdi3+0x68>
    63ca:	cd98                	c.sw	a4,24(a1)
    63cc:	ab180713          	addi	a4,a6,-1359 # 23ab1 <__data_lmastart+0x196b1>
    63d0:	02e7c533          	div	a0,a5,a4
    63d4:	02c50633          	mul	a2,a0,a2
    63d8:	963e                	c.add	a2,a5
    63da:	02d656b3          	divu	a3,a2,a3
    63de:	06400793          	addi	a5,zero,100
    63e2:	03165733          	divu	a4,a2,a7
    63e6:	96b2                	c.add	a3,a2
    63e8:	8e99                	c.sub	a3,a4
    63ea:	ab080713          	addi	a4,a6,-1360
    63ee:	02e65733          	divu	a4,a2,a4
    63f2:	16d00813          	addi	a6,zero,365
    63f6:	40e68733          	sub	a4,a3,a4
    63fa:	030756b3          	divu	a3,a4,a6
    63fe:	03175733          	divu	a4,a4,a7
    6402:	02f6d7b3          	divu	a5,a3,a5
    6406:	8f99                	c.sub	a5,a4
    6408:	963e                	c.add	a2,a5
    640a:	030687b3          	mul	a5,a3,a6
    640e:	4815                	c.li	a6,5
    6410:	40f607b3          	sub	a5,a2,a5
    6414:	03078733          	mul	a4,a5,a6
    6418:	09900613          	addi	a2,zero,153
    641c:	00178893          	addi	a7,a5,1
    6420:	0709                	c.addi	a4,2
    6422:	02c75333          	divu	t1,a4,a2
    6426:	02c30633          	mul	a2,t1,a2
    642a:	0609                	c.addi	a2,2
    642c:	03065633          	divu	a2,a2,a6
    6430:	4809                	c.li	a6,2
    6432:	40c88633          	sub	a2,a7,a2
    6436:	5f900893          	addi	a7,zero,1529
    643a:	00e8f363          	bgeu	a7,a4,6440 <gmtime_r+0xd4>
    643e:	5859                	c.li	a6,-10
    6440:	19000713          	addi	a4,zero,400
    6444:	02e50733          	mul	a4,a0,a4
    6448:	981a                	c.add	a6,t1
    644a:	00283513          	sltiu	a0,a6,2
    644e:	9736                	c.add	a4,a3
    6450:	972a                	c.add	a4,a0
    6452:	13100513          	addi	a0,zero,305
    6456:	02f57563          	bgeu	a0,a5,6480 <gmtime_r+0x114>
    645a:	ece78793          	addi	a5,a5,-306
    645e:	cddc                	c.sw	a5,28(a1)
    6460:	89470793          	addi	a5,a4,-1900
    6464:	852e                	c.mv	a0,a1
    6466:	c9dc                	c.sw	a5,20(a1)
    6468:	0105a823          	sw	a6,16(a1)
    646c:	c5d0                	c.sw	a2,12(a1)
    646e:	0205a023          	sw	zero,32(a1)
    6472:	8082                	c.jr	ra
    6474:	973e                	c.add	a4,a5
    6476:	000b07b7          	lui	a5,0xb0
    647a:	a6b78793          	addi	a5,a5,-1429 # afa6b <__data_lmastart+0xa566b>
    647e:	b729                	c.j	6388 <gmtime_r+0x1c>
    6480:	0036f513          	andi	a0,a3,3
    6484:	e519                	c.bnez	a0,6492 <gmtime_r+0x126>
    6486:	06400513          	addi	a0,zero,100
    648a:	02a6f533          	remu	a0,a3,a0
    648e:	4885                	c.li	a7,1
    6490:	e519                	c.bnez	a0,649e <gmtime_r+0x132>
    6492:	19000513          	addi	a0,zero,400
    6496:	02a6f6b3          	remu	a3,a3,a0
    649a:	0016b893          	sltiu	a7,a3,1
    649e:	03b78793          	addi	a5,a5,59
    64a2:	97c6                	c.add	a5,a7
    64a4:	bf6d                	c.j	645e <gmtime_r+0xf2>

000064a6 <malloc>:
    64a6:	85aa                	c.mv	a1,a0
    64a8:	80ffa52b          	lwgp	a0,-2036 # 201ce4 <_impure_ptr>
    64ac:	a869                	c.j	6546 <_malloc_r>

000064ae <free>:
    64ae:	85aa                	c.mv	a1,a0
    64b0:	80ffa52b          	lwgp	a0,-2036 # 201ce4 <_impure_ptr>
    64b4:	a009                	c.j	64b6 <_free_r>

000064b6 <_free_r>:
    64b6:	c5b5                	c.beqz	a1,6522 <_free_r+0x6c>
    64b8:	ffc5a703          	lw	a4,-4(a1)
    64bc:	ffc58793          	addi	a5,a1,-4
    64c0:	00075363          	bge	a4,zero,64c6 <_free_r+0x10>
    64c4:	97ba                	c.add	a5,a4
    64c6:	86bfa72b          	lwgp	a4,-1944 # 201d40 <__malloc_free_list>
    64ca:	85b6                	c.mv	a1,a3
    64cc:	e711                	c.bnez	a4,64d8 <_free_r+0x22>
    64ce:	0007a223          	sw	zero,4(a5)
    64d2:	86ffc5ab          	swgp	a5,-1944 # 201d40 <__malloc_free_list>
    64d6:	8082                	c.jr	ra
    64d8:	00e7ff63          	bgeu	a5,a4,64f6 <_free_r+0x40>
    64dc:	4390                	c.lw	a2,0(a5)
    64de:	00c786b3          	add	a3,a5,a2
    64e2:	00d71663          	bne	a4,a3,64ee <_free_r+0x38>
    64e6:	4314                	c.lw	a3,0(a4)
    64e8:	4358                	c.lw	a4,4(a4)
    64ea:	96b2                	c.add	a3,a2
    64ec:	c394                	c.sw	a3,0(a5)
    64ee:	c3d8                	c.sw	a4,4(a5)
    64f0:	86ffc5ab          	swgp	a5,-1944 # 201d40 <__malloc_free_list>
    64f4:	8082                	c.jr	ra
    64f6:	86ba                	c.mv	a3,a4
    64f8:	4358                	c.lw	a4,4(a4)
    64fa:	c319                	c.beqz	a4,6500 <_free_r+0x4a>
    64fc:	fee7fde3          	bgeu	a5,a4,64f6 <_free_r+0x40>
    6500:	4290                	c.lw	a2,0(a3)
    6502:	00c685b3          	add	a1,a3,a2
    6506:	00f59f63          	bne	a1,a5,6524 <_free_r+0x6e>
    650a:	439c                	c.lw	a5,0(a5)
    650c:	97b2                	c.add	a5,a2
    650e:	00f68633          	add	a2,a3,a5
    6512:	c29c                	c.sw	a5,0(a3)
    6514:	00c71763          	bne	a4,a2,6522 <_free_r+0x6c>
    6518:	4310                	c.lw	a2,0(a4)
    651a:	97b2                	c.add	a5,a2
    651c:	c29c                	c.sw	a5,0(a3)
    651e:	435c                	c.lw	a5,4(a4)
    6520:	c2dc                	c.sw	a5,4(a3)
    6522:	8082                	c.jr	ra
    6524:	00b7f663          	bgeu	a5,a1,6530 <_free_r+0x7a>
    6528:	4731                	c.li	a4,12
    652a:	84efc5ab          	swgp	a4,-1976 # 201d20 <__mculib_REENT_errno>
    652e:	8082                	c.jr	ra
    6530:	438c                	c.lw	a1,0(a5)
    6532:	00b78633          	add	a2,a5,a1
    6536:	00c71663          	bne	a4,a2,6542 <_free_r+0x8c>
    653a:	4310                	c.lw	a2,0(a4)
    653c:	4358                	c.lw	a4,4(a4)
    653e:	962e                	c.add	a2,a1
    6540:	c390                	c.sw	a2,0(a5)
    6542:	c3d8                	c.sw	a4,4(a5)
    6544:	bff1                	c.j	6520 <_free_r+0x6a>

00006546 <_malloc_r>:
    6546:	06c032ef          	jal	t0,95b2 <__riscv_save_0>
    654a:	00358493          	addi	s1,a1,3
    654e:	98f1                	c.andi	s1,-4
    6550:	04a1                	c.addi	s1,8
    6552:	47b1                	c.li	a5,12
    6554:	04f4f463          	bgeu	s1,a5,659c <_malloc_r+0x56>
    6558:	44b1                	c.li	s1,12
    655a:	04b4e363          	bltu	s1,a1,65a0 <_malloc_r+0x5a>
    655e:	86bfa72b          	lwgp	a4,-1944 # 201d40 <__malloc_free_list>
    6562:	86be                	c.mv	a3,a5
    6564:	843a                	c.mv	s0,a4
    6566:	e039                	c.bnez	s0,65ac <_malloc_r+0x66>
    6568:	867fa7ab          	lwgp	a5,-1948 # 201d3c <__malloc_sbrk_start>
    656c:	e791                	c.bnez	a5,6578 <_malloc_r+0x32>
    656e:	4501                	c.li	a0,0
    6570:	045020ef          	jal	ra,8db4 <_sbrk>
    6574:	86afc3ab          	swgp	a0,-1948 # 201d3c <__malloc_sbrk_start>
    6578:	8526                	c.mv	a0,s1
    657a:	597d                	c.li	s2,-1
    657c:	039020ef          	jal	ra,8db4 <_sbrk>
    6580:	03250063          	beq	a0,s2,65a0 <_malloc_r+0x5a>
    6584:	00350413          	addi	s0,a0,3
    6588:	9871                	c.andi	s0,-4
    658a:	02850a63          	beq	a0,s0,65be <_malloc_r+0x78>
    658e:	40a40533          	sub	a0,s0,a0
    6592:	023020ef          	jal	ra,8db4 <_sbrk>
    6596:	03251463          	bne	a0,s2,65be <_malloc_r+0x78>
    659a:	a019                	c.j	65a0 <_malloc_r+0x5a>
    659c:	fa04dfe3          	bge	s1,zero,655a <_malloc_r+0x14>
    65a0:	4731                	c.li	a4,12
    65a2:	4501                	c.li	a0,0
    65a4:	84efc5ab          	swgp	a4,-1976 # 201d20 <__mculib_REENT_errno>
    65a8:	02e0306f          	jal	zero,95d6 <__riscv_restore_0>
    65ac:	401c                	c.lw	a5,0(s0)
    65ae:	8f85                	c.sub	a5,s1
    65b0:	0207cd63          	blt	a5,zero,65ea <_malloc_r+0xa4>
    65b4:	462d                	c.li	a2,11
    65b6:	00f67663          	bgeu	a2,a5,65c2 <_malloc_r+0x7c>
    65ba:	c01c                	c.sw	a5,0(s0)
    65bc:	943e                	c.add	s0,a5
    65be:	c004                	c.sw	s1,0(s0)
    65c0:	a031                	c.j	65cc <_malloc_r+0x86>
    65c2:	405c                	c.lw	a5,4(s0)
    65c4:	02871163          	bne	a4,s0,65e6 <_malloc_r+0xa0>
    65c8:	86ffc5ab          	swgp	a5,-1944 # 201d40 <__malloc_free_list>
    65cc:	00b40513          	addi	a0,s0,11
    65d0:	00440793          	addi	a5,s0,4
    65d4:	9961                	c.andi	a0,-8
    65d6:	40f50733          	sub	a4,a0,a5
    65da:	fcf507e3          	beq	a0,a5,65a8 <_malloc_r+0x62>
    65de:	943a                	c.add	s0,a4
    65e0:	8f89                	c.sub	a5,a0
    65e2:	c01c                	c.sw	a5,0(s0)
    65e4:	b7d1                	c.j	65a8 <_malloc_r+0x62>
    65e6:	c35c                	c.sw	a5,4(a4)
    65e8:	b7d5                	c.j	65cc <_malloc_r+0x86>
    65ea:	8722                	c.mv	a4,s0
    65ec:	4040                	c.lw	s0,4(s0)
    65ee:	bfa5                	c.j	6566 <_malloc_r+0x20>

000065f0 <__print_integral>:
    65f0:	7c3022ef          	jal	t0,95b2 <__riscv_save_0>
    65f4:	1101                	c.addi	sp,-32
    65f6:	842a                	c.mv	s0,a0
    65f8:	84ae                	c.mv	s1,a1
    65fa:	8932                	c.mv	s2,a2
    65fc:	c636                	c.swsp	a3,12(sp)
    65fe:	853a                	c.mv	a0,a4
    6600:	85be                	c.mv	a1,a5
    6602:	0830                	c.addi4spn	a2,sp,24
    6604:	ca3e                	c.swsp	a5,20(sp)
    6606:	2941                	c.jal	6a96 <__int_to_poly>
    6608:	46b2                	c.lwsp	a3,12(sp)
    660a:	882a                	c.mv	a6,a0
    660c:	083c                	c.addi4spn	a5,sp,24
    660e:	0858                	c.addi4spn	a4,sp,20
    6610:	864a                	c.mv	a2,s2
    6612:	85a6                	c.mv	a1,s1
    6614:	8522                	c.mv	a0,s0
    6616:	214d                	c.jal	6ab8 <__print_integral_poly>
    6618:	f05b978b          	addigp	a5,-8444 # 2003dc <__digits>
    661c:	00a46563          	bltu	s0,a0,6626 <__print_integral+0x36>
    6620:	6105                	c.addi16sp	sp,32
    6622:	7b50206f          	jal	zero,95d6 <__riscv_restore_0>
    6626:	00044703          	lbu	a4,0(s0)
    662a:	0405                	c.addi	s0,1
    662c:	973e                	c.add	a4,a5
    662e:	00074703          	lbu	a4,0(a4)
    6632:	fee40fa3          	sb	a4,-1(s0)
    6636:	b7dd                	c.j	661c <__print_integral+0x2c>

00006638 <__printf_impl>:
    6638:	74b022ef          	jal	t0,9582 <__riscv_save_12>
    663c:	a6010113          	addi	sp,sp,-1440
    6640:	6b85                	c.lui	s7,0x1
    6642:	842e                	c.mv	s0,a1
    6644:	f15b958b          	addigp	a1,-8428 # 2003ec <__digits+0x10>
    6648:	892a                	c.mv	s2,a0
    664a:	8a32                	c.mv	s4,a2
    664c:	01c10a93          	addi	s5,sp,28
    6650:	800b8b93          	addi	s7,s7,-2048 # 800 <__sharedata_end_addr+0x490>
    6654:	860fc7ab          	swgp	zero,-1940 # 201d44 <__printf_count>
    6658:	c42e                	c.swsp	a1,8(sp)
    665a:	00094503          	lbu	a0,0(s2)
    665e:	e509                	c.bnez	a0,6668 <__printf_impl+0x30>
    6660:	5a010113          	addi	sp,sp,1440
    6664:	75b0206f          	jal	zero,95be <__riscv_restore_12>
    6668:	00190493          	addi	s1,s2,1
    666c:	005555db          	beqc	a0,37,6676 <__printf_impl+0x3e>
    6670:	9a02                	c.jalr	s4
    6672:	8926                	c.mv	s2,s1
    6674:	b7dd                	c.j	665a <__printf_impl+0x22>
    6676:	00194783          	lbu	a5,1(s2)
    667a:	0057e8db          	bnec	a5,37,668a <__printf_impl+0x52>
    667e:	02500513          	addi	a0,zero,37
    6682:	00290493          	addi	s1,s2,2
    6686:	9a02                	c.jalr	s4
    6688:	b7ed                	c.j	6672 <__printf_impl+0x3a>
    668a:	4681                	c.li	a3,0
    668c:	4701                	c.li	a4,0
    668e:	d002                	c.swsp	zero,32(sp)
    6690:	0004c783          	lbu	a5,0(s1)
    6694:	0007e7db          	bnec	a5,32,66a2 <__printf_impl+0x6a>
    6698:	00276713          	ori	a4,a4,2
    669c:	0485                	c.addi	s1,1
    669e:	4685                	c.li	a3,1
    66a0:	bfc5                	c.j	6690 <__printf_impl+0x58>
    66a2:	00d7e5db          	bnec	a5,45,66ac <__printf_impl+0x74>
    66a6:	00476713          	ori	a4,a4,4
    66aa:	bfcd                	c.j	669c <__printf_impl+0x64>
    66ac:	00b7e5db          	bnec	a5,43,66b6 <__printf_impl+0x7e>
    66b0:	00876713          	ori	a4,a4,8
    66b4:	b7e5                	c.j	669c <__printf_impl+0x64>
    66b6:	0037e5db          	bnec	a5,35,66c0 <__printf_impl+0x88>
    66ba:	01076713          	ori	a4,a4,16
    66be:	bff9                	c.j	669c <__printf_impl+0x64>
    66c0:	0107e5db          	bnec	a5,48,66ca <__printf_impl+0x92>
    66c4:	02076713          	ori	a4,a4,32
    66c8:	bfd1                	c.j	669c <__printf_impl+0x64>
    66ca:	c291                	c.beqz	a3,66ce <__printf_impl+0x96>
    66cc:	d03a                	c.swsp	a4,32(sp)
    66ce:	04a7eadb          	bnec	a5,42,6722 <__printf_impl+0xea>
    66d2:	00042983          	lw	s3,0(s0)
    66d6:	00440713          	addi	a4,s0,4
    66da:	0009d863          	bge	s3,zero,66ea <__printf_impl+0xb2>
    66de:	5782                	c.lwsp	a5,32(sp)
    66e0:	413009b3          	sub	s3,zero,s3
    66e4:	0047e793          	ori	a5,a5,4
    66e8:	d03e                	c.swsp	a5,32(sp)
    66ea:	0485                	c.addi	s1,1
    66ec:	843a                	c.mv	s0,a4
    66ee:	0004c783          	lbu	a5,0(s1)
    66f2:	5d7d                	c.li	s10,-1
    66f4:	06e7e8db          	bnec	a5,46,6764 <__printf_impl+0x12c>
    66f8:	0014c783          	lbu	a5,1(s1)
    66fc:	04a7dbdb          	beqc	a5,42,6752 <__printf_impl+0x11a>
    6700:	0485                	c.addi	s1,1
    6702:	4d01                	c.li	s10,0
    6704:	4725                	c.li	a4,9
    6706:	4629                	c.li	a2,10
    6708:	0004c783          	lbu	a5,0(s1)
    670c:	fd078793          	addi	a5,a5,-48
    6710:	0ff7f693          	andi	a3,a5,255
    6714:	04d76863          	bltu	a4,a3,6764 <__printf_impl+0x12c>
    6718:	02cd0d33          	mul	s10,s10,a2
    671c:	0485                	c.addi	s1,1
    671e:	9d3e                	c.add	s10,a5
    6720:	b7e5                	c.j	6708 <__printf_impl+0xd0>
    6722:	fd078793          	addi	a5,a5,-48
    6726:	0ff7f793          	andi	a5,a5,255
    672a:	4725                	c.li	a4,9
    672c:	4981                	c.li	s3,0
    672e:	fcf760e3          	bltu	a4,a5,66ee <__printf_impl+0xb6>
    6732:	4725                	c.li	a4,9
    6734:	4629                	c.li	a2,10
    6736:	a029                	c.j	6740 <__printf_impl+0x108>
    6738:	02c989b3          	mul	s3,s3,a2
    673c:	0485                	c.addi	s1,1
    673e:	99be                	c.add	s3,a5
    6740:	0004c783          	lbu	a5,0(s1)
    6744:	fd078793          	addi	a5,a5,-48
    6748:	0ff7f693          	andi	a3,a5,255
    674c:	fed776e3          	bgeu	a4,a3,6738 <__printf_impl+0x100>
    6750:	bf79                	c.j	66ee <__printf_impl+0xb6>
    6752:	00042d03          	lw	s10,0(s0)
    6756:	00440793          	addi	a5,s0,4
    675a:	000d5363          	bge	s10,zero,6760 <__printf_impl+0x128>
    675e:	5d7d                	c.li	s10,-1
    6760:	0489                	c.addi	s1,2
    6762:	843e                	c.mv	s0,a5
    6764:	43200793          	addi	a5,zero,1074
    6768:	866a                	c.mv	a2,s10
    676a:	01a7d463          	bge	a5,s10,6772 <__printf_impl+0x13a>
    676e:	43200613          	addi	a2,zero,1074
    6772:	0004c783          	lbu	a5,0(s1)
    6776:	4687e2db          	bnec	a5,104,67da <__printf_impl+0x1a2>
    677a:	5782                	c.lwsp	a5,32(sp)
    677c:	0014c703          	lbu	a4,1(s1)
    6780:	448767db          	bnec	a4,104,67ce <__printf_impl+0x196>
    6784:	0407e793          	ori	a5,a5,64
    6788:	00248913          	addi	s2,s1,2
    678c:	d03e                	c.swsp	a5,32(sp)
    678e:	00094683          	lbu	a3,0(s2)
    6792:	07800793          	addi	a5,zero,120
    6796:	22d7ec63          	bltu	a5,a3,69ce <__printf_impl+0x396>
    679a:	05700793          	addi	a5,zero,87
    679e:	06d7e863          	bltu	a5,a3,680e <__printf_impl+0x1d6>
    67a2:	4016d95b          	beqc	a3,65,67b4 <__printf_impl+0x17c>
    67a6:	fbb68793          	addi	a5,a3,-69
    67aa:	0ff7f793          	andi	a5,a5,255
    67ae:	4709                	c.li	a4,2
    67b0:	20f76f63          	bltu	a4,a5,69ce <__printf_impl+0x396>
    67b4:	00740593          	addi	a1,s0,7
    67b8:	99e1                	c.andi	a1,-8
    67ba:	2188                	c.fld	fa0,0(a1)
    67bc:	00858413          	addi	s0,a1,8
    67c0:	1048                	c.addi4spn	a0,sp,36
    67c2:	100c                	c.addi4spn	a1,sp,32
    67c4:	0206fc93          	andi	s9,a3,32
    67c8:	2ea5                	c.jal	6b40 <__printf_float_impl>
    67ca:	84aa                	c.mv	s1,a0
    67cc:	a8bd                	c.j	684a <__printf_impl+0x212>
    67ce:	0807e793          	ori	a5,a5,128
    67d2:	00148913          	addi	s2,s1,1
    67d6:	d03e                	c.swsp	a5,32(sp)
    67d8:	bf5d                	c.j	678e <__printf_impl+0x156>
    67da:	40c7eddb          	bnec	a5,108,67f4 <__printf_impl+0x1bc>
    67de:	5782                	c.lwsp	a5,32(sp)
    67e0:	0014c703          	lbu	a4,1(s1)
    67e4:	40c765db          	bnec	a4,108,67ee <__printf_impl+0x1b6>
    67e8:	2007e793          	ori	a5,a5,512
    67ec:	bf71                	c.j	6788 <__printf_impl+0x150>
    67ee:	1007e793          	ori	a5,a5,256
    67f2:	b7c5                	c.j	67d2 <__printf_impl+0x19a>
    67f4:	00148913          	addi	s2,s1,1
    67f8:	41a7e7db          	bnec	a5,122,6806 <__printf_impl+0x1ce>
    67fc:	5782                	c.lwsp	a5,32(sp)
    67fe:	1007e793          	ori	a5,a5,256
    6802:	d03e                	c.swsp	a5,32(sp)
    6804:	b769                	c.j	678e <__printf_impl+0x156>
    6806:	ff47dbdb          	beqc	a5,116,67fc <__printf_impl+0x1c4>
    680a:	8926                	c.mv	s2,s1
    680c:	b749                	c.j	678e <__printf_impl+0x156>
    680e:	fa868793          	addi	a5,a3,-88
    6812:	0ff7f793          	andi	a5,a5,255
    6816:	02000713          	addi	a4,zero,32
    681a:	1af76a63          	bltu	a4,a5,69ce <__printf_impl+0x396>
    681e:	45a2                	c.lwsp	a1,8(sp)
    6820:	0cf587db          	lea.w	a5,a1,a5
    6824:	439c                	c.lw	a5,0(a5)
    6826:	8782                	c.jr	a5
    6828:	45a9                	c.li	a1,10
    682a:	5782                	c.lwsp	a5,32(sp)
    682c:	1267f45b          	bbc	a5,6,6954 <__printf_impl+0x31c>
    6830:	00044703          	lbu	a4,0(s0)
    6834:	00440d93          	addi	s11,s0,4
    6838:	4781                	c.li	a5,0
    683a:	a291                	c.j	697e <__printf_impl+0x346>
    683c:	401c                	c.lw	a5,0(s0)
    683e:	4c81                	c.li	s9,0
    6840:	0411                	c.addi	s0,4
    6842:	02510493          	addi	s1,sp,37
    6846:	02f10223          	sb	a5,36(sp)
    684a:	02410c13          	addi	s8,sp,36
    684e:	a02d                	c.j	6878 <__printf_impl+0x240>
    6850:	00042c03          	lw	s8,0(s0)
    6854:	85b2                	c.mv	a1,a2
    6856:	8562                	c.mv	a0,s8
    6858:	c632                	c.swsp	a2,12(sp)
    685a:	651000ef          	jal	ra,76aa <strnlen>
    685e:	57fd                	c.li	a5,-1
    6860:	00440c93          	addi	s9,s0,4
    6864:	00fd0663          	beq	s10,a5,6870 <__printf_impl+0x238>
    6868:	4632                	c.lwsp	a2,12(sp)
    686a:	00a65363          	bge	a2,a0,6870 <__printf_impl+0x238>
    686e:	8532                	c.mv	a0,a2
    6870:	8466                	c.mv	s0,s9
    6872:	00ac04b3          	add	s1,s8,a0
    6876:	4c81                	c.li	s9,0
    6878:	5782                	c.lwsp	a5,32(sp)
    687a:	02d00693          	addi	a3,zero,45
    687e:	40a7fb5b          	bbs	a5,10,6894 <__printf_impl+0x25c>
    6882:	02b00693          	addi	a3,zero,43
    6886:	4037f75b          	bbs	a5,3,6894 <__printf_impl+0x25c>
    688a:	8d56                	c.mv	s10,s5
    688c:	0017f85b          	bbc	a5,1,689c <__printf_impl+0x264>
    6890:	02000693          	addi	a3,zero,32
    6894:	01d10d13          	addi	s10,sp,29
    6898:	00d10e23          	sb	a3,28(sp)
    689c:	0177f6b3          	and	a3,a5,s7
    68a0:	ca91                	c.beqz	a3,68b4 <__printf_impl+0x27c>
    68a2:	03000693          	addi	a3,zero,48
    68a6:	00dd0023          	sb	a3,0(s10)
    68aa:	05800693          	addi	a3,zero,88
    68ae:	00dd00a3          	sb	a3,1(s10)
    68b2:	0d09                	c.addi	s10,2
    68b4:	5627f75b          	bbs	a5,2,6a22 <__printf_impl+0x3ea>
    68b8:	41848db3          	sub	s11,s1,s8
    68bc:	4057f95b          	bbs	a5,5,68ce <__printf_impl+0x296>
    68c0:	41b987b3          	sub	a5,s3,s11
    68c4:	415d06b3          	sub	a3,s10,s5
    68c8:	8f95                	c.sub	a5,a3
    68ca:	16f04a63          	blt	zero,a5,6a3e <__printf_impl+0x406>
    68ce:	87d6                	c.mv	a5,s5
    68d0:	a271                	c.j	6a5c <__printf_impl+0x424>
    68d2:	5682                	c.lwsp	a3,32(sp)
    68d4:	0266f55b          	bbc	a3,6,68fe <__printf_impl+0x2c6>
    68d8:	00040703          	lb	a4,0(s0)
    68dc:	00440d93          	addi	s11,s0,4
    68e0:	41f75793          	srai	a5,a4,0x1f
    68e4:	0407d463          	bge	a5,zero,692c <__printf_impl+0x2f4>
    68e8:	00e035b3          	sltu	a1,zero,a4
    68ec:	40f007b3          	sub	a5,zero,a5
    68f0:	40e00733          	sub	a4,zero,a4
    68f4:	8f8d                	c.sub	a5,a1
    68f6:	4006e693          	ori	a3,a3,1024
    68fa:	d036                	c.swsp	a3,32(sp)
    68fc:	a805                	c.j	692c <__printf_impl+0x2f4>
    68fe:	0076f75b          	bbc	a3,7,690c <__printf_impl+0x2d4>
    6902:	00041703          	lh	a4,0(s0)
    6906:	00440d93          	addi	s11,s0,4
    690a:	bfd9                	c.j	68e0 <__printf_impl+0x2a8>
    690c:	0086f65b          	bbc	a3,8,6918 <__printf_impl+0x2e0>
    6910:	4018                	c.lw	a4,0(s0)
    6912:	00440d93          	addi	s11,s0,4
    6916:	b7e9                	c.j	68e0 <__printf_impl+0x2a8>
    6918:	be96fc5b          	bbc	a3,9,6910 <__printf_impl+0x2d8>
    691c:	041d                	c.addi	s0,7
    691e:	9861                	c.andi	s0,-8
    6920:	405c                	c.lw	a5,4(s0)
    6922:	4018                	c.lw	a4,0(s0)
    6924:	00840d93          	addi	s11,s0,8
    6928:	0007c963          	blt	a5,zero,693a <__printf_impl+0x302>
    692c:	56fd                	c.li	a3,-1
    692e:	45a9                	c.li	a1,10
    6930:	4c81                	c.li	s9,0
    6932:	04dd1b63          	bne	s10,a3,6988 <__printf_impl+0x350>
    6936:	4605                	c.li	a2,1
    6938:	a0bd                	c.j	69a6 <__printf_impl+0x36e>
    693a:	f75d                	c.bnez	a4,68e8 <__printf_impl+0x2b0>
    693c:	800005b7          	lui	a1,0x80000
    6940:	fab794e3          	bne	a5,a1,68e8 <__printf_impl+0x2b0>
    6944:	4701                	c.li	a4,0
    6946:	800007b7          	lui	a5,0x80000
    694a:	b775                	c.j	68f6 <__printf_impl+0x2be>
    694c:	45c1                	c.li	a1,16
    694e:	bdf1                	c.j	682a <__printf_impl+0x1f2>
    6950:	45a1                	c.li	a1,8
    6952:	bde1                	c.j	682a <__printf_impl+0x1f2>
    6954:	0077f75b          	bbc	a5,7,6962 <__printf_impl+0x32a>
    6958:	00045703          	lhu	a4,0(s0)
    695c:	00440d93          	addi	s11,s0,4
    6960:	bde1                	c.j	6838 <__printf_impl+0x200>
    6962:	0087f65b          	bbc	a5,8,696e <__printf_impl+0x336>
    6966:	4018                	c.lw	a4,0(s0)
    6968:	00440d93          	addi	s11,s0,4
    696c:	b5f1                	c.j	6838 <__printf_impl+0x200>
    696e:	be97fc5b          	bbc	a5,9,6966 <__printf_impl+0x32e>
    6972:	041d                	c.addi	s0,7
    6974:	9861                	c.andi	s0,-8
    6976:	4018                	c.lw	a4,0(s0)
    6978:	405c                	c.lw	a5,4(s0)
    697a:	00840d93          	addi	s11,s0,8
    697e:	0206fc93          	andi	s9,a3,32
    6982:	56fd                	c.li	a3,-1
    6984:	02dd0863          	beq	s10,a3,69b4 <__printf_impl+0x37c>
    6988:	5682                	c.lwsp	a3,32(sp)
    698a:	fdf6f693          	andi	a3,a3,-33
    698e:	d036                	c.swsp	a3,32(sp)
    6990:	0105eb5b          	bnec	a1,16,69a6 <__printf_impl+0x36e>
    6994:	5682                	c.lwsp	a3,32(sp)
    6996:	0046f85b          	bbc	a3,4,69a6 <__printf_impl+0x36e>
    699a:	00f76533          	or	a0,a4,a5
    699e:	c501                	c.beqz	a0,69a6 <__printf_impl+0x36e>
    69a0:	0176e6b3          	or	a3,a3,s7
    69a4:	d036                	c.swsp	a3,32(sp)
    69a6:	86b2                	c.mv	a3,a2
    69a8:	5602                	c.lwsp	a2,32(sp)
    69aa:	1048                	c.addi4spn	a0,sp,36
    69ac:	3191                	c.jal	65f0 <__print_integral>
    69ae:	846e                	c.mv	s0,s11
    69b0:	84aa                	c.mv	s1,a0
    69b2:	bd61                	c.j	684a <__printf_impl+0x212>
    69b4:	4605                	c.li	a2,1
    69b6:	bfe9                	c.j	6990 <__printf_impl+0x358>
    69b8:	5602                	c.lwsp	a2,32(sp)
    69ba:	86ffa7ab          	lwgp	a5,-1940 # 201d44 <__printf_count>
    69be:	4018                	c.lw	a4,0(s0)
    69c0:	00440693          	addi	a3,s0,4
    69c4:	0066795b          	bbc	a2,6,69d6 <__printf_impl+0x39e>
    69c8:	00f70023          	sb	a5,0(a4)
    69cc:	8436                	c.mv	s0,a3
    69ce:	1044                	c.addi4spn	s1,sp,36
    69d0:	4c81                	c.li	s9,0
    69d2:	8c26                	c.mv	s8,s1
    69d4:	b555                	c.j	6878 <__printf_impl+0x240>
    69d6:	0076755b          	bbc	a2,7,69e0 <__printf_impl+0x3a8>
    69da:	00f71023          	sh	a5,0(a4)
    69de:	b7fd                	c.j	69cc <__printf_impl+0x394>
    69e0:	c31c                	c.sw	a5,0(a4)
    69e2:	fe86755b          	bbs	a2,8,69cc <__printf_impl+0x394>
    69e6:	be96735b          	bbc	a2,9,69cc <__printf_impl+0x394>
    69ea:	87fd                	c.srai	a5,0x1f
    69ec:	c35c                	c.sw	a5,4(a4)
    69ee:	bff9                	c.j	69cc <__printf_impl+0x394>
    69f0:	000dc503          	lbu	a0,0(s11)
    69f4:	0d85                	c.addi	s11,1
    69f6:	00ace533          	or	a0,s9,a0
    69fa:	9a02                	c.jalr	s4
    69fc:	ffadeae3          	bltu	s11,s10,69f0 <__printf_impl+0x3b8>
    6a00:	4781                	c.li	a5,0
    6a02:	015d6463          	bltu	s10,s5,6a0a <__printf_impl+0x3d2>
    6a06:	41aa87b3          	sub	a5,s5,s10
    6a0a:	99be                	c.add	s3,a5
    6a0c:	8d62                	c.mv	s10,s8
    6a0e:	01a49c63          	bne	s1,s10,6a26 <__printf_impl+0x3ee>
    6a12:	418484b3          	sub	s1,s1,s8
    6a16:	409984b3          	sub	s1,s3,s1
    6a1a:	00904d63          	blt	zero,s1,6a34 <__printf_impl+0x3fc>
    6a1e:	0905                	c.addi	s2,1
    6a20:	b92d                	c.j	665a <__printf_impl+0x22>
    6a22:	8dd6                	c.mv	s11,s5
    6a24:	bfe1                	c.j	69fc <__printf_impl+0x3c4>
    6a26:	000d4503          	lbu	a0,0(s10)
    6a2a:	0d05                	c.addi	s10,1
    6a2c:	00ace533          	or	a0,s9,a0
    6a30:	9a02                	c.jalr	s4
    6a32:	bff1                	c.j	6a0e <__printf_impl+0x3d6>
    6a34:	02000513          	addi	a0,zero,32
    6a38:	14fd                	c.addi	s1,-1
    6a3a:	9a02                	c.jalr	s4
    6a3c:	bff9                	c.j	6a1a <__printf_impl+0x3e2>
    6a3e:	02000513          	addi	a0,zero,32
    6a42:	c63e                	c.swsp	a5,12(sp)
    6a44:	9a02                	c.jalr	s4
    6a46:	47b2                	c.lwsp	a5,12(sp)
    6a48:	17fd                	c.addi	a5,-1
    6a4a:	b541                	c.j	68ca <__printf_impl+0x292>
    6a4c:	0007c503          	lbu	a0,0(a5) # 80000000 <__start_addr+0xfffffff0>
    6a50:	c63e                	c.swsp	a5,12(sp)
    6a52:	00ace533          	or	a0,s9,a0
    6a56:	9a02                	c.jalr	s4
    6a58:	47b2                	c.lwsp	a5,12(sp)
    6a5a:	0785                	c.addi	a5,1
    6a5c:	ffa7e8e3          	bltu	a5,s10,6a4c <__printf_impl+0x414>
    6a60:	4781                	c.li	a5,0
    6a62:	015d6463          	bltu	s10,s5,6a6a <__printf_impl+0x432>
    6a66:	41aa87b3          	sub	a5,s5,s10
    6a6a:	99be                	c.add	s3,a5
    6a6c:	5782                	c.lwsp	a5,32(sp)
    6a6e:	0057f65b          	bbc	a5,5,6a7a <__printf_impl+0x442>
    6a72:	41b989b3          	sub	s3,s3,s11
    6a76:	01304b63          	blt	zero,s3,6a8c <__printf_impl+0x454>
    6a7a:	fb8482e3          	beq	s1,s8,6a1e <__printf_impl+0x3e6>
    6a7e:	000c4503          	lbu	a0,0(s8)
    6a82:	0c05                	c.addi	s8,1
    6a84:	00ace533          	or	a0,s9,a0
    6a88:	9a02                	c.jalr	s4
    6a8a:	bfc5                	c.j	6a7a <__printf_impl+0x442>
    6a8c:	03000513          	addi	a0,zero,48
    6a90:	19fd                	c.addi	s3,-1
    6a92:	9a02                	c.jalr	s4
    6a94:	b7cd                	c.j	6a76 <__printf_impl+0x43e>

00006a96 <__int_to_poly>:
    6a96:	87aa                	c.mv	a5,a0
    6a98:	4501                	c.li	a0,0
    6a9a:	00b7e733          	or	a4,a5,a1
    6a9e:	e311                	c.bnez	a4,6aa2 <__int_to_poly+0xc>
    6aa0:	8082                	c.jr	ra
    6aa2:	0aa6075b          	lea.h	a4,a2,a0
    6aa6:	00f71023          	sh	a5,0(a4)
    6aaa:	01059713          	slli	a4,a1,0x10
    6aae:	83c1                	c.srli	a5,0x10
    6ab0:	8fd9                	c.or	a5,a4
    6ab2:	81c1                	c.srli	a1,0x10
    6ab4:	0505                	c.addi	a0,1
    6ab6:	b7d5                	c.j	6a9a <__int_to_poly+0x4>

00006ab8 <__print_integral_poly>:
    6ab8:	2fb022ef          	jal	t0,95b2 <__riscv_save_0>
    6abc:	84ba                	c.mv	s1,a4
    6abe:	fff80893          	addi	a7,a6,-1
    6ac2:	0b07875b          	lea.h	a4,a5,a6
    6ac6:	8346                	c.mv	t1,a7
    6ac8:	4401                	c.li	s0,0
    6aca:	8e3a                	c.mv	t3,a4
    6acc:	1779                	c.addi	a4,-2
    6ace:	02035663          	bge	t1,zero,6afa <__print_integral_poly+0x42>
    6ad2:	05005063          	bge	zero,a6,6b12 <__print_integral_poly+0x5a>
    6ad6:	ffee5703          	lhu	a4,-2(t3) # 7ffffffe <__start_addr+0xffffffee>
    6ada:	e701                	c.bnez	a4,6ae2 <__print_integral_poly+0x2a>
    6adc:	03105b63          	bge	zero,a7,6b12 <__print_integral_poly+0x5a>
    6ae0:	8846                	c.mv	a6,a7
    6ae2:	8726                	c.mv	a4,s1
    6ae4:	16fd                	c.addi	a3,-1
    6ae6:	3fc9                	c.jal	6ab8 <__print_integral_poly>
    6ae8:	87aa                	c.mv	a5,a0
    6aea:	0505                	c.addi	a0,1
    6aec:	00878023          	sb	s0,0(a5)
    6af0:	409c                	c.lw	a5,0(s1)
    6af2:	0785                	c.addi	a5,1
    6af4:	c09c                	c.sw	a5,0(s1)
    6af6:	2e10206f          	jal	zero,95d6 <__riscv_restore_0>
    6afa:	00075e83          	lhu	t4,0(a4)
    6afe:	0442                	c.slli	s0,0x10
    6b00:	9476                	c.add	s0,t4
    6b02:	02b45eb3          	divu	t4,s0,a1
    6b06:	137d                	c.addi	t1,-1
    6b08:	02b47433          	remu	s0,s0,a1
    6b0c:	01d71023          	sh	t4,0(a4)
    6b10:	bf75                	c.j	6acc <__print_integral_poly+0x14>
    6b12:	c011                	c.beqz	s0,6b16 <__print_integral_poly+0x5e>
    6b14:	16fd                	c.addi	a3,-1
    6b16:	00d04763          	blt	zero,a3,6b24 <__print_integral_poly+0x6c>
    6b1a:	0085ee5b          	bnec	a1,8,6b36 <__print_integral_poly+0x7e>
    6b1e:	00467c5b          	bbc	a2,4,6b36 <__print_integral_poly+0x7e>
    6b22:	4685                	c.li	a3,1
    6b24:	4781                	c.li	a5,0
    6b26:	00f50733          	add	a4,a0,a5
    6b2a:	00070023          	sb	zero,0(a4)
    6b2e:	0785                	c.addi	a5,1
    6b30:	fed7cbe3          	blt	a5,a3,6b26 <__print_integral_poly+0x6e>
    6b34:	9536                	c.add	a0,a3
    6b36:	dc4d                	c.beqz	s0,6af0 <__print_integral_poly+0x38>
    6b38:	00850023          	sb	s0,0(a0)
    6b3c:	0505                	c.addi	a0,1
    6b3e:	bf4d                	c.j	6af0 <__print_integral_poly+0x38>

00006b40 <__printf_float_impl>:
    6b40:	243022ef          	jal	t0,9582 <__riscv_save_12>
    6b44:	7169                	c.addi16sp	sp,-304
    6b46:	0df6fd13          	andi	s10,a3,223
    6b4a:	a02a                	c.fsdsp	fa0,0(sp)
    6b4c:	8c2a                	c.mv	s8,a0
    6b4e:	8a2e                	c.mv	s4,a1
    6b50:	84b2                	c.mv	s1,a2
    6b52:	8936                	c.mv	s2,a3
    6b54:	467d6d5b          	bnec	s10,71,6bce <__printf_float_impl+0x8e>
    6b58:	0005aa83          	lw	s5,0(a1) # 80000000 <__start_addr+0xfffffff0>
    6b5c:	010aca93          	xori	s5,s5,16
    6b60:	104aaadb          	bfoz	s5,s5,4,4
    6b64:	0604db63          	bge	s1,zero,6bda <__printf_float_impl+0x9a>
    6b68:	44b5                	c.li	s1,13
    6b6a:	401d535b          	beqc	s10,65,6b70 <__printf_float_impl+0x30>
    6b6e:	4499                	c.li	s1,6
    6b70:	4592                	c.lwsp	a1,4(sp)
    6b72:	4982                	c.lwsp	s3,0(sp)
    6b74:	7945a45b          	bfoz	s0,a1,30,20
    6b78:	4c05ab5b          	bfoz	s6,a1,19,0
    6b7c:	0005d863          	bge	a1,zero,6b8c <__printf_float_impl+0x4c>
    6b80:	000a2703          	lw	a4,0(s4)
    6b84:	40076713          	ori	a4,a4,1024
    6b88:	00ea2023          	sw	a4,0(s4)
    6b8c:	401d6a5b          	bnec	s10,65,6ba0 <__printf_float_impl+0x60>
    6b90:	000a2703          	lw	a4,0(s4)
    6b94:	6685                	c.lui	a3,0x1
    6b96:	80068693          	addi	a3,a3,-2048 # 800 <__sharedata_end_addr+0x490>
    6b9a:	8f55                	c.or	a4,a3
    6b9c:	00ea2023          	sw	a4,0(s4)
    6ba0:	7ff00713          	addi	a4,zero,2047
    6ba4:	04e41463          	bne	s0,a4,6bec <__printf_float_impl+0xac>
    6ba8:	000a2703          	lw	a4,0(s4)
    6bac:	4482                	c.lwsp	s1,0(sp)
    6bae:	fdf77713          	andi	a4,a4,-33
    6bb2:	009b67b3          	or	a5,s6,s1
    6bb6:	00ea2023          	sw	a4,0(s4)
    6bba:	c795                	c.beqz	a5,6be6 <__printf_float_impl+0xa6>
    6bbc:	f99b958b          	addigp	a1,-8296 # 200470 <__digits+0x94>
    6bc0:	8562                	c.mv	a0,s8
    6bc2:	9d2ff0ef          	jal	ra,5d94 <strcpy>
    6bc6:	050d                	c.addi	a0,3
    6bc8:	6155                	c.addi16sp	sp,304
    6bca:	1f50206f          	jal	zero,95be <__riscv_restore_12>
    6bce:	4a81                	c.li	s5,0
    6bd0:	f81d6a5b          	bnec	s10,65,6b64 <__printf_float_impl+0x24>
    6bd4:	01f65a93          	srli	s5,a2,0x1f
    6bd8:	b771                	c.j	6b64 <__printf_float_impl+0x24>
    6bda:	f8d9                	c.bnez	s1,6b70 <__printf_float_impl+0x30>
    6bdc:	fb9d0493          	addi	s1,s10,-71
    6be0:	0014b493          	sltiu	s1,s1,1
    6be4:	b771                	c.j	6b70 <__printf_float_impl+0x30>
    6be6:	f9db958b          	addigp	a1,-8292 # 200474 <__digits+0x98>
    6bea:	bfd9                	c.j	6bc0 <__printf_float_impl+0x80>
    6bec:	e819                	c.bnez	s0,6c02 <__printf_float_impl+0xc2>
    6bee:	4602                	c.lwsp	a2,0(sp)
    6bf0:	c0300413          	addi	s0,zero,-1021
    6bf4:	00cb6733          	or	a4,s6,a2
    6bf8:	18071563          	bne	a4,zero,6d82 <__printf_float_impl+0x242>
    6bfc:	03500413          	addi	s0,zero,53
    6c00:	a819                	c.j	6c16 <__printf_float_impl+0xd6>
    6c02:	00100737          	lui	a4,0x100
    6c06:	01676b33          	or	s6,a4,s6
    6c0a:	c0240413          	addi	s0,s0,-1022
    6c0e:	03400713          	addi	a4,zero,52
    6c12:	16875663          	bge	a4,s0,6d7e <__printf_float_impl+0x23e>
    6c16:	fcb40413          	addi	s0,s0,-53
    6c1a:	00445d93          	srli	s11,s0,0x4
    6c1e:	001d9993          	slli	s3,s11,0x1
    6c22:	864e                	c.mv	a2,s3
    6c24:	4581                	c.li	a1,0
    6c26:	1008                	c.addi4spn	a0,sp,32
    6c28:	8c8ff0ef          	jal	ra,5cf0 <memset>
    6c2c:	4502                	c.lwsp	a0,0(sp)
    6c2e:	883d                	c.andi	s0,15
    6c30:	1a0c                	c.addi4spn	a1,sp,304
    6c32:	99ae                	c.add	s3,a1
    6c34:	8622                	c.mv	a2,s0
    6c36:	85da                	c.mv	a1,s6
    6c38:	1dc020ef          	jal	ra,8e14 <__ashldi3>
    6c3c:	0d85                	c.addi	s11,1
    6c3e:	eea99823          	sh	a0,-272(s3)
    6c42:	100c                	c.addi4spn	a1,sp,32
    6c44:	4502                	c.lwsp	a0,0(sp)
    6c46:	4641                	c.li	a2,16
    6c48:	0bb589db          	lea.h	s3,a1,s11
    6c4c:	8e01                	c.sub	a2,s0
    6c4e:	85da                	c.mv	a1,s6
    6c50:	194020ef          	jal	ra,8de4 <__lshrdi3>
    6c54:	864e                	c.mv	a2,s3
    6c56:	3581                	c.jal	6a96 <__int_to_poly>
    6c58:	4c81                	c.li	s9,0
    6c5a:	9daa                	c.add	s11,a0
    6c5c:	57fd                	c.li	a5,-1
    6c5e:	ce3e                	c.swsp	a5,28(sp)
    6c60:	4441                	c.li	s0,16
    6c62:	401d535b          	beqc	s10,65,6c68 <__printf_float_impl+0x128>
    6c66:	4429                	c.li	s0,10
    6c68:	886e                	c.mv	a6,s11
    6c6a:	101c                	c.addi4spn	a5,sp,32
    6c6c:	4601                	c.li	a2,0
    6c6e:	0878                	c.addi4spn	a4,sp,28
    6c70:	4685                	c.li	a3,1
    6c72:	85a2                	c.mv	a1,s0
    6c74:	8562                	c.mv	a0,s8
    6c76:	3589                	c.jal	6ab8 <__print_integral_poly>
    6c78:	02e00793          	addi	a5,zero,46
    6c7c:	001dbd93          	sltiu	s11,s11,1
    6c80:	00f50023          	sb	a5,0(a0)
    6c84:	0db97b13          	andi	s6,s2,219
    6c88:	00150613          	addi	a2,a0,1
    6c8c:	87ee                	c.mv	a5,s11
    6c8e:	401b535b          	beqc	s6,65,6c94 <__printf_float_impl+0x154>
    6c92:	4781                	c.li	a5,0
    6c94:	00148713          	addi	a4,s1,1
    6c98:	973e                	c.add	a4,a5
    6c9a:	fffc8313          	addi	t1,s9,-1
    6c9e:	1134                	c.addi4spn	a3,sp,168
    6ca0:	001c9593          	slli	a1,s9,0x1
    6ca4:	0b9686db          	lea.h	a3,a3,s9
    6ca8:	881a                	c.mv	a6,t1
    6caa:	4781                	c.li	a5,0
    6cac:	16f9                	c.addi	a3,-2
    6cae:	18085263          	bge	a6,zero,6e32 <__printf_float_impl+0x2f2>
    6cb2:	01905863          	bge	zero,s9,6cc2 <__printf_float_impl+0x182>
    6cb6:	1a14                	c.addi4spn	a3,sp,304
    6cb8:	96ae                	c.add	a3,a1
    6cba:	f766d683          	lhu	a3,-138(a3)
    6cbe:	e291                	c.bnez	a3,6cc2 <__printf_float_impl+0x182>
    6cc0:	8c9a                	c.mv	s9,t1
    6cc2:	180d8263          	beq	s11,zero,6e46 <__printf_float_impl+0x306>
    6cc6:	46f2                	c.lwsp	a3,28(sp)
    6cc8:	0017bd93          	sltiu	s11,a5,1
    6ccc:	16fd                	c.addi	a3,-1
    6cce:	ce36                	c.swsp	a3,28(sp)
    6cd0:	00f60023          	sb	a5,0(a2)
    6cd4:	0605                	c.addi	a2,1
    6cd6:	f371                	c.bnez	a4,6c9a <__printf_float_impl+0x15a>
    6cd8:	567d6a5b          	bnec	s10,71,6e4c <__printf_float_impl+0x30c>
    6cdc:	47f2                	c.lwsp	a5,28(sp)
    6cde:	fff48713          	addi	a4,s1,-1
    6ce2:	1897d763          	bge	a5,s1,6e70 <__printf_float_impl+0x330>
    6ce6:	56f1                	c.li	a3,-4
    6ce8:	18d7c463          	blt	a5,a3,6e70 <__printf_float_impl+0x330>
    6cec:	40f704b3          	sub	s1,a4,a5
    6cf0:	04600d13          	addi	s10,zero,70
    6cf4:	0489                	c.addi	s1,2
    6cf6:	9526                	c.add	a0,s1
    6cf8:	fff54683          	lbu	a3,-1(a0)
    6cfc:	40145713          	srai	a4,s0,0x1
    6d00:	fff50793          	addi	a5,a0,-1
    6d04:	00e6a6b3          	slt	a3,a3,a4
    6d08:	0016c693          	xori	a3,a3,1
    6d0c:	863e                	c.mv	a2,a5
    6d0e:	1acc7c63          	bgeu	s8,a2,6ec6 <__printf_float_impl+0x386>
    6d12:	18069863          	bne	a3,zero,6ea2 <__printf_float_impl+0x362>
    6d16:	17fd                	c.addi	a5,-1
    6d18:	00178513          	addi	a0,a5,1
    6d1c:	00fc7763          	bgeu	s8,a5,6d2a <__printf_float_impl+0x1ea>
    6d20:	000a8563          	beq	s5,zero,6d2a <__printf_float_impl+0x1ea>
    6d24:	0007c703          	lbu	a4,0(a5)
    6d28:	d77d                	c.beqz	a4,6d16 <__printf_float_impl+0x1d6>
    6d2a:	fff54783          	lbu	a5,-1(a0)
    6d2e:	00e7e7db          	bnec	a5,46,6d3c <__printf_float_impl+0x1fc>
    6d32:	000a2783          	lw	a5,0(s4)
    6d36:	4047f35b          	bbs	a5,4,6d3c <__printf_float_impl+0x1fc>
    6d3a:	157d                	c.addi	a0,-1
    6d3c:	46bd                	c.li	a3,15
    6d3e:	f05b970b          	addigp	a4,-8444 # 2003dc <__digits>
    6d42:	1cac6063          	bltu	s8,a0,6f02 <__printf_float_impl+0x3c2>
    6d46:	5c5d695b          	bnec	s10,69,6f18 <__printf_float_impl+0x3d8>
    6d4a:	01a50023          	sb	s10,0(a0)
    6d4e:	4772                	c.lwsp	a4,28(sp)
    6d50:	02b00793          	addi	a5,zero,43
    6d54:	00075463          	bge	a4,zero,6d5c <__printf_float_impl+0x21c>
    6d58:	02d00793          	addi	a5,zero,45
    6d5c:	00f500a3          	sb	a5,1(a0)
    6d60:	47f2                	c.lwsp	a5,28(sp)
    6d62:	4689                	c.li	a3,2
    6d64:	41f7d713          	srai	a4,a5,0x1f
    6d68:	8fb9                	c.xor	a5,a4
    6d6a:	40e78733          	sub	a4,a5,a4
    6d6e:	41f75793          	srai	a5,a4,0x1f
    6d72:	4601                	c.li	a2,0
    6d74:	45a9                	c.li	a1,10
    6d76:	0509                	c.addi	a0,2
    6d78:	879ff0ef          	jal	ra,65f0 <__print_integral>
    6d7c:	b5b1                	c.j	6bc8 <__printf_float_impl+0x88>
    6d7e:	06804363          	blt	zero,s0,6de4 <__printf_float_impl+0x2a4>
    6d82:	40800433          	sub	s0,zero,s0
    6d86:	00445c93          	srli	s9,s0,0x4
    6d8a:	001c9b93          	slli	s7,s9,0x1
    6d8e:	865e                	c.mv	a2,s7
    6d90:	4581                	c.li	a1,0
    6d92:	1128                	c.addi4spn	a0,sp,168
    6d94:	f5dfe0ef          	jal	ra,5cf0 <memset>
    6d98:	112c                	c.addi4spn	a1,sp,168
    6d9a:	883d                	c.andi	s0,15
    6d9c:	9bae                	c.add	s7,a1
    6d9e:	02540413          	addi	s0,s0,37
    6da2:	885e                	c.mv	a6,s7
    6da4:	4701                	c.li	a4,0
    6da6:	8622                	c.mv	a2,s0
    6da8:	8dba                	c.mv	s11,a4
    6daa:	854e                	c.mv	a0,s3
    6dac:	0705                	c.addi	a4,1
    6dae:	85da                	c.mv	a1,s6
    6db0:	c642                	c.swsp	a6,12(sp)
    6db2:	c43a                	c.swsp	a4,8(sp)
    6db4:	030020ef          	jal	ra,8de4 <__lshrdi3>
    6db8:	4832                	c.lwsp	a6,12(sp)
    6dba:	1441                	c.addi	s0,-16
    6dbc:	00a81023          	sh	a0,0(a6)
    6dc0:	4722                	c.lwsp	a4,8(sp)
    6dc2:	0809                	c.addi	a6,2
    6dc4:	fe0451e3          	bge	s0,zero,6da6 <__printf_float_impl+0x266>
    6dc8:	4502                	c.lwsp	a0,0(sp)
    6dca:	0aeb89db          	lea.h	s3,s7,a4
    6dce:	0d89                	c.addi	s11,2
    6dd0:	40800633          	sub	a2,zero,s0
    6dd4:	85da                	c.mv	a1,s6
    6dd6:	9cee                	c.add	s9,s11
    6dd8:	03c020ef          	jal	ra,8e14 <__ashldi3>
    6ddc:	4d81                	c.li	s11,0
    6dde:	00a99023          	sh	a0,0(s3)
    6de2:	bdad                	c.j	6c5c <__printf_float_impl+0x11c>
    6de4:	4502                	c.lwsp	a0,0(sp)
    6de6:	03500613          	addi	a2,zero,53
    6dea:	8e01                	c.sub	a2,s0
    6dec:	85da                	c.mv	a1,s6
    6dee:	7f7010ef          	jal	ra,8de4 <__lshrdi3>
    6df2:	1010                	c.addi4spn	a2,sp,32
    6df4:	314d                	c.jal	6a96 <__int_to_poly>
    6df6:	02500613          	addi	a2,zero,37
    6dfa:	8daa                	c.mv	s11,a0
    6dfc:	40860433          	sub	s0,a2,s0
    6e00:	0a810b93          	addi	s7,sp,168
    6e04:	4c81                	c.li	s9,0
    6e06:	0c85                	c.addi	s9,1
    6e08:	00045b63          	bge	s0,zero,6e1e <__printf_float_impl+0x2de>
    6e0c:	4502                	c.lwsp	a0,0(sp)
    6e0e:	40800633          	sub	a2,zero,s0
    6e12:	85da                	c.mv	a1,s6
    6e14:	000020ef          	jal	ra,8e14 <__ashldi3>
    6e18:	00ab9023          	sh	a0,0(s7)
    6e1c:	b581                	c.j	6c5c <__printf_float_impl+0x11c>
    6e1e:	8622                	c.mv	a2,s0
    6e20:	854e                	c.mv	a0,s3
    6e22:	85da                	c.mv	a1,s6
    6e24:	7c1010ef          	jal	ra,8de4 <__lshrdi3>
    6e28:	1441                	c.addi	s0,-16
    6e2a:	00ab9023          	sh	a0,0(s7)
    6e2e:	0b89                	c.addi	s7,2
    6e30:	bfd9                	c.j	6e06 <__printf_float_impl+0x2c6>
    6e32:	0006d883          	lhu	a7,0(a3)
    6e36:	187d                	c.addi	a6,-1
    6e38:	028888b3          	mul	a7,a7,s0
    6e3c:	97c6                	c.add	a5,a7
    6e3e:	00f69023          	sh	a5,0(a3)
    6e42:	83c1                	c.srli	a5,0x10
    6e44:	b5a5                	c.j	6cac <__printf_float_impl+0x16c>
    6e46:	177d                	c.addi	a4,-1
    6e48:	4d81                	c.li	s11,0
    6e4a:	b559                	c.j	6cd0 <__printf_float_impl+0x190>
    6e4c:	8726                	c.mv	a4,s1
    6e4e:	ea6d535b          	beqc	s10,70,6cf4 <__printf_float_impl+0x1b4>
    6e52:	47f2                	c.lwsp	a5,28(sp)
    6e54:	001c0693          	addi	a3,s8,1
    6e58:	02f04463          	blt	zero,a5,6e80 <__printf_float_impl+0x340>
    6e5c:	c785                	c.beqz	a5,6e84 <__printf_float_impl+0x344>
    6e5e:	40f507b3          	sub	a5,a0,a5
    6e62:	02c7e963          	bltu	a5,a2,6e94 <__printf_float_impl+0x354>
    6e66:	001c4783          	lbu	a5,1(s8)
    6e6a:	00fc0023          	sb	a5,0(s8)
    6e6e:	a819                	c.j	6e84 <__printf_float_impl+0x344>
    6e70:	04500d13          	addi	s10,zero,69
    6e74:	bff9                	c.j	6e52 <__printf_float_impl+0x312>
    6e76:	fff54783          	lbu	a5,-1(a0)
    6e7a:	157d                	c.addi	a0,-1
    6e7c:	00f500a3          	sb	a5,1(a0)
    6e80:	fed51be3          	bne	a0,a3,6e76 <__printf_float_impl+0x336>
    6e84:	02e00793          	addi	a5,zero,46
    6e88:	001c0513          	addi	a0,s8,1
    6e8c:	84ba                	c.mv	s1,a4
    6e8e:	00fc00a3          	sb	a5,1(s8)
    6e92:	b58d                	c.j	6cf4 <__printf_float_impl+0x1b4>
    6e94:	0007c683          	lbu	a3,0(a5)
    6e98:	0785                	c.addi	a5,1
    6e9a:	0505                	c.addi	a0,1
    6e9c:	fed50fa3          	sb	a3,-1(a0)
    6ea0:	b7c9                	c.j	6e62 <__printf_float_impl+0x322>
    6ea2:	167d                	c.addi	a2,-1
    6ea4:	00064703          	lbu	a4,0(a2)
    6ea8:	a6e753db          	beqc	a4,46,6d0e <__printf_float_impl+0x1ce>
    6eac:	0705                	c.addi	a4,1
    6eae:	0ff77713          	andi	a4,a4,255
    6eb2:	00875663          	bge	a4,s0,6ebe <__printf_float_impl+0x37e>
    6eb6:	4681                	c.li	a3,0
    6eb8:	00e60023          	sb	a4,0(a2)
    6ebc:	bd89                	c.j	6d0e <__printf_float_impl+0x1ce>
    6ebe:	8f01                	c.sub	a4,s0
    6ec0:	00e60023          	sb	a4,0(a2)
    6ec4:	b5a9                	c.j	6d0e <__printf_float_impl+0x1ce>
    6ec6:	873e                	c.mv	a4,a5
    6ec8:	e40687e3          	beq	a3,zero,6d16 <__printf_float_impl+0x1d6>
    6ecc:	02ec6363          	bltu	s8,a4,6ef2 <__printf_float_impl+0x3b2>
    6ed0:	4705                	c.li	a4,1
    6ed2:	00ec0023          	sb	a4,0(s8)
    6ed6:	4772                	c.lwsp	a4,28(sp)
    6ed8:	0705                	c.addi	a4,1
    6eda:	ce3a                	c.swsp	a4,28(sp)
    6edc:	426d515b          	beqc	s10,70,6efe <__printf_float_impl+0x3be>
    6ee0:	001c4703          	lbu	a4,1(s8)
    6ee4:	00ec0123          	sb	a4,2(s8)
    6ee8:	02e00713          	addi	a4,zero,46
    6eec:	00ec00a3          	sb	a4,1(s8)
    6ef0:	b51d                	c.j	6d16 <__printf_float_impl+0x1d6>
    6ef2:	fff74683          	lbu	a3,-1(a4) # fffff <__data_lmastart+0xf5bff>
    6ef6:	177d                	c.addi	a4,-1
    6ef8:	00d700a3          	sb	a3,1(a4)
    6efc:	bfc1                	c.j	6ecc <__printf_float_impl+0x38c>
    6efe:	87aa                	c.mv	a5,a0
    6f00:	bd19                	c.j	6d16 <__printf_float_impl+0x1d6>
    6f02:	000c4783          	lbu	a5,0(s8)
    6f06:	00f6e763          	bltu	a3,a5,6f14 <__printf_float_impl+0x3d4>
    6f0a:	97ba                	c.add	a5,a4
    6f0c:	0007c783          	lbu	a5,0(a5)
    6f10:	00fc0023          	sb	a5,0(s8)
    6f14:	0c05                	c.addi	s8,1
    6f16:	b535                	c.j	6d42 <__printf_float_impl+0x202>
    6f18:	ca1d685b          	bnec	s10,65,6bc8 <__printf_float_impl+0x88>
    6f1c:	05000793          	addi	a5,zero,80
    6f20:	00f50023          	sb	a5,0(a0)
    6f24:	4772                	c.lwsp	a4,28(sp)
    6f26:	02b00793          	addi	a5,zero,43
    6f2a:	00075463          	bge	a4,zero,6f32 <__printf_float_impl+0x3f2>
    6f2e:	02d00793          	addi	a5,zero,45
    6f32:	00f500a3          	sb	a5,1(a0)
    6f36:	47f2                	c.lwsp	a5,28(sp)
    6f38:	4685                	c.li	a3,1
    6f3a:	41f7d713          	srai	a4,a5,0x1f
    6f3e:	8fb9                	c.xor	a5,a4
    6f40:	8f99                	c.sub	a5,a4
    6f42:	00279713          	slli	a4,a5,0x2
    6f46:	75d7b7db          	bfos	a5,a5,29,29
    6f4a:	b525                	c.j	6d72 <__printf_float_impl+0x232>

00006f4c <__print_integral_lite>:
    6f4c:	666022ef          	jal	t0,95b2 <__riscv_save_0>
    6f50:	8eba                	c.mv	t4,a4
    6f52:	8e3e                	c.mv	t3,a5
    6f54:	0505ec5b          	bnec	a1,16,6fac <__print_integral_lite+0x60>
    6f58:	07f2                	c.slli	a5,0x1c
    6f5a:	8311                	c.srli	a4,0x4
    6f5c:	8f5d                	c.or	a4,a5
    6f5e:	004e5793          	srli	a5,t3,0x4
    6f62:	41f5d813          	srai	a6,a1,0x1f
    6f66:	02b788b3          	mul	a7,a5,a1
    6f6a:	02e80833          	mul	a6,a6,a4
    6f6e:	02e58433          	mul	s0,a1,a4
    6f72:	9846                	c.add	a6,a7
    6f74:	02e5b8b3          	mulhu	a7,a1,a4
    6f78:	408e8433          	sub	s0,t4,s0
    6f7c:	008ebeb3          	sltu	t4,t4,s0
    6f80:	9846                	c.add	a6,a7
    6f82:	410e0e33          	sub	t3,t3,a6
    6f86:	00f76833          	or	a6,a4,a5
    6f8a:	41de0e33          	sub	t3,t3,t4
    6f8e:	08080763          	beq	a6,zero,701c <__print_integral_lite+0xd0>
    6f92:	16fd                	c.addi	a3,-1
    6f94:	3f65                	c.jal	6f4c <__print_integral_lite>
    6f96:	f05b978b          	addigp	a5,-8444 # 2003dc <__digits>
    6f9a:	943e                	c.add	s0,a5
    6f9c:	00044783          	lbu	a5,0(s0)
    6fa0:	872a                	c.mv	a4,a0
    6fa2:	0505                	c.addi	a0,1
    6fa4:	00f70023          	sb	a5,0(a4)
    6fa8:	62e0206f          	jal	zero,95d6 <__riscv_restore_0>
    6fac:	0085e85b          	bnec	a1,8,6fbc <__print_integral_lite+0x70>
    6fb0:	07f6                	c.slli	a5,0x1d
    6fb2:	830d                	c.srli	a4,0x3
    6fb4:	8f5d                	c.or	a4,a5
    6fb6:	003e5793          	srli	a5,t3,0x3
    6fba:	b765                	c.j	6f62 <__print_integral_lite+0x16>
    6fbc:	ccccd737          	lui	a4,0xccccd
    6fc0:	ccc70f13          	addi	t5,a4,-820 # cccccccc <__start_addr+0x4cccccbc>
    6fc4:	ccd70713          	addi	a4,a4,-819
    6fc8:	02ee38b3          	mulhu	a7,t3,a4
    6fcc:	03ee8833          	mul	a6,t4,t5
    6fd0:	02ee0333          	mul	t1,t3,a4
    6fd4:	02eeb733          	mulhu	a4,t4,a4
    6fd8:	03eeb7b3          	mulhu	a5,t4,t5
    6fdc:	983a                	c.add	a6,a4
    6fde:	9342                	c.add	t1,a6
    6fe0:	00e83733          	sltu	a4,a6,a4
    6fe4:	01033333          	sltu	t1,t1,a6
    6fe8:	03ee0833          	mul	a6,t3,t5
    6fec:	03ee3f33          	mulhu	t5,t3,t5
    6ff0:	933a                	c.add	t1,a4
    6ff2:	01178733          	add	a4,a5,a7
    6ff6:	00f737b3          	sltu	a5,a4,a5
    6ffa:	983a                	c.add	a6,a4
    6ffc:	00e83733          	sltu	a4,a6,a4
    7000:	97fa                	c.add	a5,t5
    7002:	981a                	c.add	a6,t1
    7004:	97ba                	c.add	a5,a4
    7006:	006838b3          	sltu	a7,a6,t1
    700a:	98be                	c.add	a7,a5
    700c:	01d89793          	slli	a5,a7,0x1d
    7010:	00385713          	srli	a4,a6,0x3
    7014:	8f5d                	c.or	a4,a5
    7016:	0038d793          	srli	a5,a7,0x3
    701a:	b7a1                	c.j	6f62 <__print_integral_lite+0x16>
    701c:	01c46e33          	or	t3,s0,t3
    7020:	000e0363          	beq	t3,zero,7026 <__print_integral_lite+0xda>
    7024:	16fd                	c.addi	a3,-1
    7026:	00d04763          	blt	zero,a3,7034 <__print_integral_lite+0xe8>
    702a:	0285e05b          	bnec	a1,8,704a <__print_integral_lite+0xfe>
    702e:	00467e5b          	bbc	a2,4,704a <__print_integral_lite+0xfe>
    7032:	4685                	c.li	a3,1
    7034:	4781                	c.li	a5,0
    7036:	03000613          	addi	a2,zero,48
    703a:	00f50733          	add	a4,a0,a5
    703e:	00c70023          	sb	a2,0(a4)
    7042:	0785                	c.addi	a5,1
    7044:	fed7cbe3          	blt	a5,a3,703a <__print_integral_lite+0xee>
    7048:	9536                	c.add	a0,a3
    704a:	f40e0fe3          	beq	t3,zero,6fa8 <__print_integral_lite+0x5c>
    704e:	f05b978b          	addigp	a5,-8444 # 2003dc <__digits>
    7052:	943e                	c.add	s0,a5
    7054:	00044783          	lbu	a5,0(s0)
    7058:	0505                	c.addi	a0,1
    705a:	fef50fa3          	sb	a5,-1(a0)
    705e:	b7a9                	c.j	6fa8 <__print_integral_lite+0x5c>
    7060:	522022ef          	jal	t0,9582 <__riscv_save_12>
    7064:	a7010113          	addi	sp,sp,-1424
    7068:	6b85                	c.lui	s7,0x1
    706a:	84ae                	c.mv	s1,a1
    706c:	89aa                	c.mv	s3,a0
    706e:	fa1b958b          	addigp	a1,-8288 # 200478 <__digits+0x9c>
    7072:	8a32                	c.mv	s4,a2
    7074:	01010a93          	addi	s5,sp,16
    7078:	800b8b93          	addi	s7,s7,-2048 # 800 <__sharedata_end_addr+0x490>
    707c:	860fc7ab          	swgp	zero,-1940 # 201d44 <__printf_count>
    7080:	c45a                	c.swsp	s6,8(sp)
    7082:	c62e                	c.swsp	a1,12(sp)
    7084:	0009c503          	lbu	a0,0(s3)
    7088:	e509                	c.bnez	a0,7092 <__print_integral_lite+0x146>
    708a:	59010113          	addi	sp,sp,1424
    708e:	5300206f          	jal	zero,95be <__riscv_restore_12>
    7092:	00198913          	addi	s2,s3,1
    7096:	005555db          	beqc	a0,37,70a0 <__print_integral_lite+0x154>
    709a:	9a02                	c.jalr	s4
    709c:	89ca                	c.mv	s3,s2
    709e:	b7dd                	c.j	7084 <__print_integral_lite+0x138>
    70a0:	0019c783          	lbu	a5,1(s3)
    70a4:	4401                	c.li	s0,0
    70a6:	0057e8db          	bnec	a5,37,70b6 <__print_integral_lite+0x16a>
    70aa:	02500513          	addi	a0,zero,37
    70ae:	00298913          	addi	s2,s3,2
    70b2:	9a02                	c.jalr	s4
    70b4:	b7e5                	c.j	709c <__print_integral_lite+0x150>
    70b6:	00094783          	lbu	a5,0(s2)
    70ba:	0007e6db          	bnec	a5,32,70c6 <__print_integral_lite+0x17a>
    70be:	00246413          	ori	s0,s0,2
    70c2:	0905                	c.addi	s2,1
    70c4:	bfcd                	c.j	70b6 <__print_integral_lite+0x16a>
    70c6:	00d7e5db          	bnec	a5,45,70d0 <__print_integral_lite+0x184>
    70ca:	00446413          	ori	s0,s0,4
    70ce:	bfd5                	c.j	70c2 <__print_integral_lite+0x176>
    70d0:	00b7e5db          	bnec	a5,43,70da <__print_integral_lite+0x18e>
    70d4:	00846413          	ori	s0,s0,8
    70d8:	b7ed                	c.j	70c2 <__print_integral_lite+0x176>
    70da:	0037e5db          	bnec	a5,35,70e4 <__print_integral_lite+0x198>
    70de:	01046413          	ori	s0,s0,16
    70e2:	b7c5                	c.j	70c2 <__print_integral_lite+0x176>
    70e4:	0107e5db          	bnec	a5,48,70ee <__print_integral_lite+0x1a2>
    70e8:	02046413          	ori	s0,s0,32
    70ec:	bfd9                	c.j	70c2 <__print_integral_lite+0x176>
    70ee:	04a7e8db          	bnec	a5,42,713e <__print_integral_lite+0x1f2>
    70f2:	0004ad83          	lw	s11,0(s1)
    70f6:	00448793          	addi	a5,s1,4
    70fa:	000dd663          	bge	s11,zero,7106 <__print_integral_lite+0x1ba>
    70fe:	00446413          	ori	s0,s0,4
    7102:	41b00db3          	sub	s11,zero,s11
    7106:	0905                	c.addi	s2,1
    7108:	84be                	c.mv	s1,a5
    710a:	00094783          	lbu	a5,0(s2)
    710e:	5d7d                	c.li	s10,-1
    7110:	06e7e9db          	bnec	a5,46,7182 <__print_integral_lite+0x236>
    7114:	00194783          	lbu	a5,1(s2)
    7118:	04a7dcdb          	beqc	a5,42,7170 <__print_integral_lite+0x224>
    711c:	0905                	c.addi	s2,1
    711e:	4d01                	c.li	s10,0
    7120:	4725                	c.li	a4,9
    7122:	4629                	c.li	a2,10
    7124:	00094783          	lbu	a5,0(s2)
    7128:	fd078793          	addi	a5,a5,-48
    712c:	0ff7f693          	andi	a3,a5,255
    7130:	04d76963          	bltu	a4,a3,7182 <__print_integral_lite+0x236>
    7134:	02cd0d33          	mul	s10,s10,a2
    7138:	0905                	c.addi	s2,1
    713a:	9d3e                	c.add	s10,a5
    713c:	b7e5                	c.j	7124 <__print_integral_lite+0x1d8>
    713e:	fd078793          	addi	a5,a5,-48
    7142:	0ff7f793          	andi	a5,a5,255
    7146:	4725                	c.li	a4,9
    7148:	4d81                	c.li	s11,0
    714a:	fcf760e3          	bltu	a4,a5,710a <__print_integral_lite+0x1be>
    714e:	4725                	c.li	a4,9
    7150:	4629                	c.li	a2,10
    7152:	a031                	c.j	715e <__print_integral_lite+0x212>
    7154:	02cd8833          	mul	a6,s11,a2
    7158:	0905                	c.addi	s2,1
    715a:	01078db3          	add	s11,a5,a6
    715e:	00094783          	lbu	a5,0(s2)
    7162:	fd078793          	addi	a5,a5,-48
    7166:	0ff7f693          	andi	a3,a5,255
    716a:	fed775e3          	bgeu	a4,a3,7154 <__print_integral_lite+0x208>
    716e:	bf71                	c.j	710a <__print_integral_lite+0x1be>
    7170:	0004ad03          	lw	s10,0(s1)
    7174:	00448793          	addi	a5,s1,4
    7178:	000d5363          	bge	s10,zero,717e <__print_integral_lite+0x232>
    717c:	5d7d                	c.li	s10,-1
    717e:	0909                	c.addi	s2,2
    7180:	84be                	c.mv	s1,a5
    7182:	43200793          	addi	a5,zero,1074
    7186:	86ea                	c.mv	a3,s10
    7188:	01a7d463          	bge	a5,s10,7190 <__print_integral_lite+0x244>
    718c:	43200693          	addi	a3,zero,1074
    7190:	00094783          	lbu	a5,0(s2)
    7194:	4287efdb          	bnec	a5,104,71d2 <__print_integral_lite+0x286>
    7198:	00194783          	lbu	a5,1(s2)
    719c:	4287e6db          	bnec	a5,104,71c8 <__print_integral_lite+0x27c>
    71a0:	04046413          	ori	s0,s0,64
    71a4:	00290993          	addi	s3,s2,2
    71a8:	0009cc83          	lbu	s9,0(s3)
    71ac:	578cdc5b          	beqc	s9,88,7324 <__print_integral_lite+0x3d8>
    71b0:	f9dc8793          	addi	a5,s9,-99
    71b4:	0ff7f793          	andi	a5,a5,255
    71b8:	4755                	c.li	a4,21
    71ba:	1ef76f63          	bltu	a4,a5,73b8 <__print_integral_lite+0x46c>
    71be:	45b2                	c.lwsp	a1,12(sp)
    71c0:	0cf587db          	lea.w	a5,a1,a5
    71c4:	439c                	c.lw	a5,0(a5)
    71c6:	8782                	c.jr	a5
    71c8:	08046413          	ori	s0,s0,128
    71cc:	00190993          	addi	s3,s2,1
    71d0:	bfe1                	c.j	71a8 <__print_integral_lite+0x25c>
    71d2:	40c7ecdb          	bnec	a5,108,71ea <__print_integral_lite+0x29e>
    71d6:	00194783          	lbu	a5,1(s2)
    71da:	40c7e5db          	bnec	a5,108,71e4 <__print_integral_lite+0x298>
    71de:	20046413          	ori	s0,s0,512
    71e2:	b7c9                	c.j	71a4 <__print_integral_lite+0x258>
    71e4:	10046413          	ori	s0,s0,256
    71e8:	b7d5                	c.j	71cc <__print_integral_lite+0x280>
    71ea:	00190993          	addi	s3,s2,1
    71ee:	41a7e5db          	bnec	a5,122,71f8 <__print_integral_lite+0x2ac>
    71f2:	10046413          	ori	s0,s0,256
    71f6:	bf4d                	c.j	71a8 <__print_integral_lite+0x25c>
    71f8:	ff47dddb          	beqc	a5,116,71f2 <__print_integral_lite+0x2a6>
    71fc:	89ca                	c.mv	s3,s2
    71fe:	b76d                	c.j	71a8 <__print_integral_lite+0x25c>
    7200:	45a9                	c.li	a1,10
    7202:	1264735b          	bbc	s0,6,7328 <__print_integral_lite+0x3dc>
    7206:	0004c703          	lbu	a4,0(s1)
    720a:	00448913          	addi	s2,s1,4
    720e:	4781                	c.li	a5,0
    7210:	a289                	c.j	7352 <__print_integral_lite+0x406>
    7212:	45a1                	c.li	a1,8
    7214:	b7fd                	c.j	7202 <__print_integral_lite+0x2b6>
    7216:	409c                	c.lw	a5,0(s1)
    7218:	00448913          	addi	s2,s1,4
    721c:	4c81                	c.li	s9,0
    721e:	01510493          	addi	s1,sp,21
    7222:	00f10a23          	sb	a5,20(sp)
    7226:	01410c13          	addi	s8,sp,20
    722a:	a01d                	c.j	7250 <__print_integral_lite+0x304>
    722c:	0004ac03          	lw	s8,0(s1)
    7230:	85b6                	c.mv	a1,a3
    7232:	8562                	c.mv	a0,s8
    7234:	c236                	c.swsp	a3,4(sp)
    7236:	2995                	c.jal	76aa <strnlen>
    7238:	57fd                	c.li	a5,-1
    723a:	00448913          	addi	s2,s1,4
    723e:	00fd0663          	beq	s10,a5,724a <__print_integral_lite+0x2fe>
    7242:	4692                	c.lwsp	a3,4(sp)
    7244:	00a6d363          	bge	a3,a0,724a <__print_integral_lite+0x2fe>
    7248:	8536                	c.mv	a0,a3
    724a:	00ac04b3          	add	s1,s8,a0
    724e:	4c81                	c.li	s9,0
    7250:	02d00793          	addi	a5,zero,45
    7254:	40a47b5b          	bbs	s0,10,726a <__print_integral_lite+0x31e>
    7258:	02b00793          	addi	a5,zero,43
    725c:	4034775b          	bbs	s0,3,726a <__print_integral_lite+0x31e>
    7260:	8b56                	c.mv	s6,s5
    7262:	0014785b          	bbc	s0,1,7272 <__print_integral_lite+0x326>
    7266:	02000793          	addi	a5,zero,32
    726a:	01110b13          	addi	s6,sp,17
    726e:	00f10823          	sb	a5,16(sp)
    7272:	01747733          	and	a4,s0,s7
    7276:	cb11                	c.beqz	a4,728a <__print_integral_lite+0x33e>
    7278:	03000713          	addi	a4,zero,48
    727c:	00eb0023          	sb	a4,0(s6)
    7280:	05800713          	addi	a4,zero,88
    7284:	00eb00a3          	sb	a4,1(s6)
    7288:	0b09                	c.addi	s6,2
    728a:	5624735b          	bbs	s0,2,73f0 <__print_integral_lite+0x4a4>
    728e:	02047693          	andi	a3,s0,32
    7292:	c236                	c.swsp	a3,4(sp)
    7294:	41848d33          	sub	s10,s1,s8
    7298:	4054795b          	bbs	s0,5,72aa <__print_integral_lite+0x35e>
    729c:	41ad8433          	sub	s0,s11,s10
    72a0:	415b0733          	sub	a4,s6,s5
    72a4:	8c19                	c.sub	s0,a4
    72a6:	16804363          	blt	zero,s0,740c <__print_integral_lite+0x4c0>
    72aa:	8456                	c.mv	s0,s5
    72ac:	aa9d                	c.j	7422 <__print_integral_lite+0x4d6>
    72ae:	0264745b          	bbc	s0,6,72d6 <__print_integral_lite+0x38a>
    72b2:	00048703          	lb	a4,0(s1)
    72b6:	00448913          	addi	s2,s1,4
    72ba:	41f75793          	srai	a5,a4,0x1f
    72be:	0407d363          	bge	a5,zero,7304 <__print_integral_lite+0x3b8>
    72c2:	00e03633          	sltu	a2,zero,a4
    72c6:	40f007b3          	sub	a5,zero,a5
    72ca:	40e00733          	sub	a4,zero,a4
    72ce:	8f91                	c.sub	a5,a2
    72d0:	40046413          	ori	s0,s0,1024
    72d4:	a805                	c.j	7304 <__print_integral_lite+0x3b8>
    72d6:	0074775b          	bbc	s0,7,72e4 <__print_integral_lite+0x398>
    72da:	00049703          	lh	a4,0(s1)
    72de:	00448913          	addi	s2,s1,4
    72e2:	bfe1                	c.j	72ba <__print_integral_lite+0x36e>
    72e4:	0084765b          	bbc	s0,8,72f0 <__print_integral_lite+0x3a4>
    72e8:	4098                	c.lw	a4,0(s1)
    72ea:	00448913          	addi	s2,s1,4
    72ee:	b7f1                	c.j	72ba <__print_integral_lite+0x36e>
    72f0:	be947c5b          	bbc	s0,9,72e8 <__print_integral_lite+0x39c>
    72f4:	049d                	c.addi	s1,7
    72f6:	98e1                	c.andi	s1,-8
    72f8:	40dc                	c.lw	a5,4(s1)
    72fa:	4098                	c.lw	a4,0(s1)
    72fc:	00848913          	addi	s2,s1,8
    7300:	0007c963          	blt	a5,zero,7312 <__print_integral_lite+0x3c6>
    7304:	567d                	c.li	a2,-1
    7306:	45a9                	c.li	a1,10
    7308:	4c81                	c.li	s9,0
    730a:	04cd1963          	bne	s10,a2,735c <__print_integral_lite+0x410>
    730e:	4685                	c.li	a3,1
    7310:	a08d                	c.j	7372 <__print_integral_lite+0x426>
    7312:	fb45                	c.bnez	a4,72c2 <__print_integral_lite+0x376>
    7314:	80000637          	lui	a2,0x80000
    7318:	fac795e3          	bne	a5,a2,72c2 <__print_integral_lite+0x376>
    731c:	4701                	c.li	a4,0
    731e:	800007b7          	lui	a5,0x80000
    7322:	b77d                	c.j	72d0 <__print_integral_lite+0x384>
    7324:	45c1                	c.li	a1,16
    7326:	bdf1                	c.j	7202 <__print_integral_lite+0x2b6>
    7328:	0074775b          	bbc	s0,7,7336 <__print_integral_lite+0x3ea>
    732c:	0004d703          	lhu	a4,0(s1)
    7330:	00448913          	addi	s2,s1,4
    7334:	bde9                	c.j	720e <__print_integral_lite+0x2c2>
    7336:	0084765b          	bbc	s0,8,7342 <__print_integral_lite+0x3f6>
    733a:	4098                	c.lw	a4,0(s1)
    733c:	00448913          	addi	s2,s1,4
    7340:	b5f9                	c.j	720e <__print_integral_lite+0x2c2>
    7342:	be947c5b          	bbc	s0,9,733a <__print_integral_lite+0x3ee>
    7346:	049d                	c.addi	s1,7
    7348:	98e1                	c.andi	s1,-8
    734a:	4098                	c.lw	a4,0(s1)
    734c:	40dc                	c.lw	a5,4(s1)
    734e:	00848913          	addi	s2,s1,8
    7352:	567d                	c.li	a2,-1
    7354:	020cfc93          	andi	s9,s9,32
    7358:	02cd0363          	beq	s10,a2,737e <__print_integral_lite+0x432>
    735c:	fdf47413          	andi	s0,s0,-33
    7360:	0105e95b          	bnec	a1,16,7372 <__print_integral_lite+0x426>
    7364:	0044775b          	bbc	s0,4,7372 <__print_integral_lite+0x426>
    7368:	00f76633          	or	a2,a4,a5
    736c:	c219                	c.beqz	a2,7372 <__print_integral_lite+0x426>
    736e:	01746433          	or	s0,s0,s7
    7372:	8622                	c.mv	a2,s0
    7374:	0848                	c.addi4spn	a0,sp,20
    7376:	bd7ff0ef          	jal	ra,6f4c <__print_integral_lite>
    737a:	84aa                	c.mv	s1,a0
    737c:	b56d                	c.j	7226 <__print_integral_lite+0x2da>
    737e:	4685                	c.li	a3,1
    7380:	b7c5                	c.j	7360 <__print_integral_lite+0x414>
    7382:	46a2                	c.lwsp	a3,8(sp)
    7384:	4098                	c.lw	a4,0(s1)
    7386:	86ffa7ab          	lwgp	a5,-1940 # 201d44 <__printf_count>
    738a:	00448913          	addi	s2,s1,4
    738e:	0064785b          	bbc	s0,6,739e <__print_integral_lite+0x452>
    7392:	00f70023          	sb	a5,0(a4)
    7396:	0844                	c.addi4spn	s1,sp,20
    7398:	4c81                	c.li	s9,0
    739a:	8c26                	c.mv	s8,s1
    739c:	bd55                	c.j	7250 <__print_integral_lite+0x304>
    739e:	0074755b          	bbc	s0,7,73a8 <__print_integral_lite+0x45c>
    73a2:	00f71023          	sh	a5,0(a4)
    73a6:	bfc5                	c.j	7396 <__print_integral_lite+0x44a>
    73a8:	c31c                	c.sw	a5,0(a4)
    73aa:	fe84765b          	bbs	s0,8,7396 <__print_integral_lite+0x44a>
    73ae:	be94745b          	bbc	s0,9,7396 <__print_integral_lite+0x44a>
    73b2:	87fd                	c.srai	a5,0x1f
    73b4:	c35c                	c.sw	a5,4(a4)
    73b6:	b7c5                	c.j	7396 <__print_integral_lite+0x44a>
    73b8:	8926                	c.mv	s2,s1
    73ba:	bff1                	c.j	7396 <__print_integral_lite+0x44a>
    73bc:	00044503          	lbu	a0,0(s0)
    73c0:	0405                	c.addi	s0,1
    73c2:	00ace533          	or	a0,s9,a0
    73c6:	9a02                	c.jalr	s4
    73c8:	ff646ae3          	bltu	s0,s6,73bc <__print_integral_lite+0x470>
    73cc:	4701                	c.li	a4,0
    73ce:	015b6463          	bltu	s6,s5,73d6 <__print_integral_lite+0x48a>
    73d2:	416a8733          	sub	a4,s5,s6
    73d6:	9dba                	c.add	s11,a4
    73d8:	8d62                	c.mv	s10,s8
    73da:	01a49d63          	bne	s1,s10,73f4 <__print_integral_lite+0x4a8>
    73de:	418484b3          	sub	s1,s1,s8
    73e2:	409d84b3          	sub	s1,s11,s1
    73e6:	00904e63          	blt	zero,s1,7402 <__print_integral_lite+0x4b6>
    73ea:	0985                	c.addi	s3,1
    73ec:	84ca                	c.mv	s1,s2
    73ee:	b959                	c.j	7084 <__print_integral_lite+0x138>
    73f0:	8456                	c.mv	s0,s5
    73f2:	bfd9                	c.j	73c8 <__print_integral_lite+0x47c>
    73f4:	000d4503          	lbu	a0,0(s10)
    73f8:	0d05                	c.addi	s10,1
    73fa:	00ace533          	or	a0,s9,a0
    73fe:	9a02                	c.jalr	s4
    7400:	bfe9                	c.j	73da <__print_integral_lite+0x48e>
    7402:	02000513          	addi	a0,zero,32
    7406:	14fd                	c.addi	s1,-1
    7408:	9a02                	c.jalr	s4
    740a:	bff1                	c.j	73e6 <__print_integral_lite+0x49a>
    740c:	02000513          	addi	a0,zero,32
    7410:	147d                	c.addi	s0,-1
    7412:	9a02                	c.jalr	s4
    7414:	bd49                	c.j	72a6 <__print_integral_lite+0x35a>
    7416:	00044503          	lbu	a0,0(s0)
    741a:	0405                	c.addi	s0,1
    741c:	00ace533          	or	a0,s9,a0
    7420:	9a02                	c.jalr	s4
    7422:	ff646ae3          	bltu	s0,s6,7416 <__print_integral_lite+0x4ca>
    7426:	4701                	c.li	a4,0
    7428:	015b6463          	bltu	s6,s5,7430 <__print_integral_lite+0x4e4>
    742c:	416a8733          	sub	a4,s5,s6
    7430:	4592                	c.lwsp	a1,4(sp)
    7432:	01b70833          	add	a6,a4,s11
    7436:	c589                	c.beqz	a1,7440 <__print_integral_lite+0x4f4>
    7438:	41a80d33          	sub	s10,a6,s10
    743c:	01a04b63          	blt	zero,s10,7452 <__print_integral_lite+0x506>
    7440:	fb8485e3          	beq	s1,s8,73ea <__print_integral_lite+0x49e>
    7444:	000c4503          	lbu	a0,0(s8)
    7448:	0c05                	c.addi	s8,1
    744a:	00ace533          	or	a0,s9,a0
    744e:	9a02                	c.jalr	s4
    7450:	bfc5                	c.j	7440 <__print_integral_lite+0x4f4>
    7452:	03000513          	addi	a0,zero,48
    7456:	1d7d                	c.addi	s10,-1
    7458:	9a02                	c.jalr	s4
    745a:	b7cd                	c.j	743c <__print_integral_lite+0x4f0>

0000745c <__printf_impl_lite_wrapped>:
    745c:	9dcff06f          	jal	zero,6638 <__printf_impl>

00007460 <siscanf>:
    7460:	7135                	c.addi16sp	sp,-160
    7462:	cb3e                	c.swsp	a5,148(sp)
    7464:	20400793          	addi	a5,zero,516
    7468:	de86                	c.swsp	ra,124(sp)
    746a:	dca2                	c.swsp	s0,120(sp)
    746c:	c532                	c.swsp	a2,136(sp)
    746e:	842e                	c.mv	s0,a1
    7470:	c736                	c.swsp	a3,140(sp)
    7472:	c93a                	c.swsp	a4,144(sp)
    7474:	cd42                	c.swsp	a6,152(sp)
    7476:	cf46                	c.swsp	a7,156(sp)
    7478:	00f11a23          	sh	a5,20(sp)
    747c:	c42a                	c.swsp	a0,8(sp)
    747e:	cc2a                	c.swsp	a0,24(sp)
    7480:	2245                	c.jal	7620 <strlen>
    7482:	000077b7          	lui	a5,0x7
    7486:	53078793          	addi	a5,a5,1328 # 7530 <__seofread>
    748a:	d43e                	c.swsp	a5,40(sp)
    748c:	57fd                	c.li	a5,-1
    748e:	00f11b23          	sh	a5,22(sp)
    7492:	c62a                	c.swsp	a0,12(sp)
    7494:	ce2a                	c.swsp	a0,28(sp)
    7496:	80ffa52b          	lwgp	a0,-2036 # 201ce4 <_impure_ptr>
    749a:	0134                	c.addi4spn	a3,sp,136
    749c:	8622                	c.mv	a2,s0
    749e:	002c                	c.addi4spn	a1,sp,8
    74a0:	dc02                	c.swsp	zero,56(sp)
    74a2:	c682                	c.swsp	zero,76(sp)
    74a4:	c236                	c.swsp	a3,4(sp)
    74a6:	2eb1                	c.jal	7802 <__ssvfiscanf_r>
    74a8:	50f6                	c.lwsp	ra,124(sp)
    74aa:	5466                	c.lwsp	s0,120(sp)
    74ac:	610d                	c.addi16sp	sp,160
    74ae:	8082                	c.jr	ra

000074b0 <_siscanf_r>:
    74b0:	7171                	c.addi16sp	sp,-176
    74b2:	c522                	c.swsp	s0,136(sp)
    74b4:	d33e                	c.swsp	a5,164(sp)
    74b6:	842a                	c.mv	s0,a0
    74b8:	20400793          	addi	a5,zero,516
    74bc:	852e                	c.mv	a0,a1
    74be:	c706                	c.swsp	ra,140(sp)
    74c0:	c632                	c.swsp	a2,12(sp)
    74c2:	cf36                	c.swsp	a3,156(sp)
    74c4:	d13a                	c.swsp	a4,160(sp)
    74c6:	d542                	c.swsp	a6,168(sp)
    74c8:	d746                	c.swsp	a7,172(sp)
    74ca:	02f11223          	sh	a5,36(sp)
    74ce:	cc2e                	c.swsp	a1,24(sp)
    74d0:	d42e                	c.swsp	a1,40(sp)
    74d2:	22b9                	c.jal	7620 <strlen>
    74d4:	000077b7          	lui	a5,0x7
    74d8:	4632                	c.lwsp	a2,12(sp)
    74da:	53078793          	addi	a5,a5,1328 # 7530 <__seofread>
    74de:	0974                	c.addi4spn	a3,sp,156
    74e0:	ce2a                	c.swsp	a0,28(sp)
    74e2:	d62a                	c.swsp	a0,44(sp)
    74e4:	dc3e                	c.swsp	a5,56(sp)
    74e6:	082c                	c.addi4spn	a1,sp,24
    74e8:	57fd                	c.li	a5,-1
    74ea:	8522                	c.mv	a0,s0
    74ec:	c482                	c.swsp	zero,72(sp)
    74ee:	ce82                	c.swsp	zero,92(sp)
    74f0:	02f11323          	sh	a5,38(sp)
    74f4:	ca36                	c.swsp	a3,20(sp)
    74f6:	2631                	c.jal	7802 <__ssvfiscanf_r>
    74f8:	40ba                	c.lwsp	ra,140(sp)
    74fa:	442a                	c.lwsp	s0,136(sp)
    74fc:	614d                	c.addi16sp	sp,176
    74fe:	8082                	c.jr	ra

00007500 <__sread>:
    7500:	0b2022ef          	jal	t0,95b2 <__riscv_save_0>
    7504:	842e                	c.mv	s0,a1
    7506:	00e41503          	lh	a0,14(s0)
    750a:	85b2                	c.mv	a1,a2
    750c:	8636                	c.mv	a2,a3
    750e:	08d010ef          	jal	ra,8d9a <_read>
    7512:	00054763          	blt	a0,zero,7520 <__sread+0x20>
    7516:	483c                	c.lw	a5,80(s0)
    7518:	97aa                	c.add	a5,a0
    751a:	c83c                	c.sw	a5,80(s0)
    751c:	0ba0206f          	jal	zero,95d6 <__riscv_restore_0>
    7520:	00c45783          	lhu	a5,12(s0)
    7524:	777d                	c.lui	a4,0xfffff
    7526:	177d                	c.addi	a4,-1
    7528:	8ff9                	c.and	a5,a4
    752a:	00f41623          	sh	a5,12(s0)
    752e:	b7fd                	c.j	751c <__sread+0x1c>

00007530 <__seofread>:
    7530:	4501                	c.li	a0,0
    7532:	8082                	c.jr	ra

00007534 <__swrite>:
    7534:	07e022ef          	jal	t0,95b2 <__riscv_save_0>
    7538:	00c5d783          	lhu	a5,12(a1)
    753c:	842e                	c.mv	s0,a1
    753e:	84b2                	c.mv	s1,a2
    7540:	8936                	c.mv	s2,a3
    7542:	0087f85b          	bbc	a5,8,7552 <__swrite+0x1e>
    7546:	00e41503          	lh	a0,14(s0)
    754a:	4609                	c.li	a2,2
    754c:	4581                	c.li	a1,0
    754e:	033010ef          	jal	ra,8d80 <_lseek>
    7552:	00c45783          	lhu	a5,12(s0)
    7556:	00e41503          	lh	a0,14(s0)
    755a:	777d                	c.lui	a4,0xfffff
    755c:	177d                	c.addi	a4,-1
    755e:	8ff9                	c.and	a5,a4
    7560:	864a                	c.mv	a2,s2
    7562:	85a6                	c.mv	a1,s1
    7564:	00f41623          	sh	a5,12(s0)
    7568:	e40fd0ef          	jal	ra,4ba8 <_write>
    756c:	06a0206f          	jal	zero,95d6 <__riscv_restore_0>

00007570 <__sseek>:
    7570:	042022ef          	jal	t0,95b2 <__riscv_save_0>
    7574:	842e                	c.mv	s0,a1
    7576:	00e41503          	lh	a0,14(s0)
    757a:	85b2                	c.mv	a1,a2
    757c:	8636                	c.mv	a2,a3
    757e:	003010ef          	jal	ra,8d80 <_lseek>
    7582:	57fd                	c.li	a5,-1
    7584:	00c45703          	lhu	a4,12(s0)
    7588:	00f51963          	bne	a0,a5,759a <__sseek+0x2a>
    758c:	77fd                	c.lui	a5,0xfffff
    758e:	17fd                	c.addi	a5,-1
    7590:	8ff9                	c.and	a5,a4
    7592:	00f41623          	sh	a5,12(s0)
    7596:	0400206f          	jal	zero,95d6 <__riscv_restore_0>
    759a:	6785                	c.lui	a5,0x1
    759c:	8fd9                	c.or	a5,a4
    759e:	00f41623          	sh	a5,12(s0)
    75a2:	c828                	c.sw	a0,80(s0)
    75a4:	bfcd                	c.j	7596 <__sseek+0x26>

000075a6 <__sclose>:
    75a6:	00e59503          	lh	a0,14(a1)
    75aa:	7bc0106f          	jal	zero,8d66 <_close>
	...

000075b0 <strcmp>:
    75b0:	00b56633          	or	a2,a0,a1
    75b4:	8a0d                	c.andi	a2,3
    75b6:	ee0d                	c.bnez	a2,75f0 <strcmp+0x40>
    75b8:	4110                	c.lw	a2,0(a0)
    75ba:	4194                	c.lw	a3,0(a1)
    75bc:	22d607db          	ffzmism	a5,a2,a3
    75c0:	e3b1                	c.bnez	a5,7604 <strcmp+0x54>
    75c2:	4150                	c.lw	a2,4(a0)
    75c4:	41d4                	c.lw	a3,4(a1)
    75c6:	22d607db          	ffzmism	a5,a2,a3
    75ca:	ef8d                	c.bnez	a5,7604 <strcmp+0x54>
    75cc:	4510                	c.lw	a2,8(a0)
    75ce:	4594                	c.lw	a3,8(a1)
    75d0:	22d607db          	ffzmism	a5,a2,a3
    75d4:	eb85                	c.bnez	a5,7604 <strcmp+0x54>
    75d6:	4550                	c.lw	a2,12(a0)
    75d8:	45d4                	c.lw	a3,12(a1)
    75da:	22d607db          	ffzmism	a5,a2,a3
    75de:	e39d                	c.bnez	a5,7604 <strcmp+0x54>
    75e0:	4910                	c.lw	a2,16(a0)
    75e2:	4994                	c.lw	a3,16(a1)
    75e4:	22d607db          	ffzmism	a5,a2,a3
    75e8:	ef91                	c.bnez	a5,7604 <strcmp+0x54>
    75ea:	0551                	c.addi	a0,20
    75ec:	05d1                	c.addi	a1,20
    75ee:	b7e9                	c.j	75b8 <strcmp+0x8>
    75f0:	00054603          	lbu	a2,0(a0)
    75f4:	0005c683          	lbu	a3,0(a1)
    75f8:	0505                	c.addi	a0,1
    75fa:	0585                	c.addi	a1,1
    75fc:	00d61d63          	bne	a2,a3,7616 <strcmp+0x66>
    7600:	fe0618e3          	bne	a2,zero,75f0 <strcmp+0x40>
    7604:	078e                	c.slli	a5,0x3
    7606:	00f65633          	srl	a2,a2,a5
    760a:	0ff67613          	andi	a2,a2,255
    760e:	00f6d6b3          	srl	a3,a3,a5
    7612:	0ff6f693          	andi	a3,a3,255
    7616:	40d60533          	sub	a0,a2,a3
    761a:	8082                	c.jr	ra
    761c:	0001                	c.addi	zero,0
	...

00007620 <strlen>:
    7620:	87aa                	c.mv	a5,a0
    7622:	00350693          	addi	a3,a0,3
    7626:	9af1                	c.andi	a3,-4
    7628:	00d50863          	beq	a0,a3,7638 <strlen+0x18>
    762c:	00054583          	lbu	a1,0(a0)
    7630:	c991                	c.beqz	a1,7644 <strlen+0x24>
    7632:	0505                	c.addi	a0,1
    7634:	fed51ce3          	bne	a0,a3,762c <strlen+0xc>
    7638:	410c                	c.lw	a1,0(a0)
    763a:	200585db          	ffb	a1,a1,zero
    763e:	0511                	c.addi	a0,4
    7640:	dde5                	c.beqz	a1,7638 <strlen+0x18>
    7642:	952e                	c.add	a0,a1
    7644:	8d1d                	c.sub	a0,a5
    7646:	8082                	c.jr	ra
    7648:	0001                	c.addi	zero,0
	...

0000764c <strncmp>:
    764c:	00c50333          	add	t1,a0,a2
    7650:	00357693          	andi	a3,a0,3
    7654:	00357713          	andi	a4,a0,3
    7658:	04e69363          	bne	a3,a4,769e <strncmp+0x52>
    765c:	02068463          	beq	a3,zero,7684 <strncmp+0x38>
    7660:	ffc68793          	addi	a5,a3,-4
    7664:	40f503b3          	sub	t2,a0,a5
    7668:	02734b63          	blt	t1,t2,769e <strncmp+0x52>
    766c:	00054683          	lbu	a3,0(a0)
    7670:	0505                	c.addi	a0,1
    7672:	0005c703          	lbu	a4,0(a1)
    7676:	0585                	c.addi	a1,1
    7678:	02e69663          	bne	a3,a4,76a4 <strncmp+0x58>
    767c:	02068463          	beq	a3,zero,76a4 <strncmp+0x58>
    7680:	fe7516e3          	bne	a0,t2,766c <strncmp+0x20>
    7684:	ffc37393          	andi	t2,t1,-4
    7688:	00755b63          	bge	a0,t2,769e <strncmp+0x52>
    768c:	4114                	c.lw	a3,0(a0)
    768e:	4198                	c.lw	a4,0(a1)
    7690:	22e687db          	ffzmism	a5,a3,a4
    7694:	e789                	c.bnez	a5,769e <strncmp+0x52>
    7696:	0511                	c.addi	a0,4
    7698:	0591                	c.addi	a1,4
    769a:	fe7519e3          	bne	a0,t2,768c <strncmp+0x40>
    769e:	839a                	c.mv	t2,t1
    76a0:	fca396e3          	bne	t2,a0,766c <strncmp+0x20>
    76a4:	40e68533          	sub	a0,a3,a4
    76a8:	8082                	c.jr	ra

000076aa <strnlen>:
    76aa:	95aa                	c.add	a1,a0
    76ac:	87aa                	c.mv	a5,a0
    76ae:	00b78563          	beq	a5,a1,76b8 <strnlen+0xe>
    76b2:	0007c703          	lbu	a4,0(a5) # 1000 <m_trap_entry>
    76b6:	e701                	c.bnez	a4,76be <strnlen+0x14>
    76b8:	40a78533          	sub	a0,a5,a0
    76bc:	8082                	c.jr	ra
    76be:	0785                	c.addi	a5,1
    76c0:	b7fd                	c.j	76ae <strnlen+0x4>

000076c2 <strtoul>:
    76c2:	4685                	c.li	a3,1
    76c4:	0960106f          	jal	zero,875a <strtol_common>

000076c8 <_sungetc_r>:
    76c8:	6eb012ef          	jal	t0,95b2 <__riscv_save_0>
    76cc:	57fd                	c.li	a5,-1
    76ce:	00f59663          	bne	a1,a5,76da <_sungetc_r+0x12>
    76d2:	54fd                	c.li	s1,-1
    76d4:	8526                	c.mv	a0,s1
    76d6:	7010106f          	jal	zero,95d6 <__riscv_restore_0>
    76da:	00c65783          	lhu	a5,12(a2) # 8000000c <__start_addr+0xfffffffc>
    76de:	4258                	c.lw	a4,4(a2)
    76e0:	fdf7f793          	andi	a5,a5,-33
    76e4:	00f61623          	sh	a5,12(a2)
    76e8:	5a1c                	c.lw	a5,48(a2)
    76ea:	8432                	c.mv	s0,a2
    76ec:	0ff5f913          	andi	s2,a1,255
    76f0:	0ff5f493          	andi	s1,a1,255
    76f4:	c39d                	c.beqz	a5,771a <_sungetc_r+0x52>
    76f6:	5a5c                	c.lw	a5,52(a2)
    76f8:	00f75c63          	bge	a4,a5,7710 <_sungetc_r+0x48>
    76fc:	401c                	c.lw	a5,0(s0)
    76fe:	fff78713          	addi	a4,a5,-1
    7702:	c018                	c.sw	a4,0(s0)
    7704:	ff278fa3          	sb	s2,-1(a5)
    7708:	405c                	c.lw	a5,4(s0)
    770a:	0785                	c.addi	a5,1
    770c:	c05c                	c.sw	a5,4(s0)
    770e:	b7d9                	c.j	76d4 <_sungetc_r+0xc>
    7710:	85b2                	c.mv	a1,a2
    7712:	08b000ef          	jal	ra,7f9c <__submore>
    7716:	d17d                	c.beqz	a0,76fc <_sungetc_r+0x34>
    7718:	bf6d                	c.j	76d2 <_sungetc_r+0xa>
    771a:	4a14                	c.lw	a3,16(a2)
    771c:	421c                	c.lw	a5,0(a2)
    771e:	ce81                	c.beqz	a3,7736 <_sungetc_r+0x6e>
    7720:	00f6fb63          	bgeu	a3,a5,7736 <_sungetc_r+0x6e>
    7724:	fff7c683          	lbu	a3,-1(a5)
    7728:	00969763          	bne	a3,s1,7736 <_sungetc_r+0x6e>
    772c:	17fd                	c.addi	a5,-1
    772e:	0705                	c.addi	a4,1
    7730:	c21c                	c.sw	a5,0(a2)
    7732:	c258                	c.sw	a4,4(a2)
    7734:	b745                	c.j	76d4 <_sungetc_r+0xc>
    7736:	dc1c                	c.sw	a5,56(s0)
    7738:	04040793          	addi	a5,s0,64
    773c:	d81c                	c.sw	a5,48(s0)
    773e:	478d                	c.li	a5,3
    7740:	d85c                	c.sw	a5,52(s0)
    7742:	04240793          	addi	a5,s0,66
    7746:	c01c                	c.sw	a5,0(s0)
    7748:	dc58                	c.sw	a4,60(s0)
    774a:	4785                	c.li	a5,1
    774c:	05240123          	sb	s2,66(s0)
    7750:	bf75                	c.j	770c <_sungetc_r+0x44>

00007752 <__ssrefill_r>:
    7752:	661012ef          	jal	t0,95b2 <__riscv_save_0>
    7756:	842e                	c.mv	s0,a1
    7758:	598c                	c.lw	a1,48(a1)
    775a:	c18d                	c.beqz	a1,777c <__ssrefill_r+0x2a>
    775c:	04040793          	addi	a5,s0,64
    7760:	00f58463          	beq	a1,a5,7768 <__ssrefill_r+0x16>
    7764:	d53fe0ef          	jal	ra,64b6 <_free_r>
    7768:	5c5c                	c.lw	a5,60(s0)
    776a:	02042823          	sw	zero,48(s0)
    776e:	c05c                	c.sw	a5,4(s0)
    7770:	c791                	c.beqz	a5,777c <__ssrefill_r+0x2a>
    7772:	5c1c                	c.lw	a5,56(s0)
    7774:	4501                	c.li	a0,0
    7776:	c01c                	c.sw	a5,0(s0)
    7778:	65f0106f          	jal	zero,95d6 <__riscv_restore_0>
    777c:	481c                	c.lw	a5,16(s0)
    777e:	557d                	c.li	a0,-1
    7780:	c01c                	c.sw	a5,0(s0)
    7782:	00c45783          	lhu	a5,12(s0)
    7786:	00042223          	sw	zero,4(s0)
    778a:	0207e793          	ori	a5,a5,32
    778e:	00f41623          	sh	a5,12(s0)
    7792:	b7dd                	c.j	7778 <__ssrefill_r+0x26>

00007794 <_sfread_r>:
    7794:	5f7012ef          	jal	t0,958a <__riscv_save_10>
    7798:	02c689b3          	mul	s3,a3,a2
    779c:	04098e63          	beq	s3,zero,77f8 <_sfread_r+0x64>
    77a0:	8baa                	c.mv	s7,a0
    77a2:	8a2e                	c.mv	s4,a1
    77a4:	8b32                	c.mv	s6,a2
    77a6:	8ab6                	c.mv	s5,a3
    77a8:	843a                	c.mv	s0,a4
    77aa:	894e                	c.mv	s2,s3
    77ac:	4044                	c.lw	s1,4(s0)
    77ae:	400c                	c.lw	a1,0(s0)
    77b0:	0124ef63          	bltu	s1,s2,77ce <_sfread_r+0x3a>
    77b4:	864a                	c.mv	a2,s2
    77b6:	8552                	c.mv	a0,s4
    77b8:	651000ef          	jal	ra,8608 <memcpy>
    77bc:	405c                	c.lw	a5,4(s0)
    77be:	4004                	c.lw	s1,0(s0)
    77c0:	412787b3          	sub	a5,a5,s2
    77c4:	94ca                	c.add	s1,s2
    77c6:	89d6                	c.mv	s3,s5
    77c8:	c05c                	c.sw	a5,4(s0)
    77ca:	c004                	c.sw	s1,0(s0)
    77cc:	a035                	c.j	77f8 <_sfread_r+0x64>
    77ce:	8552                	c.mv	a0,s4
    77d0:	8626                	c.mv	a2,s1
    77d2:	637000ef          	jal	ra,8608 <memcpy>
    77d6:	401c                	c.lw	a5,0(s0)
    77d8:	85a2                	c.mv	a1,s0
    77da:	97a6                	c.add	a5,s1
    77dc:	855e                	c.mv	a0,s7
    77de:	9a26                	c.add	s4,s1
    77e0:	40990c33          	sub	s8,s2,s1
    77e4:	c01c                	c.sw	a5,0(s0)
    77e6:	00042223          	sw	zero,4(s0)
    77ea:	37a5                	c.jal	7752 <__ssrefill_r>
    77ec:	c909                	c.beqz	a0,77fe <_sfread_r+0x6a>
    77ee:	94ce                	c.add	s1,s3
    77f0:	412484b3          	sub	s1,s1,s2
    77f4:	0364d9b3          	divu	s3,s1,s6
    77f8:	854e                	c.mv	a0,s3
    77fa:	5c90106f          	jal	zero,95c2 <__riscv_restore_10>
    77fe:	8962                	c.mv	s2,s8
    7800:	b775                	c.j	77ac <_sfread_r+0x18>

00007802 <__ssvfiscanf_r>:
    7802:	581012ef          	jal	t0,9582 <__riscv_save_12>
    7806:	710d                	c.addi16sp	sp,-352
    7808:	ff9b978b          	addigp	a5,-8200 # 2004d0 <__digits+0xf4>
    780c:	ca3e                	c.swsp	a5,20(sp)
    780e:	8acd978b          	addigp	a5,-8020 # 200584 <__digits+0x1a8>
    7812:	cc3e                	c.swsp	a5,24(sp)
    7814:	8e8d978b          	addigp	a5,-7960 # 2005c0 <basefix.0>
    7818:	8a2a                	c.mv	s4,a0
    781a:	8cae                	c.mv	s9,a1
    781c:	84b6                	c.mv	s1,a3
    781e:	4401                	c.li	s0,0
    7820:	4981                	c.li	s3,0
    7822:	4901                	c.li	s2,0
    7824:	4a81                	c.li	s5,0
    7826:	c432                	c.swsp	a2,8(sp)
    7828:	c83e                	c.swsp	a5,16(sp)
    782a:	47a2                	c.lwsp	a5,8(sp)
    782c:	0007c703          	lbu	a4,0(a5)
    7830:	0785                	c.addi	a5,1
    7832:	d63a                	c.swsp	a4,44(sp)
    7834:	c43e                	c.swsp	a5,8(sp)
    7836:	36070a63          	beq	a4,zero,7baa <__ssvfiscanf_r+0x3a8>
    783a:	813fa62b          	lwgp	a2,-2032 # 201ce8 <__ctype_ptr__>
    783e:	00e606b3          	add	a3,a2,a4
    7842:	0016c683          	lbu	a3,1(a3)
    7846:	0436f05b          	bbc	a3,3,7886 <__ssvfiscanf_r+0x84>
    784a:	004ca703          	lw	a4,4(s9)
    784e:	02e05763          	bge	zero,a4,787c <__ssvfiscanf_r+0x7a>
    7852:	000ca703          	lw	a4,0(s9)
    7856:	813fa6ab          	lwgp	a3,-2032 # 201ce8 <__ctype_ptr__>
    785a:	00074603          	lbu	a2,0(a4) # fffff000 <__start_addr+0x7fffeff0>
    785e:	96b2                	c.add	a3,a2
    7860:	0016c683          	lbu	a3,1(a3)
    7864:	bc36f35b          	bbc	a3,3,782a <__ssvfiscanf_r+0x28>
    7868:	004ca683          	lw	a3,4(s9)
    786c:	0705                	c.addi	a4,1
    786e:	16fd                	c.addi	a3,-1
    7870:	0905                	c.addi	s2,1
    7872:	00dca223          	sw	a3,4(s9)
    7876:	00eca023          	sw	a4,0(s9)
    787a:	bfc1                	c.j	784a <__ssvfiscanf_r+0x48>
    787c:	85e6                	c.mv	a1,s9
    787e:	8552                	c.mv	a0,s4
    7880:	3dc9                	c.jal	7752 <__ssrefill_r>
    7882:	d961                	c.beqz	a0,7852 <__ssvfiscanf_r+0x50>
    7884:	b75d                	c.j	782a <__ssvfiscanf_r+0x28>
    7886:	0a5763db          	bnec	a4,37,792c <__ssvfiscanf_r+0x12a>
    788a:	45a2                	c.lwsp	a1,8(sp)
    788c:	4c01                	c.li	s8,0
    788e:	4b01                	c.li	s6,0
    7890:	07800893          	addi	a7,zero,120
    7894:	04b00313          	addi	t1,zero,75
    7898:	02c00e13          	addi	t3,zero,44
    789c:	02a00e93          	addi	t4,zero,42
    78a0:	03900f13          	addi	t5,zero,57
    78a4:	02f00f93          	addi	t6,zero,47
    78a8:	4529                	c.li	a0,10
    78aa:	47a2                	c.lwsp	a5,8(sp)
    78ac:	0005c703          	lbu	a4,0(a1)
    78b0:	0785                	c.addi	a5,1
    78b2:	c43e                	c.swsp	a5,8(sp)
    78b4:	00e8eb63          	bltu	a7,a4,78ca <__ssvfiscanf_r+0xc8>
    78b8:	02e36663          	bltu	t1,a4,78e4 <__ssvfiscanf_r+0xe2>
    78bc:	0aa75bdb          	beqc	a4,42,7972 <__ssvfiscanf_r+0x170>
    78c0:	04eee463          	bltu	t4,a4,7908 <__ssvfiscanf_r+0x106>
    78c4:	c74d                	c.beqz	a4,796e <__ssvfiscanf_r+0x16c>
    78c6:	065753db          	beqc	a4,37,792c <__ssvfiscanf_r+0x12a>
    78ca:	9732                	c.add	a4,a2
    78cc:	00174703          	lbu	a4,1(a4)
    78d0:	00009437          	lui	s0,0x9
    78d4:	8b0d                	c.andi	a4,3
    78d6:	0017645b          	bnec	a4,1,78de <__ssvfiscanf_r+0xdc>
    78da:	001c6c13          	ori	s8,s8,1
    78de:	87a40413          	addi	s0,s0,-1926 # 887a <_strtol_r>
    78e2:	a8c1                	c.j	79b2 <__ssvfiscanf_r+0x1b0>
    78e4:	fb470693          	addi	a3,a4,-76
    78e8:	0ff6f693          	andi	a3,a3,255
    78ec:	fcde6fe3          	bltu	t3,a3,78ca <__ssvfiscanf_r+0xc8>
    78f0:	47d2                	c.lwsp	a5,20(sp)
    78f2:	0cd786db          	lea.w	a3,a5,a3
    78f6:	4294                	c.lw	a3,0(a3)
    78f8:	8682                	c.jr	a3
    78fa:	00009437          	lui	s0,0x9
    78fe:	87a40413          	addi	s0,s0,-1926 # 887a <_strtol_r>
    7902:	4981                	c.li	s3,0
    7904:	4d0d                	c.li	s10,3
    7906:	a0c9                	c.j	79c8 <__ssvfiscanf_r+0x1c6>
    7908:	00ef6b63          	bltu	t5,a4,791e <__ssvfiscanf_r+0x11c>
    790c:	faefffe3          	bgeu	t6,a4,78ca <__ssvfiscanf_r+0xc8>
    7910:	02ab0833          	mul	a6,s6,a0
    7914:	fd080813          	addi	a6,a6,-48
    7918:	01070b33          	add	s6,a4,a6
    791c:	a8a9                	c.j	7976 <__ssvfiscanf_r+0x174>
    791e:	fa47665b          	bnec	a4,68,78ca <__ssvfiscanf_r+0xc8>
    7922:	001c6c13          	ori	s8,s8,1
    7926:	00009437          	lui	s0,0x9
    792a:	bf55                	c.j	78de <__ssvfiscanf_r+0xdc>
    792c:	004ca703          	lw	a4,4(s9)
    7930:	02e05563          	bge	zero,a4,795a <__ssvfiscanf_r+0x158>
    7934:	000ca703          	lw	a4,0(s9)
    7938:	47a2                	c.lwsp	a5,8(sp)
    793a:	00074603          	lbu	a2,0(a4)
    793e:	fff7c683          	lbu	a3,-1(a5)
    7942:	26d61463          	bne	a2,a3,7baa <__ssvfiscanf_r+0x3a8>
    7946:	004ca683          	lw	a3,4(s9)
    794a:	0705                	c.addi	a4,1
    794c:	16fd                	c.addi	a3,-1
    794e:	0905                	c.addi	s2,1
    7950:	00dca223          	sw	a3,4(s9)
    7954:	00eca023          	sw	a4,0(s9)
    7958:	bdc9                	c.j	782a <__ssvfiscanf_r+0x28>
    795a:	85e6                	c.mv	a1,s9
    795c:	8552                	c.mv	a0,s4
    795e:	3bd5                	c.jal	7752 <__ssrefill_r>
    7960:	d971                	c.beqz	a0,7934 <__ssvfiscanf_r+0x132>
    7962:	000a8663          	beq	s5,zero,796e <__ssvfiscanf_r+0x16c>
    7966:	00ccd783          	lhu	a5,12(s9)
    796a:	2467f05b          	bbc	a5,6,7baa <__ssvfiscanf_r+0x3a8>
    796e:	5afd                	c.li	s5,-1
    7970:	ac2d                	c.j	7baa <__ssvfiscanf_r+0x3a8>
    7972:	010c6c13          	ori	s8,s8,16
    7976:	45a2                	c.lwsp	a1,8(sp)
    7978:	bf0d                	c.j	78aa <__ssvfiscanf_r+0xa8>
    797a:	0015c703          	lbu	a4,1(a1)
    797e:	40c768db          	bnec	a4,108,798e <__ssvfiscanf_r+0x18c>
    7982:	00258793          	addi	a5,a1,2
    7986:	c43e                	c.swsp	a5,8(sp)
    7988:	002c6c13          	ori	s8,s8,2
    798c:	b7ed                	c.j	7976 <__ssvfiscanf_r+0x174>
    798e:	001c6c13          	ori	s8,s8,1
    7992:	b7d5                	c.j	7976 <__ssvfiscanf_r+0x174>
    7994:	004c6c13          	ori	s8,s8,4
    7998:	bff9                	c.j	7976 <__ssvfiscanf_r+0x174>
    799a:	001c6c13          	ori	s8,s8,1
    799e:	00009437          	lui	s0,0x9
    79a2:	adc40413          	addi	s0,s0,-1316 # 8adc <_strtoul_r>
    79a6:	49a1                	c.li	s3,8
    79a8:	bfb1                	c.j	7904 <__ssvfiscanf_r+0x102>
    79aa:	00009437          	lui	s0,0x9
    79ae:	adc40413          	addi	s0,s0,-1316 # 8adc <_strtoul_r>
    79b2:	49a9                	c.li	s3,10
    79b4:	bf81                	c.j	7904 <__ssvfiscanf_r+0x102>
    79b6:	200c6c13          	ori	s8,s8,512
    79ba:	00009437          	lui	s0,0x9
    79be:	adc40413          	addi	s0,s0,-1316 # 8adc <_strtoul_r>
    79c2:	49c1                	c.li	s3,16
    79c4:	b781                	c.j	7904 <__ssvfiscanf_r+0x102>
    79c6:	4d09                	c.li	s10,2
    79c8:	004ca703          	lw	a4,4(s9)
    79cc:	0ee05e63          	bge	zero,a4,7ac8 <__ssvfiscanf_r+0x2c6>
    79d0:	406c7d5b          	bbs	s8,6,79ea <__ssvfiscanf_r+0x1e8>
    79d4:	000ca703          	lw	a4,0(s9)
    79d8:	813fa6ab          	lwgp	a3,-2032 # 201ce8 <__ctype_ptr__>
    79dc:	00074603          	lbu	a2,0(a4)
    79e0:	96b2                	c.add	a3,a2
    79e2:	0016c683          	lbu	a3,1(a3)
    79e6:	4e36f85b          	bbs	a3,3,7ad6 <__ssvfiscanf_r+0x2d4>
    79ea:	242d5a5b          	beqc	s10,2,7c3e <__ssvfiscanf_r+0x43c>
    79ee:	003d645b          	bnec	s10,3,79f6 <__ssvfiscanf_r+0x1f4>
    79f2:	3e40006f          	jal	zero,7dd6 <__ssvfiscanf_r+0x5d4>
    79f6:	010c7b93          	andi	s7,s8,16
    79fa:	181d575b          	beqc	s10,1,7b88 <__ssvfiscanf_r+0x386>
    79fe:	8dda                	c.mv	s11,s6
    7a00:	000b1363          	bne	s6,zero,7a06 <__ssvfiscanf_r+0x204>
    7a04:	4d85                	c.li	s11,1
    7a06:	120c715b          	bbc	s8,0,7b28 <__ssvfiscanf_r+0x326>
    7a0a:	4621                	c.li	a2,8
    7a0c:	4581                	c.li	a1,0
    7a0e:	1808                	c.addi4spn	a0,sp,48
    7a10:	4d01                	c.li	s10,0
    7a12:	adefe0ef          	jal	ra,5cf0 <memset>
    7a16:	000b9563          	bne	s7,zero,7a20 <__ssvfiscanf_r+0x21e>
    7a1a:	0004ad03          	lw	s10,0(s1)
    7a1e:	0491                	c.addi	s1,4
    7a20:	4c01                	c.li	s8,0
    7a22:	5b7d                	c.li	s6,-1
    7a24:	2ff000ef          	jal	ra,8522 <__locale_mb_cur_max>
    7a28:	f3850de3          	beq	a0,s8,7962 <__ssvfiscanf_r+0x160>
    7a2c:	000ca603          	lw	a2,0(s9)
    7a30:	129c                	c.addi4spn	a5,sp,352
    7a32:	00064583          	lbu	a1,0(a2)
    7a36:	01878733          	add	a4,a5,s8
    7a3a:	ecb70c23          	sb	a1,-296(a4)
    7a3e:	004ca703          	lw	a4,4(s9)
    7a42:	0605                	c.addi	a2,1
    7a44:	177d                	c.addi	a4,-1
    7a46:	001c0693          	addi	a3,s8,1
    7a4a:	00eca223          	sw	a4,4(s9)
    7a4e:	00cca023          	sw	a2,0(s9)
    7a52:	1818                	c.addi4spn	a4,sp,48
    7a54:	1830                	c.addi4spn	a2,sp,56
    7a56:	85ea                	c.mv	a1,s10
    7a58:	8552                	c.mv	a0,s4
    7a5a:	c636                	c.swsp	a3,12(sp)
    7a5c:	2ed000ef          	jal	ra,8548 <_mbrtowc_r>
    7a60:	f16501e3          	beq	a0,s6,7962 <__ssvfiscanf_r+0x160>
    7a64:	46b2                	c.lwsp	a3,12(sp)
    7a66:	e959                	c.bnez	a0,7afc <__ssvfiscanf_r+0x2fa>
    7a68:	000b9463          	bne	s7,zero,7a70 <__ssvfiscanf_r+0x26e>
    7a6c:	000d2023          	sw	zero,0(s10)
    7a70:	9936                	c.add	s2,a3
    7a72:	1dfd                	c.addi	s11,-1
    7a74:	000b9363          	bne	s7,zero,7a7a <__ssvfiscanf_r+0x278>
    7a78:	0d11                	c.addi	s10,4
    7a7a:	4c01                	c.li	s8,0
    7a7c:	a061                	c.j	7b04 <__ssvfiscanf_r+0x302>
    7a7e:	45a2                	c.lwsp	a1,8(sp)
    7a80:	1088                	c.addi4spn	a0,sp,96
    7a82:	441000ef          	jal	ra,86c2 <__sccl>
    7a86:	040c6c13          	ori	s8,s8,64
    7a8a:	4d05                	c.li	s10,1
    7a8c:	c42a                	c.swsp	a0,8(sp)
    7a8e:	bf2d                	c.j	79c8 <__ssvfiscanf_r+0x1c6>
    7a90:	040c6c13          	ori	s8,s8,64
    7a94:	4d01                	c.li	s10,0
    7a96:	bf0d                	c.j	79c8 <__ssvfiscanf_r+0x1c6>
    7a98:	220c6c13          	ori	s8,s8,544
    7a9c:	bf39                	c.j	79ba <__ssvfiscanf_r+0x1b8>
    7a9e:	d84c765b          	bbs	s8,4,782a <__ssvfiscanf_r+0x28>
    7aa2:	4098                	c.lw	a4,0(s1)
    7aa4:	00448693          	addi	a3,s1,4
    7aa8:	002c765b          	bbc	s8,2,7ab4 <__ssvfiscanf_r+0x2b2>
    7aac:	01271023          	sh	s2,0(a4)
    7ab0:	84b6                	c.mv	s1,a3
    7ab2:	bba5                	c.j	782a <__ssvfiscanf_r+0x28>
    7ab4:	01272023          	sw	s2,0(a4)
    7ab8:	fe0c7c5b          	bbs	s8,0,7ab0 <__ssvfiscanf_r+0x2ae>
    7abc:	be1c7a5b          	bbc	s8,1,7ab0 <__ssvfiscanf_r+0x2ae>
    7ac0:	41f95613          	srai	a2,s2,0x1f
    7ac4:	c350                	c.sw	a2,4(a4)
    7ac6:	b7ed                	c.j	7ab0 <__ssvfiscanf_r+0x2ae>
    7ac8:	85e6                	c.mv	a1,s9
    7aca:	8552                	c.mv	a0,s4
    7acc:	c87ff0ef          	jal	ra,7752 <__ssrefill_r>
    7ad0:	f00500e3          	beq	a0,zero,79d0 <__ssvfiscanf_r+0x1ce>
    7ad4:	b579                	c.j	7962 <__ssvfiscanf_r+0x160>
    7ad6:	004ca683          	lw	a3,4(s9)
    7ada:	0905                	c.addi	s2,1
    7adc:	16fd                	c.addi	a3,-1
    7ade:	00dca223          	sw	a3,4(s9)
    7ae2:	00d05663          	bge	zero,a3,7aee <__ssvfiscanf_r+0x2ec>
    7ae6:	0705                	c.addi	a4,1
    7ae8:	00eca023          	sw	a4,0(s9)
    7aec:	b5e5                	c.j	79d4 <__ssvfiscanf_r+0x1d2>
    7aee:	85e6                	c.mv	a1,s9
    7af0:	8552                	c.mv	a0,s4
    7af2:	c61ff0ef          	jal	ra,7752 <__ssrefill_r>
    7af6:	ec050fe3          	beq	a0,zero,79d4 <__ssvfiscanf_r+0x1d2>
    7afa:	b5a5                	c.j	7962 <__ssvfiscanf_r+0x160>
    7afc:	57f9                	c.li	a5,-2
    7afe:	8c36                	c.mv	s8,a3
    7b00:	f6f518e3          	bne	a0,a5,7a70 <__ssvfiscanf_r+0x26e>
    7b04:	004ca683          	lw	a3,4(s9)
    7b08:	00d04d63          	blt	zero,a3,7b22 <__ssvfiscanf_r+0x320>
    7b0c:	85e6                	c.mv	a1,s9
    7b0e:	8552                	c.mv	a0,s4
    7b10:	c43ff0ef          	jal	ra,7752 <__ssrefill_r>
    7b14:	c519                	c.beqz	a0,7b22 <__ssvfiscanf_r+0x320>
    7b16:	e40c16e3          	bne	s8,zero,7962 <__ssvfiscanf_r+0x160>
    7b1a:	d00b98e3          	bne	s7,zero,782a <__ssvfiscanf_r+0x28>
    7b1e:	0a85                	c.addi	s5,1
    7b20:	b329                	c.j	782a <__ssvfiscanf_r+0x28>
    7b22:	f00d91e3          	bne	s11,zero,7a24 <__ssvfiscanf_r+0x222>
    7b26:	bfd5                	c.j	7b1a <__ssvfiscanf_r+0x318>
    7b28:	040b8163          	beq	s7,zero,7b6a <__ssvfiscanf_r+0x368>
    7b2c:	4b81                	c.li	s7,0
    7b2e:	004ca703          	lw	a4,4(s9)
    7b32:	000ca803          	lw	a6,0(s9)
    7b36:	03b75163          	bge	a4,s11,7b58 <__ssvfiscanf_r+0x356>
    7b3a:	983a                	c.add	a6,a4
    7b3c:	85e6                	c.mv	a1,s9
    7b3e:	8552                	c.mv	a0,s4
    7b40:	9bba                	c.add	s7,a4
    7b42:	40ed8db3          	sub	s11,s11,a4
    7b46:	010ca023          	sw	a6,0(s9)
    7b4a:	c09ff0ef          	jal	ra,7752 <__ssrefill_r>
    7b4e:	d165                	c.beqz	a0,7b2e <__ssvfiscanf_r+0x32c>
    7b50:	e00b89e3          	beq	s7,zero,7962 <__ssvfiscanf_r+0x160>
    7b54:	995e                	c.add	s2,s7
    7b56:	b9d1                	c.j	782a <__ssvfiscanf_r+0x28>
    7b58:	41b70733          	sub	a4,a4,s11
    7b5c:	986e                	c.add	a6,s11
    7b5e:	9bee                	c.add	s7,s11
    7b60:	00eca223          	sw	a4,4(s9)
    7b64:	010ca023          	sw	a6,0(s9)
    7b68:	b7f5                	c.j	7b54 <__ssvfiscanf_r+0x352>
    7b6a:	408c                	c.lw	a1,0(s1)
    7b6c:	8766                	c.mv	a4,s9
    7b6e:	86ee                	c.mv	a3,s11
    7b70:	4605                	c.li	a2,1
    7b72:	8552                	c.mv	a0,s4
    7b74:	00448b93          	addi	s7,s1,4
    7b78:	c1dff0ef          	jal	ra,7794 <_sfread_r>
    7b7c:	de0503e3          	beq	a0,zero,7962 <__ssvfiscanf_r+0x160>
    7b80:	992a                	c.add	s2,a0
    7b82:	0a85                	c.addi	s5,1
    7b84:	84de                	c.mv	s1,s7
    7b86:	b155                	c.j	782a <__ssvfiscanf_r+0x28>
    7b88:	000b1363          	bne	s6,zero,7b8e <__ssvfiscanf_r+0x38c>
    7b8c:	5b7d                	c.li	s6,-1
    7b8e:	040b8563          	beq	s7,zero,7bd8 <__ssvfiscanf_r+0x3d6>
    7b92:	4b81                	c.li	s7,0
    7b94:	000ca703          	lw	a4,0(s9)
    7b98:	129c                	c.addi4spn	a5,sp,352
    7b9a:	00074683          	lbu	a3,0(a4)
    7b9e:	96be                	c.add	a3,a5
    7ba0:	f006c683          	lbu	a3,-256(a3)
    7ba4:	e699                	c.bnez	a3,7bb2 <__ssvfiscanf_r+0x3b0>
    7ba6:	fa0b97e3          	bne	s7,zero,7b54 <__ssvfiscanf_r+0x352>
    7baa:	8556                	c.mv	a0,s5
    7bac:	6135                	c.addi16sp	sp,352
    7bae:	2110106f          	jal	zero,95be <__riscv_restore_12>
    7bb2:	004ca683          	lw	a3,4(s9)
    7bb6:	0705                	c.addi	a4,1
    7bb8:	16fd                	c.addi	a3,-1
    7bba:	0b85                	c.addi	s7,1
    7bbc:	00dca223          	sw	a3,4(s9)
    7bc0:	00eca023          	sw	a4,0(s9)
    7bc4:	f97b08e3          	beq	s6,s7,7b54 <__ssvfiscanf_r+0x352>
    7bc8:	fcd046e3          	blt	zero,a3,7b94 <__ssvfiscanf_r+0x392>
    7bcc:	85e6                	c.mv	a1,s9
    7bce:	8552                	c.mv	a0,s4
    7bd0:	b83ff0ef          	jal	ra,7752 <__ssrefill_r>
    7bd4:	d161                	c.beqz	a0,7b94 <__ssvfiscanf_r+0x392>
    7bd6:	bfbd                	c.j	7b54 <__ssvfiscanf_r+0x352>
    7bd8:	0004ac03          	lw	s8,0(s1)
    7bdc:	00448d13          	addi	s10,s1,4
    7be0:	9b62                	c.add	s6,s8
    7be2:	84e2                	c.mv	s1,s8
    7be4:	000ca683          	lw	a3,0(s9)
    7be8:	129c                	c.addi4spn	a5,sp,352
    7bea:	0006c703          	lbu	a4,0(a3)
    7bee:	973e                	c.add	a4,a5
    7bf0:	f0074703          	lbu	a4,-256(a4)
    7bf4:	cf05                	c.beqz	a4,7c2c <__ssvfiscanf_r+0x42a>
    7bf6:	004ca703          	lw	a4,4(s9)
    7bfa:	0485                	c.addi	s1,1
    7bfc:	177d                	c.addi	a4,-1
    7bfe:	00eca223          	sw	a4,4(s9)
    7c02:	00168713          	addi	a4,a3,1
    7c06:	00eca023          	sw	a4,0(s9)
    7c0a:	0006c703          	lbu	a4,0(a3)
    7c0e:	fee48fa3          	sb	a4,-1(s1)
    7c12:	009b0d63          	beq	s6,s1,7c2c <__ssvfiscanf_r+0x42a>
    7c16:	004ca703          	lw	a4,4(s9)
    7c1a:	fce045e3          	blt	zero,a4,7be4 <__ssvfiscanf_r+0x3e2>
    7c1e:	85e6                	c.mv	a1,s9
    7c20:	8552                	c.mv	a0,s4
    7c22:	b31ff0ef          	jal	ra,7752 <__ssrefill_r>
    7c26:	dd5d                	c.beqz	a0,7be4 <__ssvfiscanf_r+0x3e2>
    7c28:	d29c0de3          	beq	s8,s1,7962 <__ssvfiscanf_r+0x160>
    7c2c:	41848bb3          	sub	s7,s1,s8
    7c30:	f7848de3          	beq	s1,s8,7baa <__ssvfiscanf_r+0x3a8>
    7c34:	00048023          	sb	zero,0(s1)
    7c38:	0a85                	c.addi	s5,1
    7c3a:	84ea                	c.mv	s1,s10
    7c3c:	bf21                	c.j	7b54 <__ssvfiscanf_r+0x352>
    7c3e:	000b1363          	bne	s6,zero,7c44 <__ssvfiscanf_r+0x442>
    7c42:	5b7d                	c.li	s6,-1
    7c44:	001c7d93          	andi	s11,s8,1
    7c48:	010c7d13          	andi	s10,s8,16
    7c4c:	0e0c725b          	bbc	s8,0,7d30 <__ssvfiscanf_r+0x52e>
    7c50:	4621                	c.li	a2,8
    7c52:	4581                	c.li	a1,0
    7c54:	1808                	c.addi4spn	a0,sp,48
    7c56:	02c10c13          	addi	s8,sp,44
    7c5a:	896fe0ef          	jal	ra,5cf0 <memset>
    7c5e:	000d1563          	bne	s10,zero,7c68 <__ssvfiscanf_r+0x466>
    7c62:	0004ac03          	lw	s8,0(s1)
    7c66:	0491                	c.addi	s1,4
    7c68:	4d81                	c.li	s11,0
    7c6a:	000ca683          	lw	a3,0(s9)
    7c6e:	0006c603          	lbu	a2,0(a3)
    7c72:	813fa6ab          	lwgp	a3,-2032 # 201ce8 <__ctype_ptr__>
    7c76:	96b2                	c.add	a3,a2
    7c78:	0016c683          	lbu	a3,1(a3)
    7c7c:	4636f25b          	bbs	a3,3,7ce0 <__ssvfiscanf_r+0x4de>
    7c80:	060b0063          	beq	s6,zero,7ce0 <__ssvfiscanf_r+0x4de>
    7c84:	09f000ef          	jal	ra,8522 <__locale_mb_cur_max>
    7c88:	cdb50de3          	beq	a0,s11,7962 <__ssvfiscanf_r+0x160>
    7c8c:	000ca603          	lw	a2,0(s9)
    7c90:	129c                	c.addi4spn	a5,sp,352
    7c92:	00064583          	lbu	a1,0(a2)
    7c96:	01b78733          	add	a4,a5,s11
    7c9a:	ecb70c23          	sb	a1,-296(a4)
    7c9e:	004ca703          	lw	a4,4(s9)
    7ca2:	0605                	c.addi	a2,1
    7ca4:	177d                	c.addi	a4,-1
    7ca6:	001d8693          	addi	a3,s11,1
    7caa:	00eca223          	sw	a4,4(s9)
    7cae:	00cca023          	sw	a2,0(s9)
    7cb2:	1818                	c.addi4spn	a4,sp,48
    7cb4:	1830                	c.addi4spn	a2,sp,56
    7cb6:	85e2                	c.mv	a1,s8
    7cb8:	8552                	c.mv	a0,s4
    7cba:	c636                	c.swsp	a3,12(sp)
    7cbc:	08d000ef          	jal	ra,8548 <_mbrtowc_r>
    7cc0:	57fd                	c.li	a5,-1
    7cc2:	caf500e3          	beq	a0,a5,7962 <__ssvfiscanf_r+0x160>
    7cc6:	46b2                	c.lwsp	a3,12(sp)
    7cc8:	e10d                	c.bnez	a0,7cea <__ssvfiscanf_r+0x4e8>
    7cca:	000c2023          	sw	zero,0(s8)
    7cce:	000c2503          	lw	a0,0(s8)
    7cd2:	c636                	c.swsp	a3,12(sp)
    7cd4:	7f6000ef          	jal	ra,84ca <iswspace>
    7cd8:	46b2                	c.lwsp	a3,12(sp)
    7cda:	8daa                	c.mv	s11,a0
    7cdc:	c521                	c.beqz	a0,7d24 <__ssvfiscanf_r+0x522>
    7cde:	e695                	c.bnez	a3,7d0a <__ssvfiscanf_r+0x508>
    7ce0:	b40d15e3          	bne	s10,zero,782a <__ssvfiscanf_r+0x28>
    7ce4:	000c2023          	sw	zero,0(s8)
    7ce8:	bd1d                	c.j	7b1e <__ssvfiscanf_r+0x31c>
    7cea:	57f9                	c.li	a5,-2
    7cec:	8db6                	c.mv	s11,a3
    7cee:	fef510e3          	bne	a0,a5,7cce <__ssvfiscanf_r+0x4cc>
    7cf2:	004ca683          	lw	a3,4(s9)
    7cf6:	f6d04ae3          	blt	zero,a3,7c6a <__ssvfiscanf_r+0x468>
    7cfa:	85e6                	c.mv	a1,s9
    7cfc:	8552                	c.mv	a0,s4
    7cfe:	a55ff0ef          	jal	ra,7752 <__ssrefill_r>
    7d02:	d525                	c.beqz	a0,7c6a <__ssvfiscanf_r+0x468>
    7d04:	c40d9fe3          	bne	s11,zero,7962 <__ssvfiscanf_r+0x160>
    7d08:	bfe1                	c.j	7ce0 <__ssvfiscanf_r+0x4de>
    7d0a:	16fd                	c.addi	a3,-1
    7d0c:	183c                	c.addi4spn	a5,sp,56
    7d0e:	00d78733          	add	a4,a5,a3
    7d12:	00074583          	lbu	a1,0(a4)
    7d16:	8666                	c.mv	a2,s9
    7d18:	8552                	c.mv	a0,s4
    7d1a:	c636                	c.swsp	a3,12(sp)
    7d1c:	9adff0ef          	jal	ra,76c8 <_sungetc_r>
    7d20:	46b2                	c.lwsp	a3,12(sp)
    7d22:	bf75                	c.j	7cde <__ssvfiscanf_r+0x4dc>
    7d24:	9936                	c.add	s2,a3
    7d26:	1b7d                	c.addi	s6,-1
    7d28:	fc0d15e3          	bne	s10,zero,7cf2 <__ssvfiscanf_r+0x4f0>
    7d2c:	0c11                	c.addi	s8,4
    7d2e:	b7d1                	c.j	7cf2 <__ssvfiscanf_r+0x4f0>
    7d30:	040d0163          	beq	s10,zero,7d72 <__ssvfiscanf_r+0x570>
    7d34:	000ca703          	lw	a4,0(s9)
    7d38:	813fa6ab          	lwgp	a3,-2032 # 201ce8 <__ctype_ptr__>
    7d3c:	00074603          	lbu	a2,0(a4)
    7d40:	96b2                	c.add	a3,a2
    7d42:	0016c683          	lbu	a3,1(a3)
    7d46:	4236f45b          	bbs	a3,3,7d6e <__ssvfiscanf_r+0x56c>
    7d4a:	004ca683          	lw	a3,4(s9)
    7d4e:	0705                	c.addi	a4,1
    7d50:	16fd                	c.addi	a3,-1
    7d52:	0d85                	c.addi	s11,1
    7d54:	00dca223          	sw	a3,4(s9)
    7d58:	00eca023          	sw	a4,0(s9)
    7d5c:	01bb0963          	beq	s6,s11,7d6e <__ssvfiscanf_r+0x56c>
    7d60:	fcd04ae3          	blt	zero,a3,7d34 <__ssvfiscanf_r+0x532>
    7d64:	85e6                	c.mv	a1,s9
    7d66:	8552                	c.mv	a0,s4
    7d68:	9ebff0ef          	jal	ra,7752 <__ssrefill_r>
    7d6c:	d561                	c.beqz	a0,7d34 <__ssvfiscanf_r+0x532>
    7d6e:	996e                	c.add	s2,s11
    7d70:	bc6d                	c.j	782a <__ssvfiscanf_r+0x28>
    7d72:	0004ac03          	lw	s8,0(s1)
    7d76:	00448d13          	addi	s10,s1,4
    7d7a:	9b62                	c.add	s6,s8
    7d7c:	84e2                	c.mv	s1,s8
    7d7e:	000ca683          	lw	a3,0(s9)
    7d82:	813fa72b          	lwgp	a4,-2032 # 201ce8 <__ctype_ptr__>
    7d86:	0006c603          	lbu	a2,0(a3)
    7d8a:	9732                	c.add	a4,a2
    7d8c:	00174703          	lbu	a4,1(a4)
    7d90:	42377b5b          	bbs	a4,3,7dc6 <__ssvfiscanf_r+0x5c4>
    7d94:	004ca703          	lw	a4,4(s9)
    7d98:	0485                	c.addi	s1,1
    7d9a:	177d                	c.addi	a4,-1
    7d9c:	00eca223          	sw	a4,4(s9)
    7da0:	00168713          	addi	a4,a3,1
    7da4:	00eca023          	sw	a4,0(s9)
    7da8:	0006c703          	lbu	a4,0(a3)
    7dac:	fee48fa3          	sb	a4,-1(s1)
    7db0:	009b0b63          	beq	s6,s1,7dc6 <__ssvfiscanf_r+0x5c4>
    7db4:	004ca703          	lw	a4,4(s9)
    7db8:	fce043e3          	blt	zero,a4,7d7e <__ssvfiscanf_r+0x57c>
    7dbc:	85e6                	c.mv	a1,s9
    7dbe:	8552                	c.mv	a0,s4
    7dc0:	993ff0ef          	jal	ra,7752 <__ssrefill_r>
    7dc4:	dd4d                	c.beqz	a0,7d7e <__ssvfiscanf_r+0x57c>
    7dc6:	00048023          	sb	zero,0(s1)
    7dca:	418484b3          	sub	s1,s1,s8
    7dce:	9926                	c.add	s2,s1
    7dd0:	0a85                	c.addi	s5,1
    7dd2:	84ea                	c.mv	s1,s10
    7dd4:	bc99                	c.j	782a <__ssvfiscanf_r+0x28>
    7dd6:	fffb0713          	addi	a4,s6,-1
    7dda:	02600693          	addi	a3,zero,38
    7dde:	4881                	c.li	a7,0
    7de0:	00e6f663          	bgeu	a3,a4,7dec <__ssvfiscanf_r+0x5ea>
    7de4:	fd9b0893          	addi	a7,s6,-39
    7de8:	02700b13          	addi	s6,zero,39
    7dec:	6305                	c.lui	t1,0x1
    7dee:	d8030d93          	addi	s11,t1,-640 # d80 <__sharedata_end_addr+0xa10>
    7df2:	01bc6db3          	or	s11,s8,s11
    7df6:	7d7d                	c.lui	s10,0xfffff
    7df8:	03810c13          	addi	s8,sp,56
    7dfc:	8be2                	c.mv	s7,s8
    7dfe:	47fd0d13          	addi	s10,s10,1151 # fffff47f <__start_addr+0x7ffff46f>
    7e02:	80030313          	addi	t1,t1,-2048
    7e06:	c602                	c.swsp	zero,12(sp)
    7e08:	000ca583          	lw	a1,0(s9)
    7e0c:	03900613          	addi	a2,zero,57
    7e10:	0005c683          	lbu	a3,0(a1)
    7e14:	02d66263          	bltu	a2,a3,7e38 <__ssvfiscanf_r+0x636>
    7e18:	02a00613          	addi	a2,zero,42
    7e1c:	04d67263          	bgeu	a2,a3,7e60 <__ssvfiscanf_r+0x65e>
    7e20:	fd568613          	addi	a2,a3,-43
    7e24:	0ff67613          	andi	a2,a2,255
    7e28:	4539                	c.li	a0,14
    7e2a:	02c56b63          	bltu	a0,a2,7e60 <__ssvfiscanf_r+0x65e>
    7e2e:	47e2                	c.lwsp	a5,24(sp)
    7e30:	0cc7865b          	lea.w	a2,a5,a2
    7e34:	4210                	c.lw	a2,0(a2)
    7e36:	8602                	c.jr	a2
    7e38:	06600613          	addi	a2,zero,102
    7e3c:	06d66163          	bltu	a2,a3,7e9e <__ssvfiscanf_r+0x69c>
    7e40:	06000613          	addi	a2,zero,96
    7e44:	00d66a63          	bltu	a2,a3,7e58 <__ssvfiscanf_r+0x656>
    7e48:	04600613          	addi	a2,zero,70
    7e4c:	00d66863          	bltu	a2,a3,7e5c <__ssvfiscanf_r+0x65a>
    7e50:	04000613          	addi	a2,zero,64
    7e54:	00d67663          	bgeu	a2,a3,7e60 <__ssvfiscanf_r+0x65e>
    7e58:	4629                	c.li	a2,10
    7e5a:	a0e9                	c.j	7f24 <__ssvfiscanf_r+0x722>
    7e5c:	4586d35b          	beqc	a3,88,7ea2 <__ssvfiscanf_r+0x6a0>
    7e60:	008dff5b          	bbc	s11,8,7e7e <__ssvfiscanf_r+0x67c>
    7e64:	018bfb63          	bgeu	s7,s8,7e7a <__ssvfiscanf_r+0x678>
    7e68:	fffc4583          	lbu	a1,-1(s8)
    7e6c:	fffc0d13          	addi	s10,s8,-1
    7e70:	8666                	c.mv	a2,s9
    7e72:	8552                	c.mv	a0,s4
    7e74:	8c6a                	c.mv	s8,s10
    7e76:	853ff0ef          	jal	ra,76c8 <_sungetc_r>
    7e7a:	d37c08e3          	beq	s8,s7,7baa <__ssvfiscanf_r+0x3a8>
    7e7e:	4c4dfd5b          	bbs	s11,4,7f58 <__ssvfiscanf_r+0x756>
    7e82:	86ce                	c.mv	a3,s3
    7e84:	4601                	c.li	a2,0
    7e86:	85de                	c.mv	a1,s7
    7e88:	8552                	c.mv	a0,s4
    7e8a:	000c0023          	sb	zero,0(s8)
    7e8e:	00448d13          	addi	s10,s1,4
    7e92:	9402                	c.jalr	s0
    7e94:	0a5dfb5b          	bbc	s11,5,7f4a <__ssvfiscanf_r+0x748>
    7e98:	4094                	c.lw	a3,0(s1)
    7e9a:	c288                	c.sw	a0,0(a3)
    7e9c:	a865                	c.j	7f54 <__ssvfiscanf_r+0x752>
    7e9e:	fd86e1db          	bnec	a3,120,7e60 <__ssvfiscanf_r+0x65e>
    7ea2:	600df613          	andi	a2,s11,1536
    7ea6:	20000513          	addi	a0,zero,512
    7eaa:	faa61be3          	bne	a2,a0,7e60 <__ssvfiscanf_r+0x65e>
    7eae:	dffdfd93          	andi	s11,s11,-513
    7eb2:	500ded93          	ori	s11,s11,1280
    7eb6:	49c1                	c.li	s3,16
    7eb8:	a829                	c.j	7ed2 <__ssvfiscanf_r+0x6d0>
    7eba:	006df633          	and	a2,s11,t1
    7ebe:	ca11                	c.beqz	a2,7ed2 <__ssvfiscanf_r+0x6d0>
    7ec0:	00099563          	bne	s3,zero,7eca <__ssvfiscanf_r+0x6c8>
    7ec4:	200ded93          	ori	s11,s11,512
    7ec8:	49a1                	c.li	s3,8
    7eca:	00adf85b          	bbc	s11,10,7eda <__ssvfiscanf_r+0x6d8>
    7ece:	a7fdfd93          	andi	s11,s11,-1409
    7ed2:	00dc0023          	sb	a3,0(s8)
    7ed6:	0c05                	c.addi	s8,1
    7ed8:	a811                	c.j	7eec <__ssvfiscanf_r+0x6ea>
    7eda:	c7fdfd93          	andi	s11,s11,-897
    7ede:	00088463          	beq	a7,zero,7ee6 <__ssvfiscanf_r+0x6e4>
    7ee2:	18fd                	c.addi	a7,-1
    7ee4:	0b05                	c.addi	s6,1
    7ee6:	47b2                	c.lwsp	a5,12(sp)
    7ee8:	0785                	c.addi	a5,1
    7eea:	c63e                	c.swsp	a5,12(sp)
    7eec:	004ca683          	lw	a3,4(s9)
    7ef0:	16fd                	c.addi	a3,-1
    7ef2:	00dca223          	sw	a3,4(s9)
    7ef6:	02d05f63          	bge	zero,a3,7f34 <__ssvfiscanf_r+0x732>
    7efa:	0585                	c.addi	a1,1
    7efc:	00bca023          	sw	a1,0(s9)
    7f00:	1b7d                	c.addi	s6,-1
    7f02:	f00b13e3          	bne	s6,zero,7e08 <__ssvfiscanf_r+0x606>
    7f06:	bfa9                	c.j	7e60 <__ssvfiscanf_r+0x65e>
    7f08:	47c2                	c.lwsp	a5,16(sp)
    7f0a:	0b3789db          	lea.h	s3,a5,s3
    7f0e:	00099983          	lh	s3,0(s3)
    7f12:	01adfdb3          	and	s11,s11,s10
    7f16:	bf75                	c.j	7ed2 <__ssvfiscanf_r+0x6d0>
    7f18:	47c2                	c.lwsp	a5,16(sp)
    7f1a:	4621                	c.li	a2,8
    7f1c:	0b3789db          	lea.h	s3,a5,s3
    7f20:	00099983          	lh	s3,0(s3)
    7f24:	ff3647e3          	blt	a2,s3,7f12 <__ssvfiscanf_r+0x710>
    7f28:	bf25                	c.j	7e60 <__ssvfiscanf_r+0x65e>
    7f2a:	b27dfb5b          	bbc	s11,7,7e60 <__ssvfiscanf_r+0x65e>
    7f2e:	f7fdfd93          	andi	s11,s11,-129
    7f32:	b745                	c.j	7ed2 <__ssvfiscanf_r+0x6d0>
    7f34:	85e6                	c.mv	a1,s9
    7f36:	8552                	c.mv	a0,s4
    7f38:	ce46                	c.swsp	a7,28(sp)
    7f3a:	819ff0ef          	jal	ra,7752 <__ssrefill_r>
    7f3e:	6585                	c.lui	a1,0x1
    7f40:	48f2                	c.lwsp	a7,28(sp)
    7f42:	80058313          	addi	t1,a1,-2048 # 800 <__sharedata_end_addr+0x490>
    7f46:	dd4d                	c.beqz	a0,7f00 <__ssvfiscanf_r+0x6fe>
    7f48:	bf21                	c.j	7e60 <__ssvfiscanf_r+0x65e>
    7f4a:	002dfe5b          	bbc	s11,2,7f66 <__ssvfiscanf_r+0x764>
    7f4e:	4094                	c.lw	a3,0(s1)
    7f50:	00a69023          	sh	a0,0(a3)
    7f54:	0a85                	c.addi	s5,1
    7f56:	84ea                	c.mv	s1,s10
    7f58:	45b2                	c.lwsp	a1,12(sp)
    7f5a:	417c0bb3          	sub	s7,s8,s7
    7f5e:	00bb8c33          	add	s8,s7,a1
    7f62:	9962                	c.add	s2,s8
    7f64:	b0d9                	c.j	782a <__ssvfiscanf_r+0x28>
    7f66:	f20df95b          	bbs	s11,0,7e98 <__ssvfiscanf_r+0x696>
    7f6a:	b21df75b          	bbc	s11,1,7e98 <__ssvfiscanf_r+0x696>
    7f6e:	000096b7          	lui	a3,0x9
    7f72:	adc68693          	addi	a3,a3,-1316 # 8adc <_strtoul_r>
    7f76:	00d41c63          	bne	s0,a3,7f8e <__ssvfiscanf_r+0x78c>
    7f7a:	86ce                	c.mv	a3,s3
    7f7c:	4601                	c.li	a2,0
    7f7e:	85de                	c.mv	a1,s7
    7f80:	8552                	c.mv	a0,s4
    7f82:	44f000ef          	jal	ra,8bd0 <_strtoull_r>
    7f86:	4094                	c.lw	a3,0(s1)
    7f88:	c288                	c.sw	a0,0(a3)
    7f8a:	c2cc                	c.sw	a1,4(a3)
    7f8c:	b7e1                	c.j	7f54 <__ssvfiscanf_r+0x752>
    7f8e:	86ce                	c.mv	a3,s3
    7f90:	4601                	c.li	a2,0
    7f92:	85de                	c.mv	a1,s7
    7f94:	8552                	c.mv	a0,s4
    7f96:	1e1000ef          	jal	ra,8976 <_strtoll_r>
    7f9a:	b7f5                	c.j	7f86 <__ssvfiscanf_r+0x784>

00007f9c <__submore>:
    7f9c:	5fc012ef          	jal	t0,9598 <__riscv_save_4>
    7fa0:	842e                	c.mv	s0,a1
    7fa2:	598c                	c.lw	a1,48(a1)
    7fa4:	04040793          	addi	a5,s0,64
    7fa8:	02f59f63          	bne	a1,a5,7fe6 <__submore+0x4a>
    7fac:	40000593          	addi	a1,zero,1024
    7fb0:	d96fe0ef          	jal	ra,6546 <_malloc_r>
    7fb4:	e501                	c.bnez	a0,7fbc <__submore+0x20>
    7fb6:	557d                	c.li	a0,-1
    7fb8:	6140106f          	jal	zero,95cc <__riscv_restore_4>
    7fbc:	40000793          	addi	a5,zero,1024
    7fc0:	d85c                	c.sw	a5,52(s0)
    7fc2:	04244783          	lbu	a5,66(s0)
    7fc6:	d808                	c.sw	a0,48(s0)
    7fc8:	3ef50fa3          	sb	a5,1023(a0)
    7fcc:	04144783          	lbu	a5,65(s0)
    7fd0:	3fd50513          	addi	a0,a0,1021
    7fd4:	00f500a3          	sb	a5,1(a0)
    7fd8:	04044783          	lbu	a5,64(s0)
    7fdc:	00f50023          	sb	a5,0(a0)
    7fe0:	c008                	c.sw	a0,0(s0)
    7fe2:	4501                	c.li	a0,0
    7fe4:	bfd1                	c.j	7fb8 <__submore+0x1c>
    7fe6:	03442903          	lw	s2,52(s0)
    7fea:	00191993          	slli	s3,s2,0x1
    7fee:	864e                	c.mv	a2,s3
    7ff0:	68a000ef          	jal	ra,867a <_realloc_r>
    7ff4:	84aa                	c.mv	s1,a0
    7ff6:	d161                	c.beqz	a0,7fb6 <__submore+0x1a>
    7ff8:	01250a33          	add	s4,a0,s2
    7ffc:	85aa                	c.mv	a1,a0
    7ffe:	864a                	c.mv	a2,s2
    8000:	8552                	c.mv	a0,s4
    8002:	2519                	c.jal	8608 <memcpy>
    8004:	01442023          	sw	s4,0(s0)
    8008:	d804                	c.sw	s1,48(s0)
    800a:	03342a23          	sw	s3,52(s0)
    800e:	bfd1                	c.j	7fe2 <__submore+0x46>

00008010 <_ungetc_r>:
    8010:	588012ef          	jal	t0,9598 <__riscv_save_4>
    8014:	57fd                	c.li	a5,-1
    8016:	00f59663          	bne	a1,a5,8022 <_ungetc_r+0x12>
    801a:	54fd                	c.li	s1,-1
    801c:	8526                	c.mv	a0,s1
    801e:	5ae0106f          	jal	zero,95cc <__riscv_restore_4>
    8022:	892a                	c.mv	s2,a0
    8024:	84ae                	c.mv	s1,a1
    8026:	8432                	c.mv	s0,a2
    8028:	c509                	c.beqz	a0,8032 <_ungetc_r+0x22>
    802a:	87bfa7ab          	lwgp	a5,-1928 # 201d50 <__mculib_REENT__sdidinit>
    802e:	e391                	c.bnez	a5,8032 <_ungetc_r+0x22>
    8030:	2629                	c.jal	833a <__sinit>
    8032:	00c41783          	lh	a5,12(s0)
    8036:	fdf7f793          	andi	a5,a5,-33
    803a:	00f41623          	sh	a5,12(s0)
    803e:	3c07a75b          	bfoz	a4,a5,15,0
    8042:	4227f95b          	bbs	a5,2,8074 <_ungetc_r+0x64>
    8046:	bc477a5b          	bbc	a4,4,801a <_ungetc_r+0xa>
    804a:	00377f5b          	bbc	a4,3,8068 <_ungetc_r+0x58>
    804e:	85a2                	c.mv	a1,s0
    8050:	854a                	c.mv	a0,s2
    8052:	22e5                	c.jal	823a <_fflush_r>
    8054:	f179                	c.bnez	a0,801a <_ungetc_r+0xa>
    8056:	00c45783          	lhu	a5,12(s0)
    805a:	00042423          	sw	zero,8(s0)
    805e:	9bdd                	c.andi	a5,-9
    8060:	00f41623          	sh	a5,12(s0)
    8064:	00042c23          	sw	zero,24(s0)
    8068:	00c45783          	lhu	a5,12(s0)
    806c:	0047e793          	ori	a5,a5,4
    8070:	00f41623          	sh	a5,12(s0)
    8074:	581c                	c.lw	a5,48(s0)
    8076:	0ff4f993          	andi	s3,s1,255
    807a:	4058                	c.lw	a4,4(s0)
    807c:	0ff4f493          	andi	s1,s1,255
    8080:	c39d                	c.beqz	a5,80a6 <_ungetc_r+0x96>
    8082:	585c                	c.lw	a5,52(s0)
    8084:	00f75c63          	bge	a4,a5,809c <_ungetc_r+0x8c>
    8088:	401c                	c.lw	a5,0(s0)
    808a:	fff78713          	addi	a4,a5,-1
    808e:	c018                	c.sw	a4,0(s0)
    8090:	ff378fa3          	sb	s3,-1(a5)
    8094:	405c                	c.lw	a5,4(s0)
    8096:	0785                	c.addi	a5,1
    8098:	c05c                	c.sw	a5,4(s0)
    809a:	b749                	c.j	801c <_ungetc_r+0xc>
    809c:	85a2                	c.mv	a1,s0
    809e:	854a                	c.mv	a0,s2
    80a0:	3df5                	c.jal	7f9c <__submore>
    80a2:	d17d                	c.beqz	a0,8088 <_ungetc_r+0x78>
    80a4:	bf9d                	c.j	801a <_ungetc_r+0xa>
    80a6:	4814                	c.lw	a3,16(s0)
    80a8:	401c                	c.lw	a5,0(s0)
    80aa:	ce81                	c.beqz	a3,80c2 <_ungetc_r+0xb2>
    80ac:	00f6fb63          	bgeu	a3,a5,80c2 <_ungetc_r+0xb2>
    80b0:	fff7c683          	lbu	a3,-1(a5)
    80b4:	00969763          	bne	a3,s1,80c2 <_ungetc_r+0xb2>
    80b8:	17fd                	c.addi	a5,-1
    80ba:	0705                	c.addi	a4,1
    80bc:	c01c                	c.sw	a5,0(s0)
    80be:	c058                	c.sw	a4,4(s0)
    80c0:	bfb1                	c.j	801c <_ungetc_r+0xc>
    80c2:	dc1c                	c.sw	a5,56(s0)
    80c4:	04040793          	addi	a5,s0,64
    80c8:	d81c                	c.sw	a5,48(s0)
    80ca:	478d                	c.li	a5,3
    80cc:	d85c                	c.sw	a5,52(s0)
    80ce:	04240793          	addi	a5,s0,66
    80d2:	c01c                	c.sw	a5,0(s0)
    80d4:	dc58                	c.sw	a4,60(s0)
    80d6:	4785                	c.li	a5,1
    80d8:	05340123          	sb	s3,66(s0)
    80dc:	bf75                	c.j	8098 <_ungetc_r+0x88>

000080de <ungetc>:
    80de:	862e                	c.mv	a2,a1
    80e0:	85aa                	c.mv	a1,a0
    80e2:	80ffa52b          	lwgp	a0,-2036 # 201ce4 <_impure_ptr>
    80e6:	b72d                	c.j	8010 <_ungetc_r>

000080e8 <__env_lock>:
    80e8:	8082                	c.jr	ra

000080ea <__env_unlock>:
    80ea:	8082                	c.jr	ra

000080ec <__sflush_r>:
    80ec:	4ac012ef          	jal	t0,9598 <__riscv_save_4>
    80f0:	00c59783          	lh	a5,12(a1)
    80f4:	89aa                	c.mv	s3,a0
    80f6:	842e                	c.mv	s0,a1
    80f8:	4e37fb5b          	bbs	a5,3,81ee <__sflush_r+0x102>
    80fc:	6705                	c.lui	a4,0x1
    80fe:	80070713          	addi	a4,a4,-2048 # 800 <__sharedata_end_addr+0x490>
    8102:	8fd9                	c.or	a5,a4
    8104:	41d8                	c.lw	a4,4(a1)
    8106:	00f59623          	sh	a5,12(a1)
    810a:	00e04863          	blt	zero,a4,811a <__sflush_r+0x2e>
    810e:	5dd8                	c.lw	a4,60(a1)
    8110:	00e04563          	blt	zero,a4,811a <__sflush_r+0x2e>
    8114:	4501                	c.li	a0,0
    8116:	4b60106f          	jal	zero,95cc <__riscv_restore_4>
    811a:	5418                	c.lw	a4,40(s0)
    811c:	df65                	c.beqz	a4,8114 <__sflush_r+0x28>
    811e:	84bfa4ab          	lwgp	s1,-1976 # 201d20 <__mculib_REENT_errno>
    8122:	840fc5ab          	swgp	zero,-1976 # 201d20 <__mculib_REENT_errno>
    8126:	8952                	c.mv	s2,s4
    8128:	08c7f75b          	bbc	a5,12,81b6 <__sflush_r+0xca>
    812c:	4828                	c.lw	a0,80(s0)
    812e:	00c45783          	lhu	a5,12(s0)
    8132:	0027f85b          	bbc	a5,2,8142 <__sflush_r+0x56>
    8136:	405c                	c.lw	a5,4(s0)
    8138:	8d1d                	c.sub	a0,a5
    813a:	581c                	c.lw	a5,48(s0)
    813c:	c399                	c.beqz	a5,8142 <__sflush_r+0x56>
    813e:	5c5c                	c.lw	a5,60(s0)
    8140:	8d1d                	c.sub	a0,a5
    8142:	541c                	c.lw	a5,40(s0)
    8144:	4c4c                	c.lw	a1,28(s0)
    8146:	4681                	c.li	a3,0
    8148:	862a                	c.mv	a2,a0
    814a:	854e                	c.mv	a0,s3
    814c:	9782                	c.jalr	a5
    814e:	57fd                	c.li	a5,-1
    8150:	00c45683          	lhu	a3,12(s0)
    8154:	00f51e63          	bne	a0,a5,8170 <__sflush_r+0x84>
    8158:	84bfa7ab          	lwgp	a5,-1976 # 201d20 <__mculib_REENT_errno>
    815c:	4775                	c.li	a4,29
    815e:	08f76563          	bltu	a4,a5,81e8 <__sflush_r+0xfc>
    8162:	20400737          	lui	a4,0x20400
    8166:	0705                	c.addi	a4,1
    8168:	00f75733          	srl	a4,a4,a5
    816c:	06077e5b          	bbc	a4,0,81e8 <__sflush_r+0xfc>
    8170:	77fd                	c.lui	a5,0xfffff
    8172:	7ff78793          	addi	a5,a5,2047 # fffff7ff <__start_addr+0x7ffff7ef>
    8176:	4818                	c.lw	a4,16(s0)
    8178:	8ff5                	c.and	a5,a3
    817a:	3c07b7db          	bfos	a5,a5,15,0
    817e:	00f41623          	sh	a5,12(s0)
    8182:	00042223          	sw	zero,4(s0)
    8186:	c018                	c.sw	a4,0(s0)
    8188:	00c7f95b          	bbc	a5,12,819a <__sflush_r+0xae>
    818c:	57fd                	c.li	a5,-1
    818e:	00f51563          	bne	a0,a5,8198 <__sflush_r+0xac>
    8192:	84bfa7ab          	lwgp	a5,-1976 # 201d20 <__mculib_REENT_errno>
    8196:	e391                	c.bnez	a5,819a <__sflush_r+0xae>
    8198:	c828                	c.sw	a0,80(s0)
    819a:	580c                	c.lw	a1,48(s0)
    819c:	849fc5ab          	swgp	s1,-1976 # 201d20 <__mculib_REENT_errno>
    81a0:	d9b5                	c.beqz	a1,8114 <__sflush_r+0x28>
    81a2:	04040793          	addi	a5,s0,64
    81a6:	00f58563          	beq	a1,a5,81b0 <__sflush_r+0xc4>
    81aa:	854e                	c.mv	a0,s3
    81ac:	b0afe0ef          	jal	ra,64b6 <_free_r>
    81b0:	02042823          	sw	zero,48(s0)
    81b4:	b785                	c.j	8114 <__sflush_r+0x28>
    81b6:	4c4c                	c.lw	a1,28(s0)
    81b8:	4685                	c.li	a3,1
    81ba:	4601                	c.li	a2,0
    81bc:	854e                	c.mv	a0,s3
    81be:	9702                	c.jalr	a4
    81c0:	57fd                	c.li	a5,-1
    81c2:	f6f516e3          	bne	a0,a5,812e <__sflush_r+0x42>
    81c6:	84bfa7ab          	lwgp	a5,-1976 # 201d20 <__mculib_REENT_errno>
    81ca:	d3b5                	c.beqz	a5,812e <__sflush_r+0x42>
    81cc:	01d7d45b          	beqc	a5,29,81d4 <__sflush_r+0xe8>
    81d0:	0167e55b          	bnec	a5,22,81da <__sflush_r+0xee>
    81d4:	849fc5ab          	swgp	s1,-1976 # 201d20 <__mculib_REENT_errno>
    81d8:	bf35                	c.j	8114 <__sflush_r+0x28>
    81da:	00c45783          	lhu	a5,12(s0)
    81de:	0407e793          	ori	a5,a5,64
    81e2:	00f41623          	sh	a5,12(s0)
    81e6:	bf05                	c.j	8116 <__sflush_r+0x2a>
    81e8:	0406e793          	ori	a5,a3,64
    81ec:	bfdd                	c.j	81e2 <__sflush_r+0xf6>
    81ee:	0105a903          	lw	s2,16(a1)
    81f2:	f20901e3          	beq	s2,zero,8114 <__sflush_r+0x28>
    81f6:	4184                	c.lw	s1,0(a1)
    81f8:	3c07a75b          	bfoz	a4,a5,15,0
    81fc:	00377793          	andi	a5,a4,3
    8200:	0125a023          	sw	s2,0(a1)
    8204:	412484b3          	sub	s1,s1,s2
    8208:	4701                	c.li	a4,0
    820a:	e391                	c.bnez	a5,820e <__sflush_r+0x122>
    820c:	49d8                	c.lw	a4,20(a1)
    820e:	c418                	c.sw	a4,8(s0)
    8210:	f09052e3          	bge	zero,s1,8114 <__sflush_r+0x28>
    8214:	505c                	c.lw	a5,36(s0)
    8216:	4c4c                	c.lw	a1,28(s0)
    8218:	86a6                	c.mv	a3,s1
    821a:	864a                	c.mv	a2,s2
    821c:	854e                	c.mv	a0,s3
    821e:	9782                	c.jalr	a5
    8220:	00a04a63          	blt	zero,a0,8234 <__sflush_r+0x148>
    8224:	00c45783          	lhu	a5,12(s0)
    8228:	557d                	c.li	a0,-1
    822a:	0407e793          	ori	a5,a5,64
    822e:	00f41623          	sh	a5,12(s0)
    8232:	b5d5                	c.j	8116 <__sflush_r+0x2a>
    8234:	992a                	c.add	s2,a0
    8236:	8c89                	c.sub	s1,a0
    8238:	bfe1                	c.j	8210 <__sflush_r+0x124>

0000823a <_fflush_r>:
    823a:	378012ef          	jal	t0,95b2 <__riscv_save_0>
    823e:	1141                	c.addi	sp,-16
    8240:	842a                	c.mv	s0,a0
    8242:	c519                	c.beqz	a0,8250 <_fflush_r+0x16>
    8244:	87bfa7ab          	lwgp	a5,-1928 # 201d50 <__mculib_REENT__sdidinit>
    8248:	e781                	c.bnez	a5,8250 <_fflush_r+0x16>
    824a:	c62e                	c.swsp	a1,12(sp)
    824c:	20fd                	c.jal	833a <__sinit>
    824e:	45b2                	c.lwsp	a1,12(sp)
    8250:	00c59783          	lh	a5,12(a1)
    8254:	4501                	c.li	a0,0
    8256:	c399                	c.beqz	a5,825c <_fflush_r+0x22>
    8258:	8522                	c.mv	a0,s0
    825a:	3d49                	c.jal	80ec <__sflush_r>
    825c:	0141                	c.addi	sp,16
    825e:	3780106f          	jal	zero,95d6 <__riscv_restore_0>

00008262 <fflush>:
    8262:	350012ef          	jal	t0,95b2 <__riscv_save_0>
    8266:	e911                	c.bnez	a0,827a <fflush+0x18>
    8268:	000085b7          	lui	a1,0x8
    826c:	f03ba52b          	lwgp	a0,-8448 # 2003d8 <_global_impure_ptr>
    8270:	23a58593          	addi	a1,a1,570 # 823a <_fflush_r>
    8274:	2431                	c.jal	8480 <_fwalk_reent>
    8276:	3600106f          	jal	zero,95d6 <__riscv_restore_0>
    827a:	85aa                	c.mv	a1,a0
    827c:	80ffa52b          	lwgp	a0,-2036 # 201ce4 <_impure_ptr>
    8280:	3f6d                	c.jal	823a <_fflush_r>
    8282:	bfd5                	c.j	8276 <fflush+0x14>

00008284 <__fp_lock>:
    8284:	4501                	c.li	a0,0
    8286:	8082                	c.jr	ra

00008288 <_cleanup_r>:
    8288:	000085b7          	lui	a1,0x8
    828c:	23a58593          	addi	a1,a1,570 # 823a <_fflush_r>
    8290:	aac5                	c.j	8480 <_fwalk_reent>

00008292 <std.constprop.0>:
    8292:	320012ef          	jal	t0,95b2 <__riscv_save_0>
    8296:	842a                	c.mv	s0,a0
    8298:	00b51623          	sh	a1,12(a0)
    829c:	00c51723          	sh	a2,14(a0)
    82a0:	4581                	c.li	a1,0
    82a2:	4621                	c.li	a2,8
    82a4:	00052023          	sw	zero,0(a0)
    82a8:	00052223          	sw	zero,4(a0)
    82ac:	00052423          	sw	zero,8(a0)
    82b0:	06052223          	sw	zero,100(a0)
    82b4:	00052823          	sw	zero,16(a0)
    82b8:	00052a23          	sw	zero,20(a0)
    82bc:	00052c23          	sw	zero,24(a0)
    82c0:	05c50513          	addi	a0,a0,92
    82c4:	a2dfd0ef          	jal	ra,5cf0 <memset>
    82c8:	000077b7          	lui	a5,0x7
    82cc:	50078793          	addi	a5,a5,1280 # 7500 <__sread>
    82d0:	d01c                	c.sw	a5,32(s0)
    82d2:	000077b7          	lui	a5,0x7
    82d6:	53478793          	addi	a5,a5,1332 # 7534 <__swrite>
    82da:	d05c                	c.sw	a5,36(s0)
    82dc:	000077b7          	lui	a5,0x7
    82e0:	57078793          	addi	a5,a5,1392 # 7570 <__sseek>
    82e4:	d41c                	c.sw	a5,40(s0)
    82e6:	000077b7          	lui	a5,0x7
    82ea:	5a678793          	addi	a5,a5,1446 # 75a6 <__sclose>
    82ee:	cc40                	c.sw	s0,28(s0)
    82f0:	d45c                	c.sw	a5,44(s0)
    82f2:	2e40106f          	jal	zero,95d6 <__riscv_restore_0>

000082f6 <__fp_unlock>:
    82f6:	4501                	c.li	a0,0
    82f8:	8082                	c.jr	ra

000082fa <__sfmoreglue>:
    82fa:	2b8012ef          	jal	t0,95b2 <__riscv_save_0>
    82fe:	fff58493          	addi	s1,a1,-1
    8302:	06800613          	addi	a2,zero,104
    8306:	02c484b3          	mul	s1,s1,a2
    830a:	892e                	c.mv	s2,a1
    830c:	07448593          	addi	a1,s1,116
    8310:	a36fe0ef          	jal	ra,6546 <_malloc_r>
    8314:	842a                	c.mv	s0,a0
    8316:	cd01                	c.beqz	a0,832e <__sfmoreglue+0x34>
    8318:	00052023          	sw	zero,0(a0)
    831c:	01252223          	sw	s2,4(a0)
    8320:	06848613          	addi	a2,s1,104
    8324:	0531                	c.addi	a0,12
    8326:	4581                	c.li	a1,0
    8328:	c408                	c.sw	a0,8(s0)
    832a:	9c7fd0ef          	jal	ra,5cf0 <memset>
    832e:	8522                	c.mv	a0,s0
    8330:	2a60106f          	jal	zero,95d6 <__riscv_restore_0>

00008334 <_cleanup>:
    8334:	f03ba52b          	lwgp	a0,-8448 # 2003d8 <_global_impure_ptr>
    8338:	bf81                	c.j	8288 <_cleanup_r>

0000833a <__sinit>:
    833a:	278012ef          	jal	t0,95b2 <__riscv_save_0>
    833e:	87bfa7ab          	lwgp	a5,-1928 # 201d50 <__mculib_REENT__sdidinit>
    8342:	e3b1                	c.bnez	a5,8386 <__sinit+0x4c>
    8344:	000087b7          	lui	a5,0x8
    8348:	28878793          	addi	a5,a5,648 # 8288 <_cleanup_r>
    834c:	86ffcbab          	swgp	a5,-1932 # 201d4c <__mculib_REENT__cleanup>
    8350:	ab1f978b          	addigp	a5,-1360 # 201f88 <__mculib_REENT__sglue>
    8354:	470d                	c.li	a4,3
    8356:	c3d8                	c.sw	a4,4(a5)
    8358:	979f970b          	addigp	a4,-1672 # 201e50 <__mculib_REENT__sf>
    835c:	c798                	c.sw	a4,8(a5)
    835e:	0007a023          	sw	zero,0(a5)
    8362:	823fa52b          	lwgp	a0,-2016 # 201cf8 <__mculib_REENT_stdin>
    8366:	4601                	c.li	a2,0
    8368:	4591                	c.li	a1,4
    836a:	3725                	c.jal	8292 <std.constprop.0>
    836c:	81ffa52b          	lwgp	a0,-2020 # 201cf4 <__mculib_REENT_stdout>
    8370:	4605                	c.li	a2,1
    8372:	45a5                	c.li	a1,9
    8374:	3f39                	c.jal	8292 <std.constprop.0>
    8376:	81bfa52b          	lwgp	a0,-2024 # 201cf0 <__mculib_REENT_stderr>
    837a:	4609                	c.li	a2,2
    837c:	45c9                	c.li	a1,18
    837e:	3f11                	c.jal	8292 <std.constprop.0>
    8380:	4785                	c.li	a5,1
    8382:	86ffcdab          	swgp	a5,-1928 # 201d50 <__mculib_REENT__sdidinit>
    8386:	2500106f          	jal	zero,95d6 <__riscv_restore_0>

0000838a <__sfp>:
    838a:	228012ef          	jal	t0,95b2 <__riscv_save_0>
    838e:	87bfa7ab          	lwgp	a5,-1928 # 201d50 <__mculib_REENT__sdidinit>
    8392:	892a                	c.mv	s2,a0
    8394:	e781                	c.bnez	a5,839c <__sfp+0x12>
    8396:	f03ba52b          	lwgp	a0,-8448 # 2003d8 <_global_impure_ptr>
    839a:	3745                	c.jal	833a <__sinit>
    839c:	ab1f948b          	addigp	s1,-1360 # 201f88 <__mculib_REENT__sglue>
    83a0:	4480                	c.lw	s0,8(s1)
    83a2:	40dc                	c.lw	a5,4(s1)
    83a4:	17fd                	c.addi	a5,-1
    83a6:	0007d663          	bge	a5,zero,83b2 <__sfp+0x28>
    83aa:	409c                	c.lw	a5,0(s1)
    83ac:	cbb9                	c.beqz	a5,8402 <__sfp+0x78>
    83ae:	4084                	c.lw	s1,0(s1)
    83b0:	bfc5                	c.j	83a0 <__sfp+0x16>
    83b2:	00c41703          	lh	a4,12(s0)
    83b6:	e339                	c.bnez	a4,83fc <__sfp+0x72>
    83b8:	77c1                	c.lui	a5,0xffff0
    83ba:	0785                	c.addi	a5,1
    83bc:	4621                	c.li	a2,8
    83be:	4581                	c.li	a1,0
    83c0:	05c40513          	addi	a0,s0,92
    83c4:	06042223          	sw	zero,100(s0)
    83c8:	00042023          	sw	zero,0(s0)
    83cc:	00042223          	sw	zero,4(s0)
    83d0:	00042423          	sw	zero,8(s0)
    83d4:	c45c                	c.sw	a5,12(s0)
    83d6:	00042823          	sw	zero,16(s0)
    83da:	00042a23          	sw	zero,20(s0)
    83de:	00042c23          	sw	zero,24(s0)
    83e2:	90ffd0ef          	jal	ra,5cf0 <memset>
    83e6:	02042823          	sw	zero,48(s0)
    83ea:	02042a23          	sw	zero,52(s0)
    83ee:	04042223          	sw	zero,68(s0)
    83f2:	04042423          	sw	zero,72(s0)
    83f6:	8522                	c.mv	a0,s0
    83f8:	1de0106f          	jal	zero,95d6 <__riscv_restore_0>
    83fc:	06840413          	addi	s0,s0,104
    8400:	b755                	c.j	83a4 <__sfp+0x1a>
    8402:	4591                	c.li	a1,4
    8404:	854a                	c.mv	a0,s2
    8406:	3dd5                	c.jal	82fa <__sfmoreglue>
    8408:	c088                	c.sw	a0,0(s1)
    840a:	842a                	c.mv	s0,a0
    840c:	f14d                	c.bnez	a0,83ae <__sfp+0x24>
    840e:	4731                	c.li	a4,12
    8410:	84efc5ab          	swgp	a4,-1976 # 201d20 <__mculib_REENT_errno>
    8414:	b7cd                	c.j	83f6 <__sfp+0x6c>

00008416 <__sfp_lock_acquire>:
    8416:	8082                	c.jr	ra

00008418 <__sfp_lock_release>:
    8418:	8082                	c.jr	ra

0000841a <__sinit_lock_acquire>:
    841a:	8082                	c.jr	ra

0000841c <__sinit_lock_release>:
    841c:	8082                	c.jr	ra

0000841e <__fp_lock_all>:
    841e:	80ffa52b          	lwgp	a0,-2036 # 201ce4 <_impure_ptr>
    8422:	000085b7          	lui	a1,0x8
    8426:	28458593          	addi	a1,a1,644 # 8284 <__fp_lock>
    842a:	a801                	c.j	843a <_fwalk>

0000842c <__fp_unlock_all>:
    842c:	80ffa52b          	lwgp	a0,-2036 # 201ce4 <_impure_ptr>
    8430:	000085b7          	lui	a1,0x8
    8434:	2f658593          	addi	a1,a1,758 # 82f6 <__fp_unlock>
    8438:	a009                	c.j	843a <_fwalk>

0000843a <_fwalk>:
    843a:	15e012ef          	jal	t0,9598 <__riscv_save_4>
    843e:	89ae                	c.mv	s3,a1
    8440:	ab1f940b          	addigp	s0,-1360 # 201f88 <__mculib_REENT__sglue>
    8444:	4901                	c.li	s2,0
    8446:	4a85                	c.li	s5,1
    8448:	5b7d                	c.li	s6,-1
    844a:	e401                	c.bnez	s0,8452 <_fwalk+0x18>
    844c:	854a                	c.mv	a0,s2
    844e:	17e0106f          	jal	zero,95cc <__riscv_restore_4>
    8452:	4404                	c.lw	s1,8(s0)
    8454:	00442a03          	lw	s4,4(s0)
    8458:	1a7d                	c.addi	s4,-1
    845a:	000a5463          	bge	s4,zero,8462 <_fwalk+0x28>
    845e:	4000                	c.lw	s0,0(s0)
    8460:	b7ed                	c.j	844a <_fwalk+0x10>
    8462:	00c4d783          	lhu	a5,12(s1)
    8466:	00fafa63          	bgeu	s5,a5,847a <_fwalk+0x40>
    846a:	00e49783          	lh	a5,14(s1)
    846e:	01678663          	beq	a5,s6,847a <_fwalk+0x40>
    8472:	8526                	c.mv	a0,s1
    8474:	9982                	c.jalr	s3
    8476:	00a96933          	or	s2,s2,a0
    847a:	06848493          	addi	s1,s1,104
    847e:	bfe9                	c.j	8458 <_fwalk+0x1e>

00008480 <_fwalk_reent>:
    8480:	10a012ef          	jal	t0,958a <__riscv_save_10>
    8484:	89aa                	c.mv	s3,a0
    8486:	8a2e                	c.mv	s4,a1
    8488:	ab1f940b          	addigp	s0,-1360 # 201f88 <__mculib_REENT__sglue>
    848c:	4901                	c.li	s2,0
    848e:	4b05                	c.li	s6,1
    8490:	5bfd                	c.li	s7,-1
    8492:	e401                	c.bnez	s0,849a <_fwalk_reent+0x1a>
    8494:	854a                	c.mv	a0,s2
    8496:	12c0106f          	jal	zero,95c2 <__riscv_restore_10>
    849a:	4404                	c.lw	s1,8(s0)
    849c:	00442a83          	lw	s5,4(s0)
    84a0:	1afd                	c.addi	s5,-1
    84a2:	000ad463          	bge	s5,zero,84aa <_fwalk_reent+0x2a>
    84a6:	4000                	c.lw	s0,0(s0)
    84a8:	b7ed                	c.j	8492 <_fwalk_reent+0x12>
    84aa:	00c4d783          	lhu	a5,12(s1)
    84ae:	00fb7b63          	bgeu	s6,a5,84c4 <_fwalk_reent+0x44>
    84b2:	00e49783          	lh	a5,14(s1)
    84b6:	01778763          	beq	a5,s7,84c4 <_fwalk_reent+0x44>
    84ba:	85a6                	c.mv	a1,s1
    84bc:	854e                	c.mv	a0,s3
    84be:	9a02                	c.jalr	s4
    84c0:	00a96933          	or	s2,s2,a0
    84c4:	06848493          	addi	s1,s1,104
    84c8:	bfe1                	c.j	84a0 <_fwalk_reent+0x20>

000084ca <iswspace>:
    84ca:	0ff00793          	addi	a5,zero,255
    84ce:	00a7e963          	bltu	a5,a0,84e0 <iswspace+0x16>
    84d2:	813fa7ab          	lwgp	a5,-2032 # 201ce8 <__ctype_ptr__>
    84d6:	953e                	c.add	a0,a5
    84d8:	00154503          	lbu	a0,1(a0)
    84dc:	8921                	c.andi	a0,8
    84de:	8082                	c.jr	ra
    84e0:	4501                	c.li	a0,0
    84e2:	8082                	c.jr	ra

000084e4 <_setlocale_r>:
    84e4:	0ce012ef          	jal	t0,95b2 <__riscv_save_0>
    84e8:	e609                	c.bnez	a2,84f2 <_setlocale_r+0xe>
    84ea:	a10d950b          	addigp	a0,-7664 # 2006e8 <_ctype_+0x104>
    84ee:	0e80106f          	jal	zero,95d6 <__riscv_restore_0>
    84f2:	a14d958b          	addigp	a1,-7660 # 2006ec <_ctype_+0x108>
    84f6:	8532                	c.mv	a0,a2
    84f8:	8432                	c.mv	s0,a2
    84fa:	8b6ff0ef          	jal	ra,75b0 <strcmp>
    84fe:	d575                	c.beqz	a0,84ea <_setlocale_r+0x6>
    8500:	a10d958b          	addigp	a1,-7664 # 2006e8 <_ctype_+0x104>
    8504:	8522                	c.mv	a0,s0
    8506:	8aaff0ef          	jal	ra,75b0 <strcmp>
    850a:	d165                	c.beqz	a0,84ea <_setlocale_r+0x6>
    850c:	a1cd958b          	addigp	a1,-7652 # 2006f4 <_ctype_+0x110>
    8510:	8522                	c.mv	a0,s0
    8512:	89eff0ef          	jal	ra,75b0 <strcmp>
    8516:	d971                	c.beqz	a0,84ea <_setlocale_r+0x6>
    8518:	4501                	c.li	a0,0
    851a:	bfd1                	c.j	84ee <_setlocale_r+0xa>

0000851c <__locale_charset>:
    851c:	fa4f950b          	addigp	a0,-2140 # 201c7c <lc_ctype_charset>
    8520:	8082                	c.jr	ra

00008522 <__locale_mb_cur_max>:
    8522:	827fa52b          	lwgp	a0,-2012 # 201cfc <__mb_cur_max>
    8526:	8082                	c.jr	ra

00008528 <__locale_msgcharset>:
    8528:	f84f950b          	addigp	a0,-2172 # 201c5c <lc_message_charset>
    852c:	8082                	c.jr	ra

0000852e <__locale_cjk_lang>:
    852e:	4501                	c.li	a0,0
    8530:	8082                	c.jr	ra

00008532 <_localeconv_r>:
    8532:	fc4f950b          	addigp	a0,-2108 # 201c9c <lconv>
    8536:	8082                	c.jr	ra

00008538 <setlocale>:
    8538:	862e                	c.mv	a2,a1
    853a:	85aa                	c.mv	a1,a0
    853c:	80ffa52b          	lwgp	a0,-2036 # 201ce4 <_impure_ptr>
    8540:	b755                	c.j	84e4 <_setlocale_r>

00008542 <localeconv>:
    8542:	fc4f950b          	addigp	a0,-2108 # 201c9c <lconv>
    8546:	8082                	c.jr	ra

00008548 <_mbrtowc_r>:
    8548:	06a012ef          	jal	t0,95b2 <__riscv_save_0>
    854c:	82ffa92b          	lwgp	s2,-2004 # 201d04 <__mbtowc>
    8550:	1141                	c.addi	sp,-16
    8552:	84aa                	c.mv	s1,a0
    8554:	843a                	c.mv	s0,a4
    8556:	e615                	c.bnez	a2,8582 <_mbrtowc_r+0x3a>
    8558:	37d1                	c.jal	851c <__locale_charset>
    855a:	872a                	c.mv	a4,a0
    855c:	87a2                	c.mv	a5,s0
    855e:	4685                	c.li	a3,1
    8560:	a1cd960b          	addigp	a2,-7652 # 2006f4 <_ctype_+0x110>
    8564:	4581                	c.li	a1,0
    8566:	8526                	c.mv	a0,s1
    8568:	9902                	c.jalr	s2
    856a:	57fd                	c.li	a5,-1
    856c:	00f51863          	bne	a0,a5,857c <_mbrtowc_r+0x34>
    8570:	08a00713          	addi	a4,zero,138
    8574:	00042023          	sw	zero,0(s0)
    8578:	84efc5ab          	swgp	a4,-1976 # 201d20 <__mculib_REENT_errno>
    857c:	0141                	c.addi	sp,16
    857e:	0580106f          	jal	zero,95d6 <__riscv_restore_0>
    8582:	c636                	c.swsp	a3,12(sp)
    8584:	c432                	c.swsp	a2,8(sp)
    8586:	c22e                	c.swsp	a1,4(sp)
    8588:	3f51                	c.jal	851c <__locale_charset>
    858a:	46b2                	c.lwsp	a3,12(sp)
    858c:	4622                	c.lwsp	a2,8(sp)
    858e:	4592                	c.lwsp	a1,4(sp)
    8590:	872a                	c.mv	a4,a0
    8592:	87a2                	c.mv	a5,s0
    8594:	bfc9                	c.j	8566 <_mbrtowc_r+0x1e>

00008596 <mbrtowc>:
    8596:	8736                	c.mv	a4,a3
    8598:	86b2                	c.mv	a3,a2
    859a:	862e                	c.mv	a2,a1
    859c:	85aa                	c.mv	a1,a0
    859e:	80ffa52b          	lwgp	a0,-2036 # 201ce4 <_impure_ptr>
    85a2:	b75d                	c.j	8548 <_mbrtowc_r>

000085a4 <__ascii_mbtowc>:
    85a4:	e185                	c.bnez	a1,85c4 <__ascii_mbtowc+0x20>
    85a6:	1141                	c.addi	sp,-16
    85a8:	006c                	c.addi4spn	a1,sp,12
    85aa:	4501                	c.li	a0,0
    85ac:	ca11                	c.beqz	a2,85c0 <__ascii_mbtowc+0x1c>
    85ae:	5579                	c.li	a0,-2
    85b0:	ca81                	c.beqz	a3,85c0 <__ascii_mbtowc+0x1c>
    85b2:	00064783          	lbu	a5,0(a2)
    85b6:	c19c                	c.sw	a5,0(a1)
    85b8:	00064503          	lbu	a0,0(a2)
    85bc:	00a03533          	sltu	a0,zero,a0
    85c0:	0141                	c.addi	sp,16
    85c2:	8082                	c.jr	ra
    85c4:	4501                	c.li	a0,0
    85c6:	ca19                	c.beqz	a2,85dc <__ascii_mbtowc+0x38>
    85c8:	5579                	c.li	a0,-2
    85ca:	ca89                	c.beqz	a3,85dc <__ascii_mbtowc+0x38>
    85cc:	00064783          	lbu	a5,0(a2)
    85d0:	c19c                	c.sw	a5,0(a1)
    85d2:	00064503          	lbu	a0,0(a2)
    85d6:	00a03533          	sltu	a0,zero,a0
    85da:	8082                	c.jr	ra
    85dc:	8082                	c.jr	ra

000085de <_mbtowc_r>:
    85de:	7d5002ef          	jal	t0,95b2 <__riscv_save_0>
    85e2:	1141                	c.addi	sp,-16
    85e4:	c03a                	c.swsp	a4,0(sp)
    85e6:	82ffa4ab          	lwgp	s1,-2004 # 201d04 <__mbtowc>
    85ea:	842a                	c.mv	s0,a0
    85ec:	c62e                	c.swsp	a1,12(sp)
    85ee:	c432                	c.swsp	a2,8(sp)
    85f0:	c236                	c.swsp	a3,4(sp)
    85f2:	372d                	c.jal	851c <__locale_charset>
    85f4:	4782                	c.lwsp	a5,0(sp)
    85f6:	4692                	c.lwsp	a3,4(sp)
    85f8:	4622                	c.lwsp	a2,8(sp)
    85fa:	45b2                	c.lwsp	a1,12(sp)
    85fc:	872a                	c.mv	a4,a0
    85fe:	8522                	c.mv	a0,s0
    8600:	9482                	c.jalr	s1
    8602:	0141                	c.addi	sp,16
    8604:	7d30006f          	jal	zero,95d6 <__riscv_restore_0>

00008608 <memcpy>:
    8608:	c63d                	c.beqz	a2,8676 <memcpy+0x6e>
    860a:	82aa                	c.mv	t0,a0
    860c:	83b2                	c.mv	t2,a2
    860e:	fe03f313          	andi	t1,t2,-32
    8612:	9316                	c.add	t1,t0
    8614:	02655863          	bge	a0,t1,8644 <memcpy+0x3c>
    8618:	4190                	c.lw	a2,0(a1)
    861a:	41d4                	c.lw	a3,4(a1)
    861c:	4598                	c.lw	a4,8(a1)
    861e:	45dc                	c.lw	a5,12(a1)
    8620:	c110                	c.sw	a2,0(a0)
    8622:	c154                	c.sw	a3,4(a0)
    8624:	c518                	c.sw	a4,8(a0)
    8626:	c55c                	c.sw	a5,12(a0)
    8628:	4990                	c.lw	a2,16(a1)
    862a:	49d4                	c.lw	a3,20(a1)
    862c:	4d98                	c.lw	a4,24(a1)
    862e:	4ddc                	c.lw	a5,28(a1)
    8630:	c910                	c.sw	a2,16(a0)
    8632:	c954                	c.sw	a3,20(a0)
    8634:	cd18                	c.sw	a4,24(a0)
    8636:	cd5c                	c.sw	a5,28(a0)
    8638:	02058593          	addi	a1,a1,32
    863c:	02050513          	addi	a0,a0,32
    8640:	fc654ce3          	blt	a0,t1,8618 <memcpy+0x10>
    8644:	ffc3f313          	andi	t1,t2,-4
    8648:	00530333          	add	t1,t1,t0
    864c:	00655863          	bge	a0,t1,865c <memcpy+0x54>
    8650:	4190                	c.lw	a2,0(a1)
    8652:	0591                	c.addi	a1,4
    8654:	c110                	c.sw	a2,0(a0)
    8656:	0511                	c.addi	a0,4
    8658:	fe654ce3          	blt	a0,t1,8650 <memcpy+0x48>
    865c:	00728333          	add	t1,t0,t2
    8660:	00655a63          	bge	a0,t1,8674 <memcpy+0x6c>
    8664:	0005c603          	lbu	a2,0(a1)
    8668:	0585                	c.addi	a1,1
    866a:	00c50023          	sb	a2,0(a0)
    866e:	0505                	c.addi	a0,1
    8670:	fe654ae3          	blt	a0,t1,8664 <memcpy+0x5c>
    8674:	8516                	c.mv	a0,t0
    8676:	8082                	c.jr	ra
    8678:	0001                	c.addi	zero,0

0000867a <_realloc_r>:
    867a:	71f002ef          	jal	t0,9598 <__riscv_save_4>
    867e:	84b2                	c.mv	s1,a2
    8680:	e981                	c.bnez	a1,8690 <_realloc_r+0x16>
    8682:	85b2                	c.mv	a1,a2
    8684:	ec3fd0ef          	jal	ra,6546 <_malloc_r>
    8688:	842a                	c.mv	s0,a0
    868a:	8522                	c.mv	a0,s0
    868c:	7410006f          	jal	zero,95cc <__riscv_restore_4>
    8690:	e609                	c.bnez	a2,869a <_realloc_r+0x20>
    8692:	4401                	c.li	s0,0
    8694:	e23fd0ef          	jal	ra,64b6 <_free_r>
    8698:	bfcd                	c.j	868a <_realloc_r+0x10>
    869a:	892e                	c.mv	s2,a1
    869c:	89aa                	c.mv	s3,a0
    869e:	844a                	c.mv	s0,s2
    86a0:	2541                	c.jal	8d20 <_malloc_usable_size_r>
    86a2:	fe9574e3          	bgeu	a0,s1,868a <_realloc_r+0x10>
    86a6:	85a6                	c.mv	a1,s1
    86a8:	854e                	c.mv	a0,s3
    86aa:	e9dfd0ef          	jal	ra,6546 <_malloc_r>
    86ae:	842a                	c.mv	s0,a0
    86b0:	dd69                	c.beqz	a0,868a <_realloc_r+0x10>
    86b2:	85ca                	c.mv	a1,s2
    86b4:	8626                	c.mv	a2,s1
    86b6:	3f89                	c.jal	8608 <memcpy>
    86b8:	85ca                	c.mv	a1,s2
    86ba:	854e                	c.mv	a0,s3
    86bc:	dfbfd0ef          	jal	ra,64b6 <_free_r>
    86c0:	b7e9                	c.j	868a <_realloc_r+0x10>

000086c2 <__sccl>:
    86c2:	0005c783          	lbu	a5,0(a1)
    86c6:	882a                	c.mv	a6,a0
    86c8:	43e7d45b          	beqc	a5,94,86f0 <__sccl+0x2e>
    86cc:	00158513          	addi	a0,a1,1
    86d0:	4701                	c.li	a4,0
    86d2:	4681                	c.li	a3,0
    86d4:	10000613          	addi	a2,zero,256
    86d8:	00d805b3          	add	a1,a6,a3
    86dc:	00e58023          	sb	a4,0(a1)
    86e0:	0685                	c.addi	a3,1
    86e2:	fec69be3          	bne	a3,a2,86d8 <__sccl+0x16>
    86e6:	00174613          	xori	a2,a4,1
    86ea:	eb91                	c.bnez	a5,86fe <__sccl+0x3c>
    86ec:	157d                	c.addi	a0,-1
    86ee:	8082                	c.jr	ra
    86f0:	0015c783          	lbu	a5,1(a1)
    86f4:	00258513          	addi	a0,a1,2
    86f8:	4705                	c.li	a4,1
    86fa:	bfe1                	c.j	86d2 <__sccl+0x10>
    86fc:	87ba                	c.mv	a5,a4
    86fe:	00f80733          	add	a4,a6,a5
    8702:	86aa                	c.mv	a3,a0
    8704:	00c70023          	sb	a2,0(a4) # 20400000 <VPE_SKIP+0x1f1cba8f>
    8708:	0006c703          	lbu	a4,0(a3)
    870c:	00168513          	addi	a0,a3,1
    8710:	00d75adb          	beqc	a4,45,8724 <__sccl+0x62>
    8714:	41d7545b          	beqc	a4,93,871c <__sccl+0x5a>
    8718:	f375                	c.bnez	a4,86fc <__sccl+0x3a>
    871a:	8536                	c.mv	a0,a3
    871c:	8082                	c.jr	ra
    871e:	02d00793          	addi	a5,zero,45
    8722:	bff1                	c.j	86fe <__sccl+0x3c>
    8724:	0016c703          	lbu	a4,1(a3)
    8728:	ffd75b5b          	beqc	a4,93,871e <__sccl+0x5c>
    872c:	fef749e3          	blt	a4,a5,871e <__sccl+0x5c>
    8730:	0689                	c.addi	a3,2
    8732:	85be                	c.mv	a1,a5
    8734:	0585                	c.addi	a1,1
    8736:	00b80533          	add	a0,a6,a1
    873a:	00c50023          	sb	a2,0(a0)
    873e:	fee5cbe3          	blt	a1,a4,8734 <__sccl+0x72>
    8742:	00178513          	addi	a0,a5,1 # ffff0001 <__start_addr+0x7ffefff1>
    8746:	4581                	c.li	a1,0
    8748:	00e7d663          	bge	a5,a4,8754 <__sccl+0x92>
    874c:	40f707b3          	sub	a5,a4,a5
    8750:	fff78593          	addi	a1,a5,-1
    8754:	00b507b3          	add	a5,a0,a1
    8758:	bf45                	c.j	8708 <__sccl+0x46>

0000875a <strtol_common>:
    875a:	629002ef          	jal	t0,9582 <__riscv_save_12>
    875e:	8a2a                	c.mv	s4,a0
    8760:	8aae                	c.mv	s5,a1
    8762:	8d32                	c.mv	s10,a2
    8764:	8c36                	c.mv	s8,a3
    8766:	84aa                	c.mv	s1,a0
    8768:	8926                	c.mv	s2,s1
    876a:	0004c403          	lbu	s0,0(s1)
    876e:	0485                	c.addi	s1,1
    8770:	8522                	c.mv	a0,s0
    8772:	2be9                	c.jal	8d4c <nds_isspace>
    8774:	8daa                	c.mv	s11,a0
    8776:	f96d                	c.bnez	a0,8768 <strtol_common+0xe>
    8778:	06d468db          	bnec	s0,45,87e8 <strtol_common+0x8e>
    877c:	0004c403          	lbu	s0,0(s1)
    8780:	4b85                	c.li	s7,1
    8782:	00290493          	addi	s1,s2,2
    8786:	0e0d0663          	beq	s10,zero,8872 <strtol_common+0x118>
    878a:	010d6e5b          	bnec	s10,16,87a6 <strtol_common+0x4c>
    878e:	01046cdb          	bnec	s0,48,87a6 <strtol_common+0x4c>
    8792:	0004c783          	lbu	a5,0(s1)
    8796:	0df7f793          	andi	a5,a5,223
    879a:	4d87e65b          	bnec	a5,88,8866 <strtol_common+0x10c>
    879e:	0014c403          	lbu	s0,1(s1)
    87a2:	4d41                	c.li	s10,16
    87a4:	0489                	c.addi	s1,2
    87a6:	040c0963          	beq	s8,zero,87f8 <strtol_common+0x9e>
    87aa:	5b7d                	c.li	s6,-1
    87ac:	03ab59b3          	divu	s3,s6,s10
    87b0:	03ab7b33          	remu	s6,s6,s10
    87b4:	4901                	c.li	s2,0
    87b6:	5cfd                	c.li	s9,-1
    87b8:	8522                	c.mv	a0,s0
    87ba:	2361                	c.jal	8d42 <nds_isdigit>
    87bc:	c921                	c.beqz	a0,880c <strtol_common+0xb2>
    87be:	fd040413          	addi	s0,s0,-48
    87c2:	07a45163          	bge	s0,s10,8824 <strtol_common+0xca>
    87c6:	019d8d63          	beq	s11,s9,87e0 <strtol_common+0x86>
    87ca:	5dfd                	c.li	s11,-1
    87cc:	0129ea63          	bltu	s3,s2,87e0 <strtol_common+0x86>
    87d0:	01391463          	bne	s2,s3,87d8 <strtol_common+0x7e>
    87d4:	008b4663          	blt	s6,s0,87e0 <strtol_common+0x86>
    87d8:	03a90933          	mul	s2,s2,s10
    87dc:	4d85                	c.li	s11,1
    87de:	9922                	c.add	s2,s0
    87e0:	0485                	c.addi	s1,1
    87e2:	fff4c403          	lbu	s0,-1(s1)
    87e6:	bfc9                	c.j	87b8 <strtol_common+0x5e>
    87e8:	4b81                	c.li	s7,0
    87ea:	b8b46edb          	bnec	s0,43,8786 <strtol_common+0x2c>
    87ee:	0004c403          	lbu	s0,0(s1)
    87f2:	00290493          	addi	s1,s2,2
    87f6:	bf41                	c.j	8786 <strtol_common+0x2c>
    87f8:	800009b7          	lui	s3,0x80000
    87fc:	fff9c993          	xori	s3,s3,-1
    8800:	99de                	c.add	s3,s7
    8802:	03a9fb33          	remu	s6,s3,s10
    8806:	03a9d9b3          	divu	s3,s3,s10
    880a:	b76d                	c.j	87b4 <strtol_common+0x5a>
    880c:	8522                	c.mv	a0,s0
    880e:	231d                	c.jal	8d34 <nds_isalpha>
    8810:	c911                	c.beqz	a0,8824 <strtol_common+0xca>
    8812:	8522                	c.mv	a0,s0
    8814:	23a1                	c.jal	8d5c <nds_isupper>
    8816:	03700793          	addi	a5,zero,55
    881a:	e119                	c.bnez	a0,8820 <strtol_common+0xc6>
    881c:	05700793          	addi	a5,zero,87
    8820:	8c1d                	c.sub	s0,a5
    8822:	b745                	c.j	87c2 <strtol_common+0x68>
    8824:	57fd                	c.li	a5,-1
    8826:	02fd9363          	bne	s11,a5,884c <strtol_common+0xf2>
    882a:	597d                	c.li	s2,-1
    882c:	000c1763          	bne	s8,zero,883a <strtol_common+0xe0>
    8830:	80000937          	lui	s2,0x80000
    8834:	fff94913          	xori	s2,s2,-1
    8838:	995e                	c.add	s2,s7
    883a:	02200713          	addi	a4,zero,34
    883e:	84efc5ab          	swgp	a4,-1976 # 201d20 <__mculib_REENT_errno>
    8842:	000a9d63          	bne	s5,zero,885c <strtol_common+0x102>
    8846:	854a                	c.mv	a0,s2
    8848:	5770006f          	jal	zero,95be <__riscv_restore_12>
    884c:	000b8463          	beq	s7,zero,8854 <strtol_common+0xfa>
    8850:	41200933          	sub	s2,zero,s2
    8854:	fe0a89e3          	beq	s5,zero,8846 <strtol_common+0xec>
    8858:	000d8463          	beq	s11,zero,8860 <strtol_common+0x106>
    885c:	fff48a13          	addi	s4,s1,-1
    8860:	014aa023          	sw	s4,0(s5)
    8864:	b7cd                	c.j	8846 <strtol_common+0xec>
    8866:	03000413          	addi	s0,zero,48
    886a:	f20d1ee3          	bne	s10,zero,87a6 <strtol_common+0x4c>
    886e:	4d21                	c.li	s10,8
    8870:	bf1d                	c.j	87a6 <strtol_common+0x4c>
    8872:	b30450db          	beqc	s0,48,8792 <strtol_common+0x38>
    8876:	4d29                	c.li	s10,10
    8878:	b73d                	c.j	87a6 <strtol_common+0x4c>

0000887a <_strtol_r>:
    887a:	813faeab          	lwgp	t4,-2032 # 201ce8 <__ctype_ptr__>
    887e:	872e                	c.mv	a4,a1
    8880:	853a                	c.mv	a0,a4
    8882:	00074783          	lbu	a5,0(a4)
    8886:	0705                	c.addi	a4,1
    8888:	00fe8833          	add	a6,t4,a5
    888c:	00184803          	lbu	a6,1(a6)
    8890:	fe38785b          	bbs	a6,3,8880 <_strtol_r+0x6>
    8894:	06d7eddb          	bnec	a5,45,890e <_strtol_r+0x94>
    8898:	00074783          	lbu	a5,0(a4)
    889c:	4e05                	c.li	t3,1
    889e:	00250713          	addi	a4,a0,2
    88a2:	c6e9                	c.beqz	a3,896c <_strtol_r+0xf2>
    88a4:	0106ee5b          	bnec	a3,16,88c0 <_strtol_r+0x46>
    88a8:	0107ecdb          	bnec	a5,48,88c0 <_strtol_r+0x46>
    88ac:	00074783          	lbu	a5,0(a4)
    88b0:	0df7f793          	andi	a5,a5,223
    88b4:	4b87e75b          	bnec	a5,88,8962 <_strtol_r+0xe8>
    88b8:	00174783          	lbu	a5,1(a4)
    88bc:	46c1                	c.li	a3,16
    88be:	0709                	c.addi	a4,2
    88c0:	80000837          	lui	a6,0x80000
    88c4:	fff84813          	xori	a6,a6,-1
    88c8:	9872                	c.add	a6,t3
    88ca:	02d872b3          	remu	t0,a6,a3
    88ce:	4881                	c.li	a7,0
    88d0:	4501                	c.li	a0,0
    88d2:	53fd                	c.li	t2,-1
    88d4:	02d85f33          	divu	t5,a6,a3
    88d8:	00fe8333          	add	t1,t4,a5
    88dc:	00134303          	lbu	t1,1(t1)
    88e0:	02237f5b          	bbc	t1,2,891e <_strtol_r+0xa4>
    88e4:	fd078793          	addi	a5,a5,-48
    88e8:	04d7d863          	bge	a5,a3,8938 <_strtol_r+0xbe>
    88ec:	00788d63          	beq	a7,t2,8906 <_strtol_r+0x8c>
    88f0:	58fd                	c.li	a7,-1
    88f2:	00af6a63          	bltu	t5,a0,8906 <_strtol_r+0x8c>
    88f6:	01e51463          	bne	a0,t5,88fe <_strtol_r+0x84>
    88fa:	00f2c663          	blt	t0,a5,8906 <_strtol_r+0x8c>
    88fe:	02a68533          	mul	a0,a3,a0
    8902:	4885                	c.li	a7,1
    8904:	953e                	c.add	a0,a5
    8906:	0705                	c.addi	a4,1
    8908:	fff74783          	lbu	a5,-1(a4)
    890c:	b7f1                	c.j	88d8 <_strtol_r+0x5e>
    890e:	4e01                	c.li	t3,0
    8910:	b8b7e9db          	bnec	a5,43,88a2 <_strtol_r+0x28>
    8914:	00074783          	lbu	a5,0(a4)
    8918:	00250713          	addi	a4,a0,2
    891c:	b759                	c.j	88a2 <_strtol_r+0x28>
    891e:	00337313          	andi	t1,t1,3
    8922:	00030b63          	beq	t1,zero,8938 <_strtol_r+0xbe>
    8926:	03700f93          	addi	t6,zero,55
    892a:	0013545b          	beqc	t1,1,8932 <_strtol_r+0xb8>
    892e:	05700f93          	addi	t6,zero,87
    8932:	41f787b3          	sub	a5,a5,t6
    8936:	bf4d                	c.j	88e8 <_strtol_r+0x6e>
    8938:	57fd                	c.li	a5,-1
    893a:	00f89963          	bne	a7,a5,894c <_strtol_r+0xd2>
    893e:	02200693          	addi	a3,zero,34
    8942:	84dfc5ab          	swgp	a3,-1976 # 201d20 <__mculib_REENT_errno>
    8946:	8542                	c.mv	a0,a6
    8948:	ea09                	c.bnez	a2,895a <_strtol_r+0xe0>
    894a:	8082                	c.jr	ra
    894c:	000e0463          	beq	t3,zero,8954 <_strtol_r+0xda>
    8950:	40a00533          	sub	a0,zero,a0
    8954:	c205                	c.beqz	a2,8974 <_strtol_r+0xfa>
    8956:	00088463          	beq	a7,zero,895e <_strtol_r+0xe4>
    895a:	fff70593          	addi	a1,a4,-1
    895e:	c20c                	c.sw	a1,0(a2)
    8960:	8082                	c.jr	ra
    8962:	03000793          	addi	a5,zero,48
    8966:	fea9                	c.bnez	a3,88c0 <_strtol_r+0x46>
    8968:	46a1                	c.li	a3,8
    896a:	bf99                	c.j	88c0 <_strtol_r+0x46>
    896c:	b507d0db          	beqc	a5,48,88ac <_strtol_r+0x32>
    8970:	46a9                	c.li	a3,10
    8972:	b7b9                	c.j	88c0 <_strtol_r+0x46>
    8974:	8082                	c.jr	ra

00008976 <_strtoll_r>:
    8976:	415002ef          	jal	t0,958a <__riscv_save_10>
    897a:	813facab          	lwgp	s9,-2032 # 201ce8 <__ctype_ptr__>
    897e:	8a2e                	c.mv	s4,a1
    8980:	8ab2                	c.mv	s5,a2
    8982:	8936                	c.mv	s2,a3
    8984:	842e                	c.mv	s0,a1
    8986:	87a2                	c.mv	a5,s0
    8988:	00044483          	lbu	s1,0(s0)
    898c:	0405                	c.addi	s0,1
    898e:	009c8733          	add	a4,s9,s1
    8992:	00174703          	lbu	a4,1(a4)
    8996:	fe37785b          	bbs	a4,3,8986 <_strtoll_r+0x10>
    899a:	0cd4e4db          	bnec	s1,45,8a62 <_strtoll_r+0xec>
    899e:	00044483          	lbu	s1,0(s0)
    89a2:	4b05                	c.li	s6,1
    89a4:	00278413          	addi	s0,a5,2
    89a8:	12090663          	beq	s2,zero,8ad4 <_strtoll_r+0x15e>
    89ac:	01096e5b          	bnec	s2,16,89c8 <_strtoll_r+0x52>
    89b0:	0104ecdb          	bnec	s1,48,89c8 <_strtoll_r+0x52>
    89b4:	00044783          	lbu	a5,0(s0)
    89b8:	0df7f793          	andi	a5,a5,223
    89bc:	5187e65b          	bnec	a5,88,8ac8 <_strtoll_r+0x152>
    89c0:	00144483          	lbu	s1,1(s0)
    89c4:	4941                	c.li	s2,16
    89c6:	0409                	c.addi	s0,2
    89c8:	800009b7          	lui	s3,0x80000
    89cc:	fff9c993          	xori	s3,s3,-1
    89d0:	fffb0b93          	addi	s7,s6,-1
    89d4:	99da                	c.add	s3,s6
    89d6:	41f95d13          	srai	s10,s2,0x1f
    89da:	864a                	c.mv	a2,s2
    89dc:	86ea                	c.mv	a3,s10
    89de:	855e                	c.mv	a0,s7
    89e0:	85ce                	c.mv	a1,s3
    89e2:	013000ef          	jal	ra,91f4 <__umoddi3>
    89e6:	864a                	c.mv	a2,s2
    89e8:	8c2a                	c.mv	s8,a0
    89ea:	86ea                	c.mv	a3,s10
    89ec:	855e                	c.mv	a0,s7
    89ee:	85ce                	c.mv	a1,s3
    89f0:	2991                	c.jal	8e44 <__udivdi3>
    89f2:	4801                	c.li	a6,0
    89f4:	88aa                	c.mv	a7,a0
    89f6:	872e                	c.mv	a4,a1
    89f8:	4501                	c.li	a0,0
    89fa:	4581                	c.li	a1,0
    89fc:	537d                	c.li	t1,-1
    89fe:	009c87b3          	add	a5,s9,s1
    8a02:	0017c683          	lbu	a3,1(a5)
    8a06:	0626f65b          	bbc	a3,2,8a72 <_strtoll_r+0xfc>
    8a0a:	fd048493          	addi	s1,s1,-48
    8a0e:	0724de63          	bge	s1,s2,8a8a <_strtoll_r+0x114>
    8a12:	04680463          	beq	a6,t1,8a5a <_strtoll_r+0xe4>
    8a16:	06b76863          	bltu	a4,a1,8a86 <_strtoll_r+0x110>
    8a1a:	00e59463          	bne	a1,a4,8a22 <_strtoll_r+0xac>
    8a1e:	06a8e463          	bltu	a7,a0,8a86 <_strtoll_r+0x110>
    8a22:	01151763          	bne	a0,a7,8a30 <_strtoll_r+0xba>
    8a26:	00e59563          	bne	a1,a4,8a30 <_strtoll_r+0xba>
    8a2a:	587d                	c.li	a6,-1
    8a2c:	029c4763          	blt	s8,s1,8a5a <_strtoll_r+0xe4>
    8a30:	02ad0633          	mul	a2,s10,a0
    8a34:	032587b3          	mul	a5,a1,s2
    8a38:	02a906b3          	mul	a3,s2,a0
    8a3c:	4805                	c.li	a6,1
    8a3e:	00f605b3          	add	a1,a2,a5
    8a42:	02a937b3          	mulhu	a5,s2,a0
    8a46:	00d48533          	add	a0,s1,a3
    8a4a:	95be                	c.add	a1,a5
    8a4c:	41f4d793          	srai	a5,s1,0x1f
    8a50:	97ae                	c.add	a5,a1
    8a52:	009534b3          	sltu	s1,a0,s1
    8a56:	00f485b3          	add	a1,s1,a5
    8a5a:	0405                	c.addi	s0,1
    8a5c:	fff44483          	lbu	s1,-1(s0)
    8a60:	bf79                	c.j	89fe <_strtoll_r+0x88>
    8a62:	4b01                	c.li	s6,0
    8a64:	b4b4e2db          	bnec	s1,43,89a8 <_strtoll_r+0x32>
    8a68:	00044483          	lbu	s1,0(s0)
    8a6c:	00278413          	addi	s0,a5,2
    8a70:	bf25                	c.j	89a8 <_strtoll_r+0x32>
    8a72:	8a8d                	c.andi	a3,3
    8a74:	ca99                	c.beqz	a3,8a8a <_strtoll_r+0x114>
    8a76:	03700793          	addi	a5,zero,55
    8a7a:	0016d45b          	beqc	a3,1,8a82 <_strtoll_r+0x10c>
    8a7e:	05700793          	addi	a5,zero,87
    8a82:	8c9d                	c.sub	s1,a5
    8a84:	b769                	c.j	8a0e <_strtoll_r+0x98>
    8a86:	587d                	c.li	a6,-1
    8a88:	bfc9                	c.j	8a5a <_strtoll_r+0xe4>
    8a8a:	57fd                	c.li	a5,-1
    8a8c:	00f81c63          	bne	a6,a5,8aa4 <_strtoll_r+0x12e>
    8a90:	02200713          	addi	a4,zero,34
    8a94:	84efc5ab          	swgp	a4,-1976 # 201d20 <__mculib_REENT_errno>
    8a98:	855e                	c.mv	a0,s7
    8a9a:	85ce                	c.mv	a1,s3
    8a9c:	020a9163          	bne	s5,zero,8abe <_strtoll_r+0x148>
    8aa0:	3230006f          	jal	zero,95c2 <__riscv_restore_10>
    8aa4:	000b0963          	beq	s6,zero,8ab6 <_strtoll_r+0x140>
    8aa8:	00a037b3          	sltu	a5,zero,a0
    8aac:	40b005b3          	sub	a1,zero,a1
    8ab0:	8d9d                	c.sub	a1,a5
    8ab2:	40a00533          	sub	a0,zero,a0
    8ab6:	fe0a85e3          	beq	s5,zero,8aa0 <_strtoll_r+0x12a>
    8aba:	00080463          	beq	a6,zero,8ac2 <_strtoll_r+0x14c>
    8abe:	fff40a13          	addi	s4,s0,-1
    8ac2:	014aa023          	sw	s4,0(s5)
    8ac6:	bfe9                	c.j	8aa0 <_strtoll_r+0x12a>
    8ac8:	03000493          	addi	s1,zero,48
    8acc:	ee091ee3          	bne	s2,zero,89c8 <_strtoll_r+0x52>
    8ad0:	4921                	c.li	s2,8
    8ad2:	bddd                	c.j	89c8 <_strtoll_r+0x52>
    8ad4:	af04d0db          	beqc	s1,48,89b4 <_strtoll_r+0x3e>
    8ad8:	4929                	c.li	s2,10
    8ada:	b5fd                	c.j	89c8 <_strtoll_r+0x52>

00008adc <_strtoul_r>:
    8adc:	813fae2b          	lwgp	t3,-2032 # 201ce8 <__ctype_ptr__>
    8ae0:	872e                	c.mv	a4,a1
    8ae2:	853a                	c.mv	a0,a4
    8ae4:	00074783          	lbu	a5,0(a4)
    8ae8:	0705                	c.addi	a4,1
    8aea:	00fe0833          	add	a6,t3,a5
    8aee:	00184803          	lbu	a6,1(a6) # 80000001 <__start_addr+0xfffffff1>
    8af2:	fe38785b          	bbs	a6,3,8ae2 <_strtoul_r+0x6>
    8af6:	06d7e8db          	bnec	a5,45,8b66 <_strtoul_r+0x8a>
    8afa:	00074783          	lbu	a5,0(a4)
    8afe:	4e85                	c.li	t4,1
    8b00:	00250713          	addi	a4,a0,2
    8b04:	c2e9                	c.beqz	a3,8bc6 <_strtoul_r+0xea>
    8b06:	0106ee5b          	bnec	a3,16,8b22 <_strtoul_r+0x46>
    8b0a:	0107ecdb          	bnec	a5,48,8b22 <_strtoul_r+0x46>
    8b0e:	00074783          	lbu	a5,0(a4)
    8b12:	0df7f793          	andi	a5,a5,223
    8b16:	4b87e35b          	bnec	a5,88,8bbc <_strtoul_r+0xe0>
    8b1a:	00174783          	lbu	a5,1(a4)
    8b1e:	46c1                	c.li	a3,16
    8b20:	0709                	c.addi	a4,2
    8b22:	557d                	c.li	a0,-1
    8b24:	02d55f33          	divu	t5,a0,a3
    8b28:	4801                	c.li	a6,0
    8b2a:	02d57333          	remu	t1,a0,a3
    8b2e:	4501                	c.li	a0,0
    8b30:	00fe08b3          	add	a7,t3,a5
    8b34:	0018c883          	lbu	a7,1(a7)
    8b38:	0228ff5b          	bbc	a7,2,8b76 <_strtoul_r+0x9a>
    8b3c:	fd078793          	addi	a5,a5,-48
    8b40:	04d7da63          	bge	a5,a3,8b94 <_strtoul_r+0xb8>
    8b44:	04084663          	blt	a6,zero,8b90 <_strtoul_r+0xb4>
    8b48:	587d                	c.li	a6,-1
    8b4a:	00af6a63          	bltu	t5,a0,8b5e <_strtoul_r+0x82>
    8b4e:	01e51463          	bne	a0,t5,8b56 <_strtoul_r+0x7a>
    8b52:	00f34663          	blt	t1,a5,8b5e <_strtoul_r+0x82>
    8b56:	02a68533          	mul	a0,a3,a0
    8b5a:	4805                	c.li	a6,1
    8b5c:	953e                	c.add	a0,a5
    8b5e:	0705                	c.addi	a4,1
    8b60:	fff74783          	lbu	a5,-1(a4)
    8b64:	b7f1                	c.j	8b30 <_strtoul_r+0x54>
    8b66:	4e81                	c.li	t4,0
    8b68:	b8b7eedb          	bnec	a5,43,8b04 <_strtoul_r+0x28>
    8b6c:	00074783          	lbu	a5,0(a4)
    8b70:	00250713          	addi	a4,a0,2
    8b74:	bf41                	c.j	8b04 <_strtoul_r+0x28>
    8b76:	0038f893          	andi	a7,a7,3
    8b7a:	00088d63          	beq	a7,zero,8b94 <_strtoul_r+0xb8>
    8b7e:	03700f93          	addi	t6,zero,55
    8b82:	0018d45b          	beqc	a7,1,8b8a <_strtoul_r+0xae>
    8b86:	05700f93          	addi	t6,zero,87
    8b8a:	41f787b3          	sub	a5,a5,t6
    8b8e:	bf4d                	c.j	8b40 <_strtoul_r+0x64>
    8b90:	587d                	c.li	a6,-1
    8b92:	b7f1                	c.j	8b5e <_strtoul_r+0x82>
    8b94:	00085963          	bge	a6,zero,8ba6 <_strtoul_r+0xca>
    8b98:	02200693          	addi	a3,zero,34
    8b9c:	84dfc5ab          	swgp	a3,-1976 # 201d20 <__mculib_REENT_errno>
    8ba0:	557d                	c.li	a0,-1
    8ba2:	ea09                	c.bnez	a2,8bb4 <_strtoul_r+0xd8>
    8ba4:	8082                	c.jr	ra
    8ba6:	000e8463          	beq	t4,zero,8bae <_strtoul_r+0xd2>
    8baa:	40a00533          	sub	a0,zero,a0
    8bae:	c205                	c.beqz	a2,8bce <_strtoul_r+0xf2>
    8bb0:	00080463          	beq	a6,zero,8bb8 <_strtoul_r+0xdc>
    8bb4:	fff70593          	addi	a1,a4,-1
    8bb8:	c20c                	c.sw	a1,0(a2)
    8bba:	8082                	c.jr	ra
    8bbc:	03000793          	addi	a5,zero,48
    8bc0:	f2ad                	c.bnez	a3,8b22 <_strtoul_r+0x46>
    8bc2:	46a1                	c.li	a3,8
    8bc4:	bfb9                	c.j	8b22 <_strtoul_r+0x46>
    8bc6:	b507d4db          	beqc	a5,48,8b0e <_strtoul_r+0x32>
    8bca:	46a9                	c.li	a3,10
    8bcc:	bf99                	c.j	8b22 <_strtoul_r+0x46>
    8bce:	8082                	c.jr	ra

00008bd0 <_strtoull_r>:
    8bd0:	1bb002ef          	jal	t0,958a <__riscv_save_10>
    8bd4:	813fabab          	lwgp	s7,-2032 # 201ce8 <__ctype_ptr__>
    8bd8:	8aae                	c.mv	s5,a1
    8bda:	8b32                	c.mv	s6,a2
    8bdc:	8936                	c.mv	s2,a3
    8bde:	842e                	c.mv	s0,a1
    8be0:	87a2                	c.mv	a5,s0
    8be2:	00044483          	lbu	s1,0(s0)
    8be6:	0405                	c.addi	s0,1
    8be8:	009b8733          	add	a4,s7,s1
    8bec:	00174703          	lbu	a4,1(a4)
    8bf0:	fe37785b          	bbs	a4,3,8be0 <_strtoull_r+0x10>
    8bf4:	0ad4ebdb          	bnec	s1,45,8caa <_strtoull_r+0xda>
    8bf8:	00044483          	lbu	s1,0(s0)
    8bfc:	4c05                	c.li	s8,1
    8bfe:	00278413          	addi	s0,a5,2
    8c02:	10090b63          	beq	s2,zero,8d18 <_strtoull_r+0x148>
    8c06:	01096e5b          	bnec	s2,16,8c22 <_strtoull_r+0x52>
    8c0a:	0104ecdb          	bnec	s1,48,8c22 <_strtoull_r+0x52>
    8c0e:	00044783          	lbu	a5,0(s0)
    8c12:	0df7f793          	andi	a5,a5,223
    8c16:	4f87eb5b          	bnec	a5,88,8d0c <_strtoull_r+0x13c>
    8c1a:	00144483          	lbu	s1,1(s0)
    8c1e:	4941                	c.li	s2,16
    8c20:	0409                	c.addi	s0,2
    8c22:	41f95c93          	srai	s9,s2,0x1f
    8c26:	864a                	c.mv	a2,s2
    8c28:	86e6                	c.mv	a3,s9
    8c2a:	557d                	c.li	a0,-1
    8c2c:	55fd                	c.li	a1,-1
    8c2e:	2c19                	c.jal	8e44 <__udivdi3>
    8c30:	864a                	c.mv	a2,s2
    8c32:	8a2a                	c.mv	s4,a0
    8c34:	89ae                	c.mv	s3,a1
    8c36:	86e6                	c.mv	a3,s9
    8c38:	557d                	c.li	a0,-1
    8c3a:	55fd                	c.li	a1,-1
    8c3c:	2b65                	c.jal	91f4 <__umoddi3>
    8c3e:	4701                	c.li	a4,0
    8c40:	882a                	c.mv	a6,a0
    8c42:	4581                	c.li	a1,0
    8c44:	4501                	c.li	a0,0
    8c46:	009b87b3          	add	a5,s7,s1
    8c4a:	0017c603          	lbu	a2,1(a5)
    8c4e:	0626765b          	bbc	a2,2,8cba <_strtoull_r+0xea>
    8c52:	fd048493          	addi	s1,s1,-48
    8c56:	0724de63          	bge	s1,s2,8cd2 <_strtoull_r+0x102>
    8c5a:	06074a63          	blt	a4,zero,8cce <_strtoull_r+0xfe>
    8c5e:	06b9e863          	bltu	s3,a1,8cce <_strtoull_r+0xfe>
    8c62:	01359463          	bne	a1,s3,8c6a <_strtoull_r+0x9a>
    8c66:	06aa6463          	bltu	s4,a0,8cce <_strtoull_r+0xfe>
    8c6a:	01451763          	bne	a0,s4,8c78 <_strtoull_r+0xa8>
    8c6e:	01359563          	bne	a1,s3,8c78 <_strtoull_r+0xa8>
    8c72:	577d                	c.li	a4,-1
    8c74:	02984763          	blt	a6,s1,8ca2 <_strtoull_r+0xd2>
    8c78:	02ac8733          	mul	a4,s9,a0
    8c7c:	032587b3          	mul	a5,a1,s2
    8c80:	02a906b3          	mul	a3,s2,a0
    8c84:	02a93533          	mulhu	a0,s2,a0
    8c88:	00f705b3          	add	a1,a4,a5
    8c8c:	41f4d793          	srai	a5,s1,0x1f
    8c90:	95aa                	c.add	a1,a0
    8c92:	00d48533          	add	a0,s1,a3
    8c96:	009534b3          	sltu	s1,a0,s1
    8c9a:	97ae                	c.add	a5,a1
    8c9c:	00f485b3          	add	a1,s1,a5
    8ca0:	4705                	c.li	a4,1
    8ca2:	0405                	c.addi	s0,1
    8ca4:	fff44483          	lbu	s1,-1(s0)
    8ca8:	bf79                	c.j	8c46 <_strtoull_r+0x76>
    8caa:	4c01                	c.li	s8,0
    8cac:	b4b4ebdb          	bnec	s1,43,8c02 <_strtoull_r+0x32>
    8cb0:	00044483          	lbu	s1,0(s0)
    8cb4:	00278413          	addi	s0,a5,2
    8cb8:	b7a9                	c.j	8c02 <_strtoull_r+0x32>
    8cba:	8a0d                	c.andi	a2,3
    8cbc:	ca19                	c.beqz	a2,8cd2 <_strtoull_r+0x102>
    8cbe:	03700793          	addi	a5,zero,55
    8cc2:	0016545b          	beqc	a2,1,8cca <_strtoull_r+0xfa>
    8cc6:	05700793          	addi	a5,zero,87
    8cca:	8c9d                	c.sub	s1,a5
    8ccc:	b769                	c.j	8c56 <_strtoull_r+0x86>
    8cce:	577d                	c.li	a4,-1
    8cd0:	bfc9                	c.j	8ca2 <_strtoull_r+0xd2>
    8cd2:	00075c63          	bge	a4,zero,8cea <_strtoull_r+0x11a>
    8cd6:	02200713          	addi	a4,zero,34
    8cda:	84efc5ab          	swgp	a4,-1976 # 201d20 <__mculib_REENT_errno>
    8cde:	557d                	c.li	a0,-1
    8ce0:	55fd                	c.li	a1,-1
    8ce2:	020b1063          	bne	s6,zero,8d02 <_strtoull_r+0x132>
    8ce6:	0dd0006f          	jal	zero,95c2 <__riscv_restore_10>
    8cea:	000c0963          	beq	s8,zero,8cfc <_strtoull_r+0x12c>
    8cee:	00a036b3          	sltu	a3,zero,a0
    8cf2:	40b005b3          	sub	a1,zero,a1
    8cf6:	8d95                	c.sub	a1,a3
    8cf8:	40a00533          	sub	a0,zero,a0
    8cfc:	fe0b05e3          	beq	s6,zero,8ce6 <_strtoull_r+0x116>
    8d00:	c319                	c.beqz	a4,8d06 <_strtoull_r+0x136>
    8d02:	fff40a93          	addi	s5,s0,-1
    8d06:	015b2023          	sw	s5,0(s6)
    8d0a:	bff1                	c.j	8ce6 <_strtoull_r+0x116>
    8d0c:	03000493          	addi	s1,zero,48
    8d10:	f00919e3          	bne	s2,zero,8c22 <_strtoull_r+0x52>
    8d14:	4921                	c.li	s2,8
    8d16:	b731                	c.j	8c22 <_strtoull_r+0x52>
    8d18:	af04dbdb          	beqc	s1,48,8c0e <_strtoull_r+0x3e>
    8d1c:	4929                	c.li	s2,10
    8d1e:	b711                	c.j	8c22 <_strtoull_r+0x52>

00008d20 <_malloc_usable_size_r>:
    8d20:	ffc5a783          	lw	a5,-4(a1)
    8d24:	ffc78513          	addi	a0,a5,-4
    8d28:	0007d563          	bge	a5,zero,8d32 <_malloc_usable_size_r+0x12>
    8d2c:	95aa                	c.add	a1,a0
    8d2e:	419c                	c.lw	a5,0(a1)
    8d30:	953e                	c.add	a0,a5
    8d32:	8082                	c.jr	ra

00008d34 <nds_isalpha>:
    8d34:	fdf57513          	andi	a0,a0,-33
    8d38:	fbf50513          	addi	a0,a0,-65
    8d3c:	01a53513          	sltiu	a0,a0,26
    8d40:	8082                	c.jr	ra

00008d42 <nds_isdigit>:
    8d42:	fd050513          	addi	a0,a0,-48
    8d46:	00a53513          	sltiu	a0,a0,10
    8d4a:	8082                	c.jr	ra

00008d4c <nds_isspace>:
    8d4c:	000556db          	beqc	a0,32,8d58 <nds_isspace+0xc>
    8d50:	155d                	c.addi	a0,-9
    8d52:	00553513          	sltiu	a0,a0,5
    8d56:	8082                	c.jr	ra
    8d58:	4505                	c.li	a0,1
    8d5a:	8082                	c.jr	ra

00008d5c <nds_isupper>:
    8d5c:	fbf50513          	addi	a0,a0,-65
    8d60:	01a53513          	sltiu	a0,a0,26
    8d64:	8082                	c.jr	ra

00008d66 <_close>:
    8d66:	03900893          	addi	a7,zero,57
    8d6a:	00000073          	ecall
    8d6e:	00055763          	bge	a0,zero,8d7c <_close+0x16>
    8d72:	40a00533          	sub	a0,zero,a0
    8d76:	84afc5ab          	swgp	a0,-1976 # 201d20 <__mculib_REENT_errno>
    8d7a:	557d                	c.li	a0,-1
    8d7c:	8082                	c.jr	ra

00008d7e <close>:
    8d7e:	b7e5                	c.j	8d66 <_close>

00008d80 <_lseek>:
    8d80:	03e00893          	addi	a7,zero,62
    8d84:	00000073          	ecall
    8d88:	00055763          	bge	a0,zero,8d96 <_lseek+0x16>
    8d8c:	40a00533          	sub	a0,zero,a0
    8d90:	84afc5ab          	swgp	a0,-1976 # 201d20 <__mculib_REENT_errno>
    8d94:	557d                	c.li	a0,-1
    8d96:	8082                	c.jr	ra

00008d98 <lseek>:
    8d98:	b7e5                	c.j	8d80 <_lseek>

00008d9a <_read>:
    8d9a:	03f00893          	addi	a7,zero,63
    8d9e:	00000073          	ecall
    8da2:	00055763          	bge	a0,zero,8db0 <_read+0x16>
    8da6:	40a00533          	sub	a0,zero,a0
    8daa:	84afc5ab          	swgp	a0,-1976 # 201d20 <__mculib_REENT_errno>
    8dae:	557d                	c.li	a0,-1
    8db0:	8082                	c.jr	ra

00008db2 <read>:
    8db2:	b7e5                	c.j	8d9a <_read>

00008db4 <_sbrk>:
    8db4:	897fa72b          	lwgp	a4,-1900 # 201d6c <heap_end.0>
    8db8:	e709                	c.bnez	a4,8dc2 <_sbrk+0xe>
    8dba:	ac9f970b          	addigp	a4,-1336 # 201fa0 <_end>
    8dbe:	88efcbab          	swgp	a4,-1900 # 201d6c <heap_end.0>
    8dc2:	897fa6ab          	lwgp	a3,-1900 # 201d6c <heap_end.0>
    8dc6:	00d50733          	add	a4,a0,a3
    8dca:	00e17763          	bgeu	sp,a4,8dd8 <_sbrk+0x24>
    8dce:	4731                	c.li	a4,12
    8dd0:	557d                	c.li	a0,-1
    8dd2:	84efc5ab          	swgp	a4,-1976 # 201d20 <__mculib_REENT_errno>
    8dd6:	8082                	c.jr	ra
    8dd8:	8536                	c.mv	a0,a3
    8dda:	88efcbab          	swgp	a4,-1900 # 201d6c <heap_end.0>
    8dde:	8082                	c.jr	ra

00008de0 <sbrk>:
    8de0:	bfd1                	c.j	8db4 <_sbrk>
	...

00008de4 <__lshrdi3>:
    8de4:	87ae                	c.mv	a5,a1
    8de6:	c60d                	c.beqz	a2,8e10 <__lshrdi3+0x2c>
    8de8:	02000593          	addi	a1,zero,32
    8dec:	8d91                	c.sub	a1,a2
    8dee:	00b05b63          	bge	zero,a1,8e04 <__lshrdi3+0x20>
    8df2:	00b79733          	sll	a4,a5,a1
    8df6:	00c55533          	srl	a0,a0,a2
    8dfa:	00c7d5b3          	srl	a1,a5,a2
    8dfe:	8d59                	c.or	a0,a4
    8e00:	00008067          	jalr	zero,0(ra)
    8e04:	fe060513          	addi	a0,a2,-32
    8e08:	4581                	c.li	a1,0
    8e0a:	00a7d533          	srl	a0,a5,a0
    8e0e:	8082                	c.jr	ra
    8e10:	8082                	c.jr	ra
    8e12:	0001                	c.addi	zero,0

00008e14 <__ashldi3>:
    8e14:	87aa                	c.mv	a5,a0
    8e16:	c60d                	c.beqz	a2,8e40 <__ashldi3+0x2c>
    8e18:	02000713          	addi	a4,zero,32
    8e1c:	8f11                	c.sub	a4,a2
    8e1e:	00e05b63          	bge	zero,a4,8e34 <__ashldi3+0x20>
    8e22:	00e55733          	srl	a4,a0,a4
    8e26:	00c595b3          	sll	a1,a1,a2
    8e2a:	00c51533          	sll	a0,a0,a2
    8e2e:	8dd9                	c.or	a1,a4
    8e30:	00008067          	jalr	zero,0(ra)
    8e34:	fe060593          	addi	a1,a2,-32
    8e38:	4501                	c.li	a0,0
    8e3a:	00b795b3          	sll	a1,a5,a1
    8e3e:	8082                	c.jr	ra
    8e40:	8082                	c.jr	ra
    8e42:	0001                	c.addi	zero,0

00008e44 <__udivdi3>:
    8e44:	8e36                	c.mv	t3,a3
    8e46:	88b2                	c.mv	a7,a2
    8e48:	832a                	c.mv	t1,a0
    8e4a:	882e                	c.mv	a6,a1
    8e4c:	eec5                	c.bnez	a3,8f04 <__udivdi3+0xc0>
    8e4e:	0ec5ff63          	bgeu	a1,a2,8f4c <__udivdi3+0x108>
    8e52:	67c1                	c.lui	a5,0x10
    8e54:	1af66a63          	bltu	a2,a5,9008 <__udivdi3+0x1c4>
    8e58:	010007b7          	lui	a5,0x1000
    8e5c:	36f66463          	bltu	a2,a5,91c4 <__udivdi3+0x380>
    8e60:	01865713          	srli	a4,a2,0x18
    8e64:	01800e13          	addi	t3,zero,24
    8e68:	b6cd978b          	addigp	a5,-7316 # 200844 <__clz_tab>
    8e6c:	97ba                	c.add	a5,a4
    8e6e:	0007c783          	lbu	a5,0(a5) # 1000000 <__SHAREDATA_BASE+0xd00000>
    8e72:	02000713          	addi	a4,zero,32
    8e76:	9e3e                	c.add	t3,a5
    8e78:	41c707b3          	sub	a5,a4,t3
    8e7c:	01c70c63          	beq	a4,t3,8e94 <__udivdi3+0x50>
    8e80:	00f59833          	sll	a6,a1,a5
    8e84:	01c55e33          	srl	t3,a0,t3
    8e88:	00f618b3          	sll	a7,a2,a5
    8e8c:	010e6833          	or	a6,t3,a6
    8e90:	00f51333          	sll	t1,a0,a5
    8e94:	0108d593          	srli	a1,a7,0x10
    8e98:	02b85533          	divu	a0,a6,a1
    8e9c:	3c08a6db          	bfoz	a3,a7,15,0
    8ea0:	01035793          	srli	a5,t1,0x10
    8ea4:	02b87733          	remu	a4,a6,a1
    8ea8:	02a68633          	mul	a2,a3,a0
    8eac:	0742                	c.slli	a4,0x10
    8eae:	00f76833          	or	a6,a4,a5
    8eb2:	00c87b63          	bgeu	a6,a2,8ec8 <__udivdi3+0x84>
    8eb6:	9846                	c.add	a6,a7
    8eb8:	fff50793          	addi	a5,a0,-1
    8ebc:	01186463          	bltu	a6,a7,8ec4 <__udivdi3+0x80>
    8ec0:	32c86263          	bltu	a6,a2,91e4 <__udivdi3+0x3a0>
    8ec4:	00078513          	addi	a0,a5,0
    8ec8:	40c80833          	sub	a6,a6,a2
    8ecc:	02b85633          	divu	a2,a6,a1
    8ed0:	3c03235b          	bfoz	t1,t1,15,0
    8ed4:	02b87833          	remu	a6,a6,a1
    8ed8:	02c686b3          	mul	a3,a3,a2
    8edc:	0842                	c.slli	a6,0x10
    8ede:	00686833          	or	a6,a6,t1
    8ee2:	00d87d63          	bgeu	a6,a3,8efc <__udivdi3+0xb8>
    8ee6:	9846                	c.add	a6,a7
    8ee8:	fff60793          	addi	a5,a2,-1
    8eec:	01186663          	bltu	a6,a7,8ef8 <__udivdi3+0xb4>
    8ef0:	ffe60613          	addi	a2,a2,-2
    8ef4:	00d86463          	bltu	a6,a3,8efc <__udivdi3+0xb8>
    8ef8:	00078613          	addi	a2,a5,0
    8efc:	0542                	c.slli	a0,0x10
    8efe:	8d51                	c.or	a0,a2
    8f00:	4581                	c.li	a1,0
    8f02:	8082                	c.jr	ra
    8f04:	00d5f663          	bgeu	a1,a3,8f10 <__udivdi3+0xcc>
    8f08:	4581                	c.li	a1,0
    8f0a:	4501                	c.li	a0,0
    8f0c:	00008067          	jalr	zero,0(ra)
    8f10:	67c1                	c.lui	a5,0x10
    8f12:	10f6e563          	bltu	a3,a5,901c <__udivdi3+0x1d8>
    8f16:	010007b7          	lui	a5,0x1000
    8f1a:	28f6e963          	bltu	a3,a5,91ac <__udivdi3+0x368>
    8f1e:	0186d813          	srli	a6,a3,0x18
    8f22:	4761                	c.li	a4,24
    8f24:	b6cd978b          	addigp	a5,-7316 # 200844 <__clz_tab>
    8f28:	97c2                	c.add	a5,a6
    8f2a:	0007ce03          	lbu	t3,0(a5) # 1000000 <__SHAREDATA_BASE+0xd00000>
    8f2e:	02000793          	addi	a5,zero,32
    8f32:	9e3a                	c.add	t3,a4
    8f34:	41c78eb3          	sub	t4,a5,t3
    8f38:	17c79e63          	bne	a5,t3,90b4 <__udivdi3+0x270>
    8f3c:	28b6e863          	bltu	a3,a1,91cc <__udivdi3+0x388>
    8f40:	00c53633          	sltu	a2,a0,a2
    8f44:	00164513          	xori	a0,a2,1
    8f48:	4581                	c.li	a1,0
    8f4a:	8082                	c.jr	ra
    8f4c:	e601                	c.bnez	a2,8f54 <__udivdi3+0x110>
    8f4e:	4785                	c.li	a5,1
    8f50:	02c7d8b3          	divu	a7,a5,a2
    8f54:	67c1                	c.lui	a5,0x10
    8f56:	08f8ef63          	bltu	a7,a5,8ff4 <__udivdi3+0x1b0>
    8f5a:	010007b7          	lui	a5,0x1000
    8f5e:	24f8ef63          	bltu	a7,a5,91bc <__udivdi3+0x378>
    8f62:	0188d713          	srli	a4,a7,0x18
    8f66:	4e61                	c.li	t3,24
    8f68:	b6cd978b          	addigp	a5,-7316 # 200844 <__clz_tab>
    8f6c:	97ba                	c.add	a5,a4
    8f6e:	0007c683          	lbu	a3,0(a5) # 1000000 <__SHAREDATA_BASE+0xd00000>
    8f72:	02000793          	addi	a5,zero,32
    8f76:	9e36                	c.add	t3,a3
    8f78:	41c782b3          	sub	t0,a5,t3
    8f7c:	0bc79863          	bne	a5,t3,902c <__udivdi3+0x1e8>
    8f80:	41158733          	sub	a4,a1,a7
    8f84:	0108df13          	srli	t5,a7,0x10
    8f88:	3c08afdb          	bfoz	t6,a7,15,0
    8f8c:	00100593          	addi	a1,zero,1
    8f90:	01035793          	srli	a5,t1,0x10
    8f94:	03e75533          	divu	a0,a4,t5
    8f98:	03e77733          	remu	a4,a4,t5
    8f9c:	03f506b3          	mul	a3,a0,t6
    8fa0:	0742                	c.slli	a4,0x10
    8fa2:	8fd9                	c.or	a5,a4
    8fa4:	00d7fc63          	bgeu	a5,a3,8fbc <__udivdi3+0x178>
    8fa8:	011787b3          	add	a5,a5,a7
    8fac:	fff50713          	addi	a4,a0,-1
    8fb0:	0117e463          	bltu	a5,a7,8fb8 <__udivdi3+0x174>
    8fb4:	22d7ec63          	bltu	a5,a3,91ec <__udivdi3+0x3a8>
    8fb8:	00070513          	addi	a0,a4,0
    8fbc:	8f95                	c.sub	a5,a3
    8fbe:	03e7d633          	divu	a2,a5,t5
    8fc2:	3c03235b          	bfoz	t1,t1,15,0
    8fc6:	03e7f7b3          	remu	a5,a5,t5
    8fca:	03f60fb3          	mul	t6,a2,t6
    8fce:	07c2                	c.slli	a5,0x10
    8fd0:	0067e7b3          	or	a5,a5,t1
    8fd4:	01f7fc63          	bgeu	a5,t6,8fec <__udivdi3+0x1a8>
    8fd8:	97c6                	c.add	a5,a7
    8fda:	fff60713          	addi	a4,a2,-1
    8fde:	0117e563          	bltu	a5,a7,8fe8 <__udivdi3+0x1a4>
    8fe2:	1679                	c.addi	a2,-2
    8fe4:	01f7e463          	bltu	a5,t6,8fec <__udivdi3+0x1a8>
    8fe8:	00070613          	addi	a2,a4,0
    8fec:	0542                	c.slli	a0,0x10
    8fee:	8d51                	c.or	a0,a2
    8ff0:	00008067          	jalr	zero,0(ra)
    8ff4:	0ff00793          	addi	a5,zero,255
    8ff8:	8746                	c.mv	a4,a7
    8ffa:	f717f7e3          	bgeu	a5,a7,8f68 <__udivdi3+0x124>
    8ffe:	0088d713          	srli	a4,a7,0x8
    9002:	4e21                	c.li	t3,8
    9004:	f65ff06f          	jal	zero,8f68 <__udivdi3+0x124>
    9008:	0ff00793          	addi	a5,zero,255
    900c:	8732                	c.mv	a4,a2
    900e:	e4c7fde3          	bgeu	a5,a2,8e68 <__udivdi3+0x24>
    9012:	00865713          	srli	a4,a2,0x8
    9016:	4e21                	c.li	t3,8
    9018:	e51ff06f          	jal	zero,8e68 <__udivdi3+0x24>
    901c:	0ff00793          	addi	a5,zero,255
    9020:	18d7fa63          	bgeu	a5,a3,91b4 <__udivdi3+0x370>
    9024:	0086d813          	srli	a6,a3,0x8
    9028:	4721                	c.li	a4,8
    902a:	bded                	c.j	8f24 <__udivdi3+0xe0>
    902c:	005898b3          	sll	a7,a7,t0
    9030:	01c5d633          	srl	a2,a1,t3
    9034:	0108df13          	srli	t5,a7,0x10
    9038:	03e65eb3          	divu	t4,a2,t5
    903c:	00559733          	sll	a4,a1,t0
    9040:	01c55e33          	srl	t3,a0,t3
    9044:	3c08afdb          	bfoz	t6,a7,15,0
    9048:	00ee6733          	or	a4,t3,a4
    904c:	01075593          	srli	a1,a4,0x10
    9050:	00551333          	sll	t1,a0,t0
    9054:	03e676b3          	remu	a3,a2,t5
    9058:	03df87b3          	mul	a5,t6,t4
    905c:	06c2                	c.slli	a3,0x10
    905e:	8ecd                	c.or	a3,a1
    9060:	00f6fc63          	bgeu	a3,a5,9078 <__udivdi3+0x234>
    9064:	96c6                	c.add	a3,a7
    9066:	fffe8613          	addi	a2,t4,-1
    906a:	1716eb63          	bltu	a3,a7,91e0 <__udivdi3+0x39c>
    906e:	16f6f963          	bgeu	a3,a5,91e0 <__udivdi3+0x39c>
    9072:	1ef9                	c.addi	t4,-2
    9074:	011686b3          	add	a3,a3,a7
    9078:	8e9d                	c.sub	a3,a5
    907a:	03e6d7b3          	divu	a5,a3,t5
    907e:	3c072e5b          	bfoz	t3,a4,15,0
    9082:	03e6f6b3          	remu	a3,a3,t5
    9086:	02ff8633          	mul	a2,t6,a5
    908a:	01069713          	slli	a4,a3,0x10
    908e:	01c76733          	or	a4,a4,t3
    9092:	00c77b63          	bgeu	a4,a2,90a8 <__udivdi3+0x264>
    9096:	9746                	c.add	a4,a7
    9098:	fff78693          	addi	a3,a5,-1
    909c:	13176e63          	bltu	a4,a7,91d8 <__udivdi3+0x394>
    90a0:	12c77c63          	bgeu	a4,a2,91d8 <__udivdi3+0x394>
    90a4:	17f9                	c.addi	a5,-2
    90a6:	9746                	c.add	a4,a7
    90a8:	010e9593          	slli	a1,t4,0x10
    90ac:	8f11                	c.sub	a4,a2
    90ae:	8ddd                	c.or	a1,a5
    90b0:	ee1ff06f          	jal	zero,8f90 <__udivdi3+0x14c>
    90b4:	01c657b3          	srl	a5,a2,t3
    90b8:	01d696b3          	sll	a3,a3,t4
    90bc:	8edd                	c.or	a3,a5
    90be:	01c5d333          	srl	t1,a1,t3
    90c2:	0106d713          	srli	a4,a3,0x10
    90c6:	02e358b3          	divu	a7,t1,a4
    90ca:	01d59833          	sll	a6,a1,t4
    90ce:	01c55e33          	srl	t3,a0,t3
    90d2:	3c06a5db          	bfoz	a1,a3,15,0
    90d6:	010e6833          	or	a6,t3,a6
    90da:	01085793          	srli	a5,a6,0x10
    90de:	01d61633          	sll	a2,a2,t4
    90e2:	02e37333          	remu	t1,t1,a4
    90e6:	03158e33          	mul	t3,a1,a7
    90ea:	0342                	c.slli	t1,0x10
    90ec:	00f367b3          	or	a5,t1,a5
    90f0:	01c7fc63          	bgeu	a5,t3,9108 <__udivdi3+0x2c4>
    90f4:	97b6                	c.add	a5,a3
    90f6:	fff88313          	addi	t1,a7,-1
    90fa:	0ed7e163          	bltu	a5,a3,91dc <__udivdi3+0x398>
    90fe:	0dc7ff63          	bgeu	a5,t3,91dc <__udivdi3+0x398>
    9102:	18f9                	c.addi	a7,-2
    9104:	00d787b3          	add	a5,a5,a3
    9108:	41c787b3          	sub	a5,a5,t3
    910c:	02e7d333          	divu	t1,a5,a4
    9110:	3c08285b          	bfoz	a6,a6,15,0
    9114:	02e7f7b3          	remu	a5,a5,a4
    9118:	026585b3          	mul	a1,a1,t1
    911c:	07c2                	c.slli	a5,0x10
    911e:	0107e833          	or	a6,a5,a6
    9122:	00b87b63          	bgeu	a6,a1,9138 <__udivdi3+0x2f4>
    9126:	9836                	c.add	a6,a3
    9128:	fff30793          	addi	a5,t1,-1
    912c:	0ad86463          	bltu	a6,a3,91d4 <__udivdi3+0x390>
    9130:	0ab87263          	bgeu	a6,a1,91d4 <__udivdi3+0x390>
    9134:	1379                	c.addi	t1,-2
    9136:	9836                	c.add	a6,a3
    9138:	08c2                	c.slli	a7,0x10
    913a:	6f41                	c.lui	t5,0x10
    913c:	0068e8b3          	or	a7,a7,t1
    9140:	ffff0793          	addi	a5,t5,-1 # ffff <__data_lmastart+0x5bff>
    9144:	00f8f733          	and	a4,a7,a5
    9148:	0108d313          	srli	t1,a7,0x10
    914c:	8ff1                	c.and	a5,a2
    914e:	8241                	c.srli	a2,0x10
    9150:	02f70e33          	mul	t3,a4,a5
    9154:	02c70733          	mul	a4,a4,a2
    9158:	02f307b3          	mul	a5,t1,a5
    915c:	010e5693          	srli	a3,t3,0x10
    9160:	02c30633          	mul	a2,t1,a2
    9164:	973e                	c.add	a4,a5
    9166:	9736                	c.add	a4,a3
    9168:	40b80833          	sub	a6,a6,a1
    916c:	00f77463          	bgeu	a4,a5,9174 <__udivdi3+0x330>
    9170:	01e60633          	add	a2,a2,t5
    9174:	01075313          	srli	t1,a4,0x10
    9178:	00660633          	add	a2,a2,t1
    917c:	02c86463          	bltu	a6,a2,91a4 <__udivdi3+0x360>
    9180:	00c80663          	beq	a6,a2,918c <__udivdi3+0x348>
    9184:	8546                	c.mv	a0,a7
    9186:	4581                	c.li	a1,0
    9188:	00008067          	jalr	zero,0(ra)
    918c:	66c1                	c.lui	a3,0x10
    918e:	16fd                	c.addi	a3,-1
    9190:	8f75                	c.and	a4,a3
    9192:	01071793          	slli	a5,a4,0x10
    9196:	00de7e33          	and	t3,t3,a3
    919a:	01d51533          	sll	a0,a0,t4
    919e:	97f2                	c.add	a5,t3
    91a0:	fef572e3          	bgeu	a0,a5,9184 <__udivdi3+0x340>
    91a4:	fff88513          	addi	a0,a7,-1
    91a8:	4581                	c.li	a1,0
    91aa:	8082                	c.jr	ra
    91ac:	0106d813          	srli	a6,a3,0x10
    91b0:	4741                	c.li	a4,16
    91b2:	bb8d                	c.j	8f24 <__udivdi3+0xe0>
    91b4:	8836                	c.mv	a6,a3
    91b6:	4701                	c.li	a4,0
    91b8:	d6dff06f          	jal	zero,8f24 <__udivdi3+0xe0>
    91bc:	0108d713          	srli	a4,a7,0x10
    91c0:	4e41                	c.li	t3,16
    91c2:	b35d                	c.j	8f68 <__udivdi3+0x124>
    91c4:	01065713          	srli	a4,a2,0x10
    91c8:	4e41                	c.li	t3,16
    91ca:	b979                	c.j	8e68 <__udivdi3+0x24>
    91cc:	4581                	c.li	a1,0
    91ce:	4505                	c.li	a0,1
    91d0:	00008067          	jalr	zero,0(ra)
    91d4:	833e                	c.mv	t1,a5
    91d6:	b78d                	c.j	9138 <__udivdi3+0x2f4>
    91d8:	87b6                	c.mv	a5,a3
    91da:	b5f9                	c.j	90a8 <__udivdi3+0x264>
    91dc:	889a                	c.mv	a7,t1
    91de:	b72d                	c.j	9108 <__udivdi3+0x2c4>
    91e0:	8eb2                	c.mv	t4,a2
    91e2:	bd59                	c.j	9078 <__udivdi3+0x234>
    91e4:	1579                	c.addi	a0,-2
    91e6:	9846                	c.add	a6,a7
    91e8:	ce1ff06f          	jal	zero,8ec8 <__udivdi3+0x84>
    91ec:	1579                	c.addi	a0,-2
    91ee:	97c6                	c.add	a5,a7
    91f0:	b3f1                	c.j	8fbc <__udivdi3+0x178>
	...

000091f4 <__umoddi3>:
    91f4:	87b6                	c.mv	a5,a3
    91f6:	8832                	c.mv	a6,a2
    91f8:	88aa                	c.mv	a7,a0
    91fa:	872e                	c.mv	a4,a1
    91fc:	8e2e                	c.mv	t3,a1
    91fe:	eed9                	c.bnez	a3,929c <__umoddi3+0xa8>
    9200:	0ec5f863          	bgeu	a1,a2,92f0 <__umoddi3+0xfc>
    9204:	6741                	c.lui	a4,0x10
    9206:	18e66b63          	bltu	a2,a4,939c <__umoddi3+0x1a8>
    920a:	010007b7          	lui	a5,0x1000
    920e:	34f66b63          	bltu	a2,a5,9564 <__umoddi3+0x370>
    9212:	01865693          	srli	a3,a2,0x18
    9216:	47e1                	c.li	a5,24
    9218:	b6cd970b          	addigp	a4,-7316 # 200844 <__clz_tab>
    921c:	9736                	c.add	a4,a3
    921e:	00074703          	lbu	a4,0(a4) # 10000 <__data_lmastart+0x5c00>
    9222:	02000693          	addi	a3,zero,32
    9226:	97ba                	c.add	a5,a4
    9228:	40f68333          	sub	t1,a3,a5
    922c:	00f68c63          	beq	a3,a5,9244 <__umoddi3+0x50>
    9230:	006595b3          	sll	a1,a1,t1
    9234:	00f557b3          	srl	a5,a0,a5
    9238:	00661833          	sll	a6,a2,t1
    923c:	00b7ee33          	or	t3,a5,a1
    9240:	006518b3          	sll	a7,a0,t1
    9244:	01085613          	srli	a2,a6,0x10
    9248:	02ce57b3          	divu	a5,t3,a2
    924c:	3c08255b          	bfoz	a0,a6,15,0
    9250:	0108d693          	srli	a3,a7,0x10
    9254:	02ce7e33          	remu	t3,t3,a2
    9258:	02f507b3          	mul	a5,a0,a5
    925c:	0e42                	c.slli	t3,0x10
    925e:	00de6733          	or	a4,t3,a3
    9262:	00f77963          	bgeu	a4,a5,9274 <__umoddi3+0x80>
    9266:	9742                	c.add	a4,a6
    9268:	01076663          	bltu	a4,a6,9274 <__umoddi3+0x80>
    926c:	00f77463          	bgeu	a4,a5,9274 <__umoddi3+0x80>
    9270:	01070733          	add	a4,a4,a6
    9274:	8f1d                	c.sub	a4,a5
    9276:	02c756b3          	divu	a3,a4,a2
    927a:	3c08a7db          	bfoz	a5,a7,15,0
    927e:	02c77733          	remu	a4,a4,a2
    9282:	02d50533          	mul	a0,a0,a3
    9286:	0742                	c.slli	a4,0x10
    9288:	8fd9                	c.or	a5,a4
    928a:	0ea7e363          	bltu	a5,a0,9370 <__umoddi3+0x17c>
    928e:	40a78533          	sub	a0,a5,a0
    9292:	00655533          	srl	a0,a0,t1
    9296:	4581                	c.li	a1,0
    9298:	00008067          	jalr	zero,0(ra)
    929c:	882a                	c.mv	a6,a0
    929e:	fed5ede3          	bltu	a1,a3,9298 <__umoddi3+0xa4>
    92a2:	67c1                	c.lui	a5,0x10
    92a4:	10f6e663          	bltu	a3,a5,93b0 <__umoddi3+0x1bc>
    92a8:	010007b7          	lui	a5,0x1000
    92ac:	2af6e863          	bltu	a3,a5,955c <__umoddi3+0x368>
    92b0:	0186d313          	srli	t1,a3,0x18
    92b4:	01800893          	addi	a7,zero,24
    92b8:	b6cd978b          	addigp	a5,-7316 # 200844 <__clz_tab>
    92bc:	979a                	c.add	a5,t1
    92be:	0007c303          	lbu	t1,0(a5) # 1000000 <__SHAREDATA_BASE+0xd00000>
    92c2:	02000793          	addi	a5,zero,32
    92c6:	9346                	c.add	t1,a7
    92c8:	406788b3          	sub	a7,a5,t1
    92cc:	16679463          	bne	a5,t1,9434 <__umoddi3+0x240>
    92d0:	00b6e463          	bltu	a3,a1,92d8 <__umoddi3+0xe4>
    92d4:	00c56a63          	bltu	a0,a2,92e8 <__umoddi3+0xf4>
    92d8:	40c50833          	sub	a6,a0,a2
    92dc:	40d585b3          	sub	a1,a1,a3
    92e0:	01053733          	sltu	a4,a0,a6
    92e4:	40e58733          	sub	a4,a1,a4
    92e8:	8542                	c.mv	a0,a6
    92ea:	85ba                	c.mv	a1,a4
    92ec:	00008067          	jalr	zero,0(ra)
    92f0:	e601                	c.bnez	a2,92f8 <__umoddi3+0x104>
    92f2:	4705                	c.li	a4,1
    92f4:	02c75833          	divu	a6,a4,a2
    92f8:	6741                	c.lui	a4,0x10
    92fa:	08e86763          	bltu	a6,a4,9388 <__umoddi3+0x194>
    92fe:	010007b7          	lui	a5,0x1000
    9302:	24f86963          	bltu	a6,a5,9554 <__umoddi3+0x360>
    9306:	01885693          	srli	a3,a6,0x18
    930a:	47e1                	c.li	a5,24
    930c:	b6cd970b          	addigp	a4,-7316 # 200844 <__clz_tab>
    9310:	9736                	c.add	a4,a3
    9312:	00074703          	lbu	a4,0(a4) # 10000 <__data_lmastart+0x5c00>
    9316:	02000693          	addi	a3,zero,32
    931a:	97ba                	c.add	a5,a4
    931c:	40f68333          	sub	t1,a3,a5
    9320:	0af69063          	bne	a3,a5,93c0 <__umoddi3+0x1cc>
    9324:	410585b3          	sub	a1,a1,a6
    9328:	01085613          	srli	a2,a6,0x10
    932c:	3c082e5b          	bfoz	t3,a6,15,0
    9330:	0108d713          	srli	a4,a7,0x10
    9334:	02c5d6b3          	divu	a3,a1,a2
    9338:	02c5f5b3          	remu	a1,a1,a2
    933c:	03c686b3          	mul	a3,a3,t3
    9340:	05c2                	c.slli	a1,0x10
    9342:	8f4d                	c.or	a4,a1
    9344:	00d77863          	bgeu	a4,a3,9354 <__umoddi3+0x160>
    9348:	01070733          	add	a4,a4,a6
    934c:	01076463          	bltu	a4,a6,9354 <__umoddi3+0x160>
    9350:	22d76663          	bltu	a4,a3,957c <__umoddi3+0x388>
    9354:	8f15                	c.sub	a4,a3
    9356:	02c75533          	divu	a0,a4,a2
    935a:	3c08a8db          	bfoz	a7,a7,15,0
    935e:	02c77733          	remu	a4,a4,a2
    9362:	03c50533          	mul	a0,a0,t3
    9366:	0742                	c.slli	a4,0x10
    9368:	011767b3          	or	a5,a4,a7
    936c:	00a7f863          	bgeu	a5,a0,937c <__umoddi3+0x188>
    9370:	97c2                	c.add	a5,a6
    9372:	0107e563          	bltu	a5,a6,937c <__umoddi3+0x188>
    9376:	00a7f363          	bgeu	a5,a0,937c <__umoddi3+0x188>
    937a:	97c2                	c.add	a5,a6
    937c:	40a78533          	sub	a0,a5,a0
    9380:	00655533          	srl	a0,a0,t1
    9384:	4581                	c.li	a1,0
    9386:	8082                	c.jr	ra
    9388:	0ff00713          	addi	a4,zero,255
    938c:	86c2                	c.mv	a3,a6
    938e:	f7077fe3          	bgeu	a4,a6,930c <__umoddi3+0x118>
    9392:	00885693          	srli	a3,a6,0x8
    9396:	47a1                	c.li	a5,8
    9398:	f75ff06f          	jal	zero,930c <__umoddi3+0x118>
    939c:	0ff00713          	addi	a4,zero,255
    93a0:	86b2                	c.mv	a3,a2
    93a2:	e6c77be3          	bgeu	a4,a2,9218 <__umoddi3+0x24>
    93a6:	00865693          	srli	a3,a2,0x8
    93aa:	47a1                	c.li	a5,8
    93ac:	e6dff06f          	jal	zero,9218 <__umoddi3+0x24>
    93b0:	0ff00793          	addi	a5,zero,255
    93b4:	1ad7fc63          	bgeu	a5,a3,956c <__umoddi3+0x378>
    93b8:	0086d313          	srli	t1,a3,0x8
    93bc:	48a1                	c.li	a7,8
    93be:	bded                	c.j	92b8 <__umoddi3+0xc4>
    93c0:	00681833          	sll	a6,a6,t1
    93c4:	00f5d733          	srl	a4,a1,a5
    93c8:	01085613          	srli	a2,a6,0x10
    93cc:	02c756b3          	divu	a3,a4,a2
    93d0:	00f557b3          	srl	a5,a0,a5
    93d4:	006595b3          	sll	a1,a1,t1
    93d8:	3c082e5b          	bfoz	t3,a6,15,0
    93dc:	8ddd                	c.or	a1,a5
    93de:	0105de93          	srli	t4,a1,0x10
    93e2:	006518b3          	sll	a7,a0,t1
    93e6:	02c77733          	remu	a4,a4,a2
    93ea:	02de07b3          	mul	a5,t3,a3
    93ee:	01071693          	slli	a3,a4,0x10
    93f2:	01d6e6b3          	or	a3,a3,t4
    93f6:	00f6f963          	bgeu	a3,a5,9408 <__umoddi3+0x214>
    93fa:	96c2                	c.add	a3,a6
    93fc:	0106e663          	bltu	a3,a6,9408 <__umoddi3+0x214>
    9400:	00f6f463          	bgeu	a3,a5,9408 <__umoddi3+0x214>
    9404:	010686b3          	add	a3,a3,a6
    9408:	8e9d                	c.sub	a3,a5
    940a:	02c6d733          	divu	a4,a3,a2
    940e:	3c05a7db          	bfoz	a5,a1,15,0
    9412:	02c6f6b3          	remu	a3,a3,a2
    9416:	02ee0733          	mul	a4,t3,a4
    941a:	01069593          	slli	a1,a3,0x10
    941e:	8ddd                	c.or	a1,a5
    9420:	00e5f863          	bgeu	a1,a4,9430 <__umoddi3+0x23c>
    9424:	95c2                	c.add	a1,a6
    9426:	0105e563          	bltu	a1,a6,9430 <__umoddi3+0x23c>
    942a:	00e5f363          	bgeu	a1,a4,9430 <__umoddi3+0x23c>
    942e:	95c2                	c.add	a1,a6
    9430:	8d99                	c.sub	a1,a4
    9432:	bdfd                	c.j	9330 <__umoddi3+0x13c>
    9434:	006657b3          	srl	a5,a2,t1
    9438:	011696b3          	sll	a3,a3,a7
    943c:	00d7eeb3          	or	t4,a5,a3
    9440:	0065df33          	srl	t5,a1,t1
    9444:	010edf93          	srli	t6,t4,0x10
    9448:	03ff5e33          	divu	t3,t5,t6
    944c:	006557b3          	srl	a5,a0,t1
    9450:	011595b3          	sll	a1,a1,a7
    9454:	3c0ea75b          	bfoz	a4,t4,15,0
    9458:	8ddd                	c.or	a1,a5
    945a:	0105d813          	srli	a6,a1,0x10
    945e:	01161633          	sll	a2,a2,a7
    9462:	01151533          	sll	a0,a0,a7
    9466:	03ff7f33          	remu	t5,t5,t6
    946a:	03c707b3          	mul	a5,a4,t3
    946e:	0f42                	c.slli	t5,0x10
    9470:	010f66b3          	or	a3,t5,a6
    9474:	00f6fc63          	bgeu	a3,a5,948c <__umoddi3+0x298>
    9478:	96f6                	c.add	a3,t4
    947a:	fffe0813          	addi	a6,t3,-1
    947e:	0fd6ed63          	bltu	a3,t4,9578 <__umoddi3+0x384>
    9482:	0ef6fb63          	bgeu	a3,a5,9578 <__umoddi3+0x384>
    9486:	1e79                	c.addi	t3,-2
    9488:	01d686b3          	add	a3,a3,t4
    948c:	8e9d                	c.sub	a3,a5
    948e:	03f6d7b3          	divu	a5,a3,t6
    9492:	3c05a5db          	bfoz	a1,a1,15,0
    9496:	03f6f6b3          	remu	a3,a3,t6
    949a:	02f70f33          	mul	t5,a4,a5
    949e:	06c2                	c.slli	a3,0x10
    94a0:	00b6e733          	or	a4,a3,a1
    94a4:	01e77c63          	bgeu	a4,t5,94bc <__umoddi3+0x2c8>
    94a8:	9776                	c.add	a4,t4
    94aa:	fff78693          	addi	a3,a5,-1 # ffffff <__SHAREDATA_BASE+0xcfffff>
    94ae:	0dd76363          	bltu	a4,t4,9574 <__umoddi3+0x380>
    94b2:	0de77163          	bgeu	a4,t5,9574 <__umoddi3+0x380>
    94b6:	17f9                	c.addi	a5,-2
    94b8:	01d70733          	add	a4,a4,t4
    94bc:	0e42                	c.slli	t3,0x10
    94be:	62c1                	c.lui	t0,0x10
    94c0:	00fe6e33          	or	t3,t3,a5
    94c4:	fff28813          	addi	a6,t0,-1 # ffff <__data_lmastart+0x5bff>
    94c8:	010e76b3          	and	a3,t3,a6
    94cc:	01065593          	srli	a1,a2,0x10
    94d0:	010e5e13          	srli	t3,t3,0x10
    94d4:	01067833          	and	a6,a2,a6
    94d8:	03068fb3          	mul	t6,a3,a6
    94dc:	030e0833          	mul	a6,t3,a6
    94e0:	02b686b3          	mul	a3,a3,a1
    94e4:	010fd793          	srli	a5,t6,0x10
    94e8:	02be0e33          	mul	t3,t3,a1
    94ec:	96c2                	c.add	a3,a6
    94ee:	97b6                	c.add	a5,a3
    94f0:	41e70733          	sub	a4,a4,t5
    94f4:	0107f463          	bgeu	a5,a6,94fc <__umoddi3+0x308>
    94f8:	005e0e33          	add	t3,t3,t0
    94fc:	66c1                	c.lui	a3,0x10
    94fe:	16fd                	c.addi	a3,-1
    9500:	0107d593          	srli	a1,a5,0x10
    9504:	8ff5                	c.and	a5,a3
    9506:	07c2                	c.slli	a5,0x10
    9508:	00dfffb3          	and	t6,t6,a3
    950c:	9e2e                	c.add	t3,a1
    950e:	97fe                	c.add	a5,t6
    9510:	03c76863          	bltu	a4,t3,9540 <__umoddi3+0x34c>
    9514:	03c70463          	beq	a4,t3,953c <__umoddi3+0x348>
    9518:	40f507b3          	sub	a5,a0,a5
    951c:	00f535b3          	sltu	a1,a0,a5
    9520:	41c70733          	sub	a4,a4,t3
    9524:	40b705b3          	sub	a1,a4,a1
    9528:	00659333          	sll	t1,a1,t1
    952c:	0117d533          	srl	a0,a5,a7
    9530:	00a36533          	or	a0,t1,a0
    9534:	0115d5b3          	srl	a1,a1,a7
    9538:	00008067          	jalr	zero,0(ra)
    953c:	fcf57ee3          	bgeu	a0,a5,9518 <__umoddi3+0x324>
    9540:	40c78633          	sub	a2,a5,a2
    9544:	00c7b7b3          	sltu	a5,a5,a2
    9548:	97f6                	c.add	a5,t4
    954a:	40fe0e33          	sub	t3,t3,a5
    954e:	87b2                	c.mv	a5,a2
    9550:	fc9ff06f          	jal	zero,9518 <__umoddi3+0x324>
    9554:	01085693          	srli	a3,a6,0x10
    9558:	47c1                	c.li	a5,16
    955a:	bb4d                	c.j	930c <__umoddi3+0x118>
    955c:	0106d313          	srli	t1,a3,0x10
    9560:	48c1                	c.li	a7,16
    9562:	bb99                	c.j	92b8 <__umoddi3+0xc4>
    9564:	01065693          	srli	a3,a2,0x10
    9568:	47c1                	c.li	a5,16
    956a:	b17d                	c.j	9218 <__umoddi3+0x24>
    956c:	8336                	c.mv	t1,a3
    956e:	4881                	c.li	a7,0
    9570:	d49ff06f          	jal	zero,92b8 <__umoddi3+0xc4>
    9574:	87b6                	c.mv	a5,a3
    9576:	b799                	c.j	94bc <__umoddi3+0x2c8>
    9578:	8e42                	c.mv	t3,a6
    957a:	bf09                	c.j	948c <__umoddi3+0x298>
    957c:	9742                	c.add	a4,a6
    957e:	bbd9                	c.j	9354 <__umoddi3+0x160>
    9580:	0001                	c.addi	zero,0

00009582 <__riscv_save_12>:
    9582:	7139                	c.addi16sp	sp,-64
    9584:	4301                	c.li	t1,0
    9586:	c66e                	c.swsp	s11,12(sp)
    9588:	a019                	c.j	958e <__riscv_save_10+0x4>

0000958a <__riscv_save_10>:
    958a:	7139                	c.addi16sp	sp,-64
    958c:	5341                	c.li	t1,-16
    958e:	c86a                	c.swsp	s10,16(sp)
    9590:	ca66                	c.swsp	s9,20(sp)
    9592:	cc62                	c.swsp	s8,24(sp)
    9594:	ce5e                	c.swsp	s7,28(sp)
    9596:	a019                	c.j	959c <__riscv_save_4+0x4>

00009598 <__riscv_save_4>:
    9598:	7139                	c.addi16sp	sp,-64
    959a:	5301                	c.li	t1,-32
    959c:	d05a                	c.swsp	s6,32(sp)
    959e:	d256                	c.swsp	s5,36(sp)
    95a0:	d452                	c.swsp	s4,40(sp)
    95a2:	d64e                	c.swsp	s3,44(sp)
    95a4:	d84a                	c.swsp	s2,48(sp)
    95a6:	da26                	c.swsp	s1,52(sp)
    95a8:	dc22                	c.swsp	s0,56(sp)
    95aa:	de06                	c.swsp	ra,60(sp)
    95ac:	40610133          	sub	sp,sp,t1
    95b0:	8282                	c.jr	t0

000095b2 <__riscv_save_0>:
    95b2:	1141                	c.addi	sp,-16
    95b4:	c04a                	c.swsp	s2,0(sp)
    95b6:	c226                	c.swsp	s1,4(sp)
    95b8:	c422                	c.swsp	s0,8(sp)
    95ba:	c606                	c.swsp	ra,12(sp)
    95bc:	8282                	c.jr	t0

000095be <__riscv_restore_12>:
    95be:	4db2                	c.lwsp	s11,12(sp)
    95c0:	0141                	c.addi	sp,16

000095c2 <__riscv_restore_10>:
    95c2:	4d02                	c.lwsp	s10,0(sp)
    95c4:	4c92                	c.lwsp	s9,4(sp)
    95c6:	4c22                	c.lwsp	s8,8(sp)
    95c8:	4bb2                	c.lwsp	s7,12(sp)
    95ca:	0141                	c.addi	sp,16

000095cc <__riscv_restore_4>:
    95cc:	4b02                	c.lwsp	s6,0(sp)
    95ce:	4a92                	c.lwsp	s5,4(sp)
    95d0:	4a22                	c.lwsp	s4,8(sp)
    95d2:	49b2                	c.lwsp	s3,12(sp)
    95d4:	0141                	c.addi	sp,16

000095d6 <__riscv_restore_0>:
    95d6:	4902                	c.lwsp	s2,0(sp)
    95d8:	4492                	c.lwsp	s1,4(sp)
    95da:	4422                	c.lwsp	s0,8(sp)
    95dc:	40b2                	c.lwsp	ra,12(sp)
    95de:	0141                	c.addi	sp,16
    95e0:	8082                	c.jr	ra
    95e2:	0000                	c.unimp
    95e4:	0000                	c.unimp
	...

Disassembly of section .loader:

80000000 <__start_addr-0x10>:
80000000:	00000297          	auipc	t0,0x0
80000004:	0102a283          	lw	t0,16(t0) # 80000010 <__start_addr>
80000008:	8282                	c.jr	t0
8000000a:	00000013          	addi	zero,zero,0
8000000e:	0001                	c.addi	zero,0

80000010 <__start_addr>:
80000010:	0080                	c.addi4spn	s0,sp,64
80000012:	0000                	c.unimp
80000014:	0000                	c.unimp
	...

Contents of section .init:
 0000 00100000 f8100000 f8100000 f8100000  ................
 0010 f8100000 f8100000 f8100000 f8100000  ................
 0020 f8100000 f8100000 f8100000 f8100000  ................
 0030 f8100000 f8100000 f8100000 f8100000  ................
 0040 f8100000 f8100000 f8100000 f8100000  ................
 0050 f8100000 f8100000 f8100000 f8100000  ................
 0060 f8100000 f8100000 f8100000 f8100000  ................
 0070 f8100000 f8100000 f8100000 f8100000  ................
 0080 09a0f322 20346384 02006f10 a0068140  ..." 4c...o....@
 0090 01418141 01428142 01438143 01448144  .A.A.B.B.C.C.D.D
 00a0 01458145 01468146 01478147 01488148  .E.E.F.F.G.G.H.H
 00b0 01498149 014a814a 014b814b 014c814c  .I.I.J.J.K.K.L.L
 00c0 014d814d 014e814e 014f814f f3271030  .M.M.N.N.O.O.'.0
 00d0 9583858b c1c70967 73200730 530000f0  .......gs .0S...
 00e0 d30000f0 530100f0 d30100f0 530200f0  ....S.......S...
 00f0 d30200f0 530300f0 d30300f0 530400f0  ....S.......S...
 0100 d30400f0 530500f0 d30500f0 530600f0  ....S.......S...
 0110 d30600f0 530700f0 d30700f0 530800f0  ....S.......S...
 0120 d30800f0 530900f0 d30900f0 530a00f0  ....S.......S...
 0130 d30a00f0 530b00f0 d30b00f0 530c00f0  ....S.......S...
 0140 d30c00f0 530d00f0 d30d00f0 530e00f0  ....S.......S...
 0150 d30e00f0 530f00f0 d30f00f0 f3271030  ....S........'.0
 0160 d583858b d9cbf327 00301307 00207320  .......'.0... s 
 0170 07305777 00015730 005ed730 005e5731  .0Ww..W0.^.0.^W1
 0180 005ed731 005e5732 005ed732 005e5733  .^.1.^W2.^.2.^W3
 0190 005ed733 005e5734 005ed734 005e5735  .^.3.^W4.^.4.^W5
 01a0 005ed735 005e5736 005ed736 005e5737  .^.5.^W6.^.6.^W7
 01b0 005ed737 005e5738 005ed738 005e5739  .^.7.^W8.^.8.^W9
 01c0 005ed739 005e573a 005ed73a 005e573b  .^.9.^W:.^.:.^W;
 01d0 005ed73b 005e573c 005ed73c 005e573d  .^.;.^W<.^.<.^W=
 01e0 005ed73d 005e573e 005ed73e 005e573f  .^.=.^W>.^.>.^W?
 01f0 005ed73f 005e7390 07309701 000083a1  .^.?.^s..0......
 0200 61149702 000083a2 62147323 40f1a163  a.......b.s#@..c
 0210 63050300 9e927d13 e5bf1681 732320fc  c.....}.....s# .
 0220 1353b301 13731300 630f0300 97220000  .S...s..c...."..
 0230 938242dd 73907230 97120000 938282dc  ..B.s.r0........
 0240 93e23200 85a89712 00009382 a2e37323  ..2...........s#
 0250 10301353 23011373 13006307 03027323  .0.S#..s..c...s#
 0260 30309303 00203363 73007310 33307323  00... 3cs.s.30s#
 0270 007d1373 d3ff7310 037d7390 52109712  .}.s..s..}s.R...
 0280 00009382 22d83da0 97120000 938282d7  ....".=.........
 0290 732320fc 1353c300 13731300 630c0300  s# ..S...s..c...
 02a0 7323007d 13632300 7310037d 97020000  s#.}.c#.s..}....
 02b0 938242d5 73905230 bd427390 023afd52  ..B.s.R0.Bs..:.R
 02c0 7390023b ef205037 17a50000 13058513  s..;. P7........
 02d0 97050000 83a50508 17060000 03260608  .............&..
 02e0 630cb500 63fac500 83220500 23a05500  c...c...."..#.U.
 02f0 11059105 e3eac5fe 17050000 03250506  .............%..
 0300 97050000 83a50506 6377b500 23200500  ........cw..# ..
 0310 1105e36d b5fe1705 00000325 25059705  ...m.......%%...
 0320 000083a5 25056377 b5002320 05001105  ....%.cw..# ....
 0330 e36db5fe ef20103d 01a08280 13000000  .m... .=........
 0340 d8242000 00000000 00002800 00000000  .$ .......(.....
 0350 000c2000 00000000 081d2000 00000000  .. ....... .....
 0360 a01f2000 00000000 00003000 00000000  .. .......0.....
 0370 00003000 00000000 01001300 0000      ..0...........  

Contents of section .rodata:
 200000 000080bf 0000803f f8ffff3e 0000003f  .......?...>...?
 200010 00004040 00000040 0000403f 0000c040  ..@@...@..@?...@
 200020 0400003f 00002041 fdff7f3f 0000f044  ...?.. A...?...D
 200030 00005246 00b82146 00005243 0018f646  ..RF..!F..RC...F
 200040 00000246 00b45247 00609046 00806845  ...F..RG.`.F..hE
 200050 00247449 2564204d 487a0000 00000000  .$tI%d MHz......
 200060 111191bf 101191bf 0000803f 00004041  ...........?..@A
 200070 0100003f fdff7f3f 00004040 4307403f  ...?...?..@@C.@?
 200080 4e382065 78702c73 71727420 6574632e  N8 exp,sqrt etc.
 200090 20000000 4e372061 73736967 6e6d656e   ...N7 assignmen
 2000a0 74732020 20000000 4e362066 6c6f6174  ts   ...N6 float
 2000b0 696e6720 706f696e 74000000 4e352073  ing point...N5 s
 2000c0 696e2c63 6f732065 74632e20 20000000  in,cos etc.  ...
 2000d0 4e342066 69786564 20706f69 6e742020  N4 fixed point  
 2000e0 20000000 4e332069 66207468 656e2065   ...N3 if then e
 2000f0 6c736520 20000000 4e322066 6c6f6174  lse  ...N2 float
 200100 696e6720 706f696e 74000000 4e312066  ing point...N1 f
 200110 6c6f6174 696e6720 706f696e 74000000  loating point...
 200120 27524953 432d5620 466c6f61 742d506f  'RISC-V Float-Po
 200130 696e7420 45787465 6e73696f 6e272073  int Extension' s
 200140 686f756c 64206265 20636f6e 66696775  hould be configu
 200150 72656420 746f2072 756e2074 68697320  red to run this 
 200160 74657374 2e0a0000 0000404b 00000036  test......@K...6
 200170 0000802c db0fc92f 22aafd29 0000c92f  ...,.../"..).../
 200180 83f9223f 0000004b 0000c93f 00a0fd39  .."?...K...?...9
 200190 0020a233 1a61342c 00000000 6e83f9a2  . .3.a4,....n...
 2001a0 2915444e d15727fc c0dd34f5 999562db  ).DN.W'...4...b.
 2001b0 4190433c ab6351fe db0fc93f db0fc9bf  A.C<.cQ....?....
 2001c0 0000e03e 00000031 caf24971 0000983f  ...>...1..Iq...?
 2001d0 0000303f 00001c40 0000c03f 00008050  ..0?...@...?...P
 2001e0 abaaaa3e cdcc4cbe 2549123e 388ee3bd  ...>..L.%I.>8...
 2001f0 6e2eba3d 95879dbd 356b883d 6bf16ebd  n..=....5k.=k.n.
 200200 59da4b3d 21a215bd d769853c 3863ed3e  Y.K=!....i.<8c.>
 200210 da0f493f 5e987b3f da0fc93f 6937ac31  ..I?^.{?...?i7.1
 200220 68212233 b40f1433 6821a233 0000a842  h!"3...3h!.3...B
 200230 00008133 0000d042 00000070 3baab840  ...3...B...p;..@
 200240 0070313e f4fd0537 12bb2a3d 12bb2a3e  .p1>...7..*=..*>
 200250 ffffff3e ffff7f3f 0000807f 0000004b  ...>...?.......K
 200260 00007e4e 0000803f f037983f f304b53f  ..~N...?.7.?...?
 200270 fd44d73f 00000000 320a7e39 7f661e39  .D.?....2.~9.f.9
 200280 5b991f39 0000803f 0030983f 0000b53f  [..9...?.0.?...?
 200290 0040d73f 21ed423e 0a1180be c1abaa3e  .@.?!.B>.......>
 2002a0 ffffffbe ffffffbe c1abaa3e 0a1180be  ...........>....
 2002b0 21ed423e aaaa2a3f 66f1cc3e 0070313f  !.B>..*?f..>.p1?
 2002c0 f4fd0538 00000000 0030f13d 0070643e  ...8.....0.=.pd>
 2002d0 0000a33e 0090cf3e 0090f83e 00400f3f  ...>...>...>.@.?
 2002e0 00e0203f 00000000 15b78337 cde37b38  .. ?.......7..{8
 2002f0 0ee1c538 60f69138 af5f0f38 e1bc3e38  ...8`..8._.8..>8
 200300 23f44739 336d4cb9 da82083c a0aa2abe  #.G93mL....<..*.
 200310 b93ab2ba ca9f2a3d ddffffbe 73717274  .:....*=....sqrt
 200320 66000000 1f000000 1c000000 1f000000  f...............
 200330 1e000000 1f000000 1e000000 1f000000  ................
 200340 1f000000 1e000000 1f000000 1e000000  ................
 200350 1f000000 1f000000 1d000000 1f000000  ................
 200360 1e000000 1f000000 1e000000 1f000000  ................
 200370 1f000000 1e000000 1f000000 1e000000  ................
 200380 1f000000 545a0000 474d5400 2531305b  ....TZ..GMT.%10[
 200390 5e302d39 2c2b2d5d 256e0000 25687525  ^0-9,+-]%n..%hu%
 2003a0 6e3a2568 75256e3a 25687525 6e000000  n:%hu%n:%hu%n...
 2003b0 4d256875 256e2e25 6875256e 2e256875  M%hu%n.%hu%n.%hu
 2003c0 256e0000 2f256875 256e3a25 6875256e  %n../%hu%n:%hu%n
 2003d0 3a256875 256e0000 501e2000 30313233  :%hu%n..P. .0123
 2003e0 34353637 38394142 43444546 4c690000  456789ABCDEFLi..
 2003f0 ce690000 ce690000 ce690000 ce690000  .i...i...i...i..
 200400 ce690000 ce690000 ce690000 ce690000  .i...i...i...i..
 200410 b4670000 ce690000 3c680000 d2680000  .g...i..<h...h..
 200420 b4670000 b4670000 b4670000 ce690000  .g...g...g...i..
 200430 d2680000 ce690000 ce690000 ce690000  .h...i...i...i..
 200440 ce690000 b8690000 50690000 4c690000  .i...i..Pi..Li..
 200450 ce690000 ce690000 50680000 ce690000  .i...i..Ph...i..
 200460 28680000 ce690000 ce690000 4c690000  (h...i...i..Li..
 200470 4e414e00 494e4600 16720000 ae720000  NAN.INF..r...r..
 200480 b8730000 b8730000 b8730000 b8730000  .s...s...s...s..
 200490 ae720000 b8730000 b8730000 b8730000  .r...s...s...s..
 2004a0 b8730000 82730000 12720000 24730000  .s...s...r..$s..
 2004b0 b8730000 b8730000 2c720000 b8730000  .s...s..,r...s..
 2004c0 00720000 b8730000 b8730000 24730000  .r...s...s..$s..
 2004d0 88790000 ca780000 ca780000 9a790000  .y...x...x...y..
 2004e0 ca780000 ca780000 ca780000 ca780000  .x...x...x...x..
 2004f0 ca780000 ca780000 ca780000 ca780000  .x...x...x...x..
 200500 b6790000 ca780000 ca780000 7e7a0000  .y...x...x..~z..
 200510 ca780000 ca780000 ca780000 ca780000  .x...x...x...x..
 200520 ca780000 ca780000 ca780000 907a0000  .x...x...x...z..
 200530 26790000 ca780000 ca780000 ca780000  &y...x...x...x..
 200540 94790000 fa780000 ca780000 ca780000  .y...x...x...x..
 200550 7a790000 ca780000 9e7a0000 9e790000  zy...x...z...y..
 200560 987a0000 ca780000 ca780000 c6790000  .z...x...x...y..
 200570 ca780000 aa790000 ca780000 ca780000  .x...y...x...x..
 200580 b6790000 2a7f0000 607e0000 2a7f0000  .y..*...`~..*...
 200590 607e0000 607e0000 ba7e0000 087f0000  `~..`~...~......
 2005a0 087f0000 087f0000 087f0000 087f0000  ................
 2005b0 087f0000 087f0000 187f0000 187f0000  ................
 2005c0 0a000100 02000300 04000500 06000700  ................
 2005d0 08000900 0a000b00 0c000d00 0e000f00  ................
 2005e0 10000000 00202020 20202020 20202828  .....         ((
 2005f0 28282820 20202020 20202020 20202020  (((             
 200600 20202020 20881010 10101010 10101010       ...........
 200610 10101010 10040404 04040404 04040410  ................
 200620 10101010 10104141 41414141 01010101  ......AAAAAA....
 200630 01010101 01010101 01010101 01010101  ................
 200640 10101010 10104242 42424242 02020202  ......BBBBBB....
 200650 02020202 02020202 02020202 02020202  ................
 200660 10101010 20000000 00000000 00000000  .... ...........
 200670 00000000 00000000 00000000 00000000  ................
 200680 00000000 00000000 00000000 00000000  ................
 200690 00000000 00000000 00000000 00000000  ................
 2006a0 00000000 00000000 00000000 00000000  ................
 2006b0 00000000 00000000 00000000 00000000  ................
 2006c0 00000000 00000000 00000000 00000000  ................
 2006d0 00000000 00000000 00000000 00000000  ................
 2006e0 00000000 00000000 43000000 504f5349  ........C...POSI
 2006f0 58000000 00000000 2e000000 10000000  X...............
 200700 00000000 017a5200 017c0101 1b0d0200  .....zR..|......
 200710 10000000 18000000 2c87e0ff ae030000  ........,.......
 200720 00000000 10000000 00000000 017a5200  .............zR.
 200730 017c0101 1b0d0200 10000000 18000000  .|..............
 200740 b48ae0ff 8c030000 00000000 10000000  ................
 200750 00000000 017a5200 017c0501 1b0d0200  .....zR..|......
 200760 48000000 18000000 1a8ee0ff 30000000  H...........0...
 200770 00420e40 449b0d42 db420e40 449a0c42  .B.@D..B.B.@D..B
 200780 990b4298 0a429709 42d7d8d9 dadb420e  ..B..B..B.....B.
 200790 40449608 42950742 94064293 05429204  @D..B..B..B..B..
 2007a0 42890342 88024281 01000000 1c000000  B..B..B.........
 2007b0 64000000 fe8de0ff 0c000000 00420e10  d............B..
 2007c0 44890442 88024281 01000000 2c000000  D..B..B.....,...
 2007d0 00000000 017a5200 017c0101 1b0d020e  .....zR..|......
 2007e0 409b0d9a 0c990b98 0a970996 08950794  @...............
 2007f0 06930592 04890388 02810100 44000000  ............D...
 200800 34000000 ba8de0ff 24000000 0042db42  4.......$....B.B
 200810 db0e3042 da42d942 d842d742 d7d8d9da  ..0B.B.B.B.B....
 200820 db0e2042 d642d542 d442d342 d3d4d5d6  .. B.B.B.B.B....
 200830 d8d9dadb 0e1042d2 42c942c8 42c1420e  ......B.B.B.B.B.
 200840 00000000 00010202 03030303 04040404  ................
 200850 04040404 05050505 05050505 05050505  ................
 200860 05050505 06060606 06060606 06060606  ................
 200870 06060606 06060606 06060606 06060606  ................
 200880 06060606 07070707 07070707 07070707  ................
 200890 07070707 07070707 07070707 07070707  ................
 2008a0 07070707 07070707 07070707 07070707  ................
 2008b0 07070707 07070707 07070707 07070707  ................
 2008c0 07070707 08080808 08080808 08080808  ................
 2008d0 08080808 08080808 08080808 08080808  ................
 2008e0 08080808 08080808 08080808 08080808  ................
 2008f0 08080808 08080808 08080808 08080808  ................
 200900 08080808 08080808 08080808 08080808  ................
 200910 08080808 08080808 08080808 08080808  ................
 200920 08080808 08080808 08080808 08080808  ................
 200930 08080808 08080808 08080808 08080808  ................
 200940 08080808                             ....            

Contents of section .data:
 200c00 00000000 00000000 00000000 00000000  ................
 200c10 00000000 00000000 00000000 00000000  ................
 200c20 00000000 00000000 00000000 00000000  ................
 200c30 00000000 00000000 00000000 00000000  ................
 200c40 00000000 00000000 00000000 00000000  ................
 200c50 00000000 00000000 00000000 00000000  ................
 200c60 00000000 00000000 00000000 00000000  ................
 200c70 00000000 00000000 00000000 00000000  ................
 200c80 00000000 00000000 00000000 00000000  ................
 200c90 00000000 00000000 00000000 00000000  ................
 200ca0 00000000 00000000 00000000 00000000  ................
 200cb0 00000000 00000000 00000000 00000000  ................
 200cc0 00000000 00000000 00000000 00000000  ................
 200cd0 00000000 00000000 00000000 00000000  ................
 200ce0 00000000 00000000 00000000 00000000  ................
 200cf0 00000000 00000000 00000000 00000000  ................
 200d00 00000000 00000000 00000000 00000000  ................
 200d10 00000000 00000000 00000000 00000000  ................
 200d20 00000000 00000000 00000000 00000000  ................
 200d30 00000000 00000000 00000000 00000000  ................
 200d40 00000000 00000000 00000000 00000000  ................
 200d50 00000000 00000000 00000000 00000000  ................
 200d60 00000000 00000000 00000000 00000000  ................
 200d70 00000000 00000000 00000000 00000000  ................
 200d80 00000000 00000000 00000000 00000000  ................
 200d90 00000000 00000000 00000000 00000000  ................
 200da0 00000000 00000000 00000000 00000000  ................
 200db0 00000000 00000000 00000000 00000000  ................
 200dc0 00000000 00000000 00000000 00000000  ................
 200dd0 00000000 00000000 00000000 00000000  ................
 200de0 00000000 00000000 00000000 00000000  ................
 200df0 00000000 00000000 00000000 00000000  ................
 200e00 00000000 00000000 00000000 00000000  ................
 200e10 00000000 00000000 00000000 00000000  ................
 200e20 00000000 00000000 00000000 00000000  ................
 200e30 00000000 00000000 00000000 00000000  ................
 200e40 00000000 00000000 00000000 00000000  ................
 200e50 00000000 00000000 00000000 00000000  ................
 200e60 00000000 00000000 00000000 00000000  ................
 200e70 00000000 00000000 00000000 00000000  ................
 200e80 00000000 00000000 00000000 00000000  ................
 200e90 00000000 00000000 00000000 00000000  ................
 200ea0 00000000 00000000 00000000 00000000  ................
 200eb0 00000000 00000000 00000000 00000000  ................
 200ec0 00000000 00000000 00000000 00000000  ................
 200ed0 00000000 00000000 00000000 00000000  ................
 200ee0 00000000 00000000 00000000 00000000  ................
 200ef0 00000000 00000000 00000000 00000000  ................
 200f00 00000000 00000000 00000000 00000000  ................
 200f10 00000000 00000000 00000000 00000000  ................
 200f20 00000000 00000000 00000000 00000000  ................
 200f30 00000000 00000000 00000000 00000000  ................
 200f40 00000000 00000000 00000000 00000000  ................
 200f50 00000000 00000000 00000000 00000000  ................
 200f60 00000000 00000000 00000000 00000000  ................
 200f70 00000000 00000000 00000000 00000000  ................
 200f80 00000000 00000000 00000000 00000000  ................
 200f90 00000000 00000000 00000000 00000000  ................
 200fa0 00000000 00000000 00000000 00000000  ................
 200fb0 00000000 00000000 00000000 00000000  ................
 200fc0 00000000 00000000 00000000 00000000  ................
 200fd0 00000000 00000000 00000000 00000000  ................
 200fe0 00000000 00000000 00000000 00000000  ................
 200ff0 00000000 00000000 00000000 00000000  ................
 201000 00000000 00000000 00000000 00000000  ................
 201010 00000000 00000000 00000000 00000000  ................
 201020 00000000 00000000 00000000 00000000  ................
 201030 00000000 00000000 00000000 00000000  ................
 201040 00000000 00000000 00000000 00000000  ................
 201050 00000000 00000000 00000000 00000000  ................
 201060 00000000 00000000 00000000 00000000  ................
 201070 00000000 00000000 00000000 00000000  ................
 201080 00000000 00000000 00000000 00000000  ................
 201090 00000000 00000000 00000000 00000000  ................
 2010a0 00000000 00000000 00000000 00000000  ................
 2010b0 00000000 00000000 00000000 00000000  ................
 2010c0 00000000 00000000 00000000 00000000  ................
 2010d0 00000000 00000000 00000000 00000000  ................
 2010e0 00000000 00000000 00000000 00000000  ................
 2010f0 00000000 00000000 00000000 00000000  ................
 201100 00000000 00000000 00000000 00000000  ................
 201110 00000000 00000000 00000000 00000000  ................
 201120 00000000 00000000 00000000 00000000  ................
 201130 00000000 00000000 00000000 00000000  ................
 201140 00000000 00000000 00000000 00000000  ................
 201150 00000000 00000000 00000000 00000000  ................
 201160 00000000 00000000 00000000 00000000  ................
 201170 00000000 00000000 00000000 00000000  ................
 201180 00000000 00000000 00000000 00000000  ................
 201190 00000000 00000000 00000000 00000000  ................
 2011a0 00000000 00000000 00000000 00000000  ................
 2011b0 00000000 00000000 00000000 00000000  ................
 2011c0 00000000 00000000 00000000 00000000  ................
 2011d0 00000000 00000000 00000000 00000000  ................
 2011e0 00000000 00000000 00000000 00000000  ................
 2011f0 00000000 00000000 00000000 00000000  ................
 201200 00000000 00000000 00000000 00000000  ................
 201210 00000000 00000000 00000000 00000000  ................
 201220 00000000 00000000 00000000 00000000  ................
 201230 00000000 00000000 00000000 00000000  ................
 201240 00000000 00000000 00000000 00000000  ................
 201250 00000000 00000000 00000000 00000000  ................
 201260 00000000 00000000 00000000 00000000  ................
 201270 00000000 00000000 00000000 00000000  ................
 201280 00000000 00000000 00000000 00000000  ................
 201290 00000000 00000000 00000000 00000000  ................
 2012a0 00000000 00000000 00000000 00000000  ................
 2012b0 00000000 00000000 00000000 00000000  ................
 2012c0 00000000 00000000 00000000 00000000  ................
 2012d0 00000000 00000000 00000000 00000000  ................
 2012e0 00000000 00000000 00000000 00000000  ................
 2012f0 00000000 00000000 00000000 00000000  ................
 201300 00000000 00000000 00000000 00000000  ................
 201310 00000000 00000000 00000000 00000000  ................
 201320 00000000 00000000 00000000 00000000  ................
 201330 00000000 00000000 00000000 00000000  ................
 201340 00000000 00000000 00000000 00000000  ................
 201350 00000000 00000000 00000000 00000000  ................
 201360 00000000 00000000 00000000 00000000  ................
 201370 00000000 00000000 00000000 00000000  ................
 201380 00000000 00000000 00000000 00000000  ................
 201390 00000000 00000000 00000000 00000000  ................
 2013a0 00000000 00000000 00000000 00000000  ................
 2013b0 00000000 00000000 00000000 00000000  ................
 2013c0 00000000 00000000 00000000 00000000  ................
 2013d0 00000000 00000000 00000000 00000000  ................
 2013e0 00000000 00000000 00000000 00000000  ................
 2013f0 00000000 00000000 00000000 00000000  ................
 201400 00000000 00000000 00000000 00000000  ................
 201410 00000000 00000000 00000000 00000000  ................
 201420 00000000 00000000 00000000 00000000  ................
 201430 00000000 00000000 00000000 00000000  ................
 201440 00000000 00000000 00000000 00000000  ................
 201450 00000000 00000000 00000000 00000000  ................
 201460 00000000 00000000 00000000 00000000  ................
 201470 00000000 00000000 00000000 00000000  ................
 201480 00000000 00000000 00000000 00000000  ................
 201490 00000000 00000000 00000000 00000000  ................
 2014a0 00000000 00000000 00000000 00000000  ................
 2014b0 00000000 00000000 00000000 00000000  ................
 2014c0 00000000 00000000 00000000 00000000  ................
 2014d0 00000000 00000000 00000000 00000000  ................
 2014e0 00000000 00000000 00000000 00000000  ................
 2014f0 00000000 00000000 00000000 00000000  ................
 201500 00000000 00000000 00000000 00000000  ................
 201510 00000000 00000000 00000000 00000000  ................
 201520 00000000 00000000 00000000 00000000  ................
 201530 00000000 00000000 00000000 00000000  ................
 201540 00000000 00000000 00000000 00000000  ................
 201550 00000000 00000000 00000000 00000000  ................
 201560 00000000 00000000 00000000 00000000  ................
 201570 00000000 00000000 00000000 00000000  ................
 201580 00000000 00000000 00000000 00000000  ................
 201590 00000000 00000000 00000000 00000000  ................
 2015a0 00000000 00000000 00000000 00000000  ................
 2015b0 00000000 00000000 00000000 00000000  ................
 2015c0 00000000 00000000 00000000 00000000  ................
 2015d0 00000000 00000000 00000000 00000000  ................
 2015e0 00000000 00000000 00000000 00000000  ................
 2015f0 00000000 00000000 00000000 00000000  ................
 201600 00000000 00000000 00000000 00000000  ................
 201610 00000000 00000000 00000000 00000000  ................
 201620 00000000 00000000 00000000 00000000  ................
 201630 00000000 00000000 00000000 00000000  ................
 201640 00000000 00000000 00000000 00000000  ................
 201650 00000000 00000000 00000000 00000000  ................
 201660 00000000 00000000 00000000 00000000  ................
 201670 00000000 00000000 00000000 00000000  ................
 201680 00000000 00000000 00000000 00000000  ................
 201690 00000000 00000000 00000000 00000000  ................
 2016a0 00000000 00000000 00000000 00000000  ................
 2016b0 00000000 00000000 00000000 00000000  ................
 2016c0 00000000 00000000 00000000 00000000  ................
 2016d0 00000000 00000000 00000000 00000000  ................
 2016e0 00000000 00000000 00000000 00000000  ................
 2016f0 00000000 00000000 00000000 00000000  ................
 201700 00000000 00000000 00000000 00000000  ................
 201710 00000000 00000000 00000000 00000000  ................
 201720 00000000 00000000 00000000 00000000  ................
 201730 00000000 00000000 00000000 00000000  ................
 201740 00000000 00000000 00000000 00000000  ................
 201750 00000000 00000000 00000000 00000000  ................
 201760 00000000 00000000 00000000 00000000  ................
 201770 00000000 00000000 00000000 00000000  ................
 201780 00000000 00000000 00000000 00000000  ................
 201790 00000000 00000000 00000000 00000000  ................
 2017a0 00000000 00000000 00000000 00000000  ................
 2017b0 00000000 00000000 00000000 00000000  ................
 2017c0 00000000 00000000 00000000 00000000  ................
 2017d0 00000000 00000000 00000000 00000000  ................
 2017e0 00000000 00000000 00000000 00000000  ................
 2017f0 00000000 00000000 00000000 00000000  ................
 201800 00000000 00000000 00000000 00000000  ................
 201810 00000000 00000000 00000000 00000000  ................
 201820 00000000 00000000 00000000 00000000  ................
 201830 00000000 00000000 00000000 00000000  ................
 201840 00000000 00000000 00000000 00000000  ................
 201850 00000000 00000000 00000000 00000000  ................
 201860 00000000 00000000 00000000 00000000  ................
 201870 00000000 00000000 00000000 00000000  ................
 201880 00000000 00000000 00000000 00000000  ................
 201890 00000000 00000000 00000000 00000000  ................
 2018a0 00000000 00000000 00000000 00000000  ................
 2018b0 00000000 00000000 00000000 00000000  ................
 2018c0 00000000 00000000 00000000 00000000  ................
 2018d0 00000000 00000000 00000000 00000000  ................
 2018e0 00000000 00000000 00000000 00000000  ................
 2018f0 00000000 00000000 00000000 00000000  ................
 201900 00000000 00000000 00000000 00000000  ................
 201910 00000000 00000000 00000000 00000000  ................
 201920 00000000 00000000 00000000 00000000  ................
 201930 00000000 00000000 00000000 00000000  ................
 201940 00000000 00000000 00000000 00000000  ................
 201950 00000000 00000000 00000000 00000000  ................
 201960 00000000 00000000 00000000 00000000  ................
 201970 00000000 00000000 00000000 00000000  ................
 201980 00000000 00000000 00000000 00000000  ................
 201990 00000000 00000000 00000000 00000000  ................
 2019a0 00000000 00000000 00000000 00000000  ................
 2019b0 00000000 00000000 00000000 00000000  ................
 2019c0 00000000 00000000 00000000 00000000  ................
 2019d0 00000000 00000000 00000000 00000000  ................
 2019e0 00000000 00000000 00000000 00000000  ................
 2019f0 00000000 00000000 00000000 00000000  ................
 201a00 00000000 00000000 00000000 00000000  ................
 201a10 00000000 00000000 00000000 00000000  ................
 201a20 00000000 00000000 00000000 00000000  ................
 201a30 00000000 00000000 00000000 00000000  ................
 201a40 00000000 00000000 00000000 00000000  ................
 201a50 00000000 00000000 00000000 00000000  ................
 201a60 00000000 00000000 00000000 00000000  ................
 201a70 00000000 00000000 00000000 00000000  ................
 201a80 00000000 00000000 00000000 00000000  ................
 201a90 00000000 00000000 00000000 00000000  ................
 201aa0 00000000 00000000 00000000 00000000  ................
 201ab0 00000000 00000000 00000000 00000000  ................
 201ac0 00000000 00000000 00000000 00000000  ................
 201ad0 00000000 00000000 00000000 00000000  ................
 201ae0 00000000 00000000 00000000 00000000  ................
 201af0 00000000 00000000 00000000 00000000  ................
 201b00 00000000 00000000 00000000 00000000  ................
 201b10 00000000 00000000 00000000 00000000  ................
 201b20 00000000 00000000 00000000 00000000  ................
 201b30 00000000 00000000 00000000 00000000  ................
 201b40 00000000 00000000 00000000 00000000  ................
 201b50 00000000 00000000 00000000 00000000  ................
 201b60 00000000 00000000 00000000 00000000  ................
 201b70 00000000 00000000 00000000 00000000  ................
 201b80 00000000 00000000 00000000 00000000  ................
 201b90 00000000 00000000 00000000 00000000  ................
 201ba0 00000000 00000000 00000000 00000000  ................
 201bb0 00000000 00000000 00000000 00000000  ................
 201bc0 00000000 00000000 00000000 00000000  ................
 201bd0 00000000 00000000 00000000 00000000  ................
 201be0 00000000 00000000 00000000 00000000  ................
 201bf0 00000000 00000000 00000000 00000000  ................
 201c00 a0aa2abe da82083c 336d4cb9 0000803f  ..*....<3mL....?
 201c10 ddffffbe ca9f2a3d b93ab2ba 01000000  ......*=.:......
 201c20 00000000 4a000000 00000000 00000000  ....J...........
 201c30 00000000 00000000 00000000 00000000  ................
 201c40 4a000000 00000000 00000000 00000000  J...............
 201c50 00000000 00000000 00000000 41534349  ............ASCI
 201c60 49000000 00000000 00000000 00000000  I...............
 201c70 00000000 00000000 00000000 41534349  ............ASCI
 201c80 49000000 00000000 00000000 00000000  I...............
 201c90 00000000 00000000 00000000 f8062000  .............. .
 201ca0 f4062000 f4062000 f4062000 f4062000  .. ... ... ... .
 201cb0 f4062000 f4062000 f4062000 f4062000  .. ... ... ... .
 201cc0 f4062000 ffffffff ffffffff ffffffff  .. .............
 201cd0 ffff0000 00000000                    ........        

Contents of section .sdata:
 201cd8 01000000 88032000 88032000 501e2000  ...... ... .P. .
 201ce8 e4052000 481d2000 201f2000 b81e2000  .. .H. . . ... .
 201cf8 501e2000 01000000 e8062000 a4850000  P. ....... .....

Contents of section .loader:
 80000000 97020000 83a20201 82821300 00000100  ................
 80000010 80000000 00000000                    ........        
